
CH32V307-RT-Thread.elf:     file format elf32-littleriscv
CH32V307-RT-Thread.elf
architecture: riscv:rv32, flags 0x00000112:
EXEC_P, HAS_SYMS, D_PAGED
start address 0x00000000

Program Header:
    LOAD off    0x00001000 vaddr 0x00000000 paddr 0x00000000 align 2**12
         filesz 0x000112b8 memsz 0x000112b8 flags r-x
    LOAD off    0x00013000 vaddr 0x20000000 paddr 0x000112b8 align 2**12
         filesz 0x000001f0 memsz 0x00008ec4 flags rw-
    LOAD off    0x00013800 vaddr 0x2000f800 paddr 0x2000f800 align 2**12
         filesz 0x00000000 memsz 0x00000800 flags rw-

Sections:
Idx Name          Size      VMA       LMA       File off  Algn
  0 .init         00000004  00000000  00000000  00001000  2**1
                  CONTENTS, ALLOC, LOAD, READONLY, CODE
  1 .vector       000001bc  00000004  00000004  00001004  2**1
                  CONTENTS, ALLOC, LOAD, READONLY, CODE
  2 .text         000110f8  000001c0  000001c0  000011c0  2**3
                  CONTENTS, ALLOC, LOAD, READONLY, CODE
  3 .fini         00000000  000112b8  000112b8  000131f0  2**0
                  CONTENTS, ALLOC, LOAD, CODE
  4 .dalign       00000000  20000000  20000000  000131f0  2**0
                  CONTENTS
  5 .dlalign      00000000  000112b8  000112b8  000131f0  2**0
                  CONTENTS
  6 .data         000001f0  20000000  000112b8  00013000  2**2
                  CONTENTS, ALLOC, LOAD, DATA
  7 .bss          00008cd4  200001f0  000114a8  000131f0  2**2
                  ALLOC
  8 .stack        00000800  2000f800  2000f800  00013800  2**0
                  ALLOC
  9 .debug_info   0003dace  00000000  00000000  000131f0  2**0
                  CONTENTS, READONLY, DEBUGGING
 10 .debug_abbrev 00008bfa  00000000  00000000  00050cbe  2**0
                  CONTENTS, READONLY, DEBUGGING
 11 .debug_loc    0000f721  00000000  00000000  000598b8  2**0
                  CONTENTS, READONLY, DEBUGGING
 12 .debug_aranges 00001720  00000000  00000000  00068fe0  2**3
                  CONTENTS, READONLY, DEBUGGING
 13 .debug_ranges 000022e8  00000000  00000000  0006a700  2**3
                  CONTENTS, READONLY, DEBUGGING
 14 .debug_line   0002cac8  00000000  00000000  0006c9e8  2**0
                  CONTENTS, READONLY, DEBUGGING
 15 .debug_str    000074c2  00000000  00000000  000994b0  2**0
                  CONTENTS, READONLY, DEBUGGING
 16 .comment      00000033  00000000  00000000  000a0972  2**0
                  CONTENTS, READONLY
 17 .debug_frame  00004688  00000000  00000000  000a09a8  2**2
                  CONTENTS, READONLY, DEBUGGING
SYMBOL TABLE:
00000000 l    d  .init	00000000 .init
00000004 l    d  .vector	00000000 .vector
000001c0 l    d  .text	00000000 .text
000112b8 l    d  .fini	00000000 .fini
20000000 l    d  .dalign	00000000 .dalign
000112b8 l    d  .dlalign	00000000 .dlalign
20000000 l    d  .data	00000000 .data
200001f0 l    d  .bss	00000000 .bss
2000f800 l    d  .stack	00000000 .stack
00000000 l    d  .debug_info	00000000 .debug_info
00000000 l    d  .debug_abbrev	00000000 .debug_abbrev
00000000 l    d  .debug_loc	00000000 .debug_loc
00000000 l    d  .debug_aranges	00000000 .debug_aranges
00000000 l    d  .debug_ranges	00000000 .debug_ranges
00000000 l    d  .debug_line	00000000 .debug_line
00000000 l    d  .debug_str	00000000 .debug_str
00000000 l    d  .comment	00000000 .comment
00000000 l    d  .debug_frame	00000000 .debug_frame
00000000 l    df *ABS*	00000000 ./Startup/startup_ch32v30x_D8C.o
00000004 l       .vector	00000000 _vector_base
00000000 l    df *ABS*	00000000 clock.c
200001f0 l     O .bss	00000004 rt_tick
00000000 l    df *ABS*	00000000 components.c
000004d0 l     F .text	00000004 rti_start
000004d4 l     F .text	00000004 rti_end
000004d8 l     F .text	00000004 rti_board_start
000004dc l     F .text	00000004 rti_board_end
0000bbcc l     O .text	00000014 __FUNCTION__.2479
00000000 l    df *ABS*	00000000 device.c
0000bc60 l     O .text	0000000f __FUNCTION__.2369
0000bc70 l     O .text	0000000f __FUNCTION__.2393
0000bc80 l     O .text	00000010 __FUNCTION__.2398
0000bc90 l     O .text	0000000f __FUNCTION__.2405
0000bca0 l     O .text	00000010 __FUNCTION__.2412
0000bcb0 l     O .text	0000001a __FUNCTION__.2425
00000000 l    df *ABS*	00000000 idle.c
00000976 l     F .text	0000001c rt_thread_idle_entry
200002a4 l     O .bss	00000080 idle
20000324 l     O .bss	00000010 idle_hook_list
20000334 l     O .bss	00000200 rt_thread_stack
0000bda4 l     O .text	00000016 __FUNCTION__.2459
00000000 l    df *ABS*	00000000 ipc.c
000009c8 l     F .text	0000005c rt_ipc_list_suspend
0000bdec l     O .text	0000000c __FUNCTION__.2465
0000bdf8 l     O .text	0000000c __FUNCTION__.2489
0000be04 l     O .text	0000000f __FUNCTION__.2500
00000000 l    df *ABS*	00000000 irq.c
200001f4 l     O .bss	00000004 rt_interrupt_enter_hook
200001f8 l     O .bss	00000004 rt_interrupt_leave_hook
00000000 l    df *ABS*	00000000 kservice.c
00000c90 l     F .text	0000017e print_number
20000534 l     O .bss	00000080 rt_log_buf.2709
0000bfe8 l     O .text	00000011 large_digits.2599
0000c0c4 l     O .text	00000011 small_digits.2598
20000200 l     O .bss	00000004 __rt_errno
20000204 l     O .bss	00000004 _console_device
00000000 l    df *ABS*	00000000 mem.c
00001444 l     F .text	000000b6 plug_holes
200005b4 l     O .bss	00000020 heap_sem
0000c0d8 l     O .text	0000000b __FUNCTION__.2456
0000c0e4 l     O .text	00000014 __FUNCTION__.2465
0000c0f8 l     O .text	0000000a __FUNCTION__.2474
2000020c l     O .bss	00000004 heap_end
20000210 l     O .bss	00000004 heap_ptr
20000214 l     O .bss	00000004 lfree
20000218 l     O .bss	00000004 max_mem
2000021c l     O .bss	00000004 mem_size_aligned
20000220 l     O .bss	00000004 rt_free_hook
20000224 l     O .bss	00000004 rt_malloc_hook
20000228 l     O .bss	00000004 used_mem
200001dc l     O .data	00000008 __FUNCTION__.2503
00000000 l    df *ABS*	00000000 object.c
20000000 l     O .data	00000080 rt_object_container
0000c3e0 l     O .text	0000000f __FUNCTION__.2484
0000c3f0 l     O .text	00000011 __FUNCTION__.2493
0000c404 l     O .text	00000013 __FUNCTION__.2502
0000c418 l     O .text	00000011 __FUNCTION__.2507
0000c42c l     O .text	0000001a __FUNCTION__.2511
0000c448 l     O .text	00000013 __FUNCTION__.2515
2000022c l     O .bss	00000004 rt_object_attach_hook
20000230 l     O .bss	00000004 rt_object_detach_hook
00000000 l    df *ABS*	00000000 scheduler.c
0000c4ac l     O .text	0000001a __FUNCTION__.2443
0000c4c8 l     O .text	0000001a __FUNCTION__.2474
0000c4e4 l     O .text	0000001a __FUNCTION__.2479
20000248 l     O .bss	00000004 rt_scheduler_hook
2000024c l     O .bss	00000002 rt_scheduler_lock_nest
00000000 l    df *ABS*	00000000 thread.c
00001df8 l     F .text	000000a6 _rt_thread_init.isra.0
0000c56c l     O .text	00000010 __FUNCTION__.2462
0000c57c l     O .text	0000000f __FUNCTION__.2474
0000c58c l     O .text	00000012 __FUNCTION__.2481
0000c5a0 l     O .text	00000010 __FUNCTION__.2513
0000c5b0 l     O .text	00000012 __FUNCTION__.2537
0000c5c4 l     O .text	00000011 __FUNCTION__.2542
0000c5d8 l     O .text	00000012 __FUNCTION__.2547
2000025c l     O .bss	00000004 rt_thread_inited_hook
20000260 l     O .bss	00000004 rt_thread_resume_hook
20000264 l     O .bss	00000004 rt_thread_suspend_hook
00000000 l    df *ABS*	00000000 timer.c
00002242 l     F .text	00000012 _rt_timer_remove.part.1
0000c6e0 l     O .text	0000000e __FUNCTION__.2474
0000c6f0 l     O .text	00000010 __FUNCTION__.2479
0000c700 l     O .text	0000000f __FUNCTION__.2503
0000c710 l     O .text	0000000e __FUNCTION__.2520
0000c720 l     O .text	00000011 __FUNCTION__.2526
20000268 l     O .bss	00000004 random_nr.2502
2000026c l     O .bss	00000004 rt_timer_enter_hook
20000270 l     O .bss	00000004 rt_timer_exit_hook
20000274 l     O .bss	00000008 rt_timer_list
00000000 l    df *ABS*	00000000 cpuport.c
00000000 l    df *ABS*	00000000 cmd.c
000025fa l     F .text	00000012 rt_list_len
00002634 l     F .text	00000020 object_split
00002654 l     F .text	00000036 show_wait_queue
0000268a l     F .text	0000003e object_name_maxlen
00000000 l    df *ABS*	00000000 msh.c
00000000 l    df *ABS*	00000000 msh_cmd.c
00000000 l    df *ABS*	00000000 shell.c
00002f40 l     F .text	00000030 finsh_rx_ind
00003044 l     F .text	0000002e shell_handle_history
20000654 l     O .bss	00000081 finsh_prompt.4331
0000d14c l     O .text	0000000e __FUNCTION__.4336
0000d15c l     O .text	0000000d __FUNCTION__.4344
0000d16c l     O .text	00000011 __FUNCTION__.4349
00000000 l    df *ABS*	00000000 serial.c
00003534 l     F .text	00000074 rt_serial_write
000035a8 l     F .text	0000003a rt_serial_init
000035e2 l     F .text	000000d4 rt_serial_open
000036b6 l     F .text	0000008a rt_serial_control
00003740 l     F .text	000000d2 rt_serial_read
00003812 l     F .text	0000006e rt_serial_close
0000d228 l     O .text	00000010 __FUNCTION__.2747
0000d238 l     O .text	0000000f __FUNCTION__.2758
0000d248 l     O .text	0000000f __FUNCTION__.2769
0000d258 l     O .text	0000000f __FUNCTION__.2776
0000d268 l     O .text	00000010 __FUNCTION__.2788
0000d278 l     O .text	0000000f __FUNCTION__.2797
0000d288 l     O .text	00000010 __FUNCTION__.2805
0000d298 l     O .text	00000012 __FUNCTION__.2813
0000d2ac l     O .text	00000016 __FUNCTION__.2828
0000d2c4 l     O .text	00000011 __FUNCTION__.2837
00000000 l    df *ABS*	00000000 pin.c
000039c8 l     F .text	00000036 _pin_control
00003ab4 l     F .text	00000046 _pin_write
00003afa l     F .text	00000042 _pin_read
200006d8 l     O .bss	00000048 _hw_pin
0000d300 l     O .text	0000000a __FUNCTION__.4526
0000d30c l     O .text	0000000b __FUNCTION__.4535
0000d318 l     O .text	0000000d __FUNCTION__.4543
0000d328 l     O .text	0000000c __FUNCTION__.4570
0000d334 l     O .text	0000000d __FUNCTION__.4578
0000d344 l     O .text	0000000c __FUNCTION__.4585
00000000 l    df *ABS*	00000000 board.c
20000720 l     O .bss	00008000 rt_heap
00000000 l    df *ABS*	00000000 delay.c
2000029c l     O .bss	00000002 g_fac_us
00000000 l    df *ABS*	00000000 sdio_sdcard.c
00003c9c l     F .text	00000052 cmd_resp1_error
2000029e l     O .bss	00000001 g_stop_condition
00000000 l    df *ABS*	00000000 lcd.c
00003e2e l     F .text	00000016 lcd_rd_data
00000000 l    df *ABS*	00000000 lcd_ex.c
00000000 l    df *ABS*	00000000 drv_gpio.c
0000761c l     F .text	0000001c bit2bitno
00007638 l     F .text	00000012 GPIOD_CLK_ENABLE
0000764a l     F .text	00000010 GPIOB_CLK_ENABLE
0000765a l     F .text	00000010 GPIOA_CLK_ENABLE
0000766a l     F .text	00000010 GPIOC_CLK_ENABLE
0000767a l     F .text	00000012 GPIOE_CLK_ENABLE
000103e8 l     O .text	00000018 _ch32_pin_ops
00010400 l     O .text	00000080 pin_irq_map
00010480 l     O .text	00000650 pins
00000000 l    df *ABS*	00000000 drv_usart.c
00007bba l     F .text	00000102 ch32_configure
00007d80 l     F .text	0000003c ch32_getc
00007dbc l     F .text	0000003c ch32_putc
00007df8 l     F .text	0000007c ch32_control
00010ae4 l     O .text	0000000f __FUNCTION__.6459
00010af4 l     O .text	0000000d __FUNCTION__.6480
00010b04 l     O .text	0000000a __FUNCTION__.6489
00010b10 l     O .text	0000000a __FUNCTION__.6498
00010b1c l     O .text	00000009 __FUNCTION__.6509
00010b4c l     O .text	00000014 ch32_uart_ops
00000000 l    df *ABS*	00000000 rainbow.c
00007ed8 l     F .text	000000ca rainbow_thread_entry
200087b4 l     O .bss	0000005a led_data
20008810 l     O .bss	00000010 rainbow_ctrl
00000000 l    df *ABS*	00000000 ws2812.c
20008820 l     O .bss	0000005a led_rgb_data
2000887c l     O .bss	00000604 pwm_data
00000000 l    df *ABS*	00000000 lcd_rt.c
00008444 l     F .text	00000004 lcd_open
00008448 l     F .text	00000004 lcd_close
0000844c l     F .text	00000004 lcd_read
00008450 l     F .text	0000000e lcd_rt_init
000084c6 l     F .text	00000004 lcd_write
0000850c l     F .text	0000003a lcd_control
20008e80 l     O .bss	00000044 lcd_device
00000000 l    df *ABS*	00000000 ch32v30x_it.c
00000000 l    df *ABS*	00000000 main.c
00008586 l     F .text	00000044 str_to_int
000085ca l     F .text	00000022 cmd_rainbow
000085ec l     F .text	0000000e cmd_rainbow_stop
000085fa l     F .text	00000036 cmd_brightness
00008630 l     F .text	00000018 lcd_show_entry
00000000 l    df *ABS*	00000000 system_ch32v30x.c
00000000 l    df *ABS*	00000000 ch32v30x_dbgmcu.c
00000000 l    df *ABS*	00000000 ch32v30x_dma.c
00000000 l    df *ABS*	00000000 ch32v30x_exti.c
00000000 l    df *ABS*	00000000 ch32v30x_fsmc.c
00000000 l    df *ABS*	00000000 ch32v30x_gpio.c
00000000 l    df *ABS*	00000000 ch32v30x_rcc.c
20000150 l     O .data	00000010 APBAHBPrescTable
200001c8 l     O .data	00000004 ADCPrescTable
00000000 l    df *ABS*	00000000 ch32v30x_sdio.c
00000000 l    df *ABS*	00000000 ch32v30x_tim.c
00000000 l    df *ABS*	00000000 ch32v30x_usart.c
00000000 l    df *ABS*	00000000 wf_fmod.c
00000000 l    df *ABS*	00000000 ef_fmod.c
200001e4 l     O .data	00000008 Zero
00000000 l    df *ABS*	00000000 s_matherr.c
00000000 l    df *ABS*	00000000 divdf3.c
00000000 l    df *ABS*	00000000 muldf3.c
00000000 l    df *ABS*	00000000 subdf3.c
00000000 l    df *ABS*	00000000 fixunsdfsi.c
00000000 l    df *ABS*	00000000 floatsidf.c
00000000 l    df *ABS*	00000000 addsf3.c
00000000 l    df *ABS*	00000000 divsf3.c
00000000 l    df *ABS*	00000000 eqsf2.c
00000000 l    df *ABS*	00000000 gesf2.c
00000000 l    df *ABS*	00000000 lesf2.c
00000000 l    df *ABS*	00000000 mulsf3.c
00000000 l    df *ABS*	00000000 subsf3.c
00000000 l    df *ABS*	00000000 unordsf2.c
00000000 l    df *ABS*	00000000 fixsfsi.c
00000000 l    df *ABS*	00000000 fixunssfsi.c
00000000 l    df *ABS*	00000000 floatsisf.c
00000000 l    df *ABS*	00000000 floatunsisf.c
00000000 l    df *ABS*	00000000 extendsfdf2.c
00000000 l    df *ABS*	00000000 truncdfsf2.c
00000000 l    df *ABS*	00000000 libgcc2.c
00000000 l    df *ABS*	00000000 errno.c
00000000 l    df *ABS*	00000000 memcmp.c
00000000 l    df *ABS*	00000000 memcpy.c
00000000 l    df *ABS*	00000000 strcat.c
00000000 l    df *ABS*	00000000 strcpy.c
00000000 l    df *ABS*	00000000 strlen.c
00000000 l    df *ABS*	00000000 strncmp.c
00000000 l    df *ABS*	00000000 libgcc2.c
00000000 l    df *ABS*	00000000 impure.c
20000160 l     O .data	00000060 impure_data
00000000 l    df *ABS*	00000000 s_lib_ver.c
00000000 l    df *ABS*	00000000 symbol.c
00005e34 g     F .text	00000230 lcd_ex_st7796_reginit
00007a46 g     F .text	00000028 EXTI2_IRQHandler
00008924  w      .text	00000000 TIM8_TRG_COM_IRQHandler
00001772 g     F .text	00000024 rt_calloc
00008924  w      .text	00000000 TIM8_CC_IRQHandler
000111d0 g     O .text	0000000c __fsym_list_thread
000005dc g     F .text	0000000a entry
0000bb30 g     F .text	00000010 strcpy
000026c8 g     F .text	000000e4 list_thread
00003108 g     F .text	0000042c finsh_thread_entry
00001b14 g     F .text	00000028 rt_object_is_systemobject
0000bc00 g     O .text	0000000a __rti_rti_start_name
00000efa g     F .text	0000002c rt_strncpy
00009302 g     F .text	000000ca fmodf
00002570 g     F .text	00000036 rt_hw_stack_init
00002124 g     F .text	00000010 rt_thread_mdelay
00008b66 g     F .text	00000014 DMA_Cmd
00008924  w      .text	00000000 UART8_IRQHandler
00002cd8 g     F .text	000001aa msh_exec
0000cd84 g     O .text	0000000d __fsym_list_mailbox_name
000019fe g     F .text	000000aa rt_object_allocate
00008216 g     F .text	000000ea ws2812_update
00011230 g     O .text	0000000c __fsym_pinRead
0000bee8 g     O .text	00000100 __lowest_bit_bitmap
200009c0 g       .data	00000000 __global_pointer$
00001b92 g     F .text	0000002c rt_system_scheduler_start
0000037a g     F .text	00000028 .hidden __riscv_save_8
00008924  w      .text	00000000 TIM1_CC_IRQHandler
0000bbe0 g     O .text	0000000e __rti_rti_board_end_name
20000280 g     O .bss	00000004 rt_interrupt_to_thread
0000903a g     F .text	00000008 SDIO_ClearFlag
00008566 g     F .text	00000020 HardFault_Handler
00003e7a g     F .text	00000012 lcd_write_ram_prepare
0000ce7c g     O .text	00000009 __fsym_list_sem_name
000013e0 g     F .text	00000032 rt_assert_handler
000003c6 g     F .text	0000000c .hidden __riscv_restore_3
00008924  w      .text	00000000 TIM6_IRQHandler
0000aaec g     F .text	000002b2 .hidden __divsf3
000091be g     F .text	0000000e TIM_OC1PreloadConfig
00000882 g     F .text	00000048 rt_device_set_rx_indicate
00003c1a g     F .text	00000020 SysTick_Handler
00001796 g     F .text	00000162 rt_free
00010e40 g     O .text	00000015 __fsym___cmd_cmd_brightness_name
2000027c g     O .bss	00000004 rt_interrupt_from_thread
000014fa g     F .text	000000b6 rt_system_heap_init
00008924  w      .text	00000000 PVD_IRQHandler
00000564 g     F .text	0000000c main_thread_entry
00003e26 g     F .text	00000008 SDIO_IRQHandler
00008924  w      .text	00000000 TIM9_BRK_IRQHandler
0000cf34 g     O .text	00000007 __fsym_reboot_name
000024ec g     F .text	00000078 rt_timer_check
000003b2 g     F .text	00000020 .hidden __riscv_restore_10
00001c90 g     F .text	00000060 rt_schedule_insert_thread
000027ac g     F .text	000000b6 list_sem
0000067c g     F .text	000000d2 rt_device_open
00008924  w      .text	00000000 DMA2_Channel8_IRQHandler
00008546 g     F .text	00000020 NMI_Handler
0000b564 g     F .text	00000062 .hidden __fixsfsi
00008924  w      .text	00000000 CAN2_RX1_IRQHandler
00007a6e g     F .text	00000028 EXTI3_IRQHandler
0000037a g     F .text	00000028 .hidden __riscv_save_11
0000d44c g     O .text	00000474 asc2_1206
000089b8 g     F .text	0000000a DBGMCU_GetCHIPID
00002c32 g     F .text	0000004a list
0000c16c g     O .text	00000009 __fsym_list_mem_name
20000294 g     O .bss	00000004 _sysvar_table_begin
0000cdac g     O .text	00000011 __fsym___cmd_list_mutex_name
0000ba34 g     F .text	00000008 __errno
000112b8 g       .text	00000000 __rtmsymtab_start
00009198 g     F .text	0000000c TIM_DMACmd
00008924  w      .text	00000000 USBHS_IRQHandler
00010cc8 g     O .text	0000000d __rti_lcd_drv_init_name
000092a8 g     F .text	0000000a USART_GetFlagStatus
00008924  w      .text	00000000 DMA2_Channel9_IRQHandler
000008ca g     F .text	000000ac rt_thread_idle_excute
00002026 g     F .text	00000082 rt_thread_suspend
000012ec g     F .text	00000068 rt_kprintf
00008924  w      .text	00000000 TIM10_CC_IRQHandler
00000c8a g     F .text	00000006 rt_interrupt_get_nest
200001f0 g       .bss	00000000 _sbss
00000800 g       *ABS*	00000000 __stack_size
00008b2e g     F .text	00000038 DMA_Init
0000b1a0 g     F .text	00000388 .hidden __subsf3
00001e9e g     F .text	00000084 rt_thread_timeout
0000ced4 g     O .text	0000000c __fsym___cmd_clear_name
00002f32 g     F .text	0000000e cmd_free
00011254 g     O .text	0000000c __fsym___cmd_cmd_brightness
00008924  w      .text	00000000 USBFS_IRQHandler
0000ce10 g     O .text	00000015 __fsym_list_event_desc
00011158 g     O .text	0000000c __fsym_list_msgqueue
00011278 g       .text	00000000 __rt_init_start
00002990 g     F .text	000000be list_mailbox
000003c6 g     F .text	0000000c .hidden __riscv_restore_2
00007482 g     F .text	0000019a lcd_ex_ssd1963_reginit
0000d3b0 g     O .text	00000016 __fsym_pinMode_desc
00011278 g       .text	00000000 __fsymtab_end
00003a3c g     F .text	0000003e rt_pin_write
0000cec0 g     O .text	00000014 __fsym___cmd_clear_desc
00008d18 g     F .text	0000001e FSMC_NORSRAMCmd
000007ba g     F .text	00000064 rt_device_read
20000288 g     O .bss	00000004 shell
0000ba60 g     F .text	000000b2 memcpy
0000a710 g     F .text	00000072 .hidden __floatsidf
00002f70 g     F .text	00000098 finsh_system_init
0000051c g     F .text	00000048 rt_components_init
000079f6 g     F .text	00000028 EXTI0_IRQHandler
00008924  w      .text	00000000 I2C2_EV_IRQHandler
00008924  w      .text	00000000 TIM10_TRG_COM_IRQHandler
0000916e g     F .text	00000018 TIM_Cmd
00002254 g     F .text	00000052 rt_timer_init
000112b8 g       .text	00000000 __rt_init_end
000041fa g     F .text	00000142 lcd_display_dir
00000992 g     F .text	00000036 rt_thread_idle_init
00008008 g     F .text	0000004a rainbow_start
200001c4 g     O .data	00000004 SystemCoreClock
00008300 g     F .text	00000144 ws2812_init
0000902c g     F .text	0000000e SDIO_GetFlagStatus
00011188 g     O .text	0000000c __fsym_list_mutex
20000290 g     O .bss	00000004 _syscall_table_end
2000879c g     O .bss	00000018 uart1
00003f86 g     F .text	00000206 lcd_scan_dir
00001b64 g     F .text	0000002e rt_system_scheduler_init
00010e6c g     O .text	00000017 __fsym___cmd_cmd_rainbow_stop_name
000005e6 g     F .text	00000062 rt_device_find
000001c0 g       .text	00000000 rt_hw_context_switch_to
00006064 g     F .text	0000105a lcd_ex_nt35510_reginit
000048a4 g     F .text	000001f4 lcd_ex_st7789_reginit
00000004 g       .init	00000000 _einit
20000284 g     O .bss	00000004 rt_thread_switch_interrupt_flag
00008b7a g     F .text	00000004 DMA_SetCurrDataCounter
0000ae80 g     F .text	0000008c .hidden __lesf2
00008fce g     F .text	0000001e RCC_APB2PeriphClockCmd
0000a6b4 g     F .text	0000005c .hidden __fixunsdfsi
00000372 g     F .text	00000030 .hidden __riscv_save_12
00008924  w      .text	00000000 CAN2_SCE_IRQHandler
00008924  w      .text	00000000 ADC1_2_IRQHandler
00010b28 g     O .text	00000011 __rti_rt_hw_usart_init_name
00008d36 g     F .text	000000c0 GPIO_Init
0000ce50 g     O .text	0000000f __fsym___cmd_list_sem_name
00008924  w      .text	00000000 Break_Point_Handler
0001114c g     O .text	0000000c __fsym___cmd_list_msgqueue
0000cc18 g     O .text	0000001a __fsym_list_desc
0000bbf0 g     O .text	00000010 __rti_rti_board_start_name
000003b2 g     F .text	00000020 .hidden __riscv_restore_11
00008924  w      .text	00000000 SPI1_IRQHandler
00003880 g     F .text	00000086 rt_hw_serial_register
0000925c g     F .text	00000016 USART_Cmd
0000cc34 g     O .text	00000005 __fsym_list_name
000025d6 g     F .text	00000024 rt_hw_context_switch_interrupt
0000cf10 g     O .text	0000000d __fsym___cmd_reboot_name
00008924  w      .text	00000000 TAMPER_IRQHandler
000003a2 g     F .text	0000000c .hidden __riscv_save_1
0000deb0 g     O .text	00000d5c asc2_2412
000003c6 g     F .text	0000000c .hidden __riscv_restore_0
0000ce88 g     O .text	0000000c __fsym___cmd_list_thread_desc
0000cef4 g     O .text	00000006 __fsym_clear_name
00001f8c g     F .text	00000048 rt_thread_create
00011298 g     O .text	00000008 __rt_init_desc_rti_board_end
00000388 g     F .text	0000001a .hidden __riscv_save_7
000112b8 g       .text	00000000 __rtmsymtab_end
0000ccd0 g     O .text	0000000b __fsym_list_timer_name
000092ee g     F .text	00000014 USART_ClearITPendingBit
00008924  w      .text	00000000 CAN2_RX0_IRQHandler
00001fd4 g     F .text	00000052 rt_thread_yield
0000b7b0 g     F .text	000000ac .hidden __extendsfdf2
00008924  w      .text	00000000 TIM8_UP_IRQHandler
00000570 g     F .text	00000044 rt_application_init
00008fec g     F .text	0000001e RCC_APB1PeriphClockCmd
0000ad9e g     F .text	0000005c .hidden __nesf2
00008924  w      .text	00000000 Ecall_M_Mode_Handler
000015b0 g     F .text	000001c2 rt_malloc
2000f800 g       .stack	00000000 _heap_end
200001cc g     O .data	00000004 __fdlib_version
200002a0 g     O .bss	00000004 g_transfer_error
00000bb0 g     F .text	0000007e rt_sem_release
000111b8 g     O .text	0000000c __fsym_list_sem
000003bc g     F .text	00000016 .hidden __riscv_restore_5
00010e58 g     O .text	00000014 __fsym___cmd_cmd_rainbow_stop_desc
00003b90  w    F .text	0000000a rt_heap_begin_get
00011288 g     O .text	00000008 __rt_init_desc_rt_hw_pin_init
00008924  w      .text	00000000 DMA2_Channel2_IRQHandler
00011110 g     O .text	0000000c __fsym_list
00008fb0 g     F .text	0000001e RCC_AHBPeriphClockCmd
00008924  w      .text	00000000 DMA1_Channel4_IRQHandler
000025a6 g     F .text	00000010 sw_setpend
0000433c g     F .text	00000036 lcd_clear
20000080 g     O .data	000000c0 pin_irq_hdr_tab
0000ce94 g     O .text	00000012 __fsym___cmd_list_thread_name
0000d3c8 g     O .text	00000008 __fsym_pinMode_name
000111f4 g     O .text	0000000c __fsym___cmd_reboot
0000cd6c g     O .text	00000018 __fsym_list_mailbox_desc
0000418c g     F .text	00000022 lcd_draw_point
000022a6 g     F .text	00000078 rt_timer_detach
00008924  w      .text	00000000 TIM9_UP_IRQHandler
00008b7e g     F .text	00000032 DMA_GetFlagStatus
00002cd4 g     F .text	00000004 msh_is_used
000003bc g     F .text	00000016 .hidden __riscv_restore_6
00008924  w      .text	00000000 USART3_IRQHandler
00008c64 g     F .text	0000000a EXTI_ClearITPendingBit
000004e0 g     F .text	0000003c rt_components_board_init
00008924  w      .text	00000000 RTC_IRQHandler
0000cf20 g     O .text	00000011 __fsym_reboot_desc
00001354 g     F .text	0000003e rt_show_version
20008ec4 g       .bss	00000000 _ebss
000092b2 g     F .text	0000003c USART_GetITStatus
00008924  w      .text	00000000 DMA1_Channel7_IRQHandler
000090ec g     F .text	00000082 TIM_OC1Init
00004738 g     F .text	000000fc lcd_show_char
00003ba4 g     F .text	00000076 rt_hw_board_init
00003b3c g     F .text	00000054 rt_device_pin_register
000111dc g     O .text	0000000c __fsym___cmd_clear
00008924  w      .text	00000000 CAN1_RX1_IRQHandler
00002134 g     F .text	00000084 rt_thread_resume
000005b4 g     F .text	00000028 rtthread_startup
00007818 g     F .text	0000005a ch32_pin_dettach_irq
00008924  w      .text	00000000 DVP_IRQHandler
00008924  w      .text	00000000 UART5_IRQHandler
00011290 g     O .text	00000008 __rt_init_desc_rt_hw_usart_init
00003e6e g     F .text	0000000c lcd_write_reg
0000cd30 g     O .text	0000000e __fsym_list_msgqueue_name
0000246a g     F .text	00000082 rt_timer_control
0000adfa g     F .text	00000086 .hidden __gtsf2
000018f8 g     F .text	0000002a rt_object_get_information
200005d4 g     O .bss	00000080 rt_thread_priority_table
00008e00 g     F .text	00000004 GPIO_SetBits
20008744 g     O .bss	00000058 serial1
00008924  w      .text	00000000 TIM4_IRQHandler
0000d360 g     O .text	0000001e __fsym_pinRead_desc
0000261e g     F .text	00000016 clear
20000234 g     O .bss	00000004 rt_object_put_hook
000091a4 g     F .text	0000001a TIM_ARRPreloadConfig
0000037a g     F .text	00000028 .hidden __riscv_save_9
00008e04 g     F .text	0000000a GPIO_WriteBit
0000bb12 g     F .text	0000001e strcat
00001d9e g     F .text	0000005a rt_thread_exit
00008924  w      .text	00000000 DMA2_Channel1_IRQHandler
0000cde4 g     O .text	00000015 __fsym___cmd_list_event_desc
00000648 g     F .text	00000034 rt_device_register
00000eb2 g     F .text	00000048 rt_memmove
000112a8 g     O .text	00000008 __rt_init_desc_finsh_system_init
00000388 g     F .text	0000001a .hidden __riscv_save_4
000079d2 g     F .text	00000024 HAL_GPIO_EXTI_Callback
0000260c g     F .text	00000012 reboot
00008924  w      .text	00000000 I2C1_EV_IRQHandler
00011164 g     O .text	0000000c __fsym___cmd_list_mailbox
00008e3a g     F .text	00000176 RCC_GetClocksFreq
0000d3a4 g     O .text	00000009 __fsym_pinWrite_name
00008924  w      .text	00000000 DMA1_Channel6_IRQHandler
0000b9c6 g     F .text	0000006e .hidden __clzsi2
00002a4e g     F .text	000000b6 list_msgqueue
00008924  w      .text	00000000 UART4_IRQHandler
00008924  w      .text	00000000 DMA2_Channel4_IRQHandler
000091cc g     F .text	00000090 USART_Init
00008924  w      .text	00000000 TIM3_IRQHandler
00008924  w      .text	00000000 RCC_IRQHandler
00000f50 g     F .text	00000012 rt_strlen
000003a2 g     F .text	0000000c .hidden __riscv_save_3
00008924  w      .text	00000000 TIM1_TRG_COM_IRQHandler
00011200 g     O .text	0000000c __fsym_reboot
0001120c g     O .text	0000000c __fsym___cmd_help
200001d4 g     O .data	00000008 __rti_rti_end_name
00008924  w      .text	00000000 DMA1_Channel1_IRQHandler
20000240 g     O .bss	00000001 rt_current_priority
00007708 g     F .text	0000007e ch32_pin_mode
00011134 g     O .text	0000000c __fsym___cmd_list_timer
00000000 g       .init	00000000 _start
0000cd40 g     O .text	00000018 __fsym___cmd_list_mailbox_desc
00008924  w      .text	00000000 DMA2_Channel7_IRQHandler
20000140 g     O .data	00000010 AHBPrescTable
00002862 g     F .text	000000ac list_event
0000b61c g     F .text	000000c6 .hidden __floatsisf
00007b36 g     F .text	00000080 EXTI15_10_IRQHandler
00009186 g     F .text	00000012 TIM_ITConfig
0000845e g     F .text	00000068 lcd_drv_init
0000bb52 g     F .text	00000028 strncmp
000039fe g     F .text	0000003e rt_pin_mode
00009272 g     F .text	00000036 USART_ITConfig
00011248 g     O .text	0000000c __fsym_pinMode
0000cc3c g     O .text	00000016 __fsym___cmd_list_device_desc
00011260 g     O .text	0000000c __fsym___cmd_cmd_rainbow_stop
00008bdc g     F .text	0000006a EXTI_Init
00011128 g     O .text	0000000c __fsym_list_device
0000806e g     F .text	0000002c rainbow_set_brightness
0001117c g     O .text	0000000c __fsym___cmd_list_mutex
0000ad9e g     F .text	0000005c .hidden __eqsf2
00010e20 g     O .text	0000001f __fsym___cmd_cmd_brightness_desc
00003a7a g     F .text	0000003a rt_pin_read
0000d0e8 g     O .text	0000000b __fsym___cmd_help_name
00000480 g     F .text	00000028 rt_tick_increase
00001412 g     F .text	00000032 list_mem
0000d124 g     O .text	0000001b __fsym___cmd_ps_desc
00008924  w      .text	00000000 TIM7_IRQHandler
0000cdc0 g     O .text	00000015 __fsym_list_mutex_desc
000023fe g     F .text	0000006c rt_timer_stop
00008924  w      .text	00000000 CAN2_TX_IRQHandler
000084ca g     F .text	0000000c lcd_hw_init
0000d0f4 g     O .text	00000024 __fsym___cmd_free_desc
20000000 g       .dalign	00000000 _data_vma
00000f62 g     F .text	00000354 rt_vsnprintf
000111c4 g     O .text	0000000c __fsym___cmd_list_thread
00008924  w      .text	00000000 TIM5_IRQHandler
0000ba3c g     F .text	00000024 memcmp
00004d2c g     F .text	00001108 lcd_ex_nt35310_reginit
0000900a g     F .text	00000022 SDIO_SendCommand
000076c8 g     F .text	00000022 ch32_pin_write
00008c6e g     F .text	000000aa FSMC_NORSRAMInit
00007abe g     F .text	00000078 EXTI9_5_IRQHandler
0000cee0 g     O .text	00000014 __fsym_clear_desc
00007fa2 g     F .text	00000066 rainbow_init
0000950a g     F .text	000005b4 .hidden __divdf3
000025b6 g     F .text	0000000e sw_clearpend
000004a8 g     F .text	00000028 rt_tick_from_millisecond
2000028c g     O .bss	00000004 _syscall_table_begin
00003b9a  w    F .text	0000000a rt_heap_end_get
00008e0e g     F .text	0000002c GPIO_EXTILineConfig
00009abe g     F .text	000004b8 .hidden __muldf3
0000037a g     F .text	00000028 .hidden __riscv_save_10
00007bb6 g     F .text	00000004 ch32dma_transmit
00003c3a g     F .text	0000002c delay_us
00003008 g     F .text	0000003c finsh_get_prompt
00008924  w      .text	00000000 ETH_WKUP_IRQHandler
000093cc g     F .text	0000013a __ieee754_fmodf
000003bc g     F .text	00000016 .hidden __riscv_restore_4
00010e84 g     O .text	00000021 __fsym___cmd_cmd_rainbow_desc
000003b2 g     F .text	00000020 .hidden __riscv_restore_8
00001392 g     F .text	0000004e __rt_ffs
00000388 g     F .text	0000001a .hidden __riscv_save_6
00008c46 g     F .text	0000001e EXTI_GetITStatus
00008924  w      .text	00000000 SPI2_IRQHandler
00002e82 g     F .text	000000a2 msh_auto_complete
20000298 g     O .bss	00000004 _sysvar_table_end
00001d4e g     F .text	0000001a rt_enter_critical
000020a8 g     F .text	0000007c rt_thread_sleep
000003d2 g     F .text	000000a8 memset
000003b2 g     F .text	00000020 .hidden __riscv_restore_9
00004372 g     F .text	000003c6 lcd_init
000003bc g     F .text	00000016 .hidden __riscv_restore_7
00008648 g     F .text	000000b8 main
00003c66 g     F .text	00000036 delay_ms
0000d8c0 g     O .text	000005f0 asc2_1608
0000d0d0 g     O .text	00000015 __fsym___cmd_help_desc
00008924  w      .text	00000000 TIM10_BRK_IRQHandler
20000208 g     O .bss	00000004 rt_assert_hook
00000c5c g     F .text	0000002e rt_interrupt_leave
0000ae80 g     F .text	0000008c .hidden __ltsf2
00008924  w      .text	00000000 TIM9_CC_IRQHandler
00003e44 g     F .text	00000014 lcd_wr_data
0000cca4 g     O .text	00000011 __fsym___cmd_list_timer_name
00009506 g     F .text	00000004 matherr
00008924  w      .text	00000000 DMA2_Channel5_IRQHandler
0000256e g     F .text	00000002 rt_system_timer_thread_init
0000b85c g     F .text	0000016a .hidden __truncdfsf2
00001f22 g     F .text	00000064 rt_thread_init
2000029f g     O .bss	00000001 g_transfer_end
0000cc8c g     O .text	00000015 __fsym___cmd_list_timer_desc
00011278 g       .text	00000000 __vsymtab_start
00008924  w      .text	00000000 DMA1_Channel5_IRQHandler
00007a96 g     F .text	00000028 EXTI4_IRQHandler
0000ce34 g     O .text	00000019 __fsym___cmd_list_sem_desc
200001fc g     O .bss	00000001 rt_interrupt_nest
00008924  w      .text	00000000 USB_LP_CAN1_RX0_IRQHandler
0000cefc g     O .text	00000011 __fsym___cmd_reboot_desc
0000cd94 g     O .text	00000015 __fsym___cmd_list_mutex_desc
000012ea  w    F .text	00000002 rt_hw_console_output
0000af0c g     F .text	00000294 .hidden __mulsf3
00003e58 g     F .text	00000016 lcd_wr_regno
20000238 g     O .bss	00000004 rt_object_take_hook
00002b98 g     F .text	0000009a list_timer
0000ccdc g     O .text	0000001d __fsym___cmd_list_msgqueue_desc
00008700 g     F .text	000000fa SystemInit
00008924  w      .text	00000000 RNG_IRQHandler
0000d118 g     O .text	0000000b __fsym___cmd_free_name
000025c4 g     F .text	0000000c rt_hw_interrupt_disable
000021b8 g     F .text	0000008a rt_thread_startup
20000244 g     O .bss	00000004 rt_current_thread
000012b6 g     F .text	00000006 rt_console_get_device
000112b0 g     O .text	00000008 __rt_init_desc_rti_end
000112a0 g     O .text	00000008 __rt_init_desc_lcd_drv_init
00008924  w      .text	00000000 USB_HP_CAN1_TX_IRQHandler
00011004 g     O .text	00000100 .hidden __clz_tab
00000000 g       .init	00000000 _sinit
20008734 g     O .bss	0000000e lcddev
00003e8c g     F .text	000000fa lcd_set_cursor
0000cdd8 g     O .text	0000000b __fsym_list_mutex_name
0000adfa g     F .text	00000086 .hidden __gesf2
00008924  w      .text	00000000 DMA1_Channel3_IRQHandler
20000258 g     O .bss	00000004 rt_thread_ready_priority_group
00008924  w      .text	00000000 ETH_IRQHandler
00011218 g     O .text	0000000c __fsym___cmd_free
200001d0 g     O .data	00000004 _impure_ptr
00008924  w      .text	00000000 TIM1_UP_IRQHandler
0000cd58 g     O .text	00000013 __fsym___cmd_list_mailbox_name
0000cc54 g     O .text	00000012 __fsym___cmd_list_device_name
20000250 g     O .bss	00000008 rt_thread_defunct
00008924  w      .text	00000000 WWDG_IRQHandler
0001123c g     O .text	0000000c __fsym_pinWrite
00011278 g     O .text	00000008 __rt_init_desc_rti_start
00000a24 g     F .text	0000005e rt_sem_init
00000236 g       .text	00000000 rt_hw_context_switch_exit
00008924  w      .text	00000000 USBHSWakeup_IRQHandler
00008052 g     F .text	0000001c rainbow_stop
00000e2a g     F .text	00000088 rt_memset
00008924  w      .text	00000000 DMA2_Channel11_IRQHandler
00002b04 g     F .text	00000094 list_device
00008924  w      .text	00000000 Ecall_U_Mode_Handler
00011170 g     O .text	0000000c __fsym_list_mailbox
00000f26 g     F .text	0000002a rt_strncmp
00011194 g     O .text	0000000c __fsym___cmd_list_event
00008924  w      .text	00000000 DMA2_Channel6_IRQHandler
00011278 g       .text	00000000 __vsymtab_end
0000d380 g     O .text	00000008 __fsym_pinRead_name
0000d140 g     O .text	00000009 __fsym___cmd_ps_name
00011140 g     O .text	0000000c __fsym_list_timer
00008924  w      .text	00000000 TIM2_IRQHandler
20010000 g       .stack	00000000 _eusrstack
000003a2 g     F .text	0000000c .hidden __riscv_save_2
000019b6 g     F .text	00000048 rt_object_detach
00000290 g       .text	00000000 SW_Handler
00004834 g     F .text	00000070 lcd_show_string
000103d8 g     O .text	0000000f __rti_rt_hw_pin_init_name
00000e0e g     F .text	0000001c rt_set_errno
00002564 g     F .text	0000000a rt_system_timer_init
00010ea8 g     O .text	00000012 __fsym___cmd_cmd_rainbow_name
00008924  w      .text	00000000 TIM1_BRK_IRQHandler
00001cf0 g     F .text	0000005e rt_schedule_remove_thread
00000c2e g     F .text	0000002e rt_interrupt_enter
000084d6 g     F .text	00000036 lcd_hw_show_string
00008924  w      .text	00000000 DMA2_Channel10_IRQHandler
0000809a g     F .text	0000017c ws2812_hsv_to_rgb
00007a1e g     F .text	00000028 EXTI1_IRQHandler
00003cee g     F .text	00000138 sd_process_irq_src
000025d0 g     F .text	00000006 rt_hw_interrupt_enable
00000388 g     F .text	0000001a .hidden __riscv_save_5
00011104 g     O .text	0000000c __fsym_list_mem
200001f0 g       .data	00000000 _edata
0000d180 g     O .text	00000012 __rti_finsh_system_init_name
000070be g     F .text	000003c4 lcd_ex_ili9806_reginit
0001111c g     O .text	0000000c __fsym___cmd_list_device
20008ec4 g       .bss	00000000 _end
0000b528 g     F .text	0000003c .hidden __unordsf2
0000ccfc g     O .text	00000014 __fsym___cmd_list_msgqueue_name
0000ec0c g     O .text	000017c0 asc2_3216
00001d68 g     F .text	00000036 rt_exit_critical
00009042 g     F .text	000000aa TIM_TimeBaseInit
00008924  w      .text	00000000 RTCAlarm_IRQHandler
0000290e g     F .text	00000082 list_mutex
00002f24 g     F .text	0000000e cmd_ps
000112b8 g       .dlalign	00000000 _data_lma
00003072 g     F .text	00000096 finsh_set_device
00008924  w      .text	00000000 TIM10_UP_IRQHandler
00008924  w      .text	00000000 TIM9_TRG_COM_IRQHandler
00008924  w      .text	00000000 UART7_IRQHandler
000076a8 g     F .text	00000020 get_pin
00008924  w      .text	00000000 USART2_IRQHandler
00008924  w      .text	00000000 UART6_IRQHandler
0000074e g     F .text	0000006c rt_device_close
00001f86 g     F .text	00000006 rt_thread_self
0000cc68 g     O .text	00000016 __fsym_list_device_desc
000087fa g     F .text	0000012a SystemCoreClockUpdate
0000b6e2 g     F .text	000000ce .hidden __floatunsisf
20008720 g     O .bss	00000014 g_sdio_cmd_struct
0000cea8 g     O .text	0000000c __fsym_list_thread_desc
00008924  w      .text	00000000 I2C2_ER_IRQHandler
00008924  w      .text	00000000 DMA1_Channel2_IRQHandler
00001aa8 g     F .text	0000006c rt_object_delete
00007cbc g     F .text	000000c4 rt_hw_usart_init
0000047a g     F .text	00000006 rt_tick_get
000003ae g     F .text	00000024 .hidden __riscv_restore_12
00008924  w      .text	00000000 TIM8_BRK_IRQHandler
00008bb0 g     F .text	0000002c DMA_ClearFlag
0000ce28 g     O .text	0000000b __fsym_list_event_name
00008926  w      .text	00000000 handle_reset
00008924  w      .text	00000000 CAN1_SCE_IRQHandler
0000b5c6 g     F .text	00000056 .hidden __fixunssfsi
000111a0 g     O .text	0000000c __fsym_list_event
2000023c g     O .bss	00000004 rt_object_trytake_hook
00008924  w      .text	00000000 FLASH_IRQHandler
000003a2 g     F .text	0000000c .hidden __riscv_save_0
0000cdfc g     O .text	00000011 __fsym___cmd_list_event_name
0000c14c g     O .text	0000001e __fsym_list_mem_desc
00000a82 g     F .text	0000012e rt_sem_take
0001126c g     O .text	0000000c __fsym___cmd_cmd_rainbow
00007e74 g     F .text	00000064 USART1_IRQHandler
000111ac g     O .text	0000000c __fsym___cmd_list_sem
00011280 g     O .text	00000008 __rt_init_desc_rti_board_start
0000bb40 g     F .text	00000012 strlen
00008924  w      .text	00000000 SPI3_IRQHandler
0000ccb8 g     O .text	00000015 __fsym_list_timer_desc
200001c0 g     O .data	00000004 g_back_color
000012bc g     F .text	0000002e rt_console_set_device
00007786 g     F .text	00000092 ch32_pin_attach_irq
00008924  w      .text	00000000 I2C1_ER_IRQHandler
000089c2 g     F .text	0000016c DMA_DeInit
0000081e g     F .text	00000064 rt_device_write
0000ceb4 g     O .text	0000000c __fsym_list_thread_name
00011104 g       .text	00000000 __fsymtab_start
000003c6 g     F .text	0000000c .hidden __riscv_restore_1
0000768c g     F .text	0000001c rt_hw_pin_init
00009f76 g     F .text	0000073e .hidden __subdf3
000111e8 g     O .text	0000000c __fsym_clear
00001bbe g     F .text	000000d2 rt_schedule
00001922 g     F .text	00000094 rt_object_init
000076ea g     F .text	0000001e ch32_pin_read
00011224 g     O .text	0000000c __fsym___cmd_ps
00008df6 g     F .text	0000000a GPIO_ReadInputDataBit
0000d388 g     O .text	0000001c __fsym_pinWrite_desc
00001b3c g     F .text	00000028 rt_object_get_type
00004a98 g     F .text	00000294 lcd_ex_ili9341_reginit
0000231e g     F .text	000000e0 rt_timer_start
0000a782 g     F .text	0000036a .hidden __addsf3
00002c7c g     F .text	00000058 msh_help
00003906 g     F .text	000000c2 rt_hw_serial_isr
00008924  w      .text	00000000 USBWakeUp_IRQHandler
000001dc g       .text	00000000 rt_hw_context_switch
000041ae g     F .text	0000004c lcd_ssd_backlight_set
00008924  w      .text	00000000 DMA2_Channel3_IRQHandler
00007872 g     F .text	00000160 ch32_pin_irq_enable
0000cc80 g     O .text	0000000c __fsym_list_device_name
0000cd10 g     O .text	0000001d __fsym_list_msgqueue_desc
0000ce60 g     O .text	00000019 __fsym_list_sem_desc



Disassembly of section .init:

00000000 <_sinit>:
   0:	1270806f          	j	8926 <handle_reset>

Disassembly of section .vector:

00000004 <_vector_base>:
	...
   c:	8546                	mv	a0,a7
   e:	0000                	unimp
  10:	8566                	mv	a0,s9
  12:	0000                	unimp
  14:	0000                	unimp
  16:	0000                	unimp
  18:	8924                	0x8924
	...
  22:	0000                	unimp
  24:	8924                	0x8924
  26:	0000                	unimp
  28:	8924                	0x8924
	...
  32:	0000                	unimp
  34:	3c1a                	lhu	a4,56(s0)
  36:	0000                	unimp
  38:	0000                	unimp
  3a:	0000                	unimp
  3c:	0290                	addi	a2,sp,320
  3e:	0000                	unimp
  40:	0000                	unimp
  42:	0000                	unimp
  44:	8924                	0x8924
  46:	0000                	unimp
  48:	8924                	0x8924
  4a:	0000                	unimp
  4c:	8924                	0x8924
  4e:	0000                	unimp
  50:	8924                	0x8924
  52:	0000                	unimp
  54:	8924                	0x8924
  56:	0000                	unimp
  58:	8924                	0x8924
  5a:	0000                	unimp
  5c:	79f6                	flw	fs3,124(sp)
  5e:	0000                	unimp
  60:	7a1e                	flw	fs4,228(sp)
  62:	0000                	unimp
  64:	7a46                	flw	fs4,112(sp)
  66:	0000                	unimp
  68:	7a6e                	flw	fs4,248(sp)
  6a:	0000                	unimp
  6c:	7a96                	flw	fs5,100(sp)
  6e:	0000                	unimp
  70:	8924                	0x8924
  72:	0000                	unimp
  74:	8924                	0x8924
  76:	0000                	unimp
  78:	8924                	0x8924
  7a:	0000                	unimp
  7c:	8924                	0x8924
  7e:	0000                	unimp
  80:	8924                	0x8924
  82:	0000                	unimp
  84:	8924                	0x8924
  86:	0000                	unimp
  88:	8924                	0x8924
  8a:	0000                	unimp
  8c:	8924                	0x8924
  8e:	0000                	unimp
  90:	8924                	0x8924
  92:	0000                	unimp
  94:	8924                	0x8924
  96:	0000                	unimp
  98:	8924                	0x8924
  9a:	0000                	unimp
  9c:	8924                	0x8924
  9e:	0000                	unimp
  a0:	7abe                	flw	fs5,236(sp)
  a2:	0000                	unimp
  a4:	8924                	0x8924
  a6:	0000                	unimp
  a8:	8924                	0x8924
  aa:	0000                	unimp
  ac:	8924                	0x8924
  ae:	0000                	unimp
  b0:	8924                	0x8924
  b2:	0000                	unimp
  b4:	8924                	0x8924
  b6:	0000                	unimp
  b8:	8924                	0x8924
  ba:	0000                	unimp
  bc:	8924                	0x8924
  be:	0000                	unimp
  c0:	8924                	0x8924
  c2:	0000                	unimp
  c4:	8924                	0x8924
  c6:	0000                	unimp
  c8:	8924                	0x8924
  ca:	0000                	unimp
  cc:	8924                	0x8924
  ce:	0000                	unimp
  d0:	8924                	0x8924
  d2:	0000                	unimp
  d4:	8924                	0x8924
  d6:	0000                	unimp
  d8:	7e74                	flw	fa3,124(a2)
  da:	0000                	unimp
  dc:	8924                	0x8924
  de:	0000                	unimp
  e0:	8924                	0x8924
  e2:	0000                	unimp
  e4:	7b36                	flw	fs6,108(sp)
  e6:	0000                	unimp
  e8:	8924                	0x8924
  ea:	0000                	unimp
  ec:	8924                	0x8924
  ee:	0000                	unimp
  f0:	8924                	0x8924
  f2:	0000                	unimp
  f4:	8924                	0x8924
  f6:	0000                	unimp
  f8:	8924                	0x8924
  fa:	0000                	unimp
  fc:	8924                	0x8924
  fe:	0000                	unimp
 100:	8924                	0x8924
 102:	0000                	unimp
 104:	0000                	unimp
 106:	0000                	unimp
 108:	3e26                	lhu	s1,58(a2)
 10a:	0000                	unimp
 10c:	8924                	0x8924
 10e:	0000                	unimp
 110:	8924                	0x8924
 112:	0000                	unimp
 114:	8924                	0x8924
 116:	0000                	unimp
 118:	8924                	0x8924
 11a:	0000                	unimp
 11c:	8924                	0x8924
 11e:	0000                	unimp
 120:	8924                	0x8924
 122:	0000                	unimp
 124:	8924                	0x8924
 126:	0000                	unimp
 128:	8924                	0x8924
 12a:	0000                	unimp
 12c:	8924                	0x8924
 12e:	0000                	unimp
 130:	8924                	0x8924
 132:	0000                	unimp
 134:	8924                	0x8924
 136:	0000                	unimp
 138:	8924                	0x8924
 13a:	0000                	unimp
 13c:	8924                	0x8924
 13e:	0000                	unimp
 140:	8924                	0x8924
 142:	0000                	unimp
 144:	8924                	0x8924
 146:	0000                	unimp
 148:	8924                	0x8924
 14a:	0000                	unimp
 14c:	8924                	0x8924
 14e:	0000                	unimp
 150:	8924                	0x8924
 152:	0000                	unimp
 154:	8924                	0x8924
 156:	0000                	unimp
 158:	8924                	0x8924
 15a:	0000                	unimp
 15c:	8924                	0x8924
 15e:	0000                	unimp
 160:	8924                	0x8924
 162:	0000                	unimp
 164:	8924                	0x8924
 166:	0000                	unimp
 168:	8924                	0x8924
 16a:	0000                	unimp
 16c:	8924                	0x8924
 16e:	0000                	unimp
 170:	8924                	0x8924
 172:	0000                	unimp
 174:	8924                	0x8924
 176:	0000                	unimp
 178:	8924                	0x8924
 17a:	0000                	unimp
 17c:	8924                	0x8924
 17e:	0000                	unimp
 180:	8924                	0x8924
 182:	0000                	unimp
 184:	8924                	0x8924
 186:	0000                	unimp
 188:	8924                	0x8924
 18a:	0000                	unimp
 18c:	8924                	0x8924
 18e:	0000                	unimp
 190:	8924                	0x8924
 192:	0000                	unimp
 194:	8924                	0x8924
 196:	0000                	unimp
 198:	8924                	0x8924
 19a:	0000                	unimp
 19c:	8924                	0x8924
 19e:	0000                	unimp
 1a0:	8924                	0x8924
	...

Disassembly of section .text:

000001c0 <rt_hw_context_switch_to>:
     1c0:	20010297          	auipc	t0,0x20010
     1c4:	e4028293          	addi	t0,t0,-448 # 20010000 <_eusrstack>
     1c8:	e0028293          	addi	t0,t0,-512
     1cc:	34029073          	csrw	mscratch,t0
     1d0:	00052103          	lw	sp,0(a0)
     1d4:	4522                	lw	a0,8(sp)
     1d6:	30051073          	csrw	mstatus,a0
     1da:	a8b1                	j	236 <rt_hw_context_switch_exit>

000001dc <rt_hw_context_switch>:
     1dc:	7119                	addi	sp,sp,-128
     1de:	00252023          	sw	sp,0(a0)
     1e2:	c006                	sw	ra,0(sp)
     1e4:	c206                	sw	ra,4(sp)
     1e6:	ca16                	sw	t0,20(sp)
     1e8:	300022f3          	csrr	t0,mstatus
     1ec:	0082f293          	andi	t0,t0,8
     1f0:	00028463          	beqz	t0,1f8 <rt_hw_context_switch+0x1c>
     1f4:	08000293          	li	t0,128
     1f8:	c416                	sw	t0,8(sp)
     1fa:	c812                	sw	tp,16(sp)
     1fc:	cc1a                	sw	t1,24(sp)
     1fe:	ce1e                	sw	t2,28(sp)
     200:	d022                	sw	s0,32(sp)
     202:	d226                	sw	s1,36(sp)
     204:	d42a                	sw	a0,40(sp)
     206:	d62e                	sw	a1,44(sp)
     208:	d832                	sw	a2,48(sp)
     20a:	da36                	sw	a3,52(sp)
     20c:	dc3a                	sw	a4,56(sp)
     20e:	de3e                	sw	a5,60(sp)
     210:	c0c2                	sw	a6,64(sp)
     212:	c2c6                	sw	a7,68(sp)
     214:	c4ca                	sw	s2,72(sp)
     216:	c6ce                	sw	s3,76(sp)
     218:	c8d2                	sw	s4,80(sp)
     21a:	cad6                	sw	s5,84(sp)
     21c:	ccda                	sw	s6,88(sp)
     21e:	cede                	sw	s7,92(sp)
     220:	d0e2                	sw	s8,96(sp)
     222:	d2e6                	sw	s9,100(sp)
     224:	d4ea                	sw	s10,104(sp)
     226:	d6ee                	sw	s11,108(sp)
     228:	d8f2                	sw	t3,112(sp)
     22a:	daf6                	sw	t4,116(sp)
     22c:	dcfa                	sw	t5,120(sp)
     22e:	defe                	sw	t6,124(sp)
     230:	0005a103          	lw	sp,0(a1)
     234:	a009                	j	236 <rt_hw_context_switch_exit>

00000236 <rt_hw_context_switch_exit>:
     236:	4502                	lw	a0,0(sp)
     238:	34151073          	csrw	mepc,a0
     23c:	4092                	lw	ra,4(sp)
     23e:	00008537          	lui	a0,0x8
     242:	80050513          	addi	a0,a0,-2048 # 7800 <ch32_pin_attach_irq+0x7a>
     246:	30052073          	csrs	mstatus,a0
     24a:	4522                	lw	a0,8(sp)
     24c:	30052073          	csrs	mstatus,a0
     250:	4242                	lw	tp,16(sp)
     252:	42d2                	lw	t0,20(sp)
     254:	4362                	lw	t1,24(sp)
     256:	43f2                	lw	t2,28(sp)
     258:	5402                	lw	s0,32(sp)
     25a:	5492                	lw	s1,36(sp)
     25c:	5522                	lw	a0,40(sp)
     25e:	55b2                	lw	a1,44(sp)
     260:	5642                	lw	a2,48(sp)
     262:	56d2                	lw	a3,52(sp)
     264:	5762                	lw	a4,56(sp)
     266:	57f2                	lw	a5,60(sp)
     268:	4806                	lw	a6,64(sp)
     26a:	4896                	lw	a7,68(sp)
     26c:	4926                	lw	s2,72(sp)
     26e:	49b6                	lw	s3,76(sp)
     270:	4a46                	lw	s4,80(sp)
     272:	4ad6                	lw	s5,84(sp)
     274:	4b66                	lw	s6,88(sp)
     276:	4bf6                	lw	s7,92(sp)
     278:	5c06                	lw	s8,96(sp)
     27a:	5c96                	lw	s9,100(sp)
     27c:	5d26                	lw	s10,104(sp)
     27e:	5db6                	lw	s11,108(sp)
     280:	5e46                	lw	t3,112(sp)
     282:	5ed6                	lw	t4,116(sp)
     284:	5f66                	lw	t5,120(sp)
     286:	5ff6                	lw	t6,124(sp)
     288:	6109                	addi	sp,sp,128
     28a:	30200073          	mret
	...

00000290 <SW_Handler>:
     290:	7119                	addi	sp,sp,-128
     292:	ca16                	sw	t0,20(sp)
     294:	08000293          	li	t0,128
     298:	c416                	sw	t0,8(sp)
     29a:	02000293          	li	t0,32
     29e:	8042a073          	csrs	0x804,t0
     2a2:	c206                	sw	ra,4(sp)
     2a4:	c812                	sw	tp,16(sp)
     2a6:	cc1a                	sw	t1,24(sp)
     2a8:	ce1e                	sw	t2,28(sp)
     2aa:	d022                	sw	s0,32(sp)
     2ac:	d226                	sw	s1,36(sp)
     2ae:	d42a                	sw	a0,40(sp)
     2b0:	d62e                	sw	a1,44(sp)
     2b2:	d832                	sw	a2,48(sp)
     2b4:	da36                	sw	a3,52(sp)
     2b6:	dc3a                	sw	a4,56(sp)
     2b8:	de3e                	sw	a5,60(sp)
     2ba:	c0c2                	sw	a6,64(sp)
     2bc:	c2c6                	sw	a7,68(sp)
     2be:	c4ca                	sw	s2,72(sp)
     2c0:	c6ce                	sw	s3,76(sp)
     2c2:	c8d2                	sw	s4,80(sp)
     2c4:	cad6                	sw	s5,84(sp)
     2c6:	ccda                	sw	s6,88(sp)
     2c8:	cede                	sw	s7,92(sp)
     2ca:	d0e2                	sw	s8,96(sp)
     2cc:	d2e6                	sw	s9,100(sp)
     2ce:	d4ea                	sw	s10,104(sp)
     2d0:	d6ee                	sw	s11,108(sp)
     2d2:	d8f2                	sw	t3,112(sp)
     2d4:	daf6                	sw	t4,116(sp)
     2d6:	dcfa                	sw	t5,120(sp)
     2d8:	defe                	sw	t6,124(sp)
     2da:	34011173          	csrrw	sp,mscratch,sp
     2de:	151000ef          	jal	ra,c2e <rt_interrupt_enter>
     2e2:	2d4020ef          	jal	ra,25b6 <sw_clearpend>
     2e6:	177000ef          	jal	ra,c5c <rt_interrupt_leave>
     2ea:	34011173          	csrrw	sp,mscratch,sp
     2ee:	8c418413          	addi	s0,gp,-1852 # 20000284 <rt_thread_switch_interrupt_flag>
     2f2:	00042903          	lw	s2,0(s0)
     2f6:	02090463          	beqz	s2,31e <SW_Handler+0x8e>
     2fa:	00042023          	sw	zero,0(s0)
     2fe:	34102573          	csrr	a0,mepc
     302:	c02a                	sw	a0,0(sp)
     304:	8bc18413          	addi	s0,gp,-1860 # 2000027c <rt_interrupt_from_thread>
     308:	4004                	lw	s1,0(s0)
     30a:	0024a023          	sw	sp,0(s1)
     30e:	8c018413          	addi	s0,gp,-1856 # 20000280 <rt_interrupt_to_thread>
     312:	4004                	lw	s1,0(s0)
     314:	0004a103          	lw	sp,0(s1)
     318:	4502                	lw	a0,0(sp)
     31a:	34151073          	csrw	mepc,a0
     31e:	4092                	lw	ra,4(sp)
     320:	000082b7          	lui	t0,0x8
     324:	80028293          	addi	t0,t0,-2048 # 7800 <ch32_pin_attach_irq+0x7a>
     328:	3002a073          	csrs	mstatus,t0
     32c:	42a2                	lw	t0,8(sp)
     32e:	3002a073          	csrs	mstatus,t0
     332:	4242                	lw	tp,16(sp)
     334:	42d2                	lw	t0,20(sp)
     336:	4362                	lw	t1,24(sp)
     338:	43f2                	lw	t2,28(sp)
     33a:	5402                	lw	s0,32(sp)
     33c:	5492                	lw	s1,36(sp)
     33e:	5522                	lw	a0,40(sp)
     340:	55b2                	lw	a1,44(sp)
     342:	5642                	lw	a2,48(sp)
     344:	56d2                	lw	a3,52(sp)
     346:	5762                	lw	a4,56(sp)
     348:	57f2                	lw	a5,60(sp)
     34a:	4806                	lw	a6,64(sp)
     34c:	4896                	lw	a7,68(sp)
     34e:	4926                	lw	s2,72(sp)
     350:	49b6                	lw	s3,76(sp)
     352:	4a46                	lw	s4,80(sp)
     354:	4ad6                	lw	s5,84(sp)
     356:	4b66                	lw	s6,88(sp)
     358:	4bf6                	lw	s7,92(sp)
     35a:	5c06                	lw	s8,96(sp)
     35c:	5c96                	lw	s9,100(sp)
     35e:	5d26                	lw	s10,104(sp)
     360:	5db6                	lw	s11,108(sp)
     362:	5e46                	lw	t3,112(sp)
     364:	5ed6                	lw	t4,116(sp)
     366:	5f66                	lw	t5,120(sp)
     368:	5ff6                	lw	t6,124(sp)
     36a:	6109                	addi	sp,sp,128
     36c:	30200073          	mret
	...

00000372 <__riscv_save_12>:
     372:	7139                	addi	sp,sp,-64
     374:	4301                	li	t1,0
     376:	c66e                	sw	s11,12(sp)
     378:	a019                	j	37e <__riscv_save_10+0x4>

0000037a <__riscv_save_10>:
     37a:	7139                	addi	sp,sp,-64
     37c:	5341                	li	t1,-16
     37e:	c86a                	sw	s10,16(sp)
     380:	ca66                	sw	s9,20(sp)
     382:	cc62                	sw	s8,24(sp)
     384:	ce5e                	sw	s7,28(sp)
     386:	a019                	j	38c <__riscv_save_4+0x4>

00000388 <__riscv_save_4>:
     388:	7139                	addi	sp,sp,-64
     38a:	5301                	li	t1,-32
     38c:	d05a                	sw	s6,32(sp)
     38e:	d256                	sw	s5,36(sp)
     390:	d452                	sw	s4,40(sp)
     392:	d64e                	sw	s3,44(sp)
     394:	d84a                	sw	s2,48(sp)
     396:	da26                	sw	s1,52(sp)
     398:	dc22                	sw	s0,56(sp)
     39a:	de06                	sw	ra,60(sp)
     39c:	40610133          	sub	sp,sp,t1
     3a0:	8282                	jr	t0

000003a2 <__riscv_save_0>:
     3a2:	1141                	addi	sp,sp,-16
     3a4:	c04a                	sw	s2,0(sp)
     3a6:	c226                	sw	s1,4(sp)
     3a8:	c422                	sw	s0,8(sp)
     3aa:	c606                	sw	ra,12(sp)
     3ac:	8282                	jr	t0

000003ae <__riscv_restore_12>:
     3ae:	4db2                	lw	s11,12(sp)
     3b0:	0141                	addi	sp,sp,16

000003b2 <__riscv_restore_10>:
     3b2:	4d02                	lw	s10,0(sp)
     3b4:	4c92                	lw	s9,4(sp)
     3b6:	4c22                	lw	s8,8(sp)
     3b8:	4bb2                	lw	s7,12(sp)
     3ba:	0141                	addi	sp,sp,16

000003bc <__riscv_restore_4>:
     3bc:	4b02                	lw	s6,0(sp)
     3be:	4a92                	lw	s5,4(sp)
     3c0:	4a22                	lw	s4,8(sp)
     3c2:	49b2                	lw	s3,12(sp)
     3c4:	0141                	addi	sp,sp,16

000003c6 <__riscv_restore_0>:
     3c6:	4902                	lw	s2,0(sp)
     3c8:	4492                	lw	s1,4(sp)
     3ca:	4422                	lw	s0,8(sp)
     3cc:	40b2                	lw	ra,12(sp)
     3ce:	0141                	addi	sp,sp,16
     3d0:	8082                	ret

000003d2 <memset>:
     3d2:	433d                	li	t1,15
     3d4:	872a                	mv	a4,a0
     3d6:	02c37363          	bgeu	t1,a2,3fc <memset+0x2a>
     3da:	00f77793          	andi	a5,a4,15
     3de:	efbd                	bnez	a5,45c <memset+0x8a>
     3e0:	e5ad                	bnez	a1,44a <memset+0x78>
     3e2:	ff067693          	andi	a3,a2,-16
     3e6:	8a3d                	andi	a2,a2,15
     3e8:	96ba                	add	a3,a3,a4
     3ea:	c30c                	sw	a1,0(a4)
     3ec:	c34c                	sw	a1,4(a4)
     3ee:	c70c                	sw	a1,8(a4)
     3f0:	c74c                	sw	a1,12(a4)
     3f2:	0741                	addi	a4,a4,16
     3f4:	fed76be3          	bltu	a4,a3,3ea <memset+0x18>
     3f8:	e211                	bnez	a2,3fc <memset+0x2a>
     3fa:	8082                	ret
     3fc:	40c306b3          	sub	a3,t1,a2
     400:	068a                	slli	a3,a3,0x2
     402:	00000297          	auipc	t0,0x0
     406:	9696                	add	a3,a3,t0
     408:	00a68067          	jr	10(a3)
     40c:	00b70723          	sb	a1,14(a4)
     410:	00b706a3          	sb	a1,13(a4)
     414:	00b70623          	sb	a1,12(a4)
     418:	00b705a3          	sb	a1,11(a4)
     41c:	00b70523          	sb	a1,10(a4)
     420:	00b704a3          	sb	a1,9(a4)
     424:	00b70423          	sb	a1,8(a4)
     428:	00b703a3          	sb	a1,7(a4)
     42c:	00b70323          	sb	a1,6(a4)
     430:	00b702a3          	sb	a1,5(a4)
     434:	00b70223          	sb	a1,4(a4)
     438:	00b701a3          	sb	a1,3(a4)
     43c:	00b70123          	sb	a1,2(a4)
     440:	00b700a3          	sb	a1,1(a4)
     444:	00b70023          	sb	a1,0(a4)
     448:	8082                	ret
     44a:	0ff5f593          	andi	a1,a1,255
     44e:	00859693          	slli	a3,a1,0x8
     452:	8dd5                	or	a1,a1,a3
     454:	01059693          	slli	a3,a1,0x10
     458:	8dd5                	or	a1,a1,a3
     45a:	b761                	j	3e2 <memset+0x10>
     45c:	00279693          	slli	a3,a5,0x2
     460:	00000297          	auipc	t0,0x0
     464:	9696                	add	a3,a3,t0
     466:	8286                	mv	t0,ra
     468:	fa8680e7          	jalr	-88(a3)
     46c:	8096                	mv	ra,t0
     46e:	17c1                	addi	a5,a5,-16
     470:	8f1d                	sub	a4,a4,a5
     472:	963e                	add	a2,a2,a5
     474:	f8c374e3          	bgeu	t1,a2,3fc <memset+0x2a>
     478:	b7a5                	j	3e0 <memset+0xe>

0000047a <rt_tick_get>:
     47a:	8301a503          	lw	a0,-2000(gp) # 200001f0 <_edata>
     47e:	8082                	ret

00000480 <rt_tick_increase>:
     480:	f23ff2ef          	jal	t0,3a2 <__riscv_save_0>
     484:	83018793          	addi	a5,gp,-2000 # 200001f0 <_edata>
     488:	4398                	lw	a4,0(a5)
     48a:	0705                	addi	a4,a4,1
     48c:	c398                	sw	a4,0(a5)
     48e:	2f9010ef          	jal	ra,1f86 <rt_thread_self>
     492:	453c                	lw	a5,72(a0)
     494:	17fd                	addi	a5,a5,-1
     496:	c53c                	sw	a5,72(a0)
     498:	e789                	bnez	a5,4a2 <rt_tick_increase+0x22>
     49a:	417c                	lw	a5,68(a0)
     49c:	c53c                	sw	a5,72(a0)
     49e:	337010ef          	jal	ra,1fd4 <rt_thread_yield>
     4a2:	04a020ef          	jal	ra,24ec <rt_timer_check>
     4a6:	b705                	j	3c6 <__riscv_restore_0>

000004a8 <rt_tick_from_millisecond>:
     4a8:	02054263          	bltz	a0,4cc <rt_tick_from_millisecond+0x24>
     4ac:	3e800793          	li	a5,1000
     4b0:	02f54733          	div	a4,a0,a5
     4b4:	02f56533          	rem	a0,a0,a5
     4b8:	02f50533          	mul	a0,a0,a5
     4bc:	3e750513          	addi	a0,a0,999
     4c0:	02f54533          	div	a0,a0,a5
     4c4:	02f70733          	mul	a4,a4,a5
     4c8:	953a                	add	a0,a0,a4
     4ca:	8082                	ret
     4cc:	557d                	li	a0,-1
     4ce:	8082                	ret

000004d0 <rti_start>:
     4d0:	4501                	li	a0,0
     4d2:	8082                	ret

000004d4 <rti_end>:
     4d4:	4501                	li	a0,0
     4d6:	8082                	ret

000004d8 <rti_board_start>:
     4d8:	4501                	li	a0,0
     4da:	8082                	ret

000004dc <rti_board_end>:
     4dc:	4501                	li	a0,0
     4de:	8082                	ret

000004e0 <rt_components_board_init>:
     4e0:	ea9ff2ef          	jal	t0,388 <__riscv_save_4>
     4e4:	6445                	lui	s0,0x11
     4e6:	64c5                	lui	s1,0x11
     4e8:	28040413          	addi	s0,s0,640 # 11280 <__rt_init_desc_rti_board_start>
     4ec:	29848493          	addi	s1,s1,664 # 11298 <__rt_init_desc_rti_board_end>
     4f0:	0000c937          	lui	s2,0xc
     4f4:	0000c9b7          	lui	s3,0xc
     4f8:	00946363          	bltu	s0,s1,4fe <rt_components_board_init+0x1e>
     4fc:	b5c1                	j	3bc <__riscv_restore_4>
     4fe:	400c                	lw	a1,0(s0)
     500:	c2490513          	addi	a0,s2,-988 # bc24 <__rti_rti_start_name+0x24>
     504:	0421                	addi	s0,s0,8
     506:	5e7000ef          	jal	ra,12ec <rt_kprintf>
     50a:	ffc42783          	lw	a5,-4(s0)
     50e:	9782                	jalr	a5
     510:	85aa                	mv	a1,a0
     512:	c3498513          	addi	a0,s3,-972 # bc34 <__rti_rti_start_name+0x34>
     516:	5d7000ef          	jal	ra,12ec <rt_kprintf>
     51a:	bff9                	j	4f8 <rt_components_board_init+0x18>

0000051c <rt_components_init>:
     51c:	e6dff2ef          	jal	t0,388 <__riscv_save_4>
     520:	0000c537          	lui	a0,0xc
     524:	c4050513          	addi	a0,a0,-960 # bc40 <__rti_rti_start_name+0x40>
     528:	6445                	lui	s0,0x11
     52a:	64c5                	lui	s1,0x11
     52c:	5c1000ef          	jal	ra,12ec <rt_kprintf>
     530:	29840413          	addi	s0,s0,664 # 11298 <__rt_init_desc_rti_board_end>
     534:	2b048493          	addi	s1,s1,688 # 112b0 <__rt_init_desc_rti_end>
     538:	0000c937          	lui	s2,0xc
     53c:	0000c9b7          	lui	s3,0xc
     540:	00946363          	bltu	s0,s1,546 <rt_components_init+0x2a>
     544:	bda5                	j	3bc <__riscv_restore_4>
     546:	400c                	lw	a1,0(s0)
     548:	c2490513          	addi	a0,s2,-988 # bc24 <__rti_rti_start_name+0x24>
     54c:	0421                	addi	s0,s0,8
     54e:	59f000ef          	jal	ra,12ec <rt_kprintf>
     552:	ffc42783          	lw	a5,-4(s0)
     556:	9782                	jalr	a5
     558:	85aa                	mv	a1,a0
     55a:	c3498513          	addi	a0,s3,-972 # bc34 <__rti_rti_start_name+0x34>
     55e:	58f000ef          	jal	ra,12ec <rt_kprintf>
     562:	bff9                	j	540 <rt_components_init+0x24>

00000564 <main_thread_entry>:
     564:	e3fff2ef          	jal	t0,3a2 <__riscv_save_0>
     568:	3f55                	jal	51c <rt_components_init>
     56a:	0de080ef          	jal	ra,8648 <main>
     56e:	bda1                	j	3c6 <__riscv_restore_0>

00000570 <rt_application_init>:
     570:	e33ff2ef          	jal	t0,3a2 <__riscv_save_0>
     574:	000005b7          	lui	a1,0x0
     578:	0000c537          	lui	a0,0xc
     57c:	47d1                	li	a5,20
     57e:	4715                	li	a4,5
     580:	20000693          	li	a3,512
     584:	4601                	li	a2,0
     586:	56458593          	addi	a1,a1,1380 # 564 <main_thread_entry>
     58a:	c0c50513          	addi	a0,a0,-1012 # bc0c <__rti_rti_start_name+0xc>
     58e:	1ff010ef          	jal	ra,1f8c <rt_thread_create>
     592:	842a                	mv	s0,a0
     594:	ed01                	bnez	a0,5ac <rt_application_init+0x3c>
     596:	65b1                	lui	a1,0xc
     598:	0000c537          	lui	a0,0xc
     59c:	0c300613          	li	a2,195
     5a0:	bcc58593          	addi	a1,a1,-1076 # bbcc <__FUNCTION__.2479>
     5a4:	c1450513          	addi	a0,a0,-1004 # bc14 <__rti_rti_start_name+0x14>
     5a8:	639000ef          	jal	ra,13e0 <rt_assert_handler>
     5ac:	8522                	mv	a0,s0
     5ae:	40b010ef          	jal	ra,21b8 <rt_thread_startup>
     5b2:	bd11                	j	3c6 <__riscv_restore_0>

000005b4 <rtthread_startup>:
     5b4:	defff2ef          	jal	t0,3a2 <__riscv_save_0>
     5b8:	00c020ef          	jal	ra,25c4 <rt_hw_interrupt_disable>
     5bc:	5e8030ef          	jal	ra,3ba4 <rt_hw_board_init>
     5c0:	595000ef          	jal	ra,1354 <rt_show_version>
     5c4:	7a1010ef          	jal	ra,2564 <rt_system_timer_init>
     5c8:	59c010ef          	jal	ra,1b64 <rt_system_scheduler_init>
     5cc:	3755                	jal	570 <rt_application_init>
     5ce:	7a1010ef          	jal	ra,256e <rt_system_timer_thread_init>
     5d2:	26c1                	jal	992 <rt_thread_idle_init>
     5d4:	5be010ef          	jal	ra,1b92 <rt_system_scheduler_start>
     5d8:	4501                	li	a0,0
     5da:	b3f5                	j	3c6 <__riscv_restore_0>

000005dc <entry>:
     5dc:	dc7ff2ef          	jal	t0,3a2 <__riscv_save_0>
     5e0:	3fd1                	jal	5b4 <rtthread_startup>
     5e2:	4501                	li	a0,0
     5e4:	b3cd                	j	3c6 <__riscv_restore_0>

000005e6 <rt_device_find>:
     5e6:	da3ff2ef          	jal	t0,388 <__riscv_save_4>
     5ea:	89aa                	mv	s3,a0
     5ec:	19b010ef          	jal	ra,1f86 <rt_thread_self>
     5f0:	c119                	beqz	a0,5f6 <rt_device_find+0x10>
     5f2:	75c010ef          	jal	ra,1d4e <rt_enter_critical>
     5f6:	4525                	li	a0,9
     5f8:	300010ef          	jal	ra,18f8 <rt_object_get_information>
     5fc:	842a                	mv	s0,a0
     5fe:	ed01                	bnez	a0,616 <rt_device_find+0x30>
     600:	65b1                	lui	a1,0xc
     602:	0000c537          	lui	a0,0xc
     606:	08a00613          	li	a2,138
     60a:	c6058593          	addi	a1,a1,-928 # bc60 <__FUNCTION__.2369>
     60e:	ccc50513          	addi	a0,a0,-820 # bccc <__FUNCTION__.2425+0x1c>
     612:	5cf000ef          	jal	ra,13e0 <rt_assert_handler>
     616:	4044                	lw	s1,4(s0)
     618:	0411                	addi	s0,s0,4
     61a:	00849663          	bne	s1,s0,626 <rt_device_find+0x40>
     61e:	169010ef          	jal	ra,1f86 <rt_thread_self>
     622:	4901                	li	s2,0
     624:	a819                	j	63a <rt_device_find+0x54>
     626:	ff448913          	addi	s2,s1,-12
     62a:	4621                	li	a2,8
     62c:	85ce                	mv	a1,s3
     62e:	854a                	mv	a0,s2
     630:	0f7000ef          	jal	ra,f26 <rt_strncmp>
     634:	e901                	bnez	a0,644 <rt_device_find+0x5e>
     636:	151010ef          	jal	ra,1f86 <rt_thread_self>
     63a:	c119                	beqz	a0,640 <rt_device_find+0x5a>
     63c:	72c010ef          	jal	ra,1d68 <rt_exit_critical>
     640:	854a                	mv	a0,s2
     642:	bbad                	j	3bc <__riscv_restore_4>
     644:	4084                	lw	s1,0(s1)
     646:	bfd1                	j	61a <rt_device_find+0x34>

00000648 <rt_device_register>:
     648:	e509                	bnez	a0,652 <rt_device_register+0xa>
     64a:	557d                	li	a0,-1
     64c:	8082                	ret
     64e:	557d                	li	a0,-1
     650:	bb9d                	j	3c6 <__riscv_restore_0>
     652:	d51ff2ef          	jal	t0,3a2 <__riscv_save_0>
     656:	842a                	mv	s0,a0
     658:	852e                	mv	a0,a1
     65a:	8932                	mv	s2,a2
     65c:	84ae                	mv	s1,a1
     65e:	3761                	jal	5e6 <rt_device_find>
     660:	f57d                	bnez	a0,64e <rt_device_register+0x6>
     662:	8522                	mv	a0,s0
     664:	8626                	mv	a2,s1
     666:	45a5                	li	a1,9
     668:	2ba010ef          	jal	ra,1922 <rt_object_init>
     66c:	4501                	li	a0,0
     66e:	01241c23          	sh	s2,24(s0)
     672:	00040e23          	sb	zero,28(s0)
     676:	00041d23          	sh	zero,26(s0)
     67a:	bfd9                	j	650 <rt_device_register+0x8>

0000067c <rt_device_open>:
     67c:	d27ff2ef          	jal	t0,3a2 <__riscv_save_0>
     680:	842a                	mv	s0,a0
     682:	892e                	mv	s2,a1
     684:	ed01                	bnez	a0,69c <rt_device_open+0x20>
     686:	65b1                	lui	a1,0xc
     688:	0000c537          	lui	a0,0xc
     68c:	10200613          	li	a2,258
     690:	c7058593          	addi	a1,a1,-912 # bc70 <__FUNCTION__.2393>
     694:	d3050513          	addi	a0,a0,-720 # bd30 <__FUNCTION__.2425+0x80>
     698:	549000ef          	jal	ra,13e0 <rt_assert_handler>
     69c:	8522                	mv	a0,s0
     69e:	49e010ef          	jal	ra,1b3c <rt_object_get_type>
     6a2:	47a5                	li	a5,9
     6a4:	00f50d63          	beq	a0,a5,6be <rt_device_open+0x42>
     6a8:	65b1                	lui	a1,0xc
     6aa:	0000c537          	lui	a0,0xc
     6ae:	10300613          	li	a2,259
     6b2:	c7058593          	addi	a1,a1,-912 # bc70 <__FUNCTION__.2393>
     6b6:	d4050513          	addi	a0,a0,-704 # bd40 <__FUNCTION__.2425+0x90>
     6ba:	527000ef          	jal	ra,13e0 <rt_assert_handler>
     6be:	2c1e                	lhu	a5,24(s0)
     6c0:	8bc1                	andi	a5,a5,16
     6c2:	e78d                	bnez	a5,6ec <rt_device_open+0x70>
     6c4:	541c                	lw	a5,40(s0)
     6c6:	cf99                	beqz	a5,6e4 <rt_device_open+0x68>
     6c8:	8522                	mv	a0,s0
     6ca:	9782                	jalr	a5
     6cc:	84aa                	mv	s1,a0
     6ce:	c919                	beqz	a0,6e4 <rt_device_open+0x68>
     6d0:	862a                	mv	a2,a0
     6d2:	0000c537          	lui	a0,0xc
     6d6:	85a2                	mv	a1,s0
     6d8:	ce450513          	addi	a0,a0,-796 # bce4 <__FUNCTION__.2425+0x34>
     6dc:	411000ef          	jal	ra,12ec <rt_kprintf>
     6e0:	8526                	mv	a0,s1
     6e2:	b1d5                	j	3c6 <__riscv_restore_0>
     6e4:	2c1e                	lhu	a5,24(s0)
     6e6:	0107e793          	ori	a5,a5,16
     6ea:	ac1e                	sh	a5,24(s0)
     6ec:	2c1e                	lhu	a5,24(s0)
     6ee:	8ba1                	andi	a5,a5,8
     6f0:	c789                	beqz	a5,6fa <rt_device_open+0x7e>
     6f2:	2c3e                	lhu	a5,26(s0)
     6f4:	54e5                	li	s1,-7
     6f6:	8ba1                	andi	a5,a5,8
     6f8:	f7e5                	bnez	a5,6e0 <rt_device_open+0x64>
     6fa:	545c                	lw	a5,44(s0)
     6fc:	cf85                	beqz	a5,734 <rt_device_open+0xb8>
     6fe:	85ca                	mv	a1,s2
     700:	8522                	mv	a0,s0
     702:	9782                	jalr	a5
     704:	84aa                	mv	s1,a0
     706:	e121                	bnez	a0,746 <rt_device_open+0xca>
     708:	2c3e                	lhu	a5,26(s0)
     70a:	0087e793          	ori	a5,a5,8
     70e:	ac3e                	sh	a5,26(s0)
     710:	2c5c                	lbu	a5,28(s0)
     712:	0785                	addi	a5,a5,1
     714:	0ff7f793          	andi	a5,a5,255
     718:	ac5c                	sb	a5,28(s0)
     71a:	f3f9                	bnez	a5,6e0 <rt_device_open+0x64>
     71c:	65b1                	lui	a1,0xc
     71e:	0000c537          	lui	a0,0xc
     722:	13100613          	li	a2,305
     726:	c7058593          	addi	a1,a1,-912 # bc70 <__FUNCTION__.2393>
     72a:	d1c50513          	addi	a0,a0,-740 # bd1c <__FUNCTION__.2425+0x6c>
     72e:	4b3000ef          	jal	ra,13e0 <rt_assert_handler>
     732:	b77d                	j	6e0 <rt_device_open+0x64>
     734:	6785                	lui	a5,0x1
     736:	f0f78793          	addi	a5,a5,-241 # f0f <rt_strncpy+0x15>
     73a:	00f97933          	and	s2,s2,a5
     73e:	01241d23          	sh	s2,26(s0)
     742:	4481                	li	s1,0
     744:	b7d1                	j	708 <rt_device_open+0x8c>
     746:	57e9                	li	a5,-6
     748:	f8f51ce3          	bne	a0,a5,6e0 <rt_device_open+0x64>
     74c:	bf75                	j	708 <rt_device_open+0x8c>

0000074e <rt_device_close>:
     74e:	c55ff2ef          	jal	t0,3a2 <__riscv_save_0>
     752:	842a                	mv	s0,a0
     754:	ed01                	bnez	a0,76c <rt_device_close+0x1e>
     756:	65b1                	lui	a1,0xc
     758:	0000c537          	lui	a0,0xc
     75c:	14300613          	li	a2,323
     760:	c8058593          	addi	a1,a1,-896 # bc80 <__FUNCTION__.2398>
     764:	d3050513          	addi	a0,a0,-720 # bd30 <__FUNCTION__.2425+0x80>
     768:	479000ef          	jal	ra,13e0 <rt_assert_handler>
     76c:	8522                	mv	a0,s0
     76e:	3ce010ef          	jal	ra,1b3c <rt_object_get_type>
     772:	47a5                	li	a5,9
     774:	00f50d63          	beq	a0,a5,78e <rt_device_close+0x40>
     778:	65b1                	lui	a1,0xc
     77a:	0000c537          	lui	a0,0xc
     77e:	14400613          	li	a2,324
     782:	c8058593          	addi	a1,a1,-896 # bc80 <__FUNCTION__.2398>
     786:	d4050513          	addi	a0,a0,-704 # bd40 <__FUNCTION__.2425+0x90>
     78a:	457000ef          	jal	ra,13e0 <rt_assert_handler>
     78e:	2c5c                	lbu	a5,28(s0)
     790:	557d                	li	a0,-1
     792:	c39d                	beqz	a5,7b8 <rt_device_close+0x6a>
     794:	17fd                	addi	a5,a5,-1
     796:	0ff7f793          	andi	a5,a5,255
     79a:	ac5c                	sb	a5,28(s0)
     79c:	4501                	li	a0,0
     79e:	ef89                	bnez	a5,7b8 <rt_device_close+0x6a>
     7a0:	581c                	lw	a5,48(s0)
     7a2:	e789                	bnez	a5,7ac <rt_device_close+0x5e>
     7a4:	4501                	li	a0,0
     7a6:	00041d23          	sh	zero,26(s0)
     7aa:	a039                	j	7b8 <rt_device_close+0x6a>
     7ac:	8522                	mv	a0,s0
     7ae:	9782                	jalr	a5
     7b0:	d975                	beqz	a0,7a4 <rt_device_close+0x56>
     7b2:	57e9                	li	a5,-6
     7b4:	fef509e3          	beq	a0,a5,7a6 <rt_device_close+0x58>
     7b8:	b139                	j	3c6 <__riscv_restore_0>

000007ba <rt_device_read>:
     7ba:	bcfff2ef          	jal	t0,388 <__riscv_save_4>
     7be:	842a                	mv	s0,a0
     7c0:	84ae                	mv	s1,a1
     7c2:	8932                	mv	s2,a2
     7c4:	89b6                	mv	s3,a3
     7c6:	ed01                	bnez	a0,7de <rt_device_read+0x24>
     7c8:	65b1                	lui	a1,0xc
     7ca:	0000c537          	lui	a0,0xc
     7ce:	16d00613          	li	a2,365
     7d2:	c9058593          	addi	a1,a1,-880 # bc90 <__FUNCTION__.2405>
     7d6:	d3050513          	addi	a0,a0,-720 # bd30 <__FUNCTION__.2425+0x80>
     7da:	407000ef          	jal	ra,13e0 <rt_assert_handler>
     7de:	8522                	mv	a0,s0
     7e0:	35c010ef          	jal	ra,1b3c <rt_object_get_type>
     7e4:	47a5                	li	a5,9
     7e6:	00f50d63          	beq	a0,a5,800 <__stack_size>
     7ea:	65b1                	lui	a1,0xc
     7ec:	0000c537          	lui	a0,0xc
     7f0:	16e00613          	li	a2,366
     7f4:	c9058593          	addi	a1,a1,-880 # bc90 <__FUNCTION__.2405>
     7f8:	d4050513          	addi	a0,a0,-704 # bd40 <__FUNCTION__.2425+0x90>
     7fc:	3e5000ef          	jal	ra,13e0 <rt_assert_handler>
     800:	2c5c                	lbu	a5,28(s0)
     802:	557d                	li	a0,-1
     804:	cb91                	beqz	a5,818 <__stack_size+0x18>
     806:	585c                	lw	a5,52(s0)
     808:	c799                	beqz	a5,816 <__stack_size+0x16>
     80a:	86ce                	mv	a3,s3
     80c:	864a                	mv	a2,s2
     80e:	85a6                	mv	a1,s1
     810:	8522                	mv	a0,s0
     812:	9782                	jalr	a5
     814:	b665                	j	3bc <__riscv_restore_4>
     816:	5569                	li	a0,-6
     818:	2bdd                	jal	e0e <rt_set_errno>
     81a:	4501                	li	a0,0
     81c:	bfe5                	j	814 <__stack_size+0x14>

0000081e <rt_device_write>:
     81e:	b6bff2ef          	jal	t0,388 <__riscv_save_4>
     822:	842a                	mv	s0,a0
     824:	84ae                	mv	s1,a1
     826:	8932                	mv	s2,a2
     828:	89b6                	mv	s3,a3
     82a:	ed01                	bnez	a0,842 <rt_device_write+0x24>
     82c:	65b1                	lui	a1,0xc
     82e:	0000c537          	lui	a0,0xc
     832:	19400613          	li	a2,404
     836:	ca058593          	addi	a1,a1,-864 # bca0 <__FUNCTION__.2412>
     83a:	d3050513          	addi	a0,a0,-720 # bd30 <__FUNCTION__.2425+0x80>
     83e:	3a3000ef          	jal	ra,13e0 <rt_assert_handler>
     842:	8522                	mv	a0,s0
     844:	2f8010ef          	jal	ra,1b3c <rt_object_get_type>
     848:	47a5                	li	a5,9
     84a:	00f50d63          	beq	a0,a5,864 <rt_device_write+0x46>
     84e:	65b1                	lui	a1,0xc
     850:	0000c537          	lui	a0,0xc
     854:	19500613          	li	a2,405
     858:	ca058593          	addi	a1,a1,-864 # bca0 <__FUNCTION__.2412>
     85c:	d4050513          	addi	a0,a0,-704 # bd40 <__FUNCTION__.2425+0x90>
     860:	381000ef          	jal	ra,13e0 <rt_assert_handler>
     864:	2c5c                	lbu	a5,28(s0)
     866:	557d                	li	a0,-1
     868:	cb91                	beqz	a5,87c <rt_device_write+0x5e>
     86a:	5c1c                	lw	a5,56(s0)
     86c:	c799                	beqz	a5,87a <rt_device_write+0x5c>
     86e:	86ce                	mv	a3,s3
     870:	864a                	mv	a2,s2
     872:	85a6                	mv	a1,s1
     874:	8522                	mv	a0,s0
     876:	9782                	jalr	a5
     878:	b691                	j	3bc <__riscv_restore_4>
     87a:	5569                	li	a0,-6
     87c:	2b49                	jal	e0e <rt_set_errno>
     87e:	4501                	li	a0,0
     880:	bfe5                	j	878 <rt_device_write+0x5a>

00000882 <rt_device_set_rx_indicate>:
     882:	b21ff2ef          	jal	t0,3a2 <__riscv_save_0>
     886:	842a                	mv	s0,a0
     888:	84ae                	mv	s1,a1
     88a:	ed01                	bnez	a0,8a2 <rt_device_set_rx_indicate+0x20>
     88c:	65b1                	lui	a1,0xc
     88e:	0000c537          	lui	a0,0xc
     892:	1cf00613          	li	a2,463
     896:	cb058593          	addi	a1,a1,-848 # bcb0 <__FUNCTION__.2425>
     89a:	d3050513          	addi	a0,a0,-720 # bd30 <__FUNCTION__.2425+0x80>
     89e:	343000ef          	jal	ra,13e0 <rt_assert_handler>
     8a2:	8522                	mv	a0,s0
     8a4:	298010ef          	jal	ra,1b3c <rt_object_get_type>
     8a8:	47a5                	li	a5,9
     8aa:	00f50d63          	beq	a0,a5,8c4 <rt_device_set_rx_indicate+0x42>
     8ae:	65b1                	lui	a1,0xc
     8b0:	0000c537          	lui	a0,0xc
     8b4:	1d000613          	li	a2,464
     8b8:	cb058593          	addi	a1,a1,-848 # bcb0 <__FUNCTION__.2425>
     8bc:	d4050513          	addi	a0,a0,-704 # bd40 <__FUNCTION__.2425+0x90>
     8c0:	321000ef          	jal	ra,13e0 <rt_assert_handler>
     8c4:	d004                	sw	s1,32(s0)
     8c6:	4501                	li	a0,0
     8c8:	bcfd                	j	3c6 <__riscv_restore_0>

000008ca <rt_thread_idle_excute>:
     8ca:	ab1ff2ef          	jal	t0,37a <__riscv_save_10>
     8ce:	8a4a                	mv	s4,s2
     8d0:	89018993          	addi	s3,gp,-1904 # 20000250 <rt_thread_defunct>
     8d4:	6ab1                	lui	s5,0xc
     8d6:	0000cbb7          	lui	s7,0xc
     8da:	0000cc37          	lui	s8,0xc
     8de:	4c85                	li	s9,1
     8e0:	8901a783          	lw	a5,-1904(gp) # 20000250 <rt_thread_defunct>
     8e4:	07378c63          	beq	a5,s3,95c <rt_thread_idle_excute+0x92>
     8e8:	4dd010ef          	jal	ra,25c4 <rt_hw_interrupt_disable>
     8ec:	842a                	mv	s0,a0
     8ee:	2e71                	jal	c8a <rt_interrupt_get_nest>
     8f0:	cd19                	beqz	a0,90e <rt_thread_idle_excute+0x44>
     8f2:	da4a8593          	addi	a1,s5,-604 # bda4 <__FUNCTION__.2459>
     8f6:	dbcb8513          	addi	a0,s7,-580 # bdbc <__FUNCTION__.2459+0x18>
     8fa:	1f3000ef          	jal	ra,12ec <rt_kprintf>
     8fe:	09900613          	li	a2,153
     902:	da4a8593          	addi	a1,s5,-604
     906:	368c0513          	addi	a0,s8,872 # c368 <__fsym_list_mem_name+0x1fc>
     90a:	2d7000ef          	jal	ra,13e0 <rt_assert_handler>
     90e:	8522                	mv	a0,s0
     910:	4c1010ef          	jal	ra,25d0 <rt_hw_interrupt_enable>
     914:	4b1010ef          	jal	ra,25c4 <rt_hw_interrupt_disable>
     918:	8901a783          	lw	a5,-1904(gp) # 20000250 <rt_thread_defunct>
     91c:	8b2a                	mv	s6,a0
     91e:	03378d63          	beq	a5,s3,958 <rt_thread_idle_excute+0x8e>
     922:	8901a403          	lw	s0,-1904(gp) # 20000250 <rt_thread_defunct>
     926:	405c                	lw	a5,4(s0)
     928:	4018                	lw	a4,0(s0)
     92a:	fec40493          	addi	s1,s0,-20
     92e:	c35c                	sw	a5,4(a4)
     930:	c398                	sw	a4,0(a5)
     932:	c040                	sw	s0,4(s0)
     934:	c000                	sw	s0,0(s0)
     936:	418010ef          	jal	ra,1d4e <rt_enter_critical>
     93a:	507c                	lw	a5,100(s0)
     93c:	c399                	beqz	a5,942 <rt_thread_idle_excute+0x78>
     93e:	8526                	mv	a0,s1
     940:	9782                	jalr	a5
     942:	8526                	mv	a0,s1
     944:	1d0010ef          	jal	ra,1b14 <rt_object_is_systemobject>
     948:	01951b63          	bne	a0,s9,95e <rt_thread_idle_excute+0x94>
     94c:	8526                	mv	a0,s1
     94e:	068010ef          	jal	ra,19b6 <rt_object_detach>
     952:	416010ef          	jal	ra,1d68 <rt_exit_critical>
     956:	855a                	mv	a0,s6
     958:	479010ef          	jal	ra,25d0 <rt_hw_interrupt_enable>
     95c:	bc99                	j	3b2 <__riscv_restore_10>
     95e:	40a010ef          	jal	ra,1d68 <rt_exit_critical>
     962:	855a                	mv	a0,s6
     964:	46d010ef          	jal	ra,25d0 <rt_hw_interrupt_enable>
     968:	4848                	lw	a0,20(s0)
     96a:	62d000ef          	jal	ra,1796 <rt_free>
     96e:	8526                	mv	a0,s1
     970:	138010ef          	jal	ra,1aa8 <rt_object_delete>
     974:	b7b5                	j	8e0 <rt_thread_idle_excute+0x16>

00000976 <rt_thread_idle_entry>:
     976:	a2dff2ef          	jal	t0,3a2 <__riscv_save_0>
     97a:	96418413          	addi	s0,gp,-1692 # 20000324 <idle_hook_list>
     97e:	01040913          	addi	s2,s0,16
     982:	401c                	lw	a5,0(s0)
     984:	c391                	beqz	a5,988 <rt_thread_idle_entry+0x12>
     986:	9782                	jalr	a5
     988:	0411                	addi	s0,s0,4
     98a:	ff241ce3          	bne	s0,s2,982 <rt_thread_idle_entry+0xc>
     98e:	3f35                	jal	8ca <rt_thread_idle_excute>
     990:	b7ed                	j	97a <rt_thread_idle_entry+0x4>

00000992 <rt_thread_idle_init>:
     992:	a11ff2ef          	jal	t0,3a2 <__riscv_save_0>
     996:	00001637          	lui	a2,0x1
     99a:	0000c5b7          	lui	a1,0xc
     99e:	02000893          	li	a7,32
     9a2:	483d                	li	a6,15
     9a4:	20000793          	li	a5,512
     9a8:	97418713          	addi	a4,gp,-1676 # 20000334 <rt_thread_stack>
     9ac:	4681                	li	a3,0
     9ae:	97660613          	addi	a2,a2,-1674 # 976 <rt_thread_idle_entry>
     9b2:	de458593          	addi	a1,a1,-540 # bde4 <__FUNCTION__.2459+0x40>
     9b6:	8e418513          	addi	a0,gp,-1820 # 200002a4 <idle>
     9ba:	568010ef          	jal	ra,1f22 <rt_thread_init>
     9be:	8e418513          	addi	a0,gp,-1820 # 200002a4 <idle>
     9c2:	7f6010ef          	jal	ra,21b8 <rt_thread_startup>
     9c6:	b401                	j	3c6 <__riscv_restore_0>

000009c8 <rt_ipc_list_suspend>:
     9c8:	9dbff2ef          	jal	t0,3a2 <__riscv_save_0>
     9cc:	1141                	addi	sp,sp,-16
     9ce:	842a                	mv	s0,a0
     9d0:	852e                	mv	a0,a1
     9d2:	c632                	sw	a2,12(sp)
     9d4:	c42e                	sw	a1,8(sp)
     9d6:	650010ef          	jal	ra,2026 <rt_thread_suspend>
     9da:	4632                	lw	a2,12(sp)
     9dc:	45a2                	lw	a1,8(sp)
     9de:	ca01                	beqz	a2,9ee <rt_ipc_list_suspend+0x26>
     9e0:	4785                	li	a5,1
     9e2:	00f60e63          	beq	a2,a5,9fe <rt_ipc_list_suspend+0x36>
     9e6:	4501                	li	a0,0
     9e8:	0141                	addi	sp,sp,16
     9ea:	9ddff06f          	j	3c6 <__riscv_restore_0>
     9ee:	4058                	lw	a4,4(s0)
     9f0:	01458793          	addi	a5,a1,20
     9f4:	c31c                	sw	a5,0(a4)
     9f6:	cd98                	sw	a4,24(a1)
     9f8:	c05c                	sw	a5,4(s0)
     9fa:	c9c0                	sw	s0,20(a1)
     9fc:	b7ed                	j	9e6 <rt_ipc_list_suspend+0x1e>
     9fe:	401c                	lw	a5,0(s0)
     a00:	00878863          	beq	a5,s0,a10 <rt_ipc_list_suspend+0x48>
     a04:	0355c683          	lbu	a3,53(a1)
     a08:	0217c703          	lbu	a4,33(a5)
     a0c:	00e6fa63          	bgeu	a3,a4,a20 <rt_ipc_list_suspend+0x58>
     a10:	43d4                	lw	a3,4(a5)
     a12:	01458713          	addi	a4,a1,20
     a16:	c298                	sw	a4,0(a3)
     a18:	cd94                	sw	a3,24(a1)
     a1a:	c3d8                	sw	a4,4(a5)
     a1c:	c9dc                	sw	a5,20(a1)
     a1e:	b7e1                	j	9e6 <rt_ipc_list_suspend+0x1e>
     a20:	439c                	lw	a5,0(a5)
     a22:	bff9                	j	a00 <rt_ipc_list_suspend+0x38>

00000a24 <rt_sem_init>:
     a24:	965ff2ef          	jal	t0,388 <__riscv_save_4>
     a28:	842a                	mv	s0,a0
     a2a:	89ae                	mv	s3,a1
     a2c:	84b2                	mv	s1,a2
     a2e:	8936                	mv	s2,a3
     a30:	ed01                	bnez	a0,a48 <rt_sem_init+0x24>
     a32:	65b1                	lui	a1,0xc
     a34:	0000c537          	lui	a0,0xc
     a38:	0ca00613          	li	a2,202
     a3c:	dec58593          	addi	a1,a1,-532 # bdec <__FUNCTION__.2465>
     a40:	e8c50513          	addi	a0,a0,-372 # be8c <__FUNCTION__.2500+0x88>
     a44:	19d000ef          	jal	ra,13e0 <rt_assert_handler>
     a48:	67c1                	lui	a5,0x10
     a4a:	00f4ed63          	bltu	s1,a5,a64 <rt_sem_init+0x40>
     a4e:	65b1                	lui	a1,0xc
     a50:	0000c537          	lui	a0,0xc
     a54:	0cb00613          	li	a2,203
     a58:	dec58593          	addi	a1,a1,-532 # bdec <__FUNCTION__.2465>
     a5c:	e9c50513          	addi	a0,a0,-356 # be9c <__FUNCTION__.2500+0x98>
     a60:	181000ef          	jal	ra,13e0 <rt_assert_handler>
     a64:	8522                	mv	a0,s0
     a66:	864e                	mv	a2,s3
     a68:	4589                	li	a1,2
     a6a:	6b9000ef          	jal	ra,1922 <rt_object_init>
     a6e:	01440793          	addi	a5,s0,20
     a72:	cc1c                	sw	a5,24(s0)
     a74:	c85c                	sw	a5,20(s0)
     a76:	ac46                	sh	s1,28(s0)
     a78:	012404a3          	sb	s2,9(s0)
     a7c:	4501                	li	a0,0
     a7e:	93fff06f          	j	3bc <__riscv_restore_4>

00000a82 <rt_sem_take>:
     a82:	907ff2ef          	jal	t0,388 <__riscv_save_4>
     a86:	1141                	addi	sp,sp,-16
     a88:	c62e                	sw	a1,12(sp)
     a8a:	842a                	mv	s0,a0
     a8c:	ed01                	bnez	a0,aa4 <rt_sem_take+0x22>
     a8e:	65b1                	lui	a1,0xc
     a90:	0000c537          	lui	a0,0xc
     a94:	14800613          	li	a2,328
     a98:	df858593          	addi	a1,a1,-520 # bdf8 <__FUNCTION__.2489>
     a9c:	e8c50513          	addi	a0,a0,-372 # be8c <__FUNCTION__.2500+0x88>
     aa0:	141000ef          	jal	ra,13e0 <rt_assert_handler>
     aa4:	8522                	mv	a0,s0
     aa6:	096010ef          	jal	ra,1b3c <rt_object_get_type>
     aaa:	4789                	li	a5,2
     aac:	00f50d63          	beq	a0,a5,ac6 <rt_sem_take+0x44>
     ab0:	65b1                	lui	a1,0xc
     ab2:	0000c537          	lui	a0,0xc
     ab6:	14900613          	li	a2,329
     aba:	df858593          	addi	a1,a1,-520 # bdf8 <__FUNCTION__.2489>
     abe:	e1450513          	addi	a0,a0,-492 # be14 <__FUNCTION__.2500+0x10>
     ac2:	11f000ef          	jal	ra,13e0 <rt_assert_handler>
     ac6:	87c1a783          	lw	a5,-1924(gp) # 2000023c <rt_object_trytake_hook>
     aca:	c399                	beqz	a5,ad0 <rt_sem_take+0x4e>
     acc:	8522                	mv	a0,s0
     ace:	9782                	jalr	a5
     ad0:	2f5010ef          	jal	ra,25c4 <rt_hw_interrupt_disable>
     ad4:	2c5e                	lhu	a5,28(s0)
     ad6:	89aa                	mv	s3,a0
     ad8:	cf89                	beqz	a5,af2 <rt_sem_take+0x70>
     ada:	17fd                	addi	a5,a5,-1
     adc:	ac5e                	sh	a5,28(s0)
     ade:	2f3010ef          	jal	ra,25d0 <rt_hw_interrupt_enable>
     ae2:	8781a783          	lw	a5,-1928(gp) # 20000238 <rt_object_take_hook>
     ae6:	4501                	li	a0,0
     ae8:	cb91                	beqz	a5,afc <rt_sem_take+0x7a>
     aea:	8522                	mv	a0,s0
     aec:	9782                	jalr	a5
     aee:	4501                	li	a0,0
     af0:	a031                	j	afc <rt_sem_take+0x7a>
     af2:	47b2                	lw	a5,12(sp)
     af4:	e799                	bnez	a5,b02 <rt_sem_take+0x80>
     af6:	2db010ef          	jal	ra,25d0 <rt_hw_interrupt_enable>
     afa:	5579                	li	a0,-2
     afc:	0141                	addi	sp,sp,16
     afe:	8bfff06f          	j	3bc <__riscv_restore_4>
     b02:	2c3010ef          	jal	ra,25c4 <rt_hw_interrupt_disable>
     b06:	892a                	mv	s2,a0
     b08:	47e010ef          	jal	ra,1f86 <rt_thread_self>
     b0c:	e505                	bnez	a0,b34 <rt_sem_take+0xb2>
     b0e:	64b1                	lui	s1,0xc
     b10:	0000c537          	lui	a0,0xc
     b14:	df848593          	addi	a1,s1,-520 # bdf8 <__FUNCTION__.2489>
     b18:	eb050513          	addi	a0,a0,-336 # beb0 <__FUNCTION__.2500+0xac>
     b1c:	7d0000ef          	jal	ra,12ec <rt_kprintf>
     b20:	0000c537          	lui	a0,0xc
     b24:	16900613          	li	a2,361
     b28:	df848593          	addi	a1,s1,-520
     b2c:	36850513          	addi	a0,a0,872 # c368 <__fsym_list_mem_name+0x1fc>
     b30:	0b1000ef          	jal	ra,13e0 <rt_assert_handler>
     b34:	291010ef          	jal	ra,25c4 <rt_hw_interrupt_disable>
     b38:	8a2a                	mv	s4,a0
     b3a:	2a81                	jal	c8a <rt_interrupt_get_nest>
     b3c:	c505                	beqz	a0,b64 <rt_sem_take+0xe2>
     b3e:	64b1                	lui	s1,0xc
     b40:	0000c537          	lui	a0,0xc
     b44:	df848593          	addi	a1,s1,-520 # bdf8 <__FUNCTION__.2489>
     b48:	dbc50513          	addi	a0,a0,-580 # bdbc <__FUNCTION__.2459+0x18>
     b4c:	7a0000ef          	jal	ra,12ec <rt_kprintf>
     b50:	0000c537          	lui	a0,0xc
     b54:	16900613          	li	a2,361
     b58:	df848593          	addi	a1,s1,-520
     b5c:	36850513          	addi	a0,a0,872 # c368 <__fsym_list_mem_name+0x1fc>
     b60:	081000ef          	jal	ra,13e0 <rt_assert_handler>
     b64:	8552                	mv	a0,s4
     b66:	26b010ef          	jal	ra,25d0 <rt_hw_interrupt_enable>
     b6a:	854a                	mv	a0,s2
     b6c:	265010ef          	jal	ra,25d0 <rt_hw_interrupt_enable>
     b70:	416010ef          	jal	ra,1f86 <rt_thread_self>
     b74:	02052823          	sw	zero,48(a0)
     b78:	3410                	lbu	a2,9(s0)
     b7a:	85aa                	mv	a1,a0
     b7c:	84aa                	mv	s1,a0
     b7e:	01440513          	addi	a0,s0,20
     b82:	3599                	jal	9c8 <rt_ipc_list_suspend>
     b84:	47b2                	lw	a5,12(sp)
     b86:	00f05c63          	blez	a5,b9e <rt_sem_take+0x11c>
     b8a:	04c48913          	addi	s2,s1,76
     b8e:	0070                	addi	a2,sp,12
     b90:	4581                	li	a1,0
     b92:	854a                	mv	a0,s2
     b94:	0d7010ef          	jal	ra,246a <rt_timer_control>
     b98:	854a                	mv	a0,s2
     b9a:	784010ef          	jal	ra,231e <rt_timer_start>
     b9e:	854e                	mv	a0,s3
     ba0:	231010ef          	jal	ra,25d0 <rt_hw_interrupt_enable>
     ba4:	01a010ef          	jal	ra,1bbe <rt_schedule>
     ba8:	5888                	lw	a0,48(s1)
     baa:	f2050ce3          	beqz	a0,ae2 <rt_sem_take+0x60>
     bae:	b7b9                	j	afc <rt_sem_take+0x7a>

00000bb0 <rt_sem_release>:
     bb0:	ff2ff2ef          	jal	t0,3a2 <__riscv_save_0>
     bb4:	842a                	mv	s0,a0
     bb6:	ed01                	bnez	a0,bce <rt_sem_release+0x1e>
     bb8:	65b1                	lui	a1,0xc
     bba:	0000c537          	lui	a0,0xc
     bbe:	1b500613          	li	a2,437
     bc2:	e0458593          	addi	a1,a1,-508 # be04 <__FUNCTION__.2500>
     bc6:	e8c50513          	addi	a0,a0,-372 # be8c <__FUNCTION__.2500+0x88>
     bca:	017000ef          	jal	ra,13e0 <rt_assert_handler>
     bce:	8522                	mv	a0,s0
     bd0:	76d000ef          	jal	ra,1b3c <rt_object_get_type>
     bd4:	4789                	li	a5,2
     bd6:	00f50d63          	beq	a0,a5,bf0 <rt_sem_release+0x40>
     bda:	65b1                	lui	a1,0xc
     bdc:	0000c537          	lui	a0,0xc
     be0:	1b600613          	li	a2,438
     be4:	e0458593          	addi	a1,a1,-508 # be04 <__FUNCTION__.2500>
     be8:	e1450513          	addi	a0,a0,-492 # be14 <__FUNCTION__.2500+0x10>
     bec:	7f4000ef          	jal	ra,13e0 <rt_assert_handler>
     bf0:	8741a783          	lw	a5,-1932(gp) # 20000234 <rt_object_put_hook>
     bf4:	c399                	beqz	a5,bfa <rt_sem_release+0x4a>
     bf6:	8522                	mv	a0,s0
     bf8:	9782                	jalr	a5
     bfa:	1cb010ef          	jal	ra,25c4 <rt_hw_interrupt_disable>
     bfe:	84aa                	mv	s1,a0
     c00:	4848                	lw	a0,20(s0)
     c02:	01440793          	addi	a5,s0,20
     c06:	00f50f63          	beq	a0,a5,c24 <rt_sem_release+0x74>
     c0a:	1531                	addi	a0,a0,-20
     c0c:	528010ef          	jal	ra,2134 <rt_thread_resume>
     c10:	4405                	li	s0,1
     c12:	8526                	mv	a0,s1
     c14:	1bd010ef          	jal	ra,25d0 <rt_hw_interrupt_enable>
     c18:	c019                	beqz	s0,c1e <rt_sem_release+0x6e>
     c1a:	7a5000ef          	jal	ra,1bbe <rt_schedule>
     c1e:	4501                	li	a0,0
     c20:	fa6ff06f          	j	3c6 <__riscv_restore_0>
     c24:	2c5e                	lhu	a5,28(s0)
     c26:	0785                	addi	a5,a5,1
     c28:	ac5e                	sh	a5,28(s0)
     c2a:	4401                	li	s0,0
     c2c:	b7dd                	j	c12 <rt_sem_release+0x62>

00000c2e <rt_interrupt_enter>:
     c2e:	f74ff2ef          	jal	t0,3a2 <__riscv_save_0>
     c32:	1141                	addi	sp,sp,-16
     c34:	191010ef          	jal	ra,25c4 <rt_hw_interrupt_disable>
     c38:	83c18713          	addi	a4,gp,-1988 # 200001fc <rt_interrupt_nest>
     c3c:	231c                	lbu	a5,0(a4)
     c3e:	0785                	addi	a5,a5,1
     c40:	0ff7f793          	andi	a5,a5,255
     c44:	a31c                	sb	a5,0(a4)
     c46:	8341a783          	lw	a5,-1996(gp) # 200001f4 <rt_interrupt_enter_hook>
     c4a:	c781                	beqz	a5,c52 <rt_interrupt_enter+0x24>
     c4c:	c62a                	sw	a0,12(sp)
     c4e:	9782                	jalr	a5
     c50:	4532                	lw	a0,12(sp)
     c52:	17f010ef          	jal	ra,25d0 <rt_hw_interrupt_enable>
     c56:	0141                	addi	sp,sp,16
     c58:	f6eff06f          	j	3c6 <__riscv_restore_0>

00000c5c <rt_interrupt_leave>:
     c5c:	f46ff2ef          	jal	t0,3a2 <__riscv_save_0>
     c60:	1141                	addi	sp,sp,-16
     c62:	163010ef          	jal	ra,25c4 <rt_hw_interrupt_disable>
     c66:	83c18713          	addi	a4,gp,-1988 # 200001fc <rt_interrupt_nest>
     c6a:	231c                	lbu	a5,0(a4)
     c6c:	17fd                	addi	a5,a5,-1
     c6e:	0ff7f793          	andi	a5,a5,255
     c72:	a31c                	sb	a5,0(a4)
     c74:	8381a783          	lw	a5,-1992(gp) # 200001f8 <rt_interrupt_leave_hook>
     c78:	c781                	beqz	a5,c80 <rt_interrupt_leave+0x24>
     c7a:	c62a                	sw	a0,12(sp)
     c7c:	9782                	jalr	a5
     c7e:	4532                	lw	a0,12(sp)
     c80:	151010ef          	jal	ra,25d0 <rt_hw_interrupt_enable>
     c84:	0141                	addi	sp,sp,16
     c86:	f40ff06f          	j	3c6 <__riscv_restore_0>

00000c8a <rt_interrupt_get_nest>:
     c8a:	83c1c503          	lbu	a0,-1988(gp) # 200001fc <rt_interrupt_nest>
     c8e:	8082                	ret

00000c90 <print_number>:
     c90:	04087893          	andi	a7,a6,64
     c94:	1141                	addi	sp,sp,-16
     c96:	00089e63          	bnez	a7,cb2 <print_number+0x22>
     c9a:	68b1                	lui	a7,0xc
     c9c:	0c488893          	addi	a7,a7,196 # c0c4 <small_digits.2598>
     ca0:	01087393          	andi	t2,a6,16
     ca4:	00038b63          	beqz	t2,cba <print_number+0x2a>
     ca8:	ffe87813          	andi	a6,a6,-2
     cac:	02000e93          	li	t4,32
     cb0:	a819                	j	cc6 <print_number+0x36>
     cb2:	68b1                	lui	a7,0xc
     cb4:	fe888893          	addi	a7,a7,-24 # bfe8 <large_digits.2599>
     cb8:	b7e5                	j	ca0 <print_number+0x10>
     cba:	00187313          	andi	t1,a6,1
     cbe:	03000e93          	li	t4,48
     cc2:	fe0305e3          	beqz	t1,cac <print_number+0x1c>
     cc6:	00287313          	andi	t1,a6,2
     cca:	06030e63          	beqz	t1,d46 <print_number+0xb6>
     cce:	02065863          	bgez	a2,cfe <print_number+0x6e>
     cd2:	40c00633          	neg	a2,a2
     cd6:	02d00293          	li	t0,45
     cda:	8e0a                	mv	t3,sp
     cdc:	4f81                	li	t6,0
     cde:	4f29                	li	t5,10
     ce0:	07e69563          	bne	a3,t5,d4a <print_number+0xba>
     ce4:	02d67333          	remu	t1,a2,a3
     ce8:	02d65633          	divu	a2,a2,a3
     cec:	9346                	add	t1,t1,a7
     cee:	00034303          	lbu	t1,0(t1)
     cf2:	0f85                	addi	t6,t6,1
     cf4:	0e05                	addi	t3,t3,1
     cf6:	fe6e0fa3          	sb	t1,-1(t3)
     cfa:	f27d                	bnez	a2,ce0 <print_number+0x50>
     cfc:	a00d                	j	d1e <print_number+0x8e>
     cfe:	00487313          	andi	t1,a6,4
     d02:	02b00293          	li	t0,43
     d06:	00031763          	bnez	t1,d14 <print_number+0x84>
     d0a:	00887293          	andi	t0,a6,8
     d0e:	005032b3          	snez	t0,t0
     d12:	0296                	slli	t0,t0,0x5
     d14:	f279                	bnez	a2,cda <print_number+0x4a>
     d16:	03000693          	li	a3,48
     d1a:	8054                	sb	a3,0(sp)
     d1c:	4f85                	li	t6,1
     d1e:	86fe                	mv	a3,t6
     d20:	00ffd363          	bge	t6,a5,d26 <print_number+0x96>
     d24:	86be                	mv	a3,a5
     d26:	01187813          	andi	a6,a6,17
     d2a:	8f15                	sub	a4,a4,a3
     d2c:	04081363          	bnez	a6,d72 <print_number+0xe2>
     d30:	00028563          	beqz	t0,d3a <print_number+0xaa>
     d34:	00e05363          	blez	a4,d3a <print_number+0xaa>
     d38:	177d                	addi	a4,a4,-1
     d3a:	862a                	mv	a2,a0
     d3c:	00e508b3          	add	a7,a0,a4
     d40:	02000313          	li	t1,32
     d44:	a821                	j	d5c <print_number+0xcc>
     d46:	4281                	li	t0,0
     d48:	b7f1                	j	d14 <print_number+0x84>
     d4a:	00f67313          	andi	t1,a2,15
     d4e:	8211                	srli	a2,a2,0x4
     d50:	bf71                	j	cec <print_number+0x5c>
     d52:	00b67463          	bgeu	a2,a1,d5a <print_number+0xca>
     d56:	00660023          	sb	t1,0(a2)
     d5a:	0605                	addi	a2,a2,1
     d5c:	40c88833          	sub	a6,a7,a2
     d60:	ff0049e3          	bgtz	a6,d52 <print_number+0xc2>
     d64:	863a                	mv	a2,a4
     d66:	00075363          	bgez	a4,d6c <print_number+0xdc>
     d6a:	4601                	li	a2,0
     d6c:	177d                	addi	a4,a4,-1
     d6e:	9532                	add	a0,a0,a2
     d70:	8f11                	sub	a4,a4,a2
     d72:	00028863          	beqz	t0,d82 <print_number+0xf2>
     d76:	00b57463          	bgeu	a0,a1,d7e <print_number+0xee>
     d7a:	00550023          	sb	t0,0(a0)
     d7e:	177d                	addi	a4,a4,-1
     d80:	0505                	addi	a0,a0,1
     d82:	02038763          	beqz	t2,db0 <print_number+0x120>
     d86:	96aa                	add	a3,a3,a0
     d88:	03000813          	li	a6,48
     d8c:	a81d                	j	dc2 <print_number+0x132>
     d8e:	00b67463          	bgeu	a2,a1,d96 <print_number+0x106>
     d92:	01d60023          	sb	t4,0(a2)
     d96:	0605                	addi	a2,a2,1
     d98:	40c88833          	sub	a6,a7,a2
     d9c:	ff0049e3          	bgtz	a6,d8e <print_number+0xfe>
     da0:	863a                	mv	a2,a4
     da2:	00075363          	bgez	a4,da8 <print_number+0x118>
     da6:	4601                	li	a2,0
     da8:	177d                	addi	a4,a4,-1
     daa:	9532                	add	a0,a0,a2
     dac:	8f11                	sub	a4,a4,a2
     dae:	bfe1                	j	d86 <print_number+0xf6>
     db0:	862a                	mv	a2,a0
     db2:	00e508b3          	add	a7,a0,a4
     db6:	b7cd                	j	d98 <print_number+0x108>
     db8:	00b57463          	bgeu	a0,a1,dc0 <print_number+0x130>
     dbc:	01050023          	sb	a6,0(a0)
     dc0:	0505                	addi	a0,a0,1
     dc2:	40a68633          	sub	a2,a3,a0
     dc6:	fecfc9e3          	blt	t6,a2,db8 <print_number+0x128>
     dca:	56fd                	li	a3,-1
     dcc:	1ffd                	addi	t6,t6,-1
     dce:	00df8363          	beq	t6,a3,dd4 <print_number+0x144>
     dd2:	e799                	bnez	a5,de0 <print_number+0x150>
     dd4:	87aa                	mv	a5,a0
     dd6:	00e50633          	add	a2,a0,a4
     dda:	02000813          	li	a6,32
     dde:	a831                	j	dfa <print_number+0x16a>
     de0:	00b57663          	bgeu	a0,a1,dec <print_number+0x15c>
     de4:	01f10633          	add	a2,sp,t6
     de8:	2210                	lbu	a2,0(a2)
     dea:	a110                	sb	a2,0(a0)
     dec:	0505                	addi	a0,a0,1
     dee:	bff9                	j	dcc <print_number+0x13c>
     df0:	00b7f463          	bgeu	a5,a1,df8 <print_number+0x168>
     df4:	01078023          	sb	a6,0(a5) # 10000 <asc2_3216+0x13f4>
     df8:	0785                	addi	a5,a5,1
     dfa:	40f606b3          	sub	a3,a2,a5
     dfe:	fed049e3          	bgtz	a3,df0 <print_number+0x160>
     e02:	00075363          	bgez	a4,e08 <print_number+0x178>
     e06:	4701                	li	a4,0
     e08:	953a                	add	a0,a0,a4
     e0a:	0141                	addi	sp,sp,16
     e0c:	8082                	ret

00000e0e <rt_set_errno>:
     e0e:	d94ff2ef          	jal	t0,3a2 <__riscv_save_0>
     e12:	842a                	mv	s0,a0
     e14:	3d9d                	jal	c8a <rt_interrupt_get_nest>
     e16:	c509                	beqz	a0,e20 <rt_set_errno+0x12>
     e18:	8481a023          	sw	s0,-1984(gp) # 20000200 <__rt_errno>
     e1c:	daaff06f          	j	3c6 <__riscv_restore_0>
     e20:	166010ef          	jal	ra,1f86 <rt_thread_self>
     e24:	d975                	beqz	a0,e18 <rt_set_errno+0xa>
     e26:	d900                	sw	s0,48(a0)
     e28:	bfd5                	j	e1c <rt_set_errno+0xe>

00000e2a <rt_memset>:
     e2a:	470d                	li	a4,3
     e2c:	87aa                	mv	a5,a0
     e2e:	00c77663          	bgeu	a4,a2,e3a <rt_memset+0x10>
     e32:	00357793          	andi	a5,a0,3
     e36:	c791                	beqz	a5,e42 <rt_memset+0x18>
     e38:	87aa                	mv	a5,a0
     e3a:	963e                	add	a2,a2,a5
     e3c:	06c79763          	bne	a5,a2,eaa <rt_memset+0x80>
     e40:	8082                	ret
     e42:	0ff5f793          	andi	a5,a1,255
     e46:	00879713          	slli	a4,a5,0x8
     e4a:	8fd9                	or	a5,a5,a4
     e4c:	01079713          	slli	a4,a5,0x10
     e50:	8f5d                	or	a4,a4,a5
     e52:	00c508b3          	add	a7,a0,a2
     e56:	87aa                	mv	a5,a0
     e58:	46bd                	li	a3,15
     e5a:	40f88833          	sub	a6,a7,a5
     e5e:	0306eb63          	bltu	a3,a6,e94 <rt_memset+0x6a>
     e62:	00465793          	srli	a5,a2,0x4
     e66:	56c1                	li	a3,-16
     e68:	02d786b3          	mul	a3,a5,a3
     e6c:	0792                	slli	a5,a5,0x4
     e6e:	97aa                	add	a5,a5,a0
     e70:	480d                	li	a6,3
     e72:	9636                	add	a2,a2,a3
     e74:	00c78333          	add	t1,a5,a2
     e78:	86be                	mv	a3,a5
     e7a:	40d308b3          	sub	a7,t1,a3
     e7e:	03186263          	bltu	a6,a7,ea2 <rt_memset+0x78>
     e82:	00265713          	srli	a4,a2,0x2
     e86:	56f1                	li	a3,-4
     e88:	02d706b3          	mul	a3,a4,a3
     e8c:	070a                	slli	a4,a4,0x2
     e8e:	97ba                	add	a5,a5,a4
     e90:	9636                	add	a2,a2,a3
     e92:	b765                	j	e3a <rt_memset+0x10>
     e94:	c398                	sw	a4,0(a5)
     e96:	c3d8                	sw	a4,4(a5)
     e98:	c798                	sw	a4,8(a5)
     e9a:	07c1                	addi	a5,a5,16
     e9c:	fee7ae23          	sw	a4,-4(a5)
     ea0:	bf6d                	j	e5a <rt_memset+0x30>
     ea2:	0691                	addi	a3,a3,4
     ea4:	fee6ae23          	sw	a4,-4(a3)
     ea8:	bfc9                	j	e7a <rt_memset+0x50>
     eaa:	0785                	addi	a5,a5,1
     eac:	feb78fa3          	sb	a1,-1(a5)
     eb0:	b771                	j	e3c <rt_memset+0x12>

00000eb2 <rt_memmove>:
     eb2:	04a5f263          	bgeu	a1,a0,ef6 <rt_memmove+0x44>
     eb6:	00c586b3          	add	a3,a1,a2
     eba:	02d57e63          	bgeu	a0,a3,ef6 <rt_memmove+0x44>
     ebe:	fff64593          	not	a1,a2
     ec2:	4781                	li	a5,0
     ec4:	17fd                	addi	a5,a5,-1
     ec6:	00f59363          	bne	a1,a5,ecc <rt_memmove+0x1a>
     eca:	8082                	ret
     ecc:	00f68733          	add	a4,a3,a5
     ed0:	00070803          	lb	a6,0(a4)
     ed4:	00c78733          	add	a4,a5,a2
     ed8:	972a                	add	a4,a4,a0
     eda:	01070023          	sb	a6,0(a4)
     ede:	b7dd                	j	ec4 <rt_memmove+0x12>
     ee0:	00f58733          	add	a4,a1,a5
     ee4:	00070683          	lb	a3,0(a4)
     ee8:	00f50733          	add	a4,a0,a5
     eec:	0785                	addi	a5,a5,1
     eee:	a314                	sb	a3,0(a4)
     ef0:	fef618e3          	bne	a2,a5,ee0 <rt_memmove+0x2e>
     ef4:	8082                	ret
     ef6:	4781                	li	a5,0
     ef8:	bfe5                	j	ef0 <rt_memmove+0x3e>

00000efa <rt_strncpy>:
     efa:	c60d                	beqz	a2,f24 <rt_strncpy+0x2a>
     efc:	87aa                	mv	a5,a0
     efe:	0585                	addi	a1,a1,1
     f00:	fff58703          	lb	a4,-1(a1)
     f04:	0785                	addi	a5,a5,1
     f06:	fff60693          	addi	a3,a2,-1
     f0a:	fee78fa3          	sb	a4,-1(a5)
     f0e:	eb09                	bnez	a4,f20 <rt_strncpy+0x26>
     f10:	963e                	add	a2,a2,a5
     f12:	0785                	addi	a5,a5,1
     f14:	00c79363          	bne	a5,a2,f1a <rt_strncpy+0x20>
     f18:	8082                	ret
     f1a:	fe078fa3          	sb	zero,-1(a5)
     f1e:	bfd5                	j	f12 <rt_strncpy+0x18>
     f20:	8636                	mv	a2,a3
     f22:	fef1                	bnez	a3,efe <rt_strncpy+0x4>
     f24:	8082                	ret

00000f26 <rt_strncmp>:
     f26:	4701                	li	a4,0
     f28:	00e61463          	bne	a2,a4,f30 <rt_strncmp+0xa>
     f2c:	4781                	li	a5,0
     f2e:	a839                	j	f4c <rt_strncmp+0x26>
     f30:	00e507b3          	add	a5,a0,a4
     f34:	00078683          	lb	a3,0(a5)
     f38:	00e587b3          	add	a5,a1,a4
     f3c:	239c                	lbu	a5,0(a5)
     f3e:	40f687b3          	sub	a5,a3,a5
     f42:	07e2                	slli	a5,a5,0x18
     f44:	87e1                	srai	a5,a5,0x18
     f46:	e399                	bnez	a5,f4c <rt_strncmp+0x26>
     f48:	0705                	addi	a4,a4,1
     f4a:	fef9                	bnez	a3,f28 <rt_strncmp+0x2>
     f4c:	853e                	mv	a0,a5
     f4e:	8082                	ret

00000f50 <rt_strlen>:
     f50:	87aa                	mv	a5,a0
     f52:	00078703          	lb	a4,0(a5)
     f56:	e701                	bnez	a4,f5e <rt_strlen+0xe>
     f58:	40a78533          	sub	a0,a5,a0
     f5c:	8082                	ret
     f5e:	0785                	addi	a5,a5,1
     f60:	bfcd                	j	f52 <rt_strlen+0x2>

00000f62 <rt_vsnprintf>:
     f62:	c18ff2ef          	jal	t0,37a <__riscv_save_10>
     f66:	892e                	mv	s2,a1
     f68:	01250bb3          	add	s7,a0,s2
     f6c:	1141                	addi	sp,sp,-16
     f6e:	8c2a                	mv	s8,a0
     f70:	85b6                	mv	a1,a3
     f72:	00abf563          	bgeu	s7,a0,f7c <rt_vsnprintf+0x1a>
     f76:	fff54913          	not	s2,a0
     f7a:	5bfd                	li	s7,-1
     f7c:	69c1                	lui	s3,0x10
     f7e:	0000ca37          	lui	s4,0xc
     f82:	8462                	mv	s0,s8
     f84:	02b00a93          	li	s5,43
     f88:	02000b13          	li	s6,32
     f8c:	19fd                	addi	s3,s3,-1
     f8e:	0bca0a13          	addi	s4,s4,188 # c0bc <large_digits.2599+0xd4>
     f92:	a831                	j	fae <rt_vsnprintf+0x4c>
     f94:	02500713          	li	a4,37
     f98:	02e78963          	beq	a5,a4,fca <rt_vsnprintf+0x68>
     f9c:	01747363          	bgeu	s0,s7,fa2 <rt_vsnprintf+0x40>
     fa0:	a01c                	sb	a5,0(s0)
     fa2:	00140513          	addi	a0,s0,1
     fa6:	84b2                	mv	s1,a2
     fa8:	00148613          	addi	a2,s1,1
     fac:	842a                	mv	s0,a0
     fae:	00060783          	lb	a5,0(a2)
     fb2:	f3ed                	bnez	a5,f94 <rt_vsnprintf+0x32>
     fb4:	00090663          	beqz	s2,fc0 <rt_vsnprintf+0x5e>
     fb8:	2f747c63          	bgeu	s0,s7,12b0 <rt_vsnprintf+0x34e>
     fbc:	00040023          	sb	zero,0(s0)
     fc0:	41840533          	sub	a0,s0,s8
     fc4:	0141                	addi	sp,sp,16
     fc6:	becff06f          	j	3b2 <__riscv_restore_10>
     fca:	4801                	li	a6,0
     fcc:	02d00713          	li	a4,45
     fd0:	02300693          	li	a3,35
     fd4:	03000513          	li	a0,48
     fd8:	a031                	j	fe4 <rt_vsnprintf+0x82>
     fda:	01579e63          	bne	a5,s5,ff6 <rt_vsnprintf+0x94>
     fde:	00486813          	ori	a6,a6,4
     fe2:	8626                	mv	a2,s1
     fe4:	00160783          	lb	a5,1(a2)
     fe8:	00160493          	addi	s1,a2,1
     fec:	fee797e3          	bne	a5,a4,fda <rt_vsnprintf+0x78>
     ff0:	01086813          	ori	a6,a6,16
     ff4:	b7fd                	j	fe2 <rt_vsnprintf+0x80>
     ff6:	01679563          	bne	a5,s6,1000 <rt_vsnprintf+0x9e>
     ffa:	00886813          	ori	a6,a6,8
     ffe:	b7d5                	j	fe2 <rt_vsnprintf+0x80>
    1000:	00d79563          	bne	a5,a3,100a <rt_vsnprintf+0xa8>
    1004:	02086813          	ori	a6,a6,32
    1008:	bfe9                	j	fe2 <rt_vsnprintf+0x80>
    100a:	00a79563          	bne	a5,a0,1014 <rt_vsnprintf+0xb2>
    100e:	00186813          	ori	a6,a6,1
    1012:	bfc1                	j	fe2 <rt_vsnprintf+0x80>
    1014:	fd078713          	addi	a4,a5,-48
    1018:	46a5                	li	a3,9
    101a:	04e6e663          	bltu	a3,a4,1066 <rt_vsnprintf+0x104>
    101e:	4701                	li	a4,0
    1020:	46a5                	li	a3,9
    1022:	4529                	li	a0,10
    1024:	a039                	j	1032 <rt_vsnprintf+0xd0>
    1026:	02a70733          	mul	a4,a4,a0
    102a:	0485                	addi	s1,s1,1
    102c:	973e                	add	a4,a4,a5
    102e:	fd070713          	addi	a4,a4,-48
    1032:	00048783          	lb	a5,0(s1)
    1036:	fd078613          	addi	a2,a5,-48
    103a:	fec6f6e3          	bgeu	a3,a2,1026 <rt_vsnprintf+0xc4>
    103e:	00048603          	lb	a2,0(s1)
    1042:	02e00693          	li	a3,46
    1046:	57fd                	li	a5,-1
    1048:	04d61f63          	bne	a2,a3,10a6 <rt_vsnprintf+0x144>
    104c:	00148783          	lb	a5,1(s1)
    1050:	4625                	li	a2,9
    1052:	00148693          	addi	a3,s1,1
    1056:	fd078513          	addi	a0,a5,-48
    105a:	0aa66563          	bltu	a2,a0,1104 <rt_vsnprintf+0x1a2>
    105e:	4781                	li	a5,0
    1060:	4525                	li	a0,9
    1062:	4329                	li	t1,10
    1064:	a03d                	j	1092 <rt_vsnprintf+0x130>
    1066:	02a00693          	li	a3,42
    106a:	577d                	li	a4,-1
    106c:	fcd799e3          	bne	a5,a3,103e <rt_vsnprintf+0xdc>
    1070:	4198                	lw	a4,0(a1)
    1072:	00260493          	addi	s1,a2,2
    1076:	0591                	addi	a1,a1,4
    1078:	fc0753e3          	bgez	a4,103e <rt_vsnprintf+0xdc>
    107c:	40e00733          	neg	a4,a4
    1080:	01086813          	ori	a6,a6,16
    1084:	bf6d                	j	103e <rt_vsnprintf+0xdc>
    1086:	026787b3          	mul	a5,a5,t1
    108a:	0685                	addi	a3,a3,1
    108c:	97b2                	add	a5,a5,a2
    108e:	fd078793          	addi	a5,a5,-48
    1092:	00068603          	lb	a2,0(a3)
    1096:	fd060893          	addi	a7,a2,-48
    109a:	ff1576e3          	bgeu	a0,a7,1086 <rt_vsnprintf+0x124>
    109e:	0007d363          	bgez	a5,10a4 <rt_vsnprintf+0x142>
    10a2:	4781                	li	a5,0
    10a4:	84b6                	mv	s1,a3
    10a6:	00048683          	lb	a3,0(s1)
    10aa:	06800613          	li	a2,104
    10ae:	4501                	li	a0,0
    10b0:	ffb6f893          	andi	a7,a3,-5
    10b4:	00c89563          	bne	a7,a2,10be <rt_vsnprintf+0x15c>
    10b8:	0ff6f513          	andi	a0,a3,255
    10bc:	0485                	addi	s1,s1,1
    10be:	00048603          	lb	a2,0(s1)
    10c2:	06900693          	li	a3,105
    10c6:	06d60363          	beq	a2,a3,112c <rt_vsnprintf+0x1ca>
    10ca:	06c6c563          	blt	a3,a2,1134 <rt_vsnprintf+0x1d2>
    10ce:	05800693          	li	a3,88
    10d2:	1cd60463          	beq	a2,a3,129a <rt_vsnprintf+0x338>
    10d6:	04c6c363          	blt	a3,a2,111c <rt_vsnprintf+0x1ba>
    10da:	02500793          	li	a5,37
    10de:	1af60863          	beq	a2,a5,128e <rt_vsnprintf+0x32c>
    10e2:	01747563          	bgeu	s0,s7,10ec <rt_vsnprintf+0x18a>
    10e6:	02500793          	li	a5,37
    10ea:	a01c                	sb	a5,0(s0)
    10ec:	00048783          	lb	a5,0(s1)
    10f0:	00140513          	addi	a0,s0,1
    10f4:	1a078763          	beqz	a5,12a2 <rt_vsnprintf+0x340>
    10f8:	01757363          	bgeu	a0,s7,10fe <rt_vsnprintf+0x19c>
    10fc:	b01c                	sb	a5,1(s0)
    10fe:	00240513          	addi	a0,s0,2
    1102:	b55d                	j	fa8 <rt_vsnprintf+0x46>
    1104:	02a00613          	li	a2,42
    1108:	00c79763          	bne	a5,a2,1116 <rt_vsnprintf+0x1b4>
    110c:	419c                	lw	a5,0(a1)
    110e:	00248693          	addi	a3,s1,2
    1112:	0591                	addi	a1,a1,4
    1114:	b769                	j	109e <rt_vsnprintf+0x13c>
    1116:	84b6                	mv	s1,a3
    1118:	4781                	li	a5,0
    111a:	b771                	j	10a6 <rt_vsnprintf+0x144>
    111c:	06300693          	li	a3,99
    1120:	08d60363          	beq	a2,a3,11a6 <rt_vsnprintf+0x244>
    1124:	06400693          	li	a3,100
    1128:	fad61de3          	bne	a2,a3,10e2 <rt_vsnprintf+0x180>
    112c:	00286813          	ori	a6,a6,2
    1130:	46a9                	li	a3,10
    1132:	a099                	j	1178 <rt_vsnprintf+0x216>
    1134:	07300693          	li	a3,115
    1138:	0cd60463          	beq	a2,a3,1200 <rt_vsnprintf+0x29e>
    113c:	02c6c563          	blt	a3,a2,1166 <rt_vsnprintf+0x204>
    1140:	06f00693          	li	a3,111
    1144:	16d60163          	beq	a2,a3,12a6 <rt_vsnprintf+0x344>
    1148:	07000693          	li	a3,112
    114c:	f8d61be3          	bne	a2,a3,10e2 <rt_vsnprintf+0x180>
    1150:	56fd                	li	a3,-1
    1152:	00d71563          	bne	a4,a3,115c <rt_vsnprintf+0x1fa>
    1156:	00186813          	ori	a6,a6,1
    115a:	4721                	li	a4,8
    115c:	00458c93          	addi	s9,a1,4
    1160:	46c1                	li	a3,16
    1162:	4190                	lw	a2,0(a1)
    1164:	a81d                	j	119a <rt_vsnprintf+0x238>
    1166:	07500693          	li	a3,117
    116a:	fcd603e3          	beq	a2,a3,1130 <rt_vsnprintf+0x1ce>
    116e:	07800893          	li	a7,120
    1172:	46c1                	li	a3,16
    1174:	f71617e3          	bne	a2,a7,10e2 <rt_vsnprintf+0x180>
    1178:	06c00613          	li	a2,108
    117c:	00458c93          	addi	s9,a1,4
    1180:	fec501e3          	beq	a0,a2,1162 <rt_vsnprintf+0x200>
    1184:	06800613          	li	a2,104
    1188:	fcc51de3          	bne	a0,a2,1162 <rt_vsnprintf+0x200>
    118c:	4190                	lw	a2,0(a1)
    118e:	00287593          	andi	a1,a6,2
    1192:	10059c63          	bnez	a1,12aa <rt_vsnprintf+0x348>
    1196:	01367633          	and	a2,a2,s3
    119a:	85de                	mv	a1,s7
    119c:	8522                	mv	a0,s0
    119e:	af3ff0ef          	jal	ra,c90 <print_number>
    11a2:	85e6                	mv	a1,s9
    11a4:	b511                	j	fa8 <rt_vsnprintf+0x46>
    11a6:	01087813          	andi	a6,a6,16
    11aa:	02081563          	bnez	a6,11d4 <rt_vsnprintf+0x272>
    11ae:	87ba                	mv	a5,a4
    11b0:	02000693          	li	a3,32
    11b4:	a029                	j	11be <rt_vsnprintf+0x25c>
    11b6:	01747363          	bgeu	s0,s7,11bc <rt_vsnprintf+0x25a>
    11ba:	a014                	sb	a3,0(s0)
    11bc:	0405                	addi	s0,s0,1
    11be:	17fd                	addi	a5,a5,-1
    11c0:	fef04be3          	bgtz	a5,11b6 <rt_vsnprintf+0x254>
    11c4:	fff70793          	addi	a5,a4,-1
    11c8:	00e04363          	bgtz	a4,11ce <rt_vsnprintf+0x26c>
    11cc:	4705                	li	a4,1
    11ce:	40e78733          	sub	a4,a5,a4
    11d2:	0705                	addi	a4,a4,1
    11d4:	00458793          	addi	a5,a1,4
    11d8:	01747463          	bgeu	s0,s7,11e0 <rt_vsnprintf+0x27e>
    11dc:	4194                	lw	a3,0(a1)
    11de:	a014                	sb	a3,0(s0)
    11e0:	00140513          	addi	a0,s0,1
    11e4:	9722                	add	a4,a4,s0
    11e6:	02000613          	li	a2,32
    11ea:	40a706b3          	sub	a3,a4,a0
    11ee:	00d04463          	bgtz	a3,11f6 <rt_vsnprintf+0x294>
    11f2:	85be                	mv	a1,a5
    11f4:	bb55                	j	fa8 <rt_vsnprintf+0x46>
    11f6:	01757363          	bgeu	a0,s7,11fc <rt_vsnprintf+0x29a>
    11fa:	a110                	sb	a2,0(a0)
    11fc:	0505                	addi	a0,a0,1
    11fe:	b7f5                	j	11ea <rt_vsnprintf+0x288>
    1200:	0005ac83          	lw	s9,0(a1)
    1204:	00458d13          	addi	s10,a1,4
    1208:	000c9363          	bnez	s9,120e <rt_vsnprintf+0x2ac>
    120c:	8cd2                	mv	s9,s4
    120e:	8566                	mv	a0,s9
    1210:	c63e                	sw	a5,12(sp)
    1212:	c43a                	sw	a4,8(sp)
    1214:	c242                	sw	a6,4(sp)
    1216:	3b2d                	jal	f50 <rt_strlen>
    1218:	47b2                	lw	a5,12(sp)
    121a:	86aa                	mv	a3,a0
    121c:	4812                	lw	a6,4(sp)
    121e:	4722                	lw	a4,8(sp)
    1220:	00f05563          	blez	a5,122a <rt_vsnprintf+0x2c8>
    1224:	00a7d363          	bge	a5,a0,122a <rt_vsnprintf+0x2c8>
    1228:	86be                	mv	a3,a5
    122a:	01087813          	andi	a6,a6,16
    122e:	00081e63          	bnez	a6,124a <rt_vsnprintf+0x2e8>
    1232:	87ba                	mv	a5,a4
    1234:	02000613          	li	a2,32
    1238:	a031                	j	1244 <rt_vsnprintf+0x2e2>
    123a:	01747363          	bgeu	s0,s7,1240 <rt_vsnprintf+0x2de>
    123e:	a010                	sb	a2,0(s0)
    1240:	0405                	addi	s0,s0,1
    1242:	87ba                	mv	a5,a4
    1244:	177d                	addi	a4,a4,-1
    1246:	fef6cae3          	blt	a3,a5,123a <rt_vsnprintf+0x2d8>
    124a:	4781                	li	a5,0
    124c:	02d7c163          	blt	a5,a3,126e <rt_vsnprintf+0x30c>
    1250:	87b6                	mv	a5,a3
    1252:	0006d363          	bgez	a3,1258 <rt_vsnprintf+0x2f6>
    1256:	4781                	li	a5,0
    1258:	00f40533          	add	a0,s0,a5
    125c:	972a                	add	a4,a4,a0
    125e:	02000613          	li	a2,32
    1262:	40a707b3          	sub	a5,a4,a0
    1266:	00f6cf63          	blt	a3,a5,1284 <rt_vsnprintf+0x322>
    126a:	85ea                	mv	a1,s10
    126c:	bb35                	j	fa8 <rt_vsnprintf+0x46>
    126e:	00f40633          	add	a2,s0,a5
    1272:	01767763          	bgeu	a2,s7,1280 <rt_vsnprintf+0x31e>
    1276:	00fc85b3          	add	a1,s9,a5
    127a:	00058583          	lb	a1,0(a1)
    127e:	a20c                	sb	a1,0(a2)
    1280:	0785                	addi	a5,a5,1
    1282:	b7e9                	j	124c <rt_vsnprintf+0x2ea>
    1284:	01757363          	bgeu	a0,s7,128a <rt_vsnprintf+0x328>
    1288:	a110                	sb	a2,0(a0)
    128a:	0505                	addi	a0,a0,1
    128c:	bfd9                	j	1262 <rt_vsnprintf+0x300>
    128e:	01747363          	bgeu	s0,s7,1294 <rt_vsnprintf+0x332>
    1292:	a010                	sb	a2,0(s0)
    1294:	00140513          	addi	a0,s0,1
    1298:	bb01                	j	fa8 <rt_vsnprintf+0x46>
    129a:	04086813          	ori	a6,a6,64
    129e:	46c1                	li	a3,16
    12a0:	bde1                	j	1178 <rt_vsnprintf+0x216>
    12a2:	14fd                	addi	s1,s1,-1
    12a4:	b311                	j	fa8 <rt_vsnprintf+0x46>
    12a6:	46a1                	li	a3,8
    12a8:	bdc1                	j	1178 <rt_vsnprintf+0x216>
    12aa:	0642                	slli	a2,a2,0x10
    12ac:	8641                	srai	a2,a2,0x10
    12ae:	b5f5                	j	119a <rt_vsnprintf+0x238>
    12b0:	fe0b8fa3          	sb	zero,-1(s7)
    12b4:	b331                	j	fc0 <rt_vsnprintf+0x5e>

000012b6 <rt_console_get_device>:
    12b6:	8441a503          	lw	a0,-1980(gp) # 20000204 <_console_device>
    12ba:	8082                	ret

000012bc <rt_console_set_device>:
    12bc:	8e6ff2ef          	jal	t0,3a2 <__riscv_save_0>
    12c0:	8441a903          	lw	s2,-1980(gp) # 20000204 <_console_device>
    12c4:	b22ff0ef          	jal	ra,5e6 <rt_device_find>
    12c8:	cd11                	beqz	a0,12e4 <rt_console_set_device+0x28>
    12ca:	84418413          	addi	s0,gp,-1980 # 20000204 <_console_device>
    12ce:	84aa                	mv	s1,a0
    12d0:	4008                	lw	a0,0(s0)
    12d2:	c119                	beqz	a0,12d8 <rt_console_set_device+0x1c>
    12d4:	c7aff0ef          	jal	ra,74e <rt_device_close>
    12d8:	04300593          	li	a1,67
    12dc:	8526                	mv	a0,s1
    12de:	b9eff0ef          	jal	ra,67c <rt_device_open>
    12e2:	c004                	sw	s1,0(s0)
    12e4:	854a                	mv	a0,s2
    12e6:	8e0ff06f          	j	3c6 <__riscv_restore_0>

000012ea <rt_hw_console_output>:
    12ea:	8082                	ret

000012ec <rt_kprintf>:
    12ec:	7139                	addi	sp,sp,-64
    12ee:	ca26                	sw	s1,20(sp)
    12f0:	d22e                	sw	a1,36(sp)
    12f2:	d432                	sw	a2,40(sp)
    12f4:	d636                	sw	a3,44(sp)
    12f6:	862a                	mv	a2,a0
    12f8:	1054                	addi	a3,sp,36
    12fa:	07f00593          	li	a1,127
    12fe:	b7418513          	addi	a0,gp,-1164 # 20000534 <rt_log_buf.2709>
    1302:	da3e                	sw	a5,52(sp)
    1304:	c636                	sw	a3,12(sp)
    1306:	ce06                	sw	ra,28(sp)
    1308:	cc22                	sw	s0,24(sp)
    130a:	d83a                	sw	a4,48(sp)
    130c:	dc42                	sw	a6,56(sp)
    130e:	de46                	sw	a7,60(sp)
    1310:	3989                	jal	f62 <rt_vsnprintf>
    1312:	86aa                	mv	a3,a0
    1314:	8441a503          	lw	a0,-1980(gp) # 20000204 <_console_device>
    1318:	e909                	bnez	a0,132a <rt_kprintf+0x3e>
    131a:	b7418513          	addi	a0,gp,-1164 # 20000534 <rt_log_buf.2709>
    131e:	37f1                	jal	12ea <rt_hw_console_output>
    1320:	40f2                	lw	ra,28(sp)
    1322:	4462                	lw	s0,24(sp)
    1324:	44d2                	lw	s1,20(sp)
    1326:	6121                	addi	sp,sp,64
    1328:	8082                	ret
    132a:	8626                	mv	a2,s1
    132c:	2d26                	lhu	s1,26(a0)
    132e:	84418413          	addi	s0,gp,-1980 # 20000204 <_console_device>
    1332:	0404e793          	ori	a5,s1,64
    1336:	ad3e                	sh	a5,26(a0)
    1338:	07f00793          	li	a5,127
    133c:	00d7f463          	bgeu	a5,a3,1344 <rt_kprintf+0x58>
    1340:	07f00693          	li	a3,127
    1344:	b7418613          	addi	a2,gp,-1164 # 20000534 <rt_log_buf.2709>
    1348:	4581                	li	a1,0
    134a:	cd4ff0ef          	jal	ra,81e <rt_device_write>
    134e:	401c                	lw	a5,0(s0)
    1350:	afa6                	sh	s1,26(a5)
    1352:	b7f9                	j	1320 <rt_kprintf+0x34>

00001354 <rt_show_version>:
    1354:	84eff2ef          	jal	t0,3a2 <__riscv_save_0>
    1358:	0000c537          	lui	a0,0xc
    135c:	03450513          	addi	a0,a0,52 # c034 <large_digits.2599+0x4c>
    1360:	3771                	jal	12ec <rt_kprintf>
    1362:	0000c537          	lui	a0,0xc
    1366:	04050513          	addi	a0,a0,64 # c040 <large_digits.2599+0x58>
    136a:	3749                	jal	12ec <rt_kprintf>
    136c:	0000c737          	lui	a4,0xc
    1370:	0000c537          	lui	a0,0xc
    1374:	06470713          	addi	a4,a4,100 # c064 <large_digits.2599+0x7c>
    1378:	468d                	li	a3,3
    137a:	4605                	li	a2,1
    137c:	458d                	li	a1,3
    137e:	07050513          	addi	a0,a0,112 # c070 <large_digits.2599+0x88>
    1382:	37ad                	jal	12ec <rt_kprintf>
    1384:	0000c537          	lui	a0,0xc
    1388:	09050513          	addi	a0,a0,144 # c090 <large_digits.2599+0xa8>
    138c:	3785                	jal	12ec <rt_kprintf>
    138e:	838ff06f          	j	3c6 <__riscv_restore_0>

00001392 <__rt_ffs>:
    1392:	c531                	beqz	a0,13de <__rt_ffs+0x4c>
    1394:	66b1                	lui	a3,0xc
    1396:	0ff57713          	andi	a4,a0,255
    139a:	ee868693          	addi	a3,a3,-280 # bee8 <__lowest_bit_bitmap>
    139e:	c709                	beqz	a4,13a8 <__rt_ffs+0x16>
    13a0:	96ba                	add	a3,a3,a4
    13a2:	2288                	lbu	a0,0(a3)
    13a4:	0505                	addi	a0,a0,1
    13a6:	8082                	ret
    13a8:	67c1                	lui	a5,0x10
    13aa:	f0078793          	addi	a5,a5,-256 # ff00 <asc2_3216+0x12f4>
    13ae:	8fe9                	and	a5,a5,a0
    13b0:	cb81                	beqz	a5,13c0 <__rt_ffs+0x2e>
    13b2:	8521                	srai	a0,a0,0x8
    13b4:	0ff57713          	andi	a4,a0,255
    13b8:	9736                	add	a4,a4,a3
    13ba:	2308                	lbu	a0,0(a4)
    13bc:	0525                	addi	a0,a0,9
    13be:	8082                	ret
    13c0:	00ff07b7          	lui	a5,0xff0
    13c4:	8fe9                	and	a5,a5,a0
    13c6:	cb81                	beqz	a5,13d6 <__rt_ffs+0x44>
    13c8:	8541                	srai	a0,a0,0x10
    13ca:	0ff57793          	andi	a5,a0,255
    13ce:	97b6                	add	a5,a5,a3
    13d0:	2388                	lbu	a0,0(a5)
    13d2:	0545                	addi	a0,a0,17
    13d4:	8082                	ret
    13d6:	8161                	srli	a0,a0,0x18
    13d8:	9536                	add	a0,a0,a3
    13da:	2108                	lbu	a0,0(a0)
    13dc:	0565                	addi	a0,a0,25
    13de:	8082                	ret

000013e0 <rt_assert_handler>:
    13e0:	fc3fe2ef          	jal	t0,3a2 <__riscv_save_0>
    13e4:	8481a783          	lw	a5,-1976(gp) # 20000208 <rt_assert_hook>
    13e8:	1141                	addi	sp,sp,-16
    13ea:	000107a3          	sb	zero,15(sp)
    13ee:	e385                	bnez	a5,140e <rt_assert_handler+0x2e>
    13f0:	86b2                	mv	a3,a2
    13f2:	862e                	mv	a2,a1
    13f4:	85aa                	mv	a1,a0
    13f6:	0000c537          	lui	a0,0xc
    13fa:	ffc50513          	addi	a0,a0,-4 # bffc <large_digits.2599+0x14>
    13fe:	35fd                	jal	12ec <rt_kprintf>
    1400:	879c                	lbu	a5,15(sp)
    1402:	07e2                	slli	a5,a5,0x18
    1404:	87e1                	srai	a5,a5,0x18
    1406:	dfed                	beqz	a5,1400 <rt_assert_handler+0x20>
    1408:	0141                	addi	sp,sp,16
    140a:	fbdfe06f          	j	3c6 <__riscv_restore_0>
    140e:	9782                	jalr	a5
    1410:	bfe5                	j	1408 <rt_assert_handler+0x28>

00001412 <list_mem>:
    1412:	f91fe2ef          	jal	t0,3a2 <__riscv_save_0>
    1416:	85c1a583          	lw	a1,-1956(gp) # 2000021c <mem_size_aligned>
    141a:	0000c537          	lui	a0,0xc
    141e:	10450513          	addi	a0,a0,260 # c104 <__FUNCTION__.2474+0xc>
    1422:	35e9                	jal	12ec <rt_kprintf>
    1424:	8681a583          	lw	a1,-1944(gp) # 20000228 <used_mem>
    1428:	0000c537          	lui	a0,0xc
    142c:	11850513          	addi	a0,a0,280 # c118 <__FUNCTION__.2474+0x20>
    1430:	3d75                	jal	12ec <rt_kprintf>
    1432:	8581a583          	lw	a1,-1960(gp) # 20000218 <max_mem>
    1436:	0000c537          	lui	a0,0xc
    143a:	12c50513          	addi	a0,a0,300 # c12c <__FUNCTION__.2474+0x34>
    143e:	357d                	jal	12ec <rt_kprintf>
    1440:	f87fe06f          	j	3c6 <__riscv_restore_0>

00001444 <plug_holes>:
    1444:	f5ffe2ef          	jal	t0,3a2 <__riscv_save_0>
    1448:	8501a703          	lw	a4,-1968(gp) # 20000210 <heap_ptr>
    144c:	842a                	mv	s0,a0
    144e:	85018913          	addi	s2,gp,-1968 # 20000210 <heap_ptr>
    1452:	00e57c63          	bgeu	a0,a4,146a <plug_holes+0x26>
    1456:	65b1                	lui	a1,0xc
    1458:	0000c537          	lui	a0,0xc
    145c:	09400613          	li	a2,148
    1460:	0d858593          	addi	a1,a1,216 # c0d8 <__FUNCTION__.2456>
    1464:	17850513          	addi	a0,a0,376 # c178 <__fsym_list_mem_name+0xc>
    1468:	3fa5                	jal	13e0 <rt_assert_handler>
    146a:	84c1a703          	lw	a4,-1972(gp) # 2000020c <heap_end>
    146e:	84c18493          	addi	s1,gp,-1972 # 2000020c <heap_end>
    1472:	00e46c63          	bltu	s0,a4,148a <plug_holes+0x46>
    1476:	65b1                	lui	a1,0xc
    1478:	0000c537          	lui	a0,0xc
    147c:	09500613          	li	a2,149
    1480:	0d858593          	addi	a1,a1,216 # c0d8 <__FUNCTION__.2456>
    1484:	19850513          	addi	a0,a0,408 # c198 <__fsym_list_mem_name+0x2c>
    1488:	3fa1                	jal	13e0 <rt_assert_handler>
    148a:	203e                	lhu	a5,2(s0)
    148c:	cb99                	beqz	a5,14a2 <plug_holes+0x5e>
    148e:	65b1                	lui	a1,0xc
    1490:	0000c537          	lui	a0,0xc
    1494:	09600613          	li	a2,150
    1498:	0d858593          	addi	a1,a1,216 # c0d8 <__FUNCTION__.2456>
    149c:	1c450513          	addi	a0,a0,452 # c1c4 <__fsym_list_mem_name+0x58>
    14a0:	3781                	jal	13e0 <rt_assert_handler>
    14a2:	00092703          	lw	a4,0(s2)
    14a6:	405c                	lw	a5,4(s0)
    14a8:	97ba                	add	a5,a5,a4
    14aa:	02f40463          	beq	s0,a5,14d2 <plug_holes+0x8e>
    14ae:	23b6                	lhu	a3,2(a5)
    14b0:	e28d                	bnez	a3,14d2 <plug_holes+0x8e>
    14b2:	4094                	lw	a3,0(s1)
    14b4:	00f68f63          	beq	a3,a5,14d2 <plug_holes+0x8e>
    14b8:	85418693          	addi	a3,gp,-1964 # 20000214 <lfree>
    14bc:	4290                	lw	a2,0(a3)
    14be:	00f61363          	bne	a2,a5,14c4 <plug_holes+0x80>
    14c2:	c280                	sw	s0,0(a3)
    14c4:	43d4                	lw	a3,4(a5)
    14c6:	c054                	sw	a3,4(s0)
    14c8:	43dc                	lw	a5,4(a5)
    14ca:	40e406b3          	sub	a3,s0,a4
    14ce:	97ba                	add	a5,a5,a4
    14d0:	c794                	sw	a3,8(a5)
    14d2:	4410                	lw	a2,8(s0)
    14d4:	00c707b3          	add	a5,a4,a2
    14d8:	00f40f63          	beq	s0,a5,14f6 <plug_holes+0xb2>
    14dc:	23b6                	lhu	a3,2(a5)
    14de:	ee81                	bnez	a3,14f6 <plug_holes+0xb2>
    14e0:	85418693          	addi	a3,gp,-1964 # 20000214 <lfree>
    14e4:	428c                	lw	a1,0(a3)
    14e6:	00859363          	bne	a1,s0,14ec <plug_holes+0xa8>
    14ea:	c29c                	sw	a5,0(a3)
    14ec:	4054                	lw	a3,4(s0)
    14ee:	c3d4                	sw	a3,4(a5)
    14f0:	405c                	lw	a5,4(s0)
    14f2:	973e                	add	a4,a4,a5
    14f4:	c710                	sw	a2,8(a4)
    14f6:	ed1fe06f          	j	3c6 <__riscv_restore_0>

000014fa <rt_system_heap_init>:
    14fa:	e8ffe2ef          	jal	t0,388 <__riscv_save_4>
    14fe:	00350413          	addi	s0,a0,3
    1502:	892a                	mv	s2,a0
    1504:	89ae                	mv	s3,a1
    1506:	ffc5f493          	andi	s1,a1,-4
    150a:	0ba010ef          	jal	ra,25c4 <rt_hw_interrupt_disable>
    150e:	9871                	andi	s0,s0,-4
    1510:	8aaa                	mv	s5,a0
    1512:	f78ff0ef          	jal	ra,c8a <rt_interrupt_get_nest>
    1516:	c115                	beqz	a0,153a <rt_system_heap_init+0x40>
    1518:	6a31                	lui	s4,0xc
    151a:	0000c537          	lui	a0,0xc
    151e:	0e4a0593          	addi	a1,s4,228 # c0e4 <__FUNCTION__.2465>
    1522:	dbc50513          	addi	a0,a0,-580 # bdbc <__FUNCTION__.2459+0x18>
    1526:	33d9                	jal	12ec <rt_kprintf>
    1528:	0000c537          	lui	a0,0xc
    152c:	0c500613          	li	a2,197
    1530:	0e4a0593          	addi	a1,s4,228
    1534:	36850513          	addi	a0,a0,872 # c368 <__fsym_list_mem_name+0x1fc>
    1538:	3565                	jal	13e0 <rt_assert_handler>
    153a:	8556                	mv	a0,s5
    153c:	094010ef          	jal	ra,25d0 <rt_hw_interrupt_enable>
    1540:	47e1                	li	a5,24
    1542:	0497ff63          	bgeu	a5,s1,15a0 <rt_system_heap_init+0xa6>
    1546:	fe848793          	addi	a5,s1,-24
    154a:	0487eb63          	bltu	a5,s0,15a0 <rt_system_heap_init+0xa6>
    154e:	408487b3          	sub	a5,s1,s0
    1552:	fe878693          	addi	a3,a5,-24 # feffe8 <__rt_init_end+0xfded30>
    1556:	84d1ae23          	sw	a3,-1956(gp) # 2000021c <mem_size_aligned>
    155a:	6709                	lui	a4,0x2
    155c:	17d1                	addi	a5,a5,-12
    155e:	85018493          	addi	s1,gp,-1968 # 20000210 <heap_ptr>
    1562:	ea070713          	addi	a4,a4,-352 # 1ea0 <rt_thread_timeout+0x2>
    1566:	c05c                	sw	a5,4(s0)
    1568:	c018                	sw	a4,0(s0)
    156a:	00042423          	sw	zero,8(s0)
    156e:	c080                	sw	s0,0(s1)
    1570:	943e                	add	s0,s0,a5
    1572:	8481a623          	sw	s0,-1972(gp) # 2000020c <heap_end>
    1576:	6749                	lui	a4,0x12
    1578:	ea070713          	addi	a4,a4,-352 # 11ea0 <__rt_init_end+0xbe8>
    157c:	0000c5b7          	lui	a1,0xc
    1580:	c018                	sw	a4,0(s0)
    1582:	c05c                	sw	a5,4(s0)
    1584:	c41c                	sw	a5,8(s0)
    1586:	4681                	li	a3,0
    1588:	4605                	li	a2,1
    158a:	39c58593          	addi	a1,a1,924 # c39c <__fsym_list_mem_name+0x230>
    158e:	bf418513          	addi	a0,gp,-1036 # 200005b4 <heap_sem>
    1592:	c92ff0ef          	jal	ra,a24 <rt_sem_init>
    1596:	4098                	lw	a4,0(s1)
    1598:	84e1aa23          	sw	a4,-1964(gp) # 20000214 <lfree>
    159c:	e21fe06f          	j	3bc <__riscv_restore_4>
    15a0:	0000c537          	lui	a0,0xc
    15a4:	864e                	mv	a2,s3
    15a6:	85ca                	mv	a1,s2
    15a8:	3a450513          	addi	a0,a0,932 # c3a4 <__fsym_list_mem_name+0x238>
    15ac:	3381                	jal	12ec <rt_kprintf>
    15ae:	b7fd                	j	159c <rt_system_heap_init+0xa2>

000015b0 <rt_malloc>:
    15b0:	dd9fe2ef          	jal	t0,388 <__riscv_save_4>
    15b4:	e119                	bnez	a0,15ba <rt_malloc+0xa>
    15b6:	4901                	li	s2,0
    15b8:	a261                	j	1740 <rt_malloc+0x190>
    15ba:	842a                	mv	s0,a0
    15bc:	008010ef          	jal	ra,25c4 <rt_hw_interrupt_disable>
    15c0:	892a                	mv	s2,a0
    15c2:	ec8ff0ef          	jal	ra,c8a <rt_interrupt_get_nest>
    15c6:	c115                	beqz	a0,15ea <rt_malloc+0x3a>
    15c8:	64b1                	lui	s1,0xc
    15ca:	0000c537          	lui	a0,0xc
    15ce:	0f848593          	addi	a1,s1,248 # c0f8 <__FUNCTION__.2474>
    15d2:	dbc50513          	addi	a0,a0,-580 # bdbc <__FUNCTION__.2459+0x18>
    15d6:	3b19                	jal	12ec <rt_kprintf>
    15d8:	0000c537          	lui	a0,0xc
    15dc:	10b00613          	li	a2,267
    15e0:	0f848593          	addi	a1,s1,248
    15e4:	36850513          	addi	a0,a0,872 # c368 <__fsym_list_mem_name+0x1fc>
    15e8:	3be5                	jal	13e0 <rt_assert_handler>
    15ea:	854a                	mv	a0,s2
    15ec:	7e5000ef          	jal	ra,25d0 <rt_hw_interrupt_enable>
    15f0:	85c1a703          	lw	a4,-1956(gp) # 2000021c <mem_size_aligned>
    15f4:	040d                	addi	s0,s0,3
    15f6:	9871                	andi	s0,s0,-4
    15f8:	85c18493          	addi	s1,gp,-1956 # 2000021c <mem_size_aligned>
    15fc:	fa876de3          	bltu	a4,s0,15b6 <rt_malloc+0x6>
    1600:	47b1                	li	a5,12
    1602:	00f47363          	bgeu	s0,a5,1608 <rt_malloc+0x58>
    1606:	4431                	li	s0,12
    1608:	55fd                	li	a1,-1
    160a:	bf418513          	addi	a0,gp,-1036 # 200005b4 <heap_sem>
    160e:	c74ff0ef          	jal	ra,a82 <rt_sem_take>
    1612:	8541a783          	lw	a5,-1964(gp) # 20000214 <lfree>
    1616:	8501a583          	lw	a1,-1968(gp) # 20000210 <heap_ptr>
    161a:	0004a883          	lw	a7,0(s1)
    161e:	854a                	mv	a0,s2
    1620:	40b78633          	sub	a2,a5,a1
    1624:	408886b3          	sub	a3,a7,s0
    1628:	85418813          	addi	a6,gp,-1964 # 20000214 <lfree>
    162c:	00d66763          	bltu	a2,a3,163a <rt_malloc+0x8a>
    1630:	bf418513          	addi	a0,gp,-1036 # 200005b4 <heap_sem>
    1634:	d7cff0ef          	jal	ra,bb0 <rt_sem_release>
    1638:	bfbd                	j	15b6 <rt_malloc+0x6>
    163a:	00c584b3          	add	s1,a1,a2
    163e:	20ba                	lhu	a4,2(s1)
    1640:	0044a303          	lw	t1,4(s1)
    1644:	12071563          	bnez	a4,176e <rt_malloc+0x1be>
    1648:	40c30733          	sub	a4,t1,a2
    164c:	ff470f93          	addi	t6,a4,-12
    1650:	108fef63          	bltu	t6,s0,176e <rt_malloc+0x1be>
    1654:	86818f13          	addi	t5,gp,-1944 # 20000228 <used_mem>
    1658:	85818e93          	addi	t4,gp,-1960 # 20000218 <max_mem>
    165c:	01840e13          	addi	t3,s0,24
    1660:	00c40913          	addi	s2,s0,12
    1664:	000f2683          	lw	a3,0(t5)
    1668:	000ea383          	lw	t2,0(t4)
    166c:	86818993          	addi	s3,gp,-1944 # 20000228 <used_mem>
    1670:	85818293          	addi	t0,gp,-1960 # 20000218 <max_mem>
    1674:	0dcfe963          	bltu	t6,t3,1746 <rt_malloc+0x196>
    1678:	01260e33          	add	t3,a2,s2
    167c:	6e89                	lui	t4,0x2
    167e:	01c58733          	add	a4,a1,t3
    1682:	ea0e8e93          	addi	t4,t4,-352 # 1ea0 <rt_thread_timeout+0x2>
    1686:	c710                	sw	a2,8(a4)
    1688:	01d72023          	sw	t4,0(a4)
    168c:	00672223          	sw	t1,4(a4)
    1690:	01c4a223          	sw	t3,4(s1)
    1694:	4358                	lw	a4,4(a4)
    1696:	4605                	li	a2,1
    1698:	a0b2                	sh	a2,2(s1)
    169a:	08b1                	addi	a7,a7,12
    169c:	01170563          	beq	a4,a7,16a6 <rt_malloc+0xf6>
    16a0:	972e                	add	a4,a4,a1
    16a2:	01c72423          	sw	t3,8(a4)
    16a6:	00c68713          	addi	a4,a3,12
    16aa:	9722                	add	a4,a4,s0
    16ac:	00e9a023          	sw	a4,0(s3) # 10000 <asc2_3216+0x13f4>
    16b0:	00e3f463          	bgeu	t2,a4,16b8 <rt_malloc+0x108>
    16b4:	00e2a023          	sw	a4,0(t0) # 460 <memset+0x8e>
    16b8:	6709                	lui	a4,0x2
    16ba:	ea070713          	addi	a4,a4,-352 # 1ea0 <rt_thread_timeout+0x2>
    16be:	a09a                	sh	a4,0(s1)
    16c0:	84c18993          	addi	s3,gp,-1972 # 2000020c <heap_end>
    16c4:	00979a63          	bne	a5,s1,16d8 <rt_malloc+0x128>
    16c8:	0009a683          	lw	a3,0(s3)
    16cc:	4701                	li	a4,0
    16ce:	23b2                	lhu	a2,2(a5)
    16d0:	ea49                	bnez	a2,1762 <rt_malloc+0x1b2>
    16d2:	c319                	beqz	a4,16d8 <rt_malloc+0x128>
    16d4:	00f82023          	sw	a5,0(a6)
    16d8:	bf418513          	addi	a0,gp,-1036 # 200005b4 <heap_sem>
    16dc:	cd4ff0ef          	jal	ra,bb0 <rt_sem_release>
    16e0:	0009a783          	lw	a5,0(s3)
    16e4:	9926                	add	s2,s2,s1
    16e6:	0127fc63          	bgeu	a5,s2,16fe <rt_malloc+0x14e>
    16ea:	65b1                	lui	a1,0xc
    16ec:	0000c537          	lui	a0,0xc
    16f0:	17900613          	li	a2,377
    16f4:	0f858593          	addi	a1,a1,248 # c0f8 <__FUNCTION__.2474>
    16f8:	2d850513          	addi	a0,a0,728 # c2d8 <__fsym_list_mem_name+0x16c>
    16fc:	31d5                	jal	13e0 <rt_assert_handler>
    16fe:	00c48913          	addi	s2,s1,12
    1702:	00397793          	andi	a5,s2,3
    1706:	cb99                	beqz	a5,171c <rt_malloc+0x16c>
    1708:	65b1                	lui	a1,0xc
    170a:	0000c537          	lui	a0,0xc
    170e:	17a00613          	li	a2,378
    1712:	0f858593          	addi	a1,a1,248 # c0f8 <__FUNCTION__.2474>
    1716:	32050513          	addi	a0,a0,800 # c320 <__fsym_list_mem_name+0x1b4>
    171a:	31d9                	jal	13e0 <rt_assert_handler>
    171c:	888d                	andi	s1,s1,3
    171e:	c899                	beqz	s1,1734 <rt_malloc+0x184>
    1720:	65b1                	lui	a1,0xc
    1722:	0000c537          	lui	a0,0xc
    1726:	17b00613          	li	a2,379
    172a:	0f858593          	addi	a1,a1,248 # c0f8 <__FUNCTION__.2474>
    172e:	36c50513          	addi	a0,a0,876 # c36c <__fsym_list_mem_name+0x200>
    1732:	317d                	jal	13e0 <rt_assert_handler>
    1734:	8641a783          	lw	a5,-1948(gp) # 20000224 <rt_malloc_hook>
    1738:	c781                	beqz	a5,1740 <rt_malloc+0x190>
    173a:	85a2                	mv	a1,s0
    173c:	854a                	mv	a0,s2
    173e:	9782                	jalr	a5
    1740:	854a                	mv	a0,s2
    1742:	c7bfe06f          	j	3bc <__riscv_restore_4>
    1746:	4605                	li	a2,1
    1748:	9736                	add	a4,a4,a3
    174a:	a0b2                	sh	a2,2(s1)
    174c:	00ef2023          	sw	a4,0(t5)
    1750:	f6e3f4e3          	bgeu	t2,a4,16b8 <rt_malloc+0x108>
    1754:	00eea023          	sw	a4,0(t4)
    1758:	b785                	j	16b8 <rt_malloc+0x108>
    175a:	43dc                	lw	a5,4(a5)
    175c:	4705                	li	a4,1
    175e:	97ae                	add	a5,a5,a1
    1760:	b7bd                	j	16ce <rt_malloc+0x11e>
    1762:	fef69ce3          	bne	a3,a5,175a <rt_malloc+0x1aa>
    1766:	db2d                	beqz	a4,16d8 <rt_malloc+0x128>
    1768:	00d82023          	sw	a3,0(a6)
    176c:	b7b5                	j	16d8 <rt_malloc+0x128>
    176e:	861a                	mv	a2,t1
    1770:	bd75                	j	162c <rt_malloc+0x7c>

00001772 <rt_calloc>:
    1772:	c31fe2ef          	jal	t0,3a2 <__riscv_save_0>
    1776:	02b50633          	mul	a2,a0,a1
    177a:	1141                	addi	sp,sp,-16
    177c:	8532                	mv	a0,a2
    177e:	c632                	sw	a2,12(sp)
    1780:	3d05                	jal	15b0 <rt_malloc>
    1782:	842a                	mv	s0,a0
    1784:	c509                	beqz	a0,178e <rt_calloc+0x1c>
    1786:	4632                	lw	a2,12(sp)
    1788:	4581                	li	a1,0
    178a:	ea0ff0ef          	jal	ra,e2a <rt_memset>
    178e:	8522                	mv	a0,s0
    1790:	0141                	addi	sp,sp,16
    1792:	c35fe06f          	j	3c6 <__riscv_restore_0>

00001796 <rt_free>:
    1796:	16050063          	beqz	a0,18f6 <rt_free+0x160>
    179a:	beffe2ef          	jal	t0,388 <__riscv_save_4>
    179e:	842a                	mv	s0,a0
    17a0:	625000ef          	jal	ra,25c4 <rt_hw_interrupt_disable>
    17a4:	892a                	mv	s2,a0
    17a6:	ce4ff0ef          	jal	ra,c8a <rt_interrupt_get_nest>
    17aa:	c11d                	beqz	a0,17d0 <rt_free+0x3a>
    17ac:	0000c537          	lui	a0,0xc
    17b0:	81c18593          	addi	a1,gp,-2020 # 200001dc <__FUNCTION__.2503>
    17b4:	dbc50513          	addi	a0,a0,-580 # bdbc <__FUNCTION__.2459+0x18>
    17b8:	b35ff0ef          	jal	ra,12ec <rt_kprintf>
    17bc:	0000c537          	lui	a0,0xc
    17c0:	21c00613          	li	a2,540
    17c4:	81c18593          	addi	a1,gp,-2020 # 200001dc <__FUNCTION__.2503>
    17c8:	36850513          	addi	a0,a0,872 # c368 <__fsym_list_mem_name+0x1fc>
    17cc:	c15ff0ef          	jal	ra,13e0 <rt_assert_handler>
    17d0:	854a                	mv	a0,s2
    17d2:	5ff000ef          	jal	ra,25d0 <rt_hw_interrupt_enable>
    17d6:	00347793          	andi	a5,s0,3
    17da:	cb99                	beqz	a5,17f0 <rt_free+0x5a>
    17dc:	0000c537          	lui	a0,0xc
    17e0:	21e00613          	li	a2,542
    17e4:	81c18593          	addi	a1,gp,-2020 # 200001dc <__FUNCTION__.2503>
    17e8:	1d450513          	addi	a0,a0,468 # c1d4 <__fsym_list_mem_name+0x68>
    17ec:	bf5ff0ef          	jal	ra,13e0 <rt_assert_handler>
    17f0:	8501a783          	lw	a5,-1968(gp) # 20000210 <heap_ptr>
    17f4:	85018913          	addi	s2,gp,-1968 # 20000210 <heap_ptr>
    17f8:	00f46663          	bltu	s0,a5,1804 <rt_free+0x6e>
    17fc:	84c1a783          	lw	a5,-1972(gp) # 2000020c <heap_end>
    1800:	00f46c63          	bltu	s0,a5,1818 <rt_free+0x82>
    1804:	0000c537          	lui	a0,0xc
    1808:	22000613          	li	a2,544
    180c:	81c18593          	addi	a1,gp,-2020 # 200001dc <__FUNCTION__.2503>
    1810:	20850513          	addi	a0,a0,520 # c208 <__fsym_list_mem_name+0x9c>
    1814:	bcdff0ef          	jal	ra,13e0 <rt_assert_handler>
    1818:	8601a783          	lw	a5,-1952(gp) # 20000220 <rt_free_hook>
    181c:	c399                	beqz	a5,1822 <rt_free+0x8c>
    181e:	8522                	mv	a0,s0
    1820:	9782                	jalr	a5
    1822:	00092783          	lw	a5,0(s2)
    1826:	0cf46663          	bltu	s0,a5,18f2 <rt_free+0x15c>
    182a:	84c1a783          	lw	a5,-1972(gp) # 2000020c <heap_end>
    182e:	0cf47263          	bgeu	s0,a5,18f2 <rt_free+0x15c>
    1832:	55fd                	li	a1,-1
    1834:	bf418513          	addi	a0,gp,-1036 # 200005b4 <heap_sem>
    1838:	a4aff0ef          	jal	ra,a82 <rt_sem_take>
    183c:	ff645783          	lhu	a5,-10(s0)
    1840:	ff440493          	addi	s1,s0,-12
    1844:	cb81                	beqz	a5,1854 <rt_free+0xbe>
    1846:	ff445703          	lhu	a4,-12(s0)
    184a:	6789                	lui	a5,0x2
    184c:	ea078793          	addi	a5,a5,-352 # 1ea0 <rt_thread_timeout+0x2>
    1850:	06f70163          	beq	a4,a5,18b2 <rt_free+0x11c>
    1854:	0000c537          	lui	a0,0xc
    1858:	26450513          	addi	a0,a0,612 # c264 <__fsym_list_mem_name+0xf8>
    185c:	a91ff0ef          	jal	ra,12ec <rt_kprintf>
    1860:	ff445683          	lhu	a3,-12(s0)
    1864:	ff645603          	lhu	a2,-10(s0)
    1868:	0000c537          	lui	a0,0xc
    186c:	85a6                	mv	a1,s1
    186e:	28050513          	addi	a0,a0,640 # c280 <__fsym_list_mem_name+0x114>
    1872:	a7bff0ef          	jal	ra,12ec <rt_kprintf>
    1876:	ff645783          	lhu	a5,-10(s0)
    187a:	eb99                	bnez	a5,1890 <rt_free+0xfa>
    187c:	0000c537          	lui	a0,0xc
    1880:	23e00613          	li	a2,574
    1884:	81c18593          	addi	a1,gp,-2020 # 200001dc <__FUNCTION__.2503>
    1888:	2b050513          	addi	a0,a0,688 # c2b0 <__fsym_list_mem_name+0x144>
    188c:	b55ff0ef          	jal	ra,13e0 <rt_assert_handler>
    1890:	ff445703          	lhu	a4,-12(s0)
    1894:	6789                	lui	a5,0x2
    1896:	ea078793          	addi	a5,a5,-352 # 1ea0 <rt_thread_timeout+0x2>
    189a:	00f70c63          	beq	a4,a5,18b2 <rt_free+0x11c>
    189e:	0000c537          	lui	a0,0xc
    18a2:	23f00613          	li	a2,575
    18a6:	81c18593          	addi	a1,gp,-2020 # 200001dc <__FUNCTION__.2503>
    18aa:	2bc50513          	addi	a0,a0,700 # c2bc <__fsym_list_mem_name+0x150>
    18ae:	b33ff0ef          	jal	ra,13e0 <rt_assert_handler>
    18b2:	6789                	lui	a5,0x2
    18b4:	ea078793          	addi	a5,a5,-352 # 1ea0 <rt_thread_timeout+0x2>
    18b8:	fef41a23          	sh	a5,-12(s0)
    18bc:	85418793          	addi	a5,gp,-1964 # 20000214 <lfree>
    18c0:	4398                	lw	a4,0(a5)
    18c2:	fe041b23          	sh	zero,-10(s0)
    18c6:	00e4f363          	bgeu	s1,a4,18cc <rt_free+0x136>
    18ca:	c384                	sw	s1,0(a5)
    18cc:	86818713          	addi	a4,gp,-1944 # 20000228 <used_mem>
    18d0:	431c                	lw	a5,0(a4)
    18d2:	ff842683          	lw	a3,-8(s0)
    18d6:	8526                	mv	a0,s1
    18d8:	8f95                	sub	a5,a5,a3
    18da:	00092683          	lw	a3,0(s2)
    18de:	40d486b3          	sub	a3,s1,a3
    18e2:	97b6                	add	a5,a5,a3
    18e4:	c31c                	sw	a5,0(a4)
    18e6:	b5fff0ef          	jal	ra,1444 <plug_holes>
    18ea:	bf418513          	addi	a0,gp,-1036 # 200005b4 <heap_sem>
    18ee:	ac2ff0ef          	jal	ra,bb0 <rt_sem_release>
    18f2:	acbfe06f          	j	3bc <__riscv_restore_4>
    18f6:	8082                	ret

000018f8 <rt_object_get_information>:
    18f8:	200007b7          	lui	a5,0x20000
    18fc:	00078693          	mv	a3,a5
    1900:	4701                	li	a4,0
    1902:	00078793          	mv	a5,a5
    1906:	4621                	li	a2,8
    1908:	428c                	lw	a1,0(a3)
    190a:	00a59663          	bne	a1,a0,1916 <rt_object_get_information+0x1e>
    190e:	00471513          	slli	a0,a4,0x4
    1912:	953e                	add	a0,a0,a5
    1914:	8082                	ret
    1916:	0705                	addi	a4,a4,1
    1918:	06c1                	addi	a3,a3,16
    191a:	fec717e3          	bne	a4,a2,1908 <rt_object_get_information+0x10>
    191e:	4501                	li	a0,0
    1920:	8082                	ret

00001922 <rt_object_init>:
    1922:	a59fe2ef          	jal	t0,37a <__riscv_save_10>
    1926:	842a                	mv	s0,a0
    1928:	852e                	mv	a0,a1
    192a:	89ae                	mv	s3,a1
    192c:	8a32                	mv	s4,a2
    192e:	37e9                	jal	18f8 <rt_object_get_information>
    1930:	892a                	mv	s2,a0
    1932:	ed01                	bnez	a0,194a <rt_object_init+0x28>
    1934:	65b1                	lui	a1,0xc
    1936:	0000c537          	lui	a0,0xc
    193a:	0fb00613          	li	a2,251
    193e:	3e058593          	addi	a1,a1,992 # c3e0 <__FUNCTION__.2484>
    1942:	ccc50513          	addi	a0,a0,-820 # bccc <__FUNCTION__.2425+0x1c>
    1946:	a9bff0ef          	jal	ra,13e0 <rt_assert_handler>
    194a:	2111                	jal	1d4e <rt_enter_critical>
    194c:	00492483          	lw	s1,4(s2)
    1950:	00490a93          	addi	s5,s2,4
    1954:	6b31                	lui	s6,0xc
    1956:	0000cbb7          	lui	s7,0xc
    195a:	05549063          	bne	s1,s5,199a <rt_object_init+0x78>
    195e:	2129                	jal	1d68 <rt_exit_critical>
    1960:	f809e993          	ori	s3,s3,-128
    1964:	01340423          	sb	s3,8(s0)
    1968:	4621                	li	a2,8
    196a:	85d2                	mv	a1,s4
    196c:	8522                	mv	a0,s0
    196e:	d8cff0ef          	jal	ra,efa <rt_strncpy>
    1972:	86c1a783          	lw	a5,-1940(gp) # 2000022c <rt_object_attach_hook>
    1976:	c399                	beqz	a5,197c <rt_object_init+0x5a>
    1978:	8522                	mv	a0,s0
    197a:	9782                	jalr	a5
    197c:	449000ef          	jal	ra,25c4 <rt_hw_interrupt_disable>
    1980:	00492703          	lw	a4,4(s2)
    1984:	00c40793          	addi	a5,s0,12
    1988:	c35c                	sw	a5,4(a4)
    198a:	c458                	sw	a4,12(s0)
    198c:	00f92223          	sw	a5,4(s2)
    1990:	c804                	sw	s1,16(s0)
    1992:	43f000ef          	jal	ra,25d0 <rt_hw_interrupt_enable>
    1996:	a1dfe06f          	j	3b2 <__riscv_restore_10>
    199a:	ff448793          	addi	a5,s1,-12
    199e:	00f41a63          	bne	s0,a5,19b2 <rt_object_init+0x90>
    19a2:	10900613          	li	a2,265
    19a6:	3e0b0593          	addi	a1,s6,992 # c3e0 <__FUNCTION__.2484>
    19aa:	49cb8513          	addi	a0,s7,1180 # c49c <__FUNCTION__.2515+0x54>
    19ae:	a33ff0ef          	jal	ra,13e0 <rt_assert_handler>
    19b2:	4084                	lw	s1,0(s1)
    19b4:	b75d                	j	195a <rt_object_init+0x38>

000019b6 <rt_object_detach>:
    19b6:	9edfe2ef          	jal	t0,3a2 <__riscv_save_0>
    19ba:	842a                	mv	s0,a0
    19bc:	ed01                	bnez	a0,19d4 <rt_object_detach+0x1e>
    19be:	65b1                	lui	a1,0xc
    19c0:	0000c537          	lui	a0,0xc
    19c4:	13500613          	li	a2,309
    19c8:	3f058593          	addi	a1,a1,1008 # c3f0 <__FUNCTION__.2493>
    19cc:	48850513          	addi	a0,a0,1160 # c488 <__FUNCTION__.2515+0x40>
    19d0:	a11ff0ef          	jal	ra,13e0 <rt_assert_handler>
    19d4:	8701a783          	lw	a5,-1936(gp) # 20000230 <rt_object_detach_hook>
    19d8:	c399                	beqz	a5,19de <rt_object_detach+0x28>
    19da:	8522                	mv	a0,s0
    19dc:	9782                	jalr	a5
    19de:	00040423          	sb	zero,8(s0)
    19e2:	3e3000ef          	jal	ra,25c4 <rt_hw_interrupt_disable>
    19e6:	4454                	lw	a3,12(s0)
    19e8:	4818                	lw	a4,16(s0)
    19ea:	00c40793          	addi	a5,s0,12
    19ee:	c2d8                	sw	a4,4(a3)
    19f0:	c314                	sw	a3,0(a4)
    19f2:	c81c                	sw	a5,16(s0)
    19f4:	c45c                	sw	a5,12(s0)
    19f6:	3db000ef          	jal	ra,25d0 <rt_hw_interrupt_enable>
    19fa:	9cdfe06f          	j	3c6 <__riscv_restore_0>

000019fe <rt_object_allocate>:
    19fe:	98bfe2ef          	jal	t0,388 <__riscv_save_4>
    1a02:	892a                	mv	s2,a0
    1a04:	89ae                	mv	s3,a1
    1a06:	3bf000ef          	jal	ra,25c4 <rt_hw_interrupt_disable>
    1a0a:	84aa                	mv	s1,a0
    1a0c:	a7eff0ef          	jal	ra,c8a <rt_interrupt_get_nest>
    1a10:	c505                	beqz	a0,1a38 <rt_object_allocate+0x3a>
    1a12:	6431                	lui	s0,0xc
    1a14:	0000c537          	lui	a0,0xc
    1a18:	40440593          	addi	a1,s0,1028 # c404 <__FUNCTION__.2502>
    1a1c:	dbc50513          	addi	a0,a0,-580 # bdbc <__FUNCTION__.2459+0x18>
    1a20:	8cdff0ef          	jal	ra,12ec <rt_kprintf>
    1a24:	0000c537          	lui	a0,0xc
    1a28:	15800613          	li	a2,344
    1a2c:	40440593          	addi	a1,s0,1028
    1a30:	36850513          	addi	a0,a0,872 # c368 <__fsym_list_mem_name+0x1fc>
    1a34:	9adff0ef          	jal	ra,13e0 <rt_assert_handler>
    1a38:	8526                	mv	a0,s1
    1a3a:	397000ef          	jal	ra,25d0 <rt_hw_interrupt_enable>
    1a3e:	854a                	mv	a0,s2
    1a40:	3d65                	jal	18f8 <rt_object_get_information>
    1a42:	84aa                	mv	s1,a0
    1a44:	ed01                	bnez	a0,1a5c <rt_object_allocate+0x5e>
    1a46:	65b1                	lui	a1,0xc
    1a48:	0000c537          	lui	a0,0xc
    1a4c:	15c00613          	li	a2,348
    1a50:	40458593          	addi	a1,a1,1028 # c404 <__FUNCTION__.2502>
    1a54:	ccc50513          	addi	a0,a0,-820 # bccc <__FUNCTION__.2425+0x1c>
    1a58:	989ff0ef          	jal	ra,13e0 <rt_assert_handler>
    1a5c:	44c8                	lw	a0,12(s1)
    1a5e:	b53ff0ef          	jal	ra,15b0 <rt_malloc>
    1a62:	842a                	mv	s0,a0
    1a64:	cd1d                	beqz	a0,1aa2 <rt_object_allocate+0xa4>
    1a66:	44d0                	lw	a2,12(s1)
    1a68:	4581                	li	a1,0
    1a6a:	bc0ff0ef          	jal	ra,e2a <rt_memset>
    1a6e:	4621                	li	a2,8
    1a70:	01240423          	sb	s2,8(s0)
    1a74:	000404a3          	sb	zero,9(s0)
    1a78:	85ce                	mv	a1,s3
    1a7a:	8522                	mv	a0,s0
    1a7c:	c7eff0ef          	jal	ra,efa <rt_strncpy>
    1a80:	86c1a783          	lw	a5,-1940(gp) # 2000022c <rt_object_attach_hook>
    1a84:	c399                	beqz	a5,1a8a <rt_object_allocate+0x8c>
    1a86:	8522                	mv	a0,s0
    1a88:	9782                	jalr	a5
    1a8a:	33b000ef          	jal	ra,25c4 <rt_hw_interrupt_disable>
    1a8e:	40d8                	lw	a4,4(s1)
    1a90:	00c40793          	addi	a5,s0,12
    1a94:	0491                	addi	s1,s1,4
    1a96:	c35c                	sw	a5,4(a4)
    1a98:	c458                	sw	a4,12(s0)
    1a9a:	c09c                	sw	a5,0(s1)
    1a9c:	c804                	sw	s1,16(s0)
    1a9e:	333000ef          	jal	ra,25d0 <rt_hw_interrupt_enable>
    1aa2:	8522                	mv	a0,s0
    1aa4:	919fe06f          	j	3bc <__riscv_restore_4>

00001aa8 <rt_object_delete>:
    1aa8:	8fbfe2ef          	jal	t0,3a2 <__riscv_save_0>
    1aac:	842a                	mv	s0,a0
    1aae:	ed01                	bnez	a0,1ac6 <rt_object_delete+0x1e>
    1ab0:	65b1                	lui	a1,0xc
    1ab2:	0000c537          	lui	a0,0xc
    1ab6:	19600613          	li	a2,406
    1aba:	41858593          	addi	a1,a1,1048 # c418 <__FUNCTION__.2507>
    1abe:	48850513          	addi	a0,a0,1160 # c488 <__FUNCTION__.2515+0x40>
    1ac2:	91fff0ef          	jal	ra,13e0 <rt_assert_handler>
    1ac6:	00840783          	lb	a5,8(s0)
    1aca:	0007dd63          	bgez	a5,1ae4 <rt_object_delete+0x3c>
    1ace:	65b1                	lui	a1,0xc
    1ad0:	0000c537          	lui	a0,0xc
    1ad4:	19700613          	li	a2,407
    1ad8:	41858593          	addi	a1,a1,1048 # c418 <__FUNCTION__.2507>
    1adc:	45c50513          	addi	a0,a0,1116 # c45c <__FUNCTION__.2515+0x14>
    1ae0:	901ff0ef          	jal	ra,13e0 <rt_assert_handler>
    1ae4:	8701a783          	lw	a5,-1936(gp) # 20000230 <rt_object_detach_hook>
    1ae8:	c399                	beqz	a5,1aee <rt_object_delete+0x46>
    1aea:	8522                	mv	a0,s0
    1aec:	9782                	jalr	a5
    1aee:	00040423          	sb	zero,8(s0)
    1af2:	2d3000ef          	jal	ra,25c4 <rt_hw_interrupt_disable>
    1af6:	4454                	lw	a3,12(s0)
    1af8:	4818                	lw	a4,16(s0)
    1afa:	00c40793          	addi	a5,s0,12
    1afe:	c2d8                	sw	a4,4(a3)
    1b00:	c314                	sw	a3,0(a4)
    1b02:	c81c                	sw	a5,16(s0)
    1b04:	c45c                	sw	a5,12(s0)
    1b06:	2cb000ef          	jal	ra,25d0 <rt_hw_interrupt_enable>
    1b0a:	8522                	mv	a0,s0
    1b0c:	c8bff0ef          	jal	ra,1796 <rt_free>
    1b10:	8b7fe06f          	j	3c6 <__riscv_restore_0>

00001b14 <rt_object_is_systemobject>:
    1b14:	88ffe2ef          	jal	t0,3a2 <__riscv_save_0>
    1b18:	842a                	mv	s0,a0
    1b1a:	ed01                	bnez	a0,1b32 <rt_object_is_systemobject+0x1e>
    1b1c:	65b1                	lui	a1,0xc
    1b1e:	0000c537          	lui	a0,0xc
    1b22:	1b800613          	li	a2,440
    1b26:	42c58593          	addi	a1,a1,1068 # c42c <__FUNCTION__.2511>
    1b2a:	48850513          	addi	a0,a0,1160 # c488 <__FUNCTION__.2515+0x40>
    1b2e:	8b3ff0ef          	jal	ra,13e0 <rt_assert_handler>
    1b32:	00840503          	lb	a0,8(s0)
    1b36:	817d                	srli	a0,a0,0x1f
    1b38:	88ffe06f          	j	3c6 <__riscv_restore_0>

00001b3c <rt_object_get_type>:
    1b3c:	867fe2ef          	jal	t0,3a2 <__riscv_save_0>
    1b40:	842a                	mv	s0,a0
    1b42:	ed01                	bnez	a0,1b5a <rt_object_get_type+0x1e>
    1b44:	65b1                	lui	a1,0xc
    1b46:	0000c537          	lui	a0,0xc
    1b4a:	1cb00613          	li	a2,459
    1b4e:	44858593          	addi	a1,a1,1096 # c448 <__FUNCTION__.2515>
    1b52:	48850513          	addi	a0,a0,1160 # c488 <__FUNCTION__.2515+0x40>
    1b56:	88bff0ef          	jal	ra,13e0 <rt_assert_handler>
    1b5a:	2408                	lbu	a0,8(s0)
    1b5c:	07f57513          	andi	a0,a0,127
    1b60:	867fe06f          	j	3c6 <__riscv_restore_0>

00001b64 <rt_system_scheduler_init>:
    1b64:	88019623          	sh	zero,-1908(gp) # 2000024c <rt_scheduler_lock_nest>
    1b68:	c1418793          	addi	a5,gp,-1004 # 200005d4 <rt_thread_priority_table>
    1b6c:	08078713          	addi	a4,a5,128 # 20000080 <pin_irq_hdr_tab>
    1b70:	c3dc                	sw	a5,4(a5)
    1b72:	c39c                	sw	a5,0(a5)
    1b74:	07a1                	addi	a5,a5,8
    1b76:	fee79de3          	bne	a5,a4,1b70 <rt_system_scheduler_init+0xc>
    1b7a:	473d                	li	a4,15
    1b7c:	88e18023          	sb	a4,-1920(gp) # 20000240 <rt_current_priority>
    1b80:	8801a223          	sw	zero,-1916(gp) # 20000244 <rt_current_thread>
    1b84:	8801ac23          	sw	zero,-1896(gp) # 20000258 <rt_thread_ready_priority_group>
    1b88:	89018793          	addi	a5,gp,-1904 # 20000250 <rt_thread_defunct>
    1b8c:	c3dc                	sw	a5,4(a5)
    1b8e:	c39c                	sw	a5,0(a5)
    1b90:	8082                	ret

00001b92 <rt_system_scheduler_start>:
    1b92:	811fe2ef          	jal	t0,3a2 <__riscv_save_0>
    1b96:	8981a503          	lw	a0,-1896(gp) # 20000258 <rt_thread_ready_priority_group>
    1b9a:	ff8ff0ef          	jal	ra,1392 <__rt_ffs>
    1b9e:	157d                	addi	a0,a0,-1
    1ba0:	00351793          	slli	a5,a0,0x3
    1ba4:	c1418513          	addi	a0,gp,-1004 # 200005d4 <rt_thread_priority_table>
    1ba8:	953e                	add	a0,a0,a5
    1baa:	4108                	lw	a0,0(a0)
    1bac:	fec50713          	addi	a4,a0,-20
    1bb0:	0521                	addi	a0,a0,8
    1bb2:	88e1a223          	sw	a4,-1916(gp) # 20000244 <rt_current_thread>
    1bb6:	e0afe0ef          	jal	ra,1c0 <rt_hw_context_switch_to>
    1bba:	80dfe06f          	j	3c6 <__riscv_restore_0>

00001bbe <rt_schedule>:
    1bbe:	fcafe2ef          	jal	t0,388 <__riscv_save_4>
    1bc2:	203000ef          	jal	ra,25c4 <rt_hw_interrupt_disable>
    1bc6:	88c19783          	lh	a5,-1908(gp) # 2000024c <rt_scheduler_lock_nest>
    1bca:	89aa                	mv	s3,a0
    1bcc:	efd1                	bnez	a5,1c68 <rt_schedule+0xaa>
    1bce:	8981a503          	lw	a0,-1896(gp) # 20000258 <rt_thread_ready_priority_group>
    1bd2:	fc0ff0ef          	jal	ra,1392 <__rt_ffs>
    1bd6:	157d                	addi	a0,a0,-1
    1bd8:	00351713          	slli	a4,a0,0x3
    1bdc:	c1418793          	addi	a5,gp,-1004 # 200005d4 <rt_thread_priority_table>
    1be0:	97ba                	add	a5,a5,a4
    1be2:	4380                	lw	s0,0(a5)
    1be4:	88418793          	addi	a5,gp,-1916 # 20000244 <rt_current_thread>
    1be8:	4384                	lw	s1,0(a5)
    1bea:	fec40913          	addi	s2,s0,-20
    1bee:	07248d63          	beq	s1,s2,1c68 <rt_schedule+0xaa>
    1bf2:	0127a023          	sw	s2,0(a5)
    1bf6:	8881a783          	lw	a5,-1912(gp) # 20000248 <rt_scheduler_hook>
    1bfa:	88a18023          	sb	a0,-1920(gp) # 20000240 <rt_current_priority>
    1bfe:	c781                	beqz	a5,1c06 <rt_schedule+0x48>
    1c00:	85ca                	mv	a1,s2
    1c02:	8526                	mv	a0,s1
    1c04:	9782                	jalr	a5
    1c06:	00091d63          	bnez	s2,1c20 <rt_schedule+0x62>
    1c0a:	65b1                	lui	a1,0xc
    1c0c:	0000c537          	lui	a0,0xc
    1c10:	04a00613          	li	a2,74
    1c14:	4ac58593          	addi	a1,a1,1196 # c4ac <__FUNCTION__.2443>
    1c18:	50050513          	addi	a0,a0,1280 # c500 <__FUNCTION__.2479+0x1c>
    1c1c:	fc4ff0ef          	jal	ra,13e0 <rt_assert_handler>
    1c20:	485c                	lw	a5,20(s0)
    1c22:	02300713          	li	a4,35
    1c26:	2394                	lbu	a3,0(a5)
    1c28:	00e69963          	bne	a3,a4,1c3a <rt_schedule+0x7c>
    1c2c:	4418                	lw	a4,8(s0)
    1c2e:	00e7f663          	bgeu	a5,a4,1c3a <rt_schedule+0x7c>
    1c32:	4c14                	lw	a3,24(s0)
    1c34:	96be                	add	a3,a3,a5
    1c36:	02e6fe63          	bgeu	a3,a4,1c72 <rt_schedule+0xb4>
    1c3a:	0000c537          	lui	a0,0xc
    1c3e:	85ca                	mv	a1,s2
    1c40:	51450513          	addi	a0,a0,1300 # c514 <__FUNCTION__.2479+0x30>
    1c44:	ea8ff0ef          	jal	ra,12ec <rt_kprintf>
    1c48:	281000ef          	jal	ra,26c8 <list_thread>
    1c4c:	179000ef          	jal	ra,25c4 <rt_hw_interrupt_disable>
    1c50:	e101                	bnez	a0,1c50 <rt_schedule+0x92>
    1c52:	83c1c783          	lbu	a5,-1988(gp) # 200001fc <rt_interrupt_nest>
    1c56:	01c48513          	addi	a0,s1,28
    1c5a:	00840593          	addi	a1,s0,8
    1c5e:	0ff7f793          	andi	a5,a5,255
    1c62:	e785                	bnez	a5,1c8a <rt_schedule+0xcc>
    1c64:	d78fe0ef          	jal	ra,1dc <rt_hw_context_switch>
    1c68:	854e                	mv	a0,s3
    1c6a:	167000ef          	jal	ra,25d0 <rt_hw_interrupt_enable>
    1c6e:	f4efe06f          	j	3bc <__riscv_restore_4>
    1c72:	02078793          	addi	a5,a5,32
    1c76:	fce7eee3          	bltu	a5,a4,1c52 <rt_schedule+0x94>
    1c7a:	0000c537          	lui	a0,0xc
    1c7e:	85ca                	mv	a1,s2
    1c80:	53050513          	addi	a0,a0,1328 # c530 <__FUNCTION__.2479+0x4c>
    1c84:	e68ff0ef          	jal	ra,12ec <rt_kprintf>
    1c88:	b7e9                	j	1c52 <rt_schedule+0x94>
    1c8a:	14d000ef          	jal	ra,25d6 <rt_hw_context_switch_interrupt>
    1c8e:	bfe9                	j	1c68 <rt_schedule+0xaa>

00001c90 <rt_schedule_insert_thread>:
    1c90:	f12fe2ef          	jal	t0,3a2 <__riscv_save_0>
    1c94:	842a                	mv	s0,a0
    1c96:	ed01                	bnez	a0,1cae <rt_schedule_insert_thread+0x1e>
    1c98:	65b1                	lui	a1,0xc
    1c9a:	0000c537          	lui	a0,0xc
    1c9e:	12300613          	li	a2,291
    1ca2:	4c858593          	addi	a1,a1,1224 # c4c8 <__FUNCTION__.2474>
    1ca6:	50050513          	addi	a0,a0,1280 # c500 <__FUNCTION__.2479+0x1c>
    1caa:	f36ff0ef          	jal	ra,13e0 <rt_assert_handler>
    1cae:	117000ef          	jal	ra,25c4 <rt_hw_interrupt_disable>
    1cb2:	03444783          	lbu	a5,52(s0)
    1cb6:	01440693          	addi	a3,s0,20
    1cba:	9bc1                	andi	a5,a5,-16
    1cbc:	0017e793          	ori	a5,a5,1
    1cc0:	02f40a23          	sb	a5,52(s0)
    1cc4:	03544783          	lbu	a5,53(s0)
    1cc8:	00379713          	slli	a4,a5,0x3
    1ccc:	c1418793          	addi	a5,gp,-1004 # 200005d4 <rt_thread_priority_table>
    1cd0:	97ba                	add	a5,a5,a4
    1cd2:	43d8                	lw	a4,4(a5)
    1cd4:	c314                	sw	a3,0(a4)
    1cd6:	cc18                	sw	a4,24(s0)
    1cd8:	c3d4                	sw	a3,4(a5)
    1cda:	c85c                	sw	a5,20(s0)
    1cdc:	89818793          	addi	a5,gp,-1896 # 20000258 <rt_thread_ready_priority_group>
    1ce0:	4394                	lw	a3,0(a5)
    1ce2:	5c18                	lw	a4,56(s0)
    1ce4:	8f55                	or	a4,a4,a3
    1ce6:	c398                	sw	a4,0(a5)
    1ce8:	0e9000ef          	jal	ra,25d0 <rt_hw_interrupt_enable>
    1cec:	edafe06f          	j	3c6 <__riscv_restore_0>

00001cf0 <rt_schedule_remove_thread>:
    1cf0:	eb2fe2ef          	jal	t0,3a2 <__riscv_save_0>
    1cf4:	842a                	mv	s0,a0
    1cf6:	ed01                	bnez	a0,1d0e <rt_schedule_remove_thread+0x1e>
    1cf8:	65b1                	lui	a1,0xc
    1cfa:	0000c537          	lui	a0,0xc
    1cfe:	15100613          	li	a2,337
    1d02:	4e458593          	addi	a1,a1,1252 # c4e4 <__FUNCTION__.2479>
    1d06:	50050513          	addi	a0,a0,1280 # c500 <__FUNCTION__.2479+0x1c>
    1d0a:	ed6ff0ef          	jal	ra,13e0 <rt_assert_handler>
    1d0e:	0b7000ef          	jal	ra,25c4 <rt_hw_interrupt_disable>
    1d12:	4c18                	lw	a4,24(s0)
    1d14:	4854                	lw	a3,20(s0)
    1d16:	01440793          	addi	a5,s0,20
    1d1a:	c2d8                	sw	a4,4(a3)
    1d1c:	c314                	sw	a3,0(a4)
    1d1e:	c85c                	sw	a5,20(s0)
    1d20:	cc1c                	sw	a5,24(s0)
    1d22:	03544783          	lbu	a5,53(s0)
    1d26:	00379713          	slli	a4,a5,0x3
    1d2a:	c1418793          	addi	a5,gp,-1004 # 200005d4 <rt_thread_priority_table>
    1d2e:	97ba                	add	a5,a5,a4
    1d30:	4398                	lw	a4,0(a5)
    1d32:	00f71a63          	bne	a4,a5,1d46 <rt_schedule_remove_thread+0x56>
    1d36:	89818713          	addi	a4,gp,-1896 # 20000258 <rt_thread_ready_priority_group>
    1d3a:	5c1c                	lw	a5,56(s0)
    1d3c:	4314                	lw	a3,0(a4)
    1d3e:	fff7c793          	not	a5,a5
    1d42:	8ff5                	and	a5,a5,a3
    1d44:	c31c                	sw	a5,0(a4)
    1d46:	08b000ef          	jal	ra,25d0 <rt_hw_interrupt_enable>
    1d4a:	e7cfe06f          	j	3c6 <__riscv_restore_0>

00001d4e <rt_enter_critical>:
    1d4e:	e54fe2ef          	jal	t0,3a2 <__riscv_save_0>
    1d52:	073000ef          	jal	ra,25c4 <rt_hw_interrupt_disable>
    1d56:	88c18793          	addi	a5,gp,-1908 # 2000024c <rt_scheduler_lock_nest>
    1d5a:	239a                	lhu	a4,0(a5)
    1d5c:	0705                	addi	a4,a4,1
    1d5e:	a39a                	sh	a4,0(a5)
    1d60:	071000ef          	jal	ra,25d0 <rt_hw_interrupt_enable>
    1d64:	e62fe06f          	j	3c6 <__riscv_restore_0>

00001d68 <rt_exit_critical>:
    1d68:	e3afe2ef          	jal	t0,3a2 <__riscv_save_0>
    1d6c:	059000ef          	jal	ra,25c4 <rt_hw_interrupt_disable>
    1d70:	88c18713          	addi	a4,gp,-1908 # 2000024c <rt_scheduler_lock_nest>
    1d74:	231e                	lhu	a5,0(a4)
    1d76:	17fd                	addi	a5,a5,-1
    1d78:	07c2                	slli	a5,a5,0x10
    1d7a:	87c1                	srai	a5,a5,0x10
    1d7c:	a31e                	sh	a5,0(a4)
    1d7e:	00f04d63          	bgtz	a5,1d98 <rt_exit_critical+0x30>
    1d82:	00071023          	sh	zero,0(a4)
    1d86:	04b000ef          	jal	ra,25d0 <rt_hw_interrupt_enable>
    1d8a:	8841a783          	lw	a5,-1916(gp) # 20000244 <rt_current_thread>
    1d8e:	c399                	beqz	a5,1d94 <rt_exit_critical+0x2c>
    1d90:	e2fff0ef          	jal	ra,1bbe <rt_schedule>
    1d94:	e32fe06f          	j	3c6 <__riscv_restore_0>
    1d98:	039000ef          	jal	ra,25d0 <rt_hw_interrupt_enable>
    1d9c:	bfe5                	j	1d94 <rt_exit_critical+0x2c>

00001d9e <rt_thread_exit>:
    1d9e:	e04fe2ef          	jal	t0,3a2 <__riscv_save_0>
    1da2:	8841a403          	lw	s0,-1916(gp) # 20000244 <rt_current_thread>
    1da6:	01f000ef          	jal	ra,25c4 <rt_hw_interrupt_disable>
    1daa:	84aa                	mv	s1,a0
    1dac:	8522                	mv	a0,s0
    1dae:	3789                	jal	1cf0 <rt_schedule_remove_thread>
    1db0:	4791                	li	a5,4
    1db2:	02f40a23          	sb	a5,52(s0)
    1db6:	04c40513          	addi	a0,s0,76
    1dba:	21f5                	jal	22a6 <rt_timer_detach>
    1dbc:	8522                	mv	a0,s0
    1dbe:	d57ff0ef          	jal	ra,1b14 <rt_object_is_systemobject>
    1dc2:	4785                	li	a5,1
    1dc4:	00f51e63          	bne	a0,a5,1de0 <rt_thread_exit+0x42>
    1dc8:	5c3c                	lw	a5,120(s0)
    1dca:	eb99                	bnez	a5,1de0 <rt_thread_exit+0x42>
    1dcc:	8522                	mv	a0,s0
    1dce:	be9ff0ef          	jal	ra,19b6 <rt_object_detach>
    1dd2:	8526                	mv	a0,s1
    1dd4:	7fc000ef          	jal	ra,25d0 <rt_hw_interrupt_enable>
    1dd8:	de7ff0ef          	jal	ra,1bbe <rt_schedule>
    1ddc:	deafe06f          	j	3c6 <__riscv_restore_0>
    1de0:	8901a683          	lw	a3,-1904(gp) # 20000250 <rt_thread_defunct>
    1de4:	01440713          	addi	a4,s0,20
    1de8:	88e1a823          	sw	a4,-1904(gp) # 20000250 <rt_thread_defunct>
    1dec:	c2d8                	sw	a4,4(a3)
    1dee:	89018793          	addi	a5,gp,-1904 # 20000250 <rt_thread_defunct>
    1df2:	c854                	sw	a3,20(s0)
    1df4:	cc1c                	sw	a5,24(s0)
    1df6:	bff1                	j	1dd2 <rt_thread_exit+0x34>

00001df8 <_rt_thread_init.isra.0>:
    1df8:	daafe2ef          	jal	t0,3a2 <__riscv_save_0>
    1dfc:	84be                	mv	s1,a5
    1dfe:	01450793          	addi	a5,a0,20
    1e02:	842a                	mv	s0,a0
    1e04:	cd1c                	sw	a5,24(a0)
    1e06:	c95c                	sw	a5,20(a0)
    1e08:	d10c                	sw	a1,32(a0)
    1e0a:	d150                	sw	a2,36(a0)
    1e0c:	d514                	sw	a3,40(a0)
    1e0e:	d558                	sw	a4,44(a0)
    1e10:	863a                	mv	a2,a4
    1e12:	02300593          	li	a1,35
    1e16:	8536                	mv	a0,a3
    1e18:	8942                	mv	s2,a6
    1e1a:	810ff0ef          	jal	ra,e2a <rt_memset>
    1e1e:	545c                	lw	a5,44(s0)
    1e20:	5410                	lw	a2,40(s0)
    1e22:	504c                	lw	a1,36(s0)
    1e24:	5008                	lw	a0,32(s0)
    1e26:	17f1                	addi	a5,a5,-4
    1e28:	000026b7          	lui	a3,0x2
    1e2c:	963e                	add	a2,a2,a5
    1e2e:	d9e68693          	addi	a3,a3,-610 # 1d9e <rt_thread_exit>
    1e32:	73e000ef          	jal	ra,2570 <rt_hw_stack_init>
    1e36:	cc48                	sw	a0,28(s0)
    1e38:	47bd                	li	a5,15
    1e3a:	0097fd63          	bgeu	a5,s1,1e54 <_rt_thread_init.isra.0+0x5c>
    1e3e:	65b1                	lui	a1,0xc
    1e40:	0000c537          	lui	a0,0xc
    1e44:	09600613          	li	a2,150
    1e48:	56c58593          	addi	a1,a1,1388 # c56c <__FUNCTION__.2462>
    1e4c:	5ec50513          	addi	a0,a0,1516 # c5ec <__FUNCTION__.2547+0x14>
    1e50:	d90ff0ef          	jal	ra,13e0 <rt_assert_handler>
    1e54:	00002637          	lui	a2,0x2
    1e58:	4781                	li	a5,0
    1e5a:	02940b23          	sb	s1,54(s0)
    1e5e:	02940aa3          	sb	s1,53(s0)
    1e62:	02042c23          	sw	zero,56(s0)
    1e66:	05242223          	sw	s2,68(s0)
    1e6a:	05242423          	sw	s2,72(s0)
    1e6e:	02042823          	sw	zero,48(s0)
    1e72:	02040a23          	sb	zero,52(s0)
    1e76:	06042c23          	sw	zero,120(s0)
    1e7a:	06042e23          	sw	zero,124(s0)
    1e7e:	4701                	li	a4,0
    1e80:	86a2                	mv	a3,s0
    1e82:	e9e60613          	addi	a2,a2,-354 # 1e9e <rt_thread_timeout>
    1e86:	85a2                	mv	a1,s0
    1e88:	04c40513          	addi	a0,s0,76
    1e8c:	26e1                	jal	2254 <rt_timer_init>
    1e8e:	89c1a783          	lw	a5,-1892(gp) # 2000025c <rt_thread_inited_hook>
    1e92:	c399                	beqz	a5,1e98 <_rt_thread_init.isra.0+0xa0>
    1e94:	8522                	mv	a0,s0
    1e96:	9782                	jalr	a5
    1e98:	4501                	li	a0,0
    1e9a:	d2cfe06f          	j	3c6 <__riscv_restore_0>

00001e9e <rt_thread_timeout>:
    1e9e:	d04fe2ef          	jal	t0,3a2 <__riscv_save_0>
    1ea2:	842a                	mv	s0,a0
    1ea4:	ed01                	bnez	a0,1ebc <rt_thread_timeout+0x1e>
    1ea6:	65b1                	lui	a1,0xc
    1ea8:	0000c537          	lui	a0,0xc
    1eac:	2e200613          	li	a2,738
    1eb0:	5d858593          	addi	a1,a1,1496 # c5d8 <__FUNCTION__.2547>
    1eb4:	50050513          	addi	a0,a0,1280 # c500 <__FUNCTION__.2479+0x1c>
    1eb8:	d28ff0ef          	jal	ra,13e0 <rt_assert_handler>
    1ebc:	03444783          	lbu	a5,52(s0)
    1ec0:	4709                	li	a4,2
    1ec2:	8bbd                	andi	a5,a5,15
    1ec4:	00e78d63          	beq	a5,a4,1ede <rt_thread_timeout+0x40>
    1ec8:	65b1                	lui	a1,0xc
    1eca:	0000c537          	lui	a0,0xc
    1ece:	2e300613          	li	a2,739
    1ed2:	5d858593          	addi	a1,a1,1496 # c5d8 <__FUNCTION__.2547>
    1ed6:	66050513          	addi	a0,a0,1632 # c660 <__FUNCTION__.2547+0x88>
    1eda:	d06ff0ef          	jal	ra,13e0 <rt_assert_handler>
    1ede:	8522                	mv	a0,s0
    1ee0:	c5dff0ef          	jal	ra,1b3c <rt_object_get_type>
    1ee4:	4785                	li	a5,1
    1ee6:	00f50d63          	beq	a0,a5,1f00 <rt_thread_timeout+0x62>
    1eea:	65b1                	lui	a1,0xc
    1eec:	0000c537          	lui	a0,0xc
    1ef0:	2e400613          	li	a2,740
    1ef4:	5d858593          	addi	a1,a1,1496 # c5d8 <__FUNCTION__.2547>
    1ef8:	69c50513          	addi	a0,a0,1692 # c69c <__FUNCTION__.2547+0xc4>
    1efc:	ce4ff0ef          	jal	ra,13e0 <rt_assert_handler>
    1f00:	4854                	lw	a3,20(s0)
    1f02:	4c18                	lw	a4,24(s0)
    1f04:	57f9                	li	a5,-2
    1f06:	d81c                	sw	a5,48(s0)
    1f08:	c2d8                	sw	a4,4(a3)
    1f0a:	01440793          	addi	a5,s0,20
    1f0e:	c314                	sw	a3,0(a4)
    1f10:	cc1c                	sw	a5,24(s0)
    1f12:	c85c                	sw	a5,20(s0)
    1f14:	8522                	mv	a0,s0
    1f16:	d7bff0ef          	jal	ra,1c90 <rt_schedule_insert_thread>
    1f1a:	ca5ff0ef          	jal	ra,1bbe <rt_schedule>
    1f1e:	ca8fe06f          	j	3c6 <__riscv_restore_0>

00001f22 <rt_thread_init>:
    1f22:	c58fe2ef          	jal	t0,37a <__riscv_save_10>
    1f26:	842a                	mv	s0,a0
    1f28:	8bae                	mv	s7,a1
    1f2a:	8932                	mv	s2,a2
    1f2c:	89b6                	mv	s3,a3
    1f2e:	84ba                	mv	s1,a4
    1f30:	8a3e                	mv	s4,a5
    1f32:	8ac2                	mv	s5,a6
    1f34:	8b46                	mv	s6,a7
    1f36:	ed01                	bnez	a0,1f4e <rt_thread_init+0x2c>
    1f38:	65b1                	lui	a1,0xc
    1f3a:	0000c537          	lui	a0,0xc
    1f3e:	0e600613          	li	a2,230
    1f42:	57c58593          	addi	a1,a1,1404 # c57c <__FUNCTION__.2474>
    1f46:	50050513          	addi	a0,a0,1280 # c500 <__FUNCTION__.2479+0x1c>
    1f4a:	c96ff0ef          	jal	ra,13e0 <rt_assert_handler>
    1f4e:	ec81                	bnez	s1,1f66 <rt_thread_init+0x44>
    1f50:	65b1                	lui	a1,0xc
    1f52:	0000c537          	lui	a0,0xc
    1f56:	0e700613          	li	a2,231
    1f5a:	57c58593          	addi	a1,a1,1404 # c57c <__FUNCTION__.2474>
    1f5e:	61050513          	addi	a0,a0,1552 # c610 <__FUNCTION__.2547+0x38>
    1f62:	c7eff0ef          	jal	ra,13e0 <rt_assert_handler>
    1f66:	865e                	mv	a2,s7
    1f68:	8522                	mv	a0,s0
    1f6a:	4585                	li	a1,1
    1f6c:	9b7ff0ef          	jal	ra,1922 <rt_object_init>
    1f70:	885a                	mv	a6,s6
    1f72:	87d6                	mv	a5,s5
    1f74:	8752                	mv	a4,s4
    1f76:	86a6                	mv	a3,s1
    1f78:	864e                	mv	a2,s3
    1f7a:	85ca                	mv	a1,s2
    1f7c:	8522                	mv	a0,s0
    1f7e:	e7bff0ef          	jal	ra,1df8 <_rt_thread_init.isra.0>
    1f82:	c30fe06f          	j	3b2 <__riscv_restore_10>

00001f86 <rt_thread_self>:
    1f86:	8841a503          	lw	a0,-1916(gp) # 20000244 <rt_current_thread>
    1f8a:	8082                	ret

00001f8c <rt_thread_create>:
    1f8c:	bfcfe2ef          	jal	t0,388 <__riscv_save_4>
    1f90:	1141                	addi	sp,sp,-16
    1f92:	892e                	mv	s2,a1
    1f94:	85aa                	mv	a1,a0
    1f96:	4505                	li	a0,1
    1f98:	c632                	sw	a2,12(sp)
    1f9a:	84b6                	mv	s1,a3
    1f9c:	89ba                	mv	s3,a4
    1f9e:	8a3e                	mv	s4,a5
    1fa0:	a5fff0ef          	jal	ra,19fe <rt_object_allocate>
    1fa4:	842a                	mv	s0,a0
    1fa6:	c911                	beqz	a0,1fba <rt_thread_create+0x2e>
    1fa8:	8526                	mv	a0,s1
    1faa:	e06ff0ef          	jal	ra,15b0 <rt_malloc>
    1fae:	4632                	lw	a2,12(sp)
    1fb0:	e909                	bnez	a0,1fc2 <rt_thread_create+0x36>
    1fb2:	8522                	mv	a0,s0
    1fb4:	af5ff0ef          	jal	ra,1aa8 <rt_object_delete>
    1fb8:	4401                	li	s0,0
    1fba:	8522                	mv	a0,s0
    1fbc:	0141                	addi	sp,sp,16
    1fbe:	bfefe06f          	j	3bc <__riscv_restore_4>
    1fc2:	86aa                	mv	a3,a0
    1fc4:	8852                	mv	a6,s4
    1fc6:	87ce                	mv	a5,s3
    1fc8:	8726                	mv	a4,s1
    1fca:	85ca                	mv	a1,s2
    1fcc:	8522                	mv	a0,s0
    1fce:	e2bff0ef          	jal	ra,1df8 <_rt_thread_init.isra.0>
    1fd2:	b7e5                	j	1fba <rt_thread_create+0x2e>

00001fd4 <rt_thread_yield>:
    1fd4:	bcefe2ef          	jal	t0,3a2 <__riscv_save_0>
    1fd8:	23f5                	jal	25c4 <rt_hw_interrupt_disable>
    1fda:	8841a783          	lw	a5,-1916(gp) # 20000244 <rt_current_thread>
    1fde:	4605                	li	a2,1
    1fe0:	86aa                	mv	a3,a0
    1fe2:	0347c703          	lbu	a4,52(a5)
    1fe6:	8b3d                	andi	a4,a4,15
    1fe8:	02c71c63          	bne	a4,a2,2020 <rt_thread_yield+0x4c>
    1fec:	4bd0                	lw	a2,20(a5)
    1fee:	4f98                	lw	a4,24(a5)
    1ff0:	02e60863          	beq	a2,a4,2020 <rt_thread_yield+0x4c>
    1ff4:	c258                	sw	a4,4(a2)
    1ff6:	c310                	sw	a2,0(a4)
    1ff8:	0357c603          	lbu	a2,53(a5)
    1ffc:	01478693          	addi	a3,a5,20
    2000:	060e                	slli	a2,a2,0x3
    2002:	c1418713          	addi	a4,gp,-1004 # 200005d4 <rt_thread_priority_table>
    2006:	cf94                	sw	a3,24(a5)
    2008:	9732                	add	a4,a4,a2
    200a:	4350                	lw	a2,4(a4)
    200c:	c214                	sw	a3,0(a2)
    200e:	cf90                	sw	a2,24(a5)
    2010:	c354                	sw	a3,4(a4)
    2012:	cbd8                	sw	a4,20(a5)
    2014:	2b75                	jal	25d0 <rt_hw_interrupt_enable>
    2016:	ba9ff0ef          	jal	ra,1bbe <rt_schedule>
    201a:	4501                	li	a0,0
    201c:	baafe06f          	j	3c6 <__riscv_restore_0>
    2020:	8536                	mv	a0,a3
    2022:	237d                	jal	25d0 <rt_hw_interrupt_enable>
    2024:	bfdd                	j	201a <rt_thread_yield+0x46>

00002026 <rt_thread_suspend>:
    2026:	b7cfe2ef          	jal	t0,3a2 <__riscv_save_0>
    202a:	842a                	mv	s0,a0
    202c:	ed01                	bnez	a0,2044 <rt_thread_suspend+0x1e>
    202e:	65b1                	lui	a1,0xc
    2030:	0000c537          	lui	a0,0xc
    2034:	28a00613          	li	a2,650
    2038:	5b058593          	addi	a1,a1,1456 # c5b0 <__FUNCTION__.2537>
    203c:	50050513          	addi	a0,a0,1280 # c500 <__FUNCTION__.2479+0x1c>
    2040:	ba0ff0ef          	jal	ra,13e0 <rt_assert_handler>
    2044:	8522                	mv	a0,s0
    2046:	af7ff0ef          	jal	ra,1b3c <rt_object_get_type>
    204a:	4785                	li	a5,1
    204c:	00f50d63          	beq	a0,a5,2066 <rt_thread_suspend+0x40>
    2050:	65b1                	lui	a1,0xc
    2052:	0000c537          	lui	a0,0xc
    2056:	28b00613          	li	a2,651
    205a:	5b058593          	addi	a1,a1,1456 # c5b0 <__FUNCTION__.2537>
    205e:	69c50513          	addi	a0,a0,1692 # c69c <__FUNCTION__.2547+0xc4>
    2062:	b7eff0ef          	jal	ra,13e0 <rt_assert_handler>
    2066:	03444783          	lbu	a5,52(s0)
    206a:	4705                	li	a4,1
    206c:	557d                	li	a0,-1
    206e:	8bbd                	andi	a5,a5,15
    2070:	02e79a63          	bne	a5,a4,20a4 <rt_thread_suspend+0x7e>
    2074:	2b81                	jal	25c4 <rt_hw_interrupt_disable>
    2076:	03444783          	lbu	a5,52(s0)
    207a:	84aa                	mv	s1,a0
    207c:	8522                	mv	a0,s0
    207e:	9bc1                	andi	a5,a5,-16
    2080:	0027e793          	ori	a5,a5,2
    2084:	02f40a23          	sb	a5,52(s0)
    2088:	c69ff0ef          	jal	ra,1cf0 <rt_schedule_remove_thread>
    208c:	04c40513          	addi	a0,s0,76
    2090:	26bd                	jal	23fe <rt_timer_stop>
    2092:	8526                	mv	a0,s1
    2094:	2b35                	jal	25d0 <rt_hw_interrupt_enable>
    2096:	8a41a783          	lw	a5,-1884(gp) # 20000264 <rt_thread_suspend_hook>
    209a:	4501                	li	a0,0
    209c:	c781                	beqz	a5,20a4 <rt_thread_suspend+0x7e>
    209e:	8522                	mv	a0,s0
    20a0:	9782                	jalr	a5
    20a2:	4501                	li	a0,0
    20a4:	b22fe06f          	j	3c6 <__riscv_restore_0>

000020a8 <rt_thread_sleep>:
    20a8:	afafe2ef          	jal	t0,3a2 <__riscv_save_0>
    20ac:	1141                	addi	sp,sp,-16
    20ae:	c62a                	sw	a0,12(sp)
    20b0:	2b11                	jal	25c4 <rt_hw_interrupt_disable>
    20b2:	8841a403          	lw	s0,-1916(gp) # 20000244 <rt_current_thread>
    20b6:	892a                	mv	s2,a0
    20b8:	ec01                	bnez	s0,20d0 <rt_thread_sleep+0x28>
    20ba:	65b1                	lui	a1,0xc
    20bc:	0000c537          	lui	a0,0xc
    20c0:	1f600613          	li	a2,502
    20c4:	5a058593          	addi	a1,a1,1440 # c5a0 <__FUNCTION__.2513>
    20c8:	50050513          	addi	a0,a0,1280 # c500 <__FUNCTION__.2479+0x1c>
    20cc:	b14ff0ef          	jal	ra,13e0 <rt_assert_handler>
    20d0:	8522                	mv	a0,s0
    20d2:	a6bff0ef          	jal	ra,1b3c <rt_object_get_type>
    20d6:	4785                	li	a5,1
    20d8:	00f50d63          	beq	a0,a5,20f2 <rt_thread_sleep+0x4a>
    20dc:	65b1                	lui	a1,0xc
    20de:	0000c537          	lui	a0,0xc
    20e2:	1f700613          	li	a2,503
    20e6:	5a058593          	addi	a1,a1,1440 # c5a0 <__FUNCTION__.2513>
    20ea:	69c50513          	addi	a0,a0,1692 # c69c <__FUNCTION__.2547+0xc4>
    20ee:	af2ff0ef          	jal	ra,13e0 <rt_assert_handler>
    20f2:	8522                	mv	a0,s0
    20f4:	f33ff0ef          	jal	ra,2026 <rt_thread_suspend>
    20f8:	04c40493          	addi	s1,s0,76
    20fc:	0070                	addi	a2,sp,12
    20fe:	4581                	li	a1,0
    2100:	8526                	mv	a0,s1
    2102:	26a5                	jal	246a <rt_timer_control>
    2104:	8526                	mv	a0,s1
    2106:	2c21                	jal	231e <rt_timer_start>
    2108:	854a                	mv	a0,s2
    210a:	21d9                	jal	25d0 <rt_hw_interrupt_enable>
    210c:	ab3ff0ef          	jal	ra,1bbe <rt_schedule>
    2110:	5818                	lw	a4,48(s0)
    2112:	57f9                	li	a5,-2
    2114:	00f71463          	bne	a4,a5,211c <rt_thread_sleep+0x74>
    2118:	02042823          	sw	zero,48(s0)
    211c:	4501                	li	a0,0
    211e:	0141                	addi	sp,sp,16
    2120:	aa6fe06f          	j	3c6 <__riscv_restore_0>

00002124 <rt_thread_mdelay>:
    2124:	a7efe2ef          	jal	t0,3a2 <__riscv_save_0>
    2128:	b80fe0ef          	jal	ra,4a8 <rt_tick_from_millisecond>
    212c:	f7dff0ef          	jal	ra,20a8 <rt_thread_sleep>
    2130:	a96fe06f          	j	3c6 <__riscv_restore_0>

00002134 <rt_thread_resume>:
    2134:	a6efe2ef          	jal	t0,3a2 <__riscv_save_0>
    2138:	842a                	mv	s0,a0
    213a:	ed01                	bnez	a0,2152 <rt_thread_resume+0x1e>
    213c:	65b1                	lui	a1,0xc
    213e:	0000c537          	lui	a0,0xc
    2142:	2b500613          	li	a2,693
    2146:	5c458593          	addi	a1,a1,1476 # c5c4 <__FUNCTION__.2542>
    214a:	50050513          	addi	a0,a0,1280 # c500 <__FUNCTION__.2479+0x1c>
    214e:	a92ff0ef          	jal	ra,13e0 <rt_assert_handler>
    2152:	8522                	mv	a0,s0
    2154:	9e9ff0ef          	jal	ra,1b3c <rt_object_get_type>
    2158:	4785                	li	a5,1
    215a:	00f50d63          	beq	a0,a5,2174 <rt_thread_resume+0x40>
    215e:	65b1                	lui	a1,0xc
    2160:	0000c537          	lui	a0,0xc
    2164:	2b600613          	li	a2,694
    2168:	5c458593          	addi	a1,a1,1476 # c5c4 <__FUNCTION__.2542>
    216c:	69c50513          	addi	a0,a0,1692 # c69c <__FUNCTION__.2547+0xc4>
    2170:	a70ff0ef          	jal	ra,13e0 <rt_assert_handler>
    2174:	03444783          	lbu	a5,52(s0)
    2178:	4709                	li	a4,2
    217a:	557d                	li	a0,-1
    217c:	8bbd                	andi	a5,a5,15
    217e:	02e79b63          	bne	a5,a4,21b4 <rt_thread_resume+0x80>
    2182:	2189                	jal	25c4 <rt_hw_interrupt_disable>
    2184:	4854                	lw	a3,20(s0)
    2186:	4c18                	lw	a4,24(s0)
    2188:	01440793          	addi	a5,s0,20
    218c:	84aa                	mv	s1,a0
    218e:	c2d8                	sw	a4,4(a3)
    2190:	c314                	sw	a3,0(a4)
    2192:	cc1c                	sw	a5,24(s0)
    2194:	c85c                	sw	a5,20(s0)
    2196:	04c40513          	addi	a0,s0,76
    219a:	2495                	jal	23fe <rt_timer_stop>
    219c:	8526                	mv	a0,s1
    219e:	290d                	jal	25d0 <rt_hw_interrupt_enable>
    21a0:	8522                	mv	a0,s0
    21a2:	aefff0ef          	jal	ra,1c90 <rt_schedule_insert_thread>
    21a6:	8a01a783          	lw	a5,-1888(gp) # 20000260 <rt_thread_resume_hook>
    21aa:	4501                	li	a0,0
    21ac:	c781                	beqz	a5,21b4 <rt_thread_resume+0x80>
    21ae:	8522                	mv	a0,s0
    21b0:	9782                	jalr	a5
    21b2:	4501                	li	a0,0
    21b4:	a12fe06f          	j	3c6 <__riscv_restore_0>

000021b8 <rt_thread_startup>:
    21b8:	9eafe2ef          	jal	t0,3a2 <__riscv_save_0>
    21bc:	842a                	mv	s0,a0
    21be:	ed01                	bnez	a0,21d6 <rt_thread_startup+0x1e>
    21c0:	65b1                	lui	a1,0xc
    21c2:	0000c537          	lui	a0,0xc
    21c6:	10c00613          	li	a2,268
    21ca:	58c58593          	addi	a1,a1,1420 # c58c <__FUNCTION__.2481>
    21ce:	50050513          	addi	a0,a0,1280 # c500 <__FUNCTION__.2479+0x1c>
    21d2:	a0eff0ef          	jal	ra,13e0 <rt_assert_handler>
    21d6:	03444783          	lbu	a5,52(s0)
    21da:	8bbd                	andi	a5,a5,15
    21dc:	cf81                	beqz	a5,21f4 <rt_thread_startup+0x3c>
    21de:	65b1                	lui	a1,0xc
    21e0:	0000c537          	lui	a0,0xc
    21e4:	10d00613          	li	a2,269
    21e8:	58c58593          	addi	a1,a1,1420 # c58c <__FUNCTION__.2481>
    21ec:	62850513          	addi	a0,a0,1576 # c628 <__FUNCTION__.2547+0x50>
    21f0:	9f0ff0ef          	jal	ra,13e0 <rt_assert_handler>
    21f4:	8522                	mv	a0,s0
    21f6:	947ff0ef          	jal	ra,1b3c <rt_object_get_type>
    21fa:	4785                	li	a5,1
    21fc:	00f50d63          	beq	a0,a5,2216 <rt_thread_startup+0x5e>
    2200:	65b1                	lui	a1,0xc
    2202:	0000c537          	lui	a0,0xc
    2206:	10e00613          	li	a2,270
    220a:	58c58593          	addi	a1,a1,1420 # c58c <__FUNCTION__.2481>
    220e:	69c50513          	addi	a0,a0,1692 # c69c <__FUNCTION__.2547+0xc4>
    2212:	9ceff0ef          	jal	ra,13e0 <rt_assert_handler>
    2216:	03644703          	lbu	a4,54(s0)
    221a:	4785                	li	a5,1
    221c:	8522                	mv	a0,s0
    221e:	00e797b3          	sll	a5,a5,a4
    2222:	dc1c                	sw	a5,56(s0)
    2224:	4789                	li	a5,2
    2226:	02f40a23          	sb	a5,52(s0)
    222a:	02e40aa3          	sb	a4,53(s0)
    222e:	f07ff0ef          	jal	ra,2134 <rt_thread_resume>
    2232:	8841a783          	lw	a5,-1916(gp) # 20000244 <rt_current_thread>
    2236:	c399                	beqz	a5,223c <rt_thread_startup+0x84>
    2238:	987ff0ef          	jal	ra,1bbe <rt_schedule>
    223c:	4501                	li	a0,0
    223e:	988fe06f          	j	3c6 <__riscv_restore_0>

00002242 <_rt_timer_remove.part.1>:
    2242:	4954                	lw	a3,20(a0)
    2244:	4d18                	lw	a4,24(a0)
    2246:	01450793          	addi	a5,a0,20
    224a:	c2d8                	sw	a4,4(a3)
    224c:	c314                	sw	a3,0(a4)
    224e:	cd1c                	sw	a5,24(a0)
    2250:	c95c                	sw	a5,20(a0)
    2252:	8082                	ret

00002254 <rt_timer_init>:
    2254:	934fe2ef          	jal	t0,388 <__riscv_save_4>
    2258:	842a                	mv	s0,a0
    225a:	8aae                	mv	s5,a1
    225c:	8a32                	mv	s4,a2
    225e:	89b6                	mv	s3,a3
    2260:	893a                	mv	s2,a4
    2262:	84be                	mv	s1,a5
    2264:	ed01                	bnez	a0,227c <rt_timer_init+0x28>
    2266:	65b1                	lui	a1,0xc
    2268:	0000c537          	lui	a0,0xc
    226c:	0ba00613          	li	a2,186
    2270:	6e058593          	addi	a1,a1,1760 # c6e0 <__FUNCTION__.2474>
    2274:	79c50513          	addi	a0,a0,1948 # c79c <__FUNCTION__.2526+0x7c>
    2278:	968ff0ef          	jal	ra,13e0 <rt_assert_handler>
    227c:	8656                	mv	a2,s5
    227e:	45a9                	li	a1,10
    2280:	8522                	mv	a0,s0
    2282:	ea0ff0ef          	jal	ra,1922 <rt_object_init>
    2286:	01440793          	addi	a5,s0,20
    228a:	98f9                	andi	s1,s1,-2
    228c:	b404                	sb	s1,9(s0)
    228e:	01442e23          	sw	s4,28(s0)
    2292:	03342023          	sw	s3,32(s0)
    2296:	02042423          	sw	zero,40(s0)
    229a:	03242223          	sw	s2,36(s0)
    229e:	cc1c                	sw	a5,24(s0)
    22a0:	c85c                	sw	a5,20(s0)
    22a2:	91afe06f          	j	3bc <__riscv_restore_4>

000022a6 <rt_timer_detach>:
    22a6:	8fcfe2ef          	jal	t0,3a2 <__riscv_save_0>
    22aa:	842a                	mv	s0,a0
    22ac:	ed01                	bnez	a0,22c4 <rt_timer_detach+0x1e>
    22ae:	65b1                	lui	a1,0xc
    22b0:	0000c537          	lui	a0,0xc
    22b4:	0cf00613          	li	a2,207
    22b8:	6f058593          	addi	a1,a1,1776 # c6f0 <__FUNCTION__.2479>
    22bc:	79c50513          	addi	a0,a0,1948 # c79c <__FUNCTION__.2526+0x7c>
    22c0:	920ff0ef          	jal	ra,13e0 <rt_assert_handler>
    22c4:	8522                	mv	a0,s0
    22c6:	877ff0ef          	jal	ra,1b3c <rt_object_get_type>
    22ca:	47a9                	li	a5,10
    22cc:	00f50d63          	beq	a0,a5,22e6 <rt_timer_detach+0x40>
    22d0:	65b1                	lui	a1,0xc
    22d2:	0000c537          	lui	a0,0xc
    22d6:	0d000613          	li	a2,208
    22da:	6f058593          	addi	a1,a1,1776 # c6f0 <__FUNCTION__.2479>
    22de:	73450513          	addi	a0,a0,1844 # c734 <__FUNCTION__.2526+0x14>
    22e2:	8feff0ef          	jal	ra,13e0 <rt_assert_handler>
    22e6:	8522                	mv	a0,s0
    22e8:	82dff0ef          	jal	ra,1b14 <rt_object_is_systemobject>
    22ec:	ed01                	bnez	a0,2304 <rt_timer_detach+0x5e>
    22ee:	65b1                	lui	a1,0xc
    22f0:	0000c537          	lui	a0,0xc
    22f4:	0d100613          	li	a2,209
    22f8:	6f058593          	addi	a1,a1,1776 # c6f0 <__FUNCTION__.2479>
    22fc:	77050513          	addi	a0,a0,1904 # c770 <__FUNCTION__.2526+0x50>
    2300:	8e0ff0ef          	jal	ra,13e0 <rt_assert_handler>
    2304:	24c1                	jal	25c4 <rt_hw_interrupt_disable>
    2306:	84aa                	mv	s1,a0
    2308:	8522                	mv	a0,s0
    230a:	f39ff0ef          	jal	ra,2242 <_rt_timer_remove.part.1>
    230e:	8526                	mv	a0,s1
    2310:	24c1                	jal	25d0 <rt_hw_interrupt_enable>
    2312:	8522                	mv	a0,s0
    2314:	ea2ff0ef          	jal	ra,19b6 <rt_object_detach>
    2318:	4501                	li	a0,0
    231a:	8acfe06f          	j	3c6 <__riscv_restore_0>

0000231e <rt_timer_start>:
    231e:	884fe2ef          	jal	t0,3a2 <__riscv_save_0>
    2322:	842a                	mv	s0,a0
    2324:	ed01                	bnez	a0,233c <rt_timer_start+0x1e>
    2326:	65b1                	lui	a1,0xc
    2328:	0000c537          	lui	a0,0xc
    232c:	13200613          	li	a2,306
    2330:	70058593          	addi	a1,a1,1792 # c700 <__FUNCTION__.2503>
    2334:	79c50513          	addi	a0,a0,1948 # c79c <__FUNCTION__.2526+0x7c>
    2338:	8a8ff0ef          	jal	ra,13e0 <rt_assert_handler>
    233c:	8522                	mv	a0,s0
    233e:	ffeff0ef          	jal	ra,1b3c <rt_object_get_type>
    2342:	47a9                	li	a5,10
    2344:	00f50d63          	beq	a0,a5,235e <rt_timer_start+0x40>
    2348:	65b1                	lui	a1,0xc
    234a:	0000c537          	lui	a0,0xc
    234e:	13300613          	li	a2,307
    2352:	70058593          	addi	a1,a1,1792 # c700 <__FUNCTION__.2503>
    2356:	73450513          	addi	a0,a0,1844 # c734 <__FUNCTION__.2526+0x14>
    235a:	886ff0ef          	jal	ra,13e0 <rt_assert_handler>
    235e:	249d                	jal	25c4 <rt_hw_interrupt_disable>
    2360:	84aa                	mv	s1,a0
    2362:	8522                	mv	a0,s0
    2364:	edfff0ef          	jal	ra,2242 <_rt_timer_remove.part.1>
    2368:	341c                	lbu	a5,9(s0)
    236a:	8526                	mv	a0,s1
    236c:	9bf9                	andi	a5,a5,-2
    236e:	b41c                	sb	a5,9(s0)
    2370:	2485                	jal	25d0 <rt_hw_interrupt_enable>
    2372:	8781a783          	lw	a5,-1928(gp) # 20000238 <rt_object_take_hook>
    2376:	c399                	beqz	a5,237c <rt_timer_start+0x5e>
    2378:	8522                	mv	a0,s0
    237a:	9782                	jalr	a5
    237c:	5058                	lw	a4,36(s0)
    237e:	800007b7          	lui	a5,0x80000
    2382:	ffe7c793          	xori	a5,a5,-2
    2386:	00e7fd63          	bgeu	a5,a4,23a0 <rt_timer_start+0x82>
    238a:	65b1                	lui	a1,0xc
    238c:	0000c537          	lui	a0,0xc
    2390:	14300613          	li	a2,323
    2394:	70058593          	addi	a1,a1,1792 # c700 <__FUNCTION__.2503>
    2398:	7b050513          	addi	a0,a0,1968 # c7b0 <__FUNCTION__.2526+0x90>
    239c:	844ff0ef          	jal	ra,13e0 <rt_assert_handler>
    23a0:	8dafe0ef          	jal	ra,47a <rt_tick_get>
    23a4:	505c                	lw	a5,36(s0)
    23a6:	953e                	add	a0,a0,a5
    23a8:	d408                	sw	a0,40(s0)
    23aa:	2c29                	jal	25c4 <rt_hw_interrupt_disable>
    23ac:	8b418713          	addi	a4,gp,-1868 # 20000274 <rt_timer_list>
    23b0:	00472803          	lw	a6,4(a4)
    23b4:	80000637          	lui	a2,0x80000
    23b8:	8b418793          	addi	a5,gp,-1868 # 20000274 <rt_timer_list>
    23bc:	ffe64613          	xori	a2,a2,-2
    23c0:	4398                	lw	a4,0(a5)
    23c2:	02f81563          	bne	a6,a5,23ec <rt_timer_start+0xce>
    23c6:	8a818693          	addi	a3,gp,-1880 # 20000268 <random_nr.2502>
    23ca:	4290                	lw	a2,0(a3)
    23cc:	0605                	addi	a2,a2,1
    23ce:	c290                	sw	a2,0(a3)
    23d0:	01440693          	addi	a3,s0,20
    23d4:	c354                	sw	a3,4(a4)
    23d6:	c858                	sw	a4,20(s0)
    23d8:	c394                	sw	a3,0(a5)
    23da:	cc1c                	sw	a5,24(s0)
    23dc:	341c                	lbu	a5,9(s0)
    23de:	0017e793          	ori	a5,a5,1
    23e2:	b41c                	sb	a5,9(s0)
    23e4:	22f5                	jal	25d0 <rt_hw_interrupt_enable>
    23e6:	4501                	li	a0,0
    23e8:	fdffd06f          	j	3c6 <__riscv_restore_0>
    23ec:	4b54                	lw	a3,20(a4)
    23ee:	540c                	lw	a1,40(s0)
    23f0:	00b68563          	beq	a3,a1,23fa <rt_timer_start+0xdc>
    23f4:	8e8d                	sub	a3,a3,a1
    23f6:	fcd678e3          	bgeu	a2,a3,23c6 <rt_timer_start+0xa8>
    23fa:	87ba                	mv	a5,a4
    23fc:	b7d1                	j	23c0 <rt_timer_start+0xa2>

000023fe <rt_timer_stop>:
    23fe:	fa5fd2ef          	jal	t0,3a2 <__riscv_save_0>
    2402:	842a                	mv	s0,a0
    2404:	ed01                	bnez	a0,241c <rt_timer_stop+0x1e>
    2406:	65b1                	lui	a1,0xc
    2408:	0000c537          	lui	a0,0xc
    240c:	1ab00613          	li	a2,427
    2410:	71058593          	addi	a1,a1,1808 # c710 <__FUNCTION__.2520>
    2414:	79c50513          	addi	a0,a0,1948 # c79c <__FUNCTION__.2526+0x7c>
    2418:	fc9fe0ef          	jal	ra,13e0 <rt_assert_handler>
    241c:	8522                	mv	a0,s0
    241e:	f1eff0ef          	jal	ra,1b3c <rt_object_get_type>
    2422:	47a9                	li	a5,10
    2424:	00f50d63          	beq	a0,a5,243e <rt_timer_stop+0x40>
    2428:	65b1                	lui	a1,0xc
    242a:	0000c537          	lui	a0,0xc
    242e:	1ac00613          	li	a2,428
    2432:	71058593          	addi	a1,a1,1808 # c710 <__FUNCTION__.2520>
    2436:	73450513          	addi	a0,a0,1844 # c734 <__FUNCTION__.2526+0x14>
    243a:	fa7fe0ef          	jal	ra,13e0 <rt_assert_handler>
    243e:	341c                	lbu	a5,9(s0)
    2440:	557d                	li	a0,-1
    2442:	8b85                	andi	a5,a5,1
    2444:	c38d                	beqz	a5,2466 <rt_timer_stop+0x68>
    2446:	8741a783          	lw	a5,-1932(gp) # 20000234 <rt_object_put_hook>
    244a:	c399                	beqz	a5,2450 <rt_timer_stop+0x52>
    244c:	8522                	mv	a0,s0
    244e:	9782                	jalr	a5
    2450:	2a95                	jal	25c4 <rt_hw_interrupt_disable>
    2452:	84aa                	mv	s1,a0
    2454:	8522                	mv	a0,s0
    2456:	dedff0ef          	jal	ra,2242 <_rt_timer_remove.part.1>
    245a:	8526                	mv	a0,s1
    245c:	2a95                	jal	25d0 <rt_hw_interrupt_enable>
    245e:	341c                	lbu	a5,9(s0)
    2460:	4501                	li	a0,0
    2462:	9bf9                	andi	a5,a5,-2
    2464:	b41c                	sb	a5,9(s0)
    2466:	f61fd06f          	j	3c6 <__riscv_restore_0>

0000246a <rt_timer_control>:
    246a:	f39fd2ef          	jal	t0,3a2 <__riscv_save_0>
    246e:	842a                	mv	s0,a0
    2470:	84ae                	mv	s1,a1
    2472:	8932                	mv	s2,a2
    2474:	ed01                	bnez	a0,248c <rt_timer_control+0x22>
    2476:	65b1                	lui	a1,0xc
    2478:	0000c537          	lui	a0,0xc
    247c:	1ce00613          	li	a2,462
    2480:	72058593          	addi	a1,a1,1824 # c720 <__FUNCTION__.2526>
    2484:	79c50513          	addi	a0,a0,1948 # c79c <__FUNCTION__.2526+0x7c>
    2488:	f59fe0ef          	jal	ra,13e0 <rt_assert_handler>
    248c:	8522                	mv	a0,s0
    248e:	eaeff0ef          	jal	ra,1b3c <rt_object_get_type>
    2492:	47a9                	li	a5,10
    2494:	00f50d63          	beq	a0,a5,24ae <rt_timer_control+0x44>
    2498:	65b1                	lui	a1,0xc
    249a:	0000c537          	lui	a0,0xc
    249e:	1cf00613          	li	a2,463
    24a2:	72058593          	addi	a1,a1,1824 # c720 <__FUNCTION__.2526>
    24a6:	73450513          	addi	a0,a0,1844 # c734 <__FUNCTION__.2526+0x14>
    24aa:	f37fe0ef          	jal	ra,13e0 <rt_assert_handler>
    24ae:	4785                	li	a5,1
    24b0:	02f48263          	beq	s1,a5,24d4 <rt_timer_control+0x6a>
    24b4:	0097c663          	blt	a5,s1,24c0 <rt_timer_control+0x56>
    24b8:	c095                	beqz	s1,24dc <rt_timer_control+0x72>
    24ba:	4501                	li	a0,0
    24bc:	f0bfd06f          	j	3c6 <__riscv_restore_0>
    24c0:	4789                	li	a5,2
    24c2:	02f48163          	beq	s1,a5,24e4 <rt_timer_control+0x7a>
    24c6:	478d                	li	a5,3
    24c8:	fef499e3          	bne	s1,a5,24ba <rt_timer_control+0x50>
    24cc:	341c                	lbu	a5,9(s0)
    24ce:	0027e793          	ori	a5,a5,2
    24d2:	a819                	j	24e8 <rt_timer_control+0x7e>
    24d4:	505c                	lw	a5,36(s0)
    24d6:	00f92023          	sw	a5,0(s2)
    24da:	b7c5                	j	24ba <rt_timer_control+0x50>
    24dc:	00092783          	lw	a5,0(s2)
    24e0:	d05c                	sw	a5,36(s0)
    24e2:	bfe1                	j	24ba <rt_timer_control+0x50>
    24e4:	341c                	lbu	a5,9(s0)
    24e6:	9bf5                	andi	a5,a5,-3
    24e8:	b41c                	sb	a5,9(s0)
    24ea:	bfc1                	j	24ba <rt_timer_control+0x50>

000024ec <rt_timer_check>:
    24ec:	e8ffd2ef          	jal	t0,37a <__riscv_save_10>
    24f0:	f8bfd0ef          	jal	ra,47a <rt_tick_get>
    24f4:	8c2a                	mv	s8,a0
    24f6:	20f9                	jal	25c4 <rt_hw_interrupt_disable>
    24f8:	800009b7          	lui	s3,0x80000
    24fc:	8a2a                	mv	s4,a0
    24fe:	8b418493          	addi	s1,gp,-1868 # 20000274 <rt_timer_list>
    2502:	ffe9c993          	xori	s3,s3,-2
    2506:	4b8d                	li	s7,3
    2508:	4080                	lw	s0,0(s1)
    250a:	00941663          	bne	s0,s1,2516 <rt_timer_check+0x2a>
    250e:	8552                	mv	a0,s4
    2510:	20c1                	jal	25d0 <rt_hw_interrupt_enable>
    2512:	ea1fd06f          	j	3b2 <__riscv_restore_10>
    2516:	4848                	lw	a0,20(s0)
    2518:	fec40913          	addi	s2,s0,-20
    251c:	40ac0533          	sub	a0,s8,a0
    2520:	fea9e7e3          	bltu	s3,a0,250e <rt_timer_check+0x22>
    2524:	8ac1a783          	lw	a5,-1876(gp) # 2000026c <rt_timer_enter_hook>
    2528:	c399                	beqz	a5,252e <rt_timer_check+0x42>
    252a:	854a                	mv	a0,s2
    252c:	9782                	jalr	a5
    252e:	854a                	mv	a0,s2
    2530:	d13ff0ef          	jal	ra,2242 <_rt_timer_remove.part.1>
    2534:	441c                	lw	a5,8(s0)
    2536:	4448                	lw	a0,12(s0)
    2538:	9782                	jalr	a5
    253a:	f41fd0ef          	jal	ra,47a <rt_tick_get>
    253e:	8b01a783          	lw	a5,-1872(gp) # 20000270 <rt_timer_exit_hook>
    2542:	8c2a                	mv	s8,a0
    2544:	c399                	beqz	a5,254a <rt_timer_check+0x5e>
    2546:	854a                	mv	a0,s2
    2548:	9782                	jalr	a5
    254a:	ff544783          	lbu	a5,-11(s0)
    254e:	0fe7f713          	andi	a4,a5,254
    2552:	fee40aa3          	sb	a4,-11(s0)
    2556:	8b8d                	andi	a5,a5,3
    2558:	fb7798e3          	bne	a5,s7,2508 <rt_timer_check+0x1c>
    255c:	854a                	mv	a0,s2
    255e:	dc1ff0ef          	jal	ra,231e <rt_timer_start>
    2562:	b75d                	j	2508 <rt_timer_check+0x1c>

00002564 <rt_system_timer_init>:
    2564:	8b418793          	addi	a5,gp,-1868 # 20000274 <rt_timer_list>
    2568:	c3dc                	sw	a5,4(a5)
    256a:	c39c                	sw	a5,0(a5)
    256c:	8082                	ret

0000256e <rt_system_timer_thread_init>:
    256e:	8082                	ret

00002570 <rt_hw_stack_init>:
    2570:	0611                	addi	a2,a2,4
    2572:	9a71                	andi	a2,a2,-4
    2574:	882a                	mv	a6,a0
    2576:	deadc737          	lui	a4,0xdeadc
    257a:	f8060513          	addi	a0,a2,-128 # 7fffff80 <_eusrstack+0x5ffeff80>
    257e:	87aa                	mv	a5,a0
    2580:	eef70713          	addi	a4,a4,-273 # deadbeef <_eusrstack+0xbeacbeef>
    2584:	00f61e63          	bne	a2,a5,25a0 <rt_hw_stack_init+0x30>
    2588:	67a1                	lui	a5,0x8
    258a:	88078793          	addi	a5,a5,-1920 # 7880 <ch32_pin_irq_enable+0xe>
    258e:	f8d62223          	sw	a3,-124(a2)
    2592:	fab62423          	sw	a1,-88(a2)
    2596:	f9062023          	sw	a6,-128(a2)
    259a:	f8f62423          	sw	a5,-120(a2)
    259e:	8082                	ret
    25a0:	c398                	sw	a4,0(a5)
    25a2:	0791                	addi	a5,a5,4
    25a4:	b7c5                	j	2584 <rt_hw_stack_init+0x14>

000025a6 <sw_setpend>:
    25a6:	e000f737          	lui	a4,0xe000f
    25aa:	431c                	lw	a5,0(a4)
    25ac:	800006b7          	lui	a3,0x80000
    25b0:	8fd5                	or	a5,a5,a3
    25b2:	c31c                	sw	a5,0(a4)
    25b4:	8082                	ret

000025b6 <sw_clearpend>:
    25b6:	e000f737          	lui	a4,0xe000f
    25ba:	431c                	lw	a5,0(a4)
    25bc:	0786                	slli	a5,a5,0x1
    25be:	8385                	srli	a5,a5,0x1
    25c0:	c31c                	sw	a5,0(a4)
    25c2:	8082                	ret

000025c4 <rt_hw_interrupt_disable>:
    25c4:	6521                	lui	a0,0x8
    25c6:	80050513          	addi	a0,a0,-2048 # 7800 <ch32_pin_attach_irq+0x7a>
    25ca:	30051573          	csrrw	a0,mstatus,a0
    25ce:	8082                	ret

000025d0 <rt_hw_interrupt_enable>:
    25d0:	30051073          	csrw	mstatus,a0
    25d4:	8082                	ret

000025d6 <rt_hw_context_switch_interrupt>:
    25d6:	dcdfd2ef          	jal	t0,3a2 <__riscv_save_0>
    25da:	8c418713          	addi	a4,gp,-1852 # 20000284 <rt_thread_switch_interrupt_flag>
    25de:	4318                	lw	a4,0(a4)
    25e0:	8c418793          	addi	a5,gp,-1852 # 20000284 <rt_thread_switch_interrupt_flag>
    25e4:	e319                	bnez	a4,25ea <rt_hw_context_switch_interrupt+0x14>
    25e6:	8aa1ae23          	sw	a0,-1860(gp) # 2000027c <rt_interrupt_from_thread>
    25ea:	8cb1a023          	sw	a1,-1856(gp) # 20000280 <rt_interrupt_to_thread>
    25ee:	4705                	li	a4,1
    25f0:	c398                	sw	a4,0(a5)
    25f2:	fb5ff0ef          	jal	ra,25a6 <sw_setpend>
    25f6:	dd1fd06f          	j	3c6 <__riscv_restore_0>

000025fa <rt_list_len>:
    25fa:	872a                	mv	a4,a0
    25fc:	4781                	li	a5,0
    25fe:	4318                	lw	a4,0(a4)
    2600:	00a71463          	bne	a4,a0,2608 <rt_list_len+0xe>
    2604:	853e                	mv	a0,a5
    2606:	8082                	ret
    2608:	0785                	addi	a5,a5,1
    260a:	bfd5                	j	25fe <rt_list_len+0x4>

0000260c <reboot>:
    260c:	beef07b7          	lui	a5,0xbeef0
    2610:	e000e737          	lui	a4,0xe000e
    2614:	08078793          	addi	a5,a5,128 # beef0080 <_eusrstack+0x9eee0080>
    2618:	c73c                	sw	a5,72(a4)
    261a:	4501                	li	a0,0
    261c:	8082                	ret

0000261e <clear>:
    261e:	d85fd2ef          	jal	t0,3a2 <__riscv_save_0>
    2622:	0000c537          	lui	a0,0xc
    2626:	7d450513          	addi	a0,a0,2004 # c7d4 <__FUNCTION__.2526+0xb4>
    262a:	cc3fe0ef          	jal	ra,12ec <rt_kprintf>
    262e:	4501                	li	a0,0
    2630:	d97fd06f          	j	3c6 <__riscv_restore_0>

00002634 <object_split>:
    2634:	d6ffd2ef          	jal	t0,3a2 <__riscv_save_0>
    2638:	842a                	mv	s0,a0
    263a:	54fd                	li	s1,-1
    263c:	0000d937          	lui	s2,0xd
    2640:	147d                	addi	s0,s0,-1
    2642:	00941463          	bne	s0,s1,264a <object_split+0x16>
    2646:	d81fd06f          	j	3c6 <__riscv_restore_0>
    264a:	f3c90513          	addi	a0,s2,-196 # cf3c <__fsym_reboot_name+0x8>
    264e:	c9ffe0ef          	jal	ra,12ec <rt_kprintf>
    2652:	b7fd                	j	2640 <object_split+0xc>

00002654 <show_wait_queue>:
    2654:	d35fd2ef          	jal	t0,388 <__riscv_save_4>
    2658:	4100                	lw	s0,0(a0)
    265a:	84aa                	mv	s1,a0
    265c:	0000d937          	lui	s2,0xd
    2660:	0000d9b7          	lui	s3,0xd
    2664:	00941463          	bne	s0,s1,266c <show_wait_queue+0x18>
    2668:	d55fd06f          	j	3bc <__riscv_restore_4>
    266c:	fec40593          	addi	a1,s0,-20
    2670:	f4090513          	addi	a0,s2,-192 # cf40 <__fsym_reboot_name+0xc>
    2674:	c79fe0ef          	jal	ra,12ec <rt_kprintf>
    2678:	401c                	lw	a5,0(s0)
    267a:	00978663          	beq	a5,s1,2686 <show_wait_queue+0x32>
    267e:	f4498513          	addi	a0,s3,-188 # cf44 <__fsym_reboot_name+0x10>
    2682:	c6bfe0ef          	jal	ra,12ec <rt_kprintf>
    2686:	4000                	lw	s0,0(s0)
    2688:	bff1                	j	2664 <show_wait_queue+0x10>

0000268a <object_name_maxlen>:
    268a:	d19fd2ef          	jal	t0,3a2 <__riscv_save_0>
    268e:	892e                	mv	s2,a1
    2690:	8c1fe0ef          	jal	ra,f50 <rt_strlen>
    2694:	842a                	mv	s0,a0
    2696:	eb8ff0ef          	jal	ra,1d4e <rt_enter_critical>
    269a:	00092483          	lw	s1,0(s2)
    269e:	01249c63          	bne	s1,s2,26b6 <object_name_maxlen+0x2c>
    26a2:	ec6ff0ef          	jal	ra,1d68 <rt_exit_critical>
    26a6:	47a1                	li	a5,8
    26a8:	0087c363          	blt	a5,s0,26ae <object_name_maxlen+0x24>
    26ac:	e011                	bnez	s0,26b0 <object_name_maxlen+0x26>
    26ae:	4421                	li	s0,8
    26b0:	8522                	mv	a0,s0
    26b2:	d15fd06f          	j	3c6 <__riscv_restore_0>
    26b6:	ff448513          	addi	a0,s1,-12
    26ba:	897fe0ef          	jal	ra,f50 <rt_strlen>
    26be:	00a45363          	bge	s0,a0,26c4 <object_name_maxlen+0x3a>
    26c2:	842a                	mv	s0,a0
    26c4:	4084                	lw	s1,0(s1)
    26c6:	bfe1                	j	269e <object_name_maxlen+0x14>

000026c8 <list_thread>:
    26c8:	cb3fd2ef          	jal	t0,37a <__riscv_save_10>
    26cc:	4505                	li	a0,1
    26ce:	a2aff0ef          	jal	ra,18f8 <rt_object_get_information>
    26d2:	0000d9b7          	lui	s3,0xd
    26d6:	00450913          	addi	s2,a0,4
    26da:	842a                	mv	s0,a0
    26dc:	85ca                	mv	a1,s2
    26de:	a8898513          	addi	a0,s3,-1400 # ca88 <__FUNCTION__.2526+0x368>
    26e2:	fa9ff0ef          	jal	ra,268a <object_name_maxlen>
    26e6:	85aa                	mv	a1,a0
    26e8:	84aa                	mv	s1,a0
    26ea:	0000d537          	lui	a0,0xd
    26ee:	a8898613          	addi	a2,s3,-1400
    26f2:	a9050513          	addi	a0,a0,-1392 # ca90 <__FUNCTION__.2526+0x370>
    26f6:	bf7fe0ef          	jal	ra,12ec <rt_kprintf>
    26fa:	8526                	mv	a0,s1
    26fc:	f39ff0ef          	jal	ra,2634 <object_split>
    2700:	0000d537          	lui	a0,0xd
    2704:	ad450513          	addi	a0,a0,-1324 # cad4 <__FUNCTION__.2526+0x3b4>
    2708:	be5fe0ef          	jal	ra,12ec <rt_kprintf>
    270c:	4040                	lw	s0,4(s0)
    270e:	0000d9b7          	lui	s3,0xd
    2712:	4a05                	li	s4,1
    2714:	4a89                	li	s5,2
    2716:	0000db37          	lui	s6,0xd
    271a:	0000dbb7          	lui	s7,0xd
    271e:	0000dc37          	lui	s8,0xd
    2722:	0000dcb7          	lui	s9,0xd
    2726:	0000dd37          	lui	s10,0xd
    272a:	00891563          	bne	s2,s0,2734 <list_thread+0x6c>
    272e:	4501                	li	a0,0
    2730:	c83fd06f          	j	3b2 <__riscv_restore_10>
    2734:	02944703          	lbu	a4,41(s0)
    2738:	b1498513          	addi	a0,s3,-1260 # cb14 <__FUNCTION__.2526+0x3f4>
    273c:	ff440693          	addi	a3,s0,-12
    2740:	4621                	li	a2,8
    2742:	85a6                	mv	a1,s1
    2744:	ba9fe0ef          	jal	ra,12ec <rt_kprintf>
    2748:	02844783          	lbu	a5,40(s0)
    274c:	b20c8513          	addi	a0,s9,-1248 # cb20 <__FUNCTION__.2526+0x400>
    2750:	8bbd                	andi	a5,a5,15
    2752:	01478e63          	beq	a5,s4,276e <list_thread+0xa6>
    2756:	b2cc0513          	addi	a0,s8,-1236 # cb2c <__FUNCTION__.2526+0x40c>
    275a:	01578a63          	beq	a5,s5,276e <list_thread+0xa6>
    275e:	b38b8513          	addi	a0,s7,-1224 # cb38 <__FUNCTION__.2526+0x418>
    2762:	c791                	beqz	a5,276e <list_thread+0xa6>
    2764:	4711                	li	a4,4
    2766:	00e79663          	bne	a5,a4,2772 <list_thread+0xaa>
    276a:	b44b0513          	addi	a0,s6,-1212 # cb44 <__FUNCTION__.2526+0x424>
    276e:	b7ffe0ef          	jal	ra,12ec <rt_kprintf>
    2772:	4c4c                	lw	a1,28(s0)
    2774:	02300793          	li	a5,35
    2778:	86ae                	mv	a3,a1
    277a:	2298                	lbu	a4,0(a3)
    277c:	02f70663          	beq	a4,a5,27a8 <list_thread+0xe0>
    2780:	5010                	lw	a2,32(s0)
    2782:	06400793          	li	a5,100
    2786:	4808                	lw	a0,16(s0)
    2788:	95b2                	add	a1,a1,a2
    278a:	40d586b3          	sub	a3,a1,a3
    278e:	02f686b3          	mul	a3,a3,a5
    2792:	5c58                	lw	a4,60(s0)
    2794:	505c                	lw	a5,36(s0)
    2796:	8d89                	sub	a1,a1,a0
    2798:	b50d0513          	addi	a0,s10,-1200 # cb50 <__FUNCTION__.2526+0x430>
    279c:	02c6d6b3          	divu	a3,a3,a2
    27a0:	b4dfe0ef          	jal	ra,12ec <rt_kprintf>
    27a4:	4000                	lw	s0,0(s0)
    27a6:	b751                	j	272a <list_thread+0x62>
    27a8:	0685                	addi	a3,a3,1
    27aa:	bfc1                	j	277a <list_thread+0xb2>

000027ac <list_sem>:
    27ac:	bddfd2ef          	jal	t0,388 <__riscv_save_4>
    27b0:	1141                	addi	sp,sp,-16
    27b2:	4509                	li	a0,2
    27b4:	944ff0ef          	jal	ra,18f8 <rt_object_get_information>
    27b8:	00450993          	addi	s3,a0,4
    27bc:	0000d937          	lui	s2,0xd
    27c0:	842a                	mv	s0,a0
    27c2:	85ce                	mv	a1,s3
    27c4:	a2890513          	addi	a0,s2,-1496 # ca28 <__FUNCTION__.2526+0x308>
    27c8:	ec3ff0ef          	jal	ra,268a <object_name_maxlen>
    27cc:	85aa                	mv	a1,a0
    27ce:	84aa                	mv	s1,a0
    27d0:	0000d537          	lui	a0,0xd
    27d4:	a2890613          	addi	a2,s2,-1496
    27d8:	a3450513          	addi	a0,a0,-1484 # ca34 <__FUNCTION__.2526+0x314>
    27dc:	b11fe0ef          	jal	ra,12ec <rt_kprintf>
    27e0:	8526                	mv	a0,s1
    27e2:	e53ff0ef          	jal	ra,2634 <object_split>
    27e6:	0000d537          	lui	a0,0xd
    27ea:	a5050513          	addi	a0,a0,-1456 # ca50 <__FUNCTION__.2526+0x330>
    27ee:	afffe0ef          	jal	ra,12ec <rt_kprintf>
    27f2:	4040                	lw	s0,4(s0)
    27f4:	0000da37          	lui	s4,0xd
    27f8:	0000dab7          	lui	s5,0xd
    27fc:	0000db37          	lui	s6,0xd
    2800:	00899663          	bne	s3,s0,280c <list_sem+0x60>
    2804:	4501                	li	a0,0
    2806:	0141                	addi	sp,sp,16
    2808:	bb5fd06f          	j	3bc <__riscv_restore_4>
    280c:	281a                	lhu	a4,16(s0)
    280e:	441c                	lw	a5,8(s0)
    2810:	ff440693          	addi	a3,s0,-12
    2814:	00840913          	addi	s2,s0,8
    2818:	c636                	sw	a3,12(sp)
    281a:	c43a                	sw	a4,8(sp)
    281c:	854a                	mv	a0,s2
    281e:	02f90663          	beq	s2,a5,284a <list_sem+0x9e>
    2822:	dd9ff0ef          	jal	ra,25fa <rt_list_len>
    2826:	4722                	lw	a4,8(sp)
    2828:	46b2                	lw	a3,12(sp)
    282a:	87aa                	mv	a5,a0
    282c:	4621                	li	a2,8
    282e:	85a6                	mv	a1,s1
    2830:	a68a8513          	addi	a0,s5,-1432 # ca68 <__FUNCTION__.2526+0x348>
    2834:	ab9fe0ef          	jal	ra,12ec <rt_kprintf>
    2838:	854a                	mv	a0,s2
    283a:	e1bff0ef          	jal	ra,2654 <show_wait_queue>
    283e:	854b0513          	addi	a0,s6,-1964 # c854 <__FUNCTION__.2526+0x134>
    2842:	aabfe0ef          	jal	ra,12ec <rt_kprintf>
    2846:	4000                	lw	s0,0(s0)
    2848:	bf65                	j	2800 <list_sem+0x54>
    284a:	db1ff0ef          	jal	ra,25fa <rt_list_len>
    284e:	4722                	lw	a4,8(sp)
    2850:	46b2                	lw	a3,12(sp)
    2852:	87aa                	mv	a5,a0
    2854:	4621                	li	a2,8
    2856:	85a6                	mv	a1,s1
    2858:	a78a0513          	addi	a0,s4,-1416 # ca78 <__FUNCTION__.2526+0x358>
    285c:	a91fe0ef          	jal	ra,12ec <rt_kprintf>
    2860:	b7dd                	j	2846 <list_sem+0x9a>

00002862 <list_event>:
    2862:	b27fd2ef          	jal	t0,388 <__riscv_save_4>
    2866:	1141                	addi	sp,sp,-16
    2868:	4511                	li	a0,4
    286a:	88eff0ef          	jal	ra,18f8 <rt_object_get_information>
    286e:	00450993          	addi	s3,a0,4
    2872:	0000d937          	lui	s2,0xd
    2876:	842a                	mv	s0,a0
    2878:	85ce                	mv	a1,s3
    287a:	86c90513          	addi	a0,s2,-1940 # c86c <__FUNCTION__.2526+0x14c>
    287e:	e0dff0ef          	jal	ra,268a <object_name_maxlen>
    2882:	85aa                	mv	a1,a0
    2884:	84aa                	mv	s1,a0
    2886:	0000d537          	lui	a0,0xd
    288a:	86c90613          	addi	a2,s2,-1940
    288e:	87450513          	addi	a0,a0,-1932 # c874 <__FUNCTION__.2526+0x154>
    2892:	a5bfe0ef          	jal	ra,12ec <rt_kprintf>
    2896:	8526                	mv	a0,s1
    2898:	d9dff0ef          	jal	ra,2634 <object_split>
    289c:	0000d537          	lui	a0,0xd
    28a0:	89850513          	addi	a0,a0,-1896 # c898 <__FUNCTION__.2526+0x178>
    28a4:	a49fe0ef          	jal	ra,12ec <rt_kprintf>
    28a8:	4040                	lw	s0,4(s0)
    28aa:	0000da37          	lui	s4,0xd
    28ae:	0000dab7          	lui	s5,0xd
    28b2:	0000db37          	lui	s6,0xd
    28b6:	00899663          	bne	s3,s0,28c2 <list_event+0x60>
    28ba:	4501                	li	a0,0
    28bc:	0141                	addi	sp,sp,16
    28be:	afffd06f          	j	3bc <__riscv_restore_4>
    28c2:	441c                	lw	a5,8(s0)
    28c4:	00840913          	addi	s2,s0,8
    28c8:	ff440693          	addi	a3,s0,-12
    28cc:	4818                	lw	a4,16(s0)
    28ce:	02f90963          	beq	s2,a5,2900 <list_event+0x9e>
    28d2:	854a                	mv	a0,s2
    28d4:	c636                	sw	a3,12(sp)
    28d6:	c43a                	sw	a4,8(sp)
    28d8:	d23ff0ef          	jal	ra,25fa <rt_list_len>
    28dc:	4722                	lw	a4,8(sp)
    28de:	46b2                	lw	a3,12(sp)
    28e0:	87aa                	mv	a5,a0
    28e2:	4621                	li	a2,8
    28e4:	85a6                	mv	a1,s1
    28e6:	8b8a8513          	addi	a0,s5,-1864 # c8b8 <__FUNCTION__.2526+0x198>
    28ea:	a03fe0ef          	jal	ra,12ec <rt_kprintf>
    28ee:	854a                	mv	a0,s2
    28f0:	d65ff0ef          	jal	ra,2654 <show_wait_queue>
    28f4:	854b0513          	addi	a0,s6,-1964 # c854 <__FUNCTION__.2526+0x134>
    28f8:	9f5fe0ef          	jal	ra,12ec <rt_kprintf>
    28fc:	4000                	lw	s0,0(s0)
    28fe:	bf65                	j	28b6 <list_event+0x54>
    2900:	4621                	li	a2,8
    2902:	85a6                	mv	a1,s1
    2904:	8d0a0513          	addi	a0,s4,-1840 # c8d0 <__FUNCTION__.2526+0x1b0>
    2908:	9e5fe0ef          	jal	ra,12ec <rt_kprintf>
    290c:	bfc5                	j	28fc <list_event+0x9a>

0000290e <list_mutex>:
    290e:	a7bfd2ef          	jal	t0,388 <__riscv_save_4>
    2912:	1141                	addi	sp,sp,-16
    2914:	450d                	li	a0,3
    2916:	fe3fe0ef          	jal	ra,18f8 <rt_object_get_information>
    291a:	0000d9b7          	lui	s3,0xd
    291e:	00450913          	addi	s2,a0,4
    2922:	842a                	mv	s0,a0
    2924:	85ca                	mv	a1,s2
    2926:	9c498513          	addi	a0,s3,-1596 # c9c4 <__FUNCTION__.2526+0x2a4>
    292a:	d61ff0ef          	jal	ra,268a <object_name_maxlen>
    292e:	85aa                	mv	a1,a0
    2930:	84aa                	mv	s1,a0
    2932:	0000d537          	lui	a0,0xd
    2936:	9c498613          	addi	a2,s3,-1596
    293a:	9cc50513          	addi	a0,a0,-1588 # c9cc <__FUNCTION__.2526+0x2ac>
    293e:	9affe0ef          	jal	ra,12ec <rt_kprintf>
    2942:	8526                	mv	a0,s1
    2944:	cf1ff0ef          	jal	ra,2634 <object_split>
    2948:	0000d537          	lui	a0,0xd
    294c:	9f050513          	addi	a0,a0,-1552 # c9f0 <__FUNCTION__.2526+0x2d0>
    2950:	99dfe0ef          	jal	ra,12ec <rt_kprintf>
    2954:	4040                	lw	s0,4(s0)
    2956:	0000d9b7          	lui	s3,0xd
    295a:	00891663          	bne	s2,s0,2966 <list_mutex+0x58>
    295e:	4501                	li	a0,0
    2960:	0141                	addi	sp,sp,16
    2962:	a5bfd06f          	j	3bc <__riscv_restore_4>
    2966:	ff440693          	addi	a3,s0,-12
    296a:	00840513          	addi	a0,s0,8
    296e:	c636                	sw	a3,12(sp)
    2970:	c8bff0ef          	jal	ra,25fa <rt_list_len>
    2974:	01344803          	lbu	a6,19(s0)
    2978:	485c                	lw	a5,20(s0)
    297a:	46b2                	lw	a3,12(sp)
    297c:	88aa                	mv	a7,a0
    297e:	4721                	li	a4,8
    2980:	4621                	li	a2,8
    2982:	85a6                	mv	a1,s1
    2984:	a1098513          	addi	a0,s3,-1520 # ca10 <__FUNCTION__.2526+0x2f0>
    2988:	965fe0ef          	jal	ra,12ec <rt_kprintf>
    298c:	4000                	lw	s0,0(s0)
    298e:	b7f1                	j	295a <list_mutex+0x4c>

00002990 <list_mailbox>:
    2990:	9f9fd2ef          	jal	t0,388 <__riscv_save_4>
    2994:	1141                	addi	sp,sp,-16
    2996:	4515                	li	a0,5
    2998:	f61fe0ef          	jal	ra,18f8 <rt_object_get_information>
    299c:	00450993          	addi	s3,a0,4
    29a0:	0000d937          	lui	s2,0xd
    29a4:	842a                	mv	s0,a0
    29a6:	85ce                	mv	a1,s3
    29a8:	8e490513          	addi	a0,s2,-1820 # c8e4 <__FUNCTION__.2526+0x1c4>
    29ac:	cdfff0ef          	jal	ra,268a <object_name_maxlen>
    29b0:	85aa                	mv	a1,a0
    29b2:	84aa                	mv	s1,a0
    29b4:	0000d537          	lui	a0,0xd
    29b8:	8e490613          	addi	a2,s2,-1820
    29bc:	8ec50513          	addi	a0,a0,-1812 # c8ec <__FUNCTION__.2526+0x1cc>
    29c0:	92dfe0ef          	jal	ra,12ec <rt_kprintf>
    29c4:	8526                	mv	a0,s1
    29c6:	c6fff0ef          	jal	ra,2634 <object_split>
    29ca:	0000d537          	lui	a0,0xd
    29ce:	91050513          	addi	a0,a0,-1776 # c910 <__FUNCTION__.2526+0x1f0>
    29d2:	91bfe0ef          	jal	ra,12ec <rt_kprintf>
    29d6:	4040                	lw	s0,4(s0)
    29d8:	0000da37          	lui	s4,0xd
    29dc:	0000dab7          	lui	s5,0xd
    29e0:	0000db37          	lui	s6,0xd
    29e4:	00899663          	bne	s3,s0,29f0 <list_mailbox+0x60>
    29e8:	4501                	li	a0,0
    29ea:	0141                	addi	sp,sp,16
    29ec:	9d1fd06f          	j	3bc <__riscv_restore_4>
    29f0:	287a                	lhu	a4,22(s0)
    29f2:	285e                	lhu	a5,20(s0)
    29f4:	4410                	lw	a2,8(s0)
    29f6:	ff440693          	addi	a3,s0,-12
    29fa:	00840913          	addi	s2,s0,8
    29fe:	c636                	sw	a3,12(sp)
    2a00:	c43a                	sw	a4,8(sp)
    2a02:	c23e                	sw	a5,4(sp)
    2a04:	854a                	mv	a0,s2
    2a06:	02c90763          	beq	s2,a2,2a34 <list_mailbox+0xa4>
    2a0a:	bf1ff0ef          	jal	ra,25fa <rt_list_len>
    2a0e:	4792                	lw	a5,4(sp)
    2a10:	4722                	lw	a4,8(sp)
    2a12:	46b2                	lw	a3,12(sp)
    2a14:	882a                	mv	a6,a0
    2a16:	4621                	li	a2,8
    2a18:	85a6                	mv	a1,s1
    2a1a:	92ca8513          	addi	a0,s5,-1748 # c92c <__FUNCTION__.2526+0x20c>
    2a1e:	8cffe0ef          	jal	ra,12ec <rt_kprintf>
    2a22:	854a                	mv	a0,s2
    2a24:	c31ff0ef          	jal	ra,2654 <show_wait_queue>
    2a28:	854b0513          	addi	a0,s6,-1964 # c854 <__FUNCTION__.2526+0x134>
    2a2c:	8c1fe0ef          	jal	ra,12ec <rt_kprintf>
    2a30:	4000                	lw	s0,0(s0)
    2a32:	bf4d                	j	29e4 <list_mailbox+0x54>
    2a34:	bc7ff0ef          	jal	ra,25fa <rt_list_len>
    2a38:	4792                	lw	a5,4(sp)
    2a3a:	4722                	lw	a4,8(sp)
    2a3c:	46b2                	lw	a3,12(sp)
    2a3e:	882a                	mv	a6,a0
    2a40:	4621                	li	a2,8
    2a42:	85a6                	mv	a1,s1
    2a44:	944a0513          	addi	a0,s4,-1724 # c944 <__FUNCTION__.2526+0x224>
    2a48:	8a5fe0ef          	jal	ra,12ec <rt_kprintf>
    2a4c:	b7d5                	j	2a30 <list_mailbox+0xa0>

00002a4e <list_msgqueue>:
    2a4e:	93bfd2ef          	jal	t0,388 <__riscv_save_4>
    2a52:	1141                	addi	sp,sp,-16
    2a54:	4519                	li	a0,6
    2a56:	ea3fe0ef          	jal	ra,18f8 <rt_object_get_information>
    2a5a:	00450993          	addi	s3,a0,4
    2a5e:	0000d937          	lui	s2,0xd
    2a62:	842a                	mv	s0,a0
    2a64:	85ce                	mv	a1,s3
    2a66:	95c90513          	addi	a0,s2,-1700 # c95c <__FUNCTION__.2526+0x23c>
    2a6a:	c21ff0ef          	jal	ra,268a <object_name_maxlen>
    2a6e:	85aa                	mv	a1,a0
    2a70:	84aa                	mv	s1,a0
    2a72:	0000d537          	lui	a0,0xd
    2a76:	95c90613          	addi	a2,s2,-1700
    2a7a:	96850513          	addi	a0,a0,-1688 # c968 <__FUNCTION__.2526+0x248>
    2a7e:	86ffe0ef          	jal	ra,12ec <rt_kprintf>
    2a82:	8526                	mv	a0,s1
    2a84:	bb1ff0ef          	jal	ra,2634 <object_split>
    2a88:	0000d537          	lui	a0,0xd
    2a8c:	98450513          	addi	a0,a0,-1660 # c984 <__FUNCTION__.2526+0x264>
    2a90:	85dfe0ef          	jal	ra,12ec <rt_kprintf>
    2a94:	4040                	lw	s0,4(s0)
    2a96:	0000da37          	lui	s4,0xd
    2a9a:	0000dab7          	lui	s5,0xd
    2a9e:	0000db37          	lui	s6,0xd
    2aa2:	00899663          	bne	s3,s0,2aae <list_msgqueue+0x60>
    2aa6:	4501                	li	a0,0
    2aa8:	0141                	addi	sp,sp,16
    2aaa:	913fd06f          	j	3bc <__riscv_restore_4>
    2aae:	2c1a                	lhu	a4,24(s0)
    2ab0:	441c                	lw	a5,8(s0)
    2ab2:	ff440693          	addi	a3,s0,-12
    2ab6:	00840913          	addi	s2,s0,8
    2aba:	c636                	sw	a3,12(sp)
    2abc:	c43a                	sw	a4,8(sp)
    2abe:	854a                	mv	a0,s2
    2ac0:	02f90663          	beq	s2,a5,2aec <list_msgqueue+0x9e>
    2ac4:	b37ff0ef          	jal	ra,25fa <rt_list_len>
    2ac8:	4722                	lw	a4,8(sp)
    2aca:	46b2                	lw	a3,12(sp)
    2acc:	87aa                	mv	a5,a0
    2ace:	4621                	li	a2,8
    2ad0:	85a6                	mv	a1,s1
    2ad2:	99ca8513          	addi	a0,s5,-1636 # c99c <__FUNCTION__.2526+0x27c>
    2ad6:	817fe0ef          	jal	ra,12ec <rt_kprintf>
    2ada:	854a                	mv	a0,s2
    2adc:	b79ff0ef          	jal	ra,2654 <show_wait_queue>
    2ae0:	854b0513          	addi	a0,s6,-1964 # c854 <__FUNCTION__.2526+0x134>
    2ae4:	809fe0ef          	jal	ra,12ec <rt_kprintf>
    2ae8:	4000                	lw	s0,0(s0)
    2aea:	bf65                	j	2aa2 <list_msgqueue+0x54>
    2aec:	b0fff0ef          	jal	ra,25fa <rt_list_len>
    2af0:	4722                	lw	a4,8(sp)
    2af2:	46b2                	lw	a3,12(sp)
    2af4:	87aa                	mv	a5,a0
    2af6:	4621                	li	a2,8
    2af8:	85a6                	mv	a1,s1
    2afa:	9b0a0513          	addi	a0,s4,-1616 # c9b0 <__FUNCTION__.2526+0x290>
    2afe:	feefe0ef          	jal	ra,12ec <rt_kprintf>
    2b02:	b7dd                	j	2ae8 <list_msgqueue+0x9a>

00002b04 <list_device>:
    2b04:	885fd2ef          	jal	t0,388 <__riscv_save_4>
    2b08:	715d                	addi	sp,sp,-80
    2b0a:	4525                	li	a0,9
    2b0c:	dedfe0ef          	jal	ra,18f8 <rt_object_get_information>
    2b10:	65b1                	lui	a1,0xc
    2b12:	05000613          	li	a2,80
    2b16:	842a                	mv	s0,a0
    2b18:	00450913          	addi	s2,a0,4
    2b1c:	b7c58593          	addi	a1,a1,-1156 # bb7c <strncmp+0x2a>
    2b20:	850a                	mv	a0,sp
    2b22:	73f080ef          	jal	ra,ba60 <memcpy>
    2b26:	0000d9b7          	lui	s3,0xd
    2b2a:	85ca                	mv	a1,s2
    2b2c:	80498513          	addi	a0,s3,-2044 # c804 <__FUNCTION__.2526+0xe4>
    2b30:	b5bff0ef          	jal	ra,268a <object_name_maxlen>
    2b34:	85aa                	mv	a1,a0
    2b36:	84aa                	mv	s1,a0
    2b38:	0000d537          	lui	a0,0xd
    2b3c:	80498613          	addi	a2,s3,-2044
    2b40:	80c50513          	addi	a0,a0,-2036 # c80c <__FUNCTION__.2526+0xec>
    2b44:	fa8fe0ef          	jal	ra,12ec <rt_kprintf>
    2b48:	8526                	mv	a0,s1
    2b4a:	aebff0ef          	jal	ra,2634 <object_split>
    2b4e:	0000d537          	lui	a0,0xd
    2b52:	83450513          	addi	a0,a0,-1996 # c834 <__FUNCTION__.2526+0x114>
    2b56:	f96fe0ef          	jal	ra,12ec <rt_kprintf>
    2b5a:	4040                	lw	s0,4(s0)
    2b5c:	49d1                	li	s3,20
    2b5e:	0000da37          	lui	s4,0xd
    2b62:	00891663          	bne	s2,s0,2b6e <list_device+0x6a>
    2b66:	4501                	li	a0,0
    2b68:	6161                	addi	sp,sp,80
    2b6a:	853fd06f          	j	3bc <__riscv_restore_4>
    2b6e:	441c                	lw	a5,8(s0)
    2b70:	ff440693          	addi	a3,s0,-12
    2b74:	02f9e063          	bltu	s3,a5,2b94 <list_device+0x90>
    2b78:	0898                	addi	a4,sp,80
    2b7a:	078a                	slli	a5,a5,0x2
    2b7c:	97ba                	add	a5,a5,a4
    2b7e:	fb07a703          	lw	a4,-80(a5)
    2b82:	281c                	lbu	a5,16(s0)
    2b84:	4621                	li	a2,8
    2b86:	85a6                	mv	a1,s1
    2b88:	858a0513          	addi	a0,s4,-1960 # c858 <__FUNCTION__.2526+0x138>
    2b8c:	f60fe0ef          	jal	ra,12ec <rt_kprintf>
    2b90:	4000                	lw	s0,0(s0)
    2b92:	bfc1                	j	2b62 <list_device+0x5e>
    2b94:	4746                	lw	a4,80(sp)
    2b96:	b7f5                	j	2b82 <list_device+0x7e>

00002b98 <list_timer>:
    2b98:	ff0fd2ef          	jal	t0,388 <__riscv_save_4>
    2b9c:	4529                	li	a0,10
    2b9e:	d5bfe0ef          	jal	ra,18f8 <rt_object_get_information>
    2ba2:	0000d9b7          	lui	s3,0xd
    2ba6:	00450913          	addi	s2,a0,4
    2baa:	842a                	mv	s0,a0
    2bac:	85ca                	mv	a1,s2
    2bae:	b7898513          	addi	a0,s3,-1160 # cb78 <__FUNCTION__.2526+0x458>
    2bb2:	ad9ff0ef          	jal	ra,268a <object_name_maxlen>
    2bb6:	85aa                	mv	a1,a0
    2bb8:	84aa                	mv	s1,a0
    2bba:	0000d537          	lui	a0,0xd
    2bbe:	b7898613          	addi	a2,s3,-1160
    2bc2:	b8050513          	addi	a0,a0,-1152 # cb80 <__FUNCTION__.2526+0x460>
    2bc6:	f26fe0ef          	jal	ra,12ec <rt_kprintf>
    2bca:	8526                	mv	a0,s1
    2bcc:	a69ff0ef          	jal	ra,2634 <object_split>
    2bd0:	0000d537          	lui	a0,0xd
    2bd4:	ba850513          	addi	a0,a0,-1112 # cba8 <__FUNCTION__.2526+0x488>
    2bd8:	f14fe0ef          	jal	ra,12ec <rt_kprintf>
    2bdc:	4040                	lw	s0,4(s0)
    2bde:	0000d9b7          	lui	s3,0xd
    2be2:	0000da37          	lui	s4,0xd
    2be6:	0000dab7          	lui	s5,0xd
    2bea:	00891e63          	bne	s2,s0,2c06 <list_timer+0x6e>
    2bee:	88dfd0ef          	jal	ra,47a <rt_tick_get>
    2bf2:	85aa                	mv	a1,a0
    2bf4:	0000d537          	lui	a0,0xd
    2bf8:	c0050513          	addi	a0,a0,-1024 # cc00 <__FUNCTION__.2526+0x4e0>
    2bfc:	ef0fe0ef          	jal	ra,12ec <rt_kprintf>
    2c00:	4501                	li	a0,0
    2c02:	fbafd06f          	j	3bc <__riscv_restore_4>
    2c06:	4c5c                	lw	a5,28(s0)
    2c08:	4c18                	lw	a4,24(s0)
    2c0a:	bcc98513          	addi	a0,s3,-1076 # cbcc <__FUNCTION__.2526+0x4ac>
    2c0e:	ff440693          	addi	a3,s0,-12
    2c12:	4621                	li	a2,8
    2c14:	85a6                	mv	a1,s1
    2c16:	ed6fe0ef          	jal	ra,12ec <rt_kprintf>
    2c1a:	ffd44783          	lbu	a5,-3(s0)
    2c1e:	be4a8513          	addi	a0,s5,-1052 # cbe4 <__FUNCTION__.2526+0x4c4>
    2c22:	8b85                	andi	a5,a5,1
    2c24:	e399                	bnez	a5,2c2a <list_timer+0x92>
    2c26:	bf0a0513          	addi	a0,s4,-1040 # cbf0 <__FUNCTION__.2526+0x4d0>
    2c2a:	ec2fe0ef          	jal	ra,12ec <rt_kprintf>
    2c2e:	4000                	lw	s0,0(s0)
    2c30:	bf6d                	j	2bea <list_timer+0x52>

00002c32 <list>:
    2c32:	f56fd2ef          	jal	t0,388 <__riscv_save_4>
    2c36:	0000c537          	lui	a0,0xc
    2c3a:	7dc50513          	addi	a0,a0,2012 # c7dc <__FUNCTION__.2526+0xbc>
    2c3e:	eaefe0ef          	jal	ra,12ec <rt_kprintf>
    2c42:	8cc1a403          	lw	s0,-1844(gp) # 2000028c <_syscall_table_begin>
    2c46:	0000c9b7          	lui	s3,0xc
    2c4a:	0000ca37          	lui	s4,0xc
    2c4e:	8d01a783          	lw	a5,-1840(gp) # 20000290 <_syscall_table_end>
    2c52:	00f46563          	bltu	s0,a5,2c5c <list+0x2a>
    2c56:	4501                	li	a0,0
    2c58:	f64fd06f          	j	3bc <__riscv_restore_4>
    2c5c:	4004                	lw	s1,0(s0)
    2c5e:	4609                	li	a2,2
    2c60:	7f098593          	addi	a1,s3,2032 # c7f0 <__FUNCTION__.2526+0xd0>
    2c64:	8526                	mv	a0,s1
    2c66:	6ed080ef          	jal	ra,bb52 <strncmp>
    2c6a:	c519                	beqz	a0,2c78 <list+0x46>
    2c6c:	4050                	lw	a2,4(s0)
    2c6e:	85a6                	mv	a1,s1
    2c70:	7f4a0513          	addi	a0,s4,2036 # c7f4 <__FUNCTION__.2526+0xd4>
    2c74:	e78fe0ef          	jal	ra,12ec <rt_kprintf>
    2c78:	0431                	addi	s0,s0,12
    2c7a:	bfd1                	j	2c4e <list+0x1c>

00002c7c <msh_help>:
    2c7c:	f0cfd2ef          	jal	t0,388 <__riscv_save_4>
    2c80:	0000d537          	lui	a0,0xd
    2c84:	0a050513          	addi	a0,a0,160 # d0a0 <__fsym_reboot_name+0x16c>
    2c88:	e64fe0ef          	jal	ra,12ec <rt_kprintf>
    2c8c:	8cc1a403          	lw	s0,-1844(gp) # 2000028c <_syscall_table_begin>
    2c90:	0000d9b7          	lui	s3,0xd
    2c94:	0000da37          	lui	s4,0xd
    2c98:	8d01a783          	lw	a5,-1840(gp) # 20000290 <_syscall_table_end>
    2c9c:	00f46b63          	bltu	s0,a5,2cb2 <msh_help+0x36>
    2ca0:	0000d537          	lui	a0,0xd
    2ca4:	85450513          	addi	a0,a0,-1964 # c854 <__FUNCTION__.2526+0x134>
    2ca8:	e44fe0ef          	jal	ra,12ec <rt_kprintf>
    2cac:	4501                	li	a0,0
    2cae:	f0efd06f          	j	3bc <__riscv_restore_4>
    2cb2:	4004                	lw	s1,0(s0)
    2cb4:	4619                	li	a2,6
    2cb6:	0bc98593          	addi	a1,s3,188 # d0bc <__fsym_reboot_name+0x188>
    2cba:	8526                	mv	a0,s1
    2cbc:	697080ef          	jal	ra,bb52 <strncmp>
    2cc0:	e901                	bnez	a0,2cd0 <msh_help+0x54>
    2cc2:	4050                	lw	a2,4(s0)
    2cc4:	00648593          	addi	a1,s1,6
    2cc8:	0c4a0513          	addi	a0,s4,196 # d0c4 <__fsym_reboot_name+0x190>
    2ccc:	e20fe0ef          	jal	ra,12ec <rt_kprintf>
    2cd0:	0431                	addi	s0,s0,12
    2cd2:	b7d9                	j	2c98 <msh_help+0x1c>

00002cd4 <msh_is_used>:
    2cd4:	4505                	li	a0,1
    2cd6:	8082                	ret

00002cd8 <msh_exec>:
    2cd8:	eb0fd2ef          	jal	t0,388 <__riscv_save_4>
    2cdc:	7179                	addi	sp,sp,-48
    2cde:	842a                	mv	s0,a0
    2ce0:	95aa                	add	a1,a1,a0
    2ce2:	02000693          	li	a3,32
    2ce6:	4725                	li	a4,9
    2ce8:	00040783          	lb	a5,0(s0)
    2cec:	408584b3          	sub	s1,a1,s0
    2cf0:	0ad78563          	beq	a5,a3,2d9a <msh_exec+0xc2>
    2cf4:	0ae78363          	beq	a5,a4,2d9a <msh_exec+0xc2>
    2cf8:	4501                	li	a0,0
    2cfa:	10048b63          	beqz	s1,2e10 <msh_exec+0x138>
    2cfe:	4901                	li	s2,0
    2d00:	02000713          	li	a4,32
    2d04:	46a5                	li	a3,9
    2d06:	012407b3          	add	a5,s0,s2
    2d0a:	00078783          	lb	a5,0(a5)
    2d0e:	08e78a63          	beq	a5,a4,2da2 <msh_exec+0xca>
    2d12:	08d78863          	beq	a5,a3,2da2 <msh_exec+0xca>
    2d16:	08991463          	bne	s2,s1,2d9e <msh_exec+0xc6>
    2d1a:	8cc1a983          	lw	s3,-1844(gp) # 2000028c <_syscall_table_begin>
    2d1e:	8d01aa83          	lw	s5,-1840(gp) # 20000290 <_syscall_table_end>
    2d22:	0000db37          	lui	s6,0xd
    2d26:	0959f063          	bgeu	s3,s5,2da6 <msh_exec+0xce>
    2d2a:	0009aa03          	lw	s4,0(s3)
    2d2e:	4619                	li	a2,6
    2d30:	0bcb0593          	addi	a1,s6,188 # d0bc <__fsym_reboot_name+0x188>
    2d34:	8552                	mv	a0,s4
    2d36:	61d080ef          	jal	ra,bb52 <strncmp>
    2d3a:	e559                	bnez	a0,2dc8 <msh_exec+0xf0>
    2d3c:	864a                	mv	a2,s2
    2d3e:	85a2                	mv	a1,s0
    2d40:	006a0513          	addi	a0,s4,6
    2d44:	60f080ef          	jal	ra,bb52 <strncmp>
    2d48:	e141                	bnez	a0,2dc8 <msh_exec+0xf0>
    2d4a:	9a4a                	add	s4,s4,s2
    2d4c:	006a0783          	lb	a5,6(s4)
    2d50:	efa5                	bnez	a5,2dc8 <msh_exec+0xf0>
    2d52:	0089a983          	lw	s3,8(s3)
    2d56:	04098863          	beqz	s3,2da6 <msh_exec+0xce>
    2d5a:	02800613          	li	a2,40
    2d5e:	4581                	li	a1,0
    2d60:	0028                	addi	a0,sp,8
    2d62:	e70fd0ef          	jal	ra,3d2 <memset>
    2d66:	00810913          	addi	s2,sp,8
    2d6a:	86ca                	mv	a3,s2
    2d6c:	87a2                	mv	a5,s0
    2d6e:	4501                	li	a0,0
    2d70:	4701                	li	a4,0
    2d72:	02000813          	li	a6,32
    2d76:	48a5                	li	a7,9
    2d78:	4329                	li	t1,10
    2d7a:	02200613          	li	a2,34
    2d7e:	05c00e13          	li	t3,92
    2d82:	00078583          	lb	a1,0(a5)
    2d86:	01058463          	beq	a1,a6,2d8e <msh_exec+0xb6>
    2d8a:	05159663          	bne	a1,a7,2dd6 <msh_exec+0xfe>
    2d8e:	02971f63          	bne	a4,s1,2dcc <msh_exec+0xf4>
    2d92:	47a9                	li	a5,10
    2d94:	04f50363          	beq	a0,a5,2dda <msh_exec+0x102>
    2d98:	a869                	j	2e32 <msh_exec+0x15a>
    2d9a:	0405                	addi	s0,s0,1
    2d9c:	b7b1                	j	2ce8 <msh_exec+0x10>
    2d9e:	0905                	addi	s2,s2,1
    2da0:	b79d                	j	2d06 <msh_exec+0x2e>
    2da2:	f6091ce3          	bnez	s2,2d1a <msh_exec+0x42>
    2da6:	87a2                	mv	a5,s0
    2da8:	00078703          	lb	a4,0(a5)
    2dac:	fdf77713          	andi	a4,a4,-33
    2db0:	e779                	bnez	a4,2e7e <msh_exec+0x1a6>
    2db2:	0000d537          	lui	a0,0xd
    2db6:	08850513          	addi	a0,a0,136 # d088 <__fsym_reboot_name+0x154>
    2dba:	00078023          	sb	zero,0(a5)
    2dbe:	85a2                	mv	a1,s0
    2dc0:	d2cfe0ef          	jal	ra,12ec <rt_kprintf>
    2dc4:	557d                	li	a0,-1
    2dc6:	a0a9                	j	2e10 <msh_exec+0x138>
    2dc8:	09b1                	addi	s3,s3,12
    2dca:	bfb1                	j	2d26 <msh_exec+0x4e>
    2dcc:	00078023          	sb	zero,0(a5)
    2dd0:	0705                	addi	a4,a4,1
    2dd2:	0785                	addi	a5,a5,1
    2dd4:	b77d                	j	2d82 <msh_exec+0xaa>
    2dd6:	04651063          	bne	a0,t1,2e16 <msh_exec+0x13e>
    2dda:	0000d537          	lui	a0,0xd
    2dde:	06450513          	addi	a0,a0,100 # d064 <__fsym_reboot_name+0x130>
    2de2:	d0afe0ef          	jal	ra,12ec <rt_kprintf>
    2de6:	1800                	addi	s0,sp,48
    2de8:	0000d4b7          	lui	s1,0xd
    2dec:	00092583          	lw	a1,0(s2)
    2df0:	08448513          	addi	a0,s1,132 # d084 <__fsym_reboot_name+0x150>
    2df4:	0911                	addi	s2,s2,4
    2df6:	cf6fe0ef          	jal	ra,12ec <rt_kprintf>
    2dfa:	fe8919e3          	bne	s2,s0,2dec <msh_exec+0x114>
    2dfe:	0000d537          	lui	a0,0xd
    2e02:	85450513          	addi	a0,a0,-1964 # c854 <__FUNCTION__.2526+0x134>
    2e06:	ce6fe0ef          	jal	ra,12ec <rt_kprintf>
    2e0a:	4529                	li	a0,10
    2e0c:	002c                	addi	a1,sp,8
    2e0e:	9982                	jalr	s3
    2e10:	6145                	addi	sp,sp,48
    2e12:	daafd06f          	j	3bc <__riscv_restore_4>
    2e16:	00977e63          	bgeu	a4,s1,2e32 <msh_exec+0x15a>
    2e1a:	0505                	addi	a0,a0,1
    2e1c:	04c59263          	bne	a1,a2,2e60 <msh_exec+0x188>
    2e20:	0785                	addi	a5,a5,1
    2e22:	0705                	addi	a4,a4,1
    2e24:	c29c                	sw	a5,0(a3)
    2e26:	00078583          	lb	a1,0(a5)
    2e2a:	02c58163          	beq	a1,a2,2e4c <msh_exec+0x174>
    2e2e:	00976463          	bltu	a4,s1,2e36 <msh_exec+0x15e>
    2e32:	fd69                	bnez	a0,2e0c <msh_exec+0x134>
    2e34:	bf8d                	j	2da6 <msh_exec+0xce>
    2e36:	00178e83          	lb	t4,1(a5)
    2e3a:	01c59663          	bne	a1,t3,2e46 <msh_exec+0x16e>
    2e3e:	00ce9463          	bne	t4,a2,2e46 <msh_exec+0x16e>
    2e42:	0785                	addi	a5,a5,1
    2e44:	0705                	addi	a4,a4,1
    2e46:	0785                	addi	a5,a5,1
    2e48:	0705                	addi	a4,a4,1
    2e4a:	bff1                	j	2e26 <msh_exec+0x14e>
    2e4c:	fe9773e3          	bgeu	a4,s1,2e32 <msh_exec+0x15a>
    2e50:	00078023          	sb	zero,0(a5)
    2e54:	0705                	addi	a4,a4,1
    2e56:	0785                	addi	a5,a5,1
    2e58:	0691                	addi	a3,a3,4
    2e5a:	f29764e3          	bltu	a4,s1,2d82 <msh_exec+0xaa>
    2e5e:	bfd1                	j	2e32 <msh_exec+0x15a>
    2e60:	c29c                	sw	a5,0(a3)
    2e62:	00078583          	lb	a1,0(a5)
    2e66:	01058963          	beq	a1,a6,2e78 <msh_exec+0x1a0>
    2e6a:	01158763          	beq	a1,a7,2e78 <msh_exec+0x1a0>
    2e6e:	fc9702e3          	beq	a4,s1,2e32 <msh_exec+0x15a>
    2e72:	0785                	addi	a5,a5,1
    2e74:	0705                	addi	a4,a4,1
    2e76:	b7f5                	j	2e62 <msh_exec+0x18a>
    2e78:	fe9760e3          	bltu	a4,s1,2e58 <msh_exec+0x180>
    2e7c:	bf5d                	j	2e32 <msh_exec+0x15a>
    2e7e:	0785                	addi	a5,a5,1
    2e80:	b725                	j	2da8 <msh_exec+0xd0>

00002e82 <msh_auto_complete>:
    2e82:	cf8fd2ef          	jal	t0,37a <__riscv_save_10>
    2e86:	00050783          	lb	a5,0(a0)
    2e8a:	e799                	bnez	a5,2e98 <msh_auto_complete+0x16>
    2e8c:	4581                	li	a1,0
    2e8e:	4501                	li	a0,0
    2e90:	dedff0ef          	jal	ra,2c7c <msh_help>
    2e94:	d1efd06f          	j	3b2 <__riscv_restore_10>
    2e98:	8cc1aa03          	lw	s4,-1844(gp) # 2000028c <_syscall_table_begin>
    2e9c:	89aa                	mv	s3,a0
    2e9e:	4481                	li	s1,0
    2ea0:	4901                	li	s2,0
    2ea2:	0000db37          	lui	s6,0xd
    2ea6:	0000dbb7          	lui	s7,0xd
    2eaa:	8d01a783          	lw	a5,-1840(gp) # 20000290 <_syscall_table_end>
    2eae:	00fa6963          	bltu	s4,a5,2ec0 <msh_auto_complete+0x3e>
    2eb2:	d0ed                	beqz	s1,2e94 <msh_auto_complete+0x12>
    2eb4:	864a                	mv	a2,s2
    2eb6:	85a6                	mv	a1,s1
    2eb8:	854e                	mv	a0,s3
    2eba:	840fe0ef          	jal	ra,efa <rt_strncpy>
    2ebe:	bfd9                	j	2e94 <msh_auto_complete+0x12>
    2ec0:	000a2403          	lw	s0,0(s4)
    2ec4:	4619                	li	a2,6
    2ec6:	0bcb0593          	addi	a1,s6,188 # d0bc <__fsym_reboot_name+0x188>
    2eca:	8522                	mv	a0,s0
    2ecc:	487080ef          	jal	ra,bb52 <strncmp>
    2ed0:	e121                	bnez	a0,2f10 <msh_auto_complete+0x8e>
    2ed2:	854e                	mv	a0,s3
    2ed4:	46d080ef          	jal	ra,bb40 <strlen>
    2ed8:	0419                	addi	s0,s0,6
    2eda:	862a                	mv	a2,a0
    2edc:	85a2                	mv	a1,s0
    2ede:	854e                	mv	a0,s3
    2ee0:	473080ef          	jal	ra,bb52 <strncmp>
    2ee4:	e515                	bnez	a0,2f10 <msh_auto_complete+0x8e>
    2ee6:	00091763          	bnez	s2,2ef4 <msh_auto_complete+0x72>
    2eea:	8522                	mv	a0,s0
    2eec:	455080ef          	jal	ra,bb40 <strlen>
    2ef0:	892a                	mv	s2,a0
    2ef2:	84a2                	mv	s1,s0
    2ef4:	87a6                	mv	a5,s1
    2ef6:	8722                	mv	a4,s0
    2ef8:	00078603          	lb	a2,0(a5)
    2efc:	ee01                	bnez	a2,2f14 <msh_auto_complete+0x92>
    2efe:	8f85                	sub	a5,a5,s1
    2f00:	0127d363          	bge	a5,s2,2f06 <msh_auto_complete+0x84>
    2f04:	893e                	mv	s2,a5
    2f06:	85a2                	mv	a1,s0
    2f08:	0ccb8513          	addi	a0,s7,204 # d0cc <__fsym_reboot_name+0x198>
    2f0c:	be0fe0ef          	jal	ra,12ec <rt_kprintf>
    2f10:	0a31                	addi	s4,s4,12
    2f12:	bf61                	j	2eaa <msh_auto_complete+0x28>
    2f14:	00070683          	lb	a3,0(a4) # e000e000 <_eusrstack+0xbfffe000>
    2f18:	d2fd                	beqz	a3,2efe <msh_auto_complete+0x7c>
    2f1a:	fed612e3          	bne	a2,a3,2efe <msh_auto_complete+0x7c>
    2f1e:	0785                	addi	a5,a5,1
    2f20:	0705                	addi	a4,a4,1
    2f22:	bfd9                	j	2ef8 <msh_auto_complete+0x76>

00002f24 <cmd_ps>:
    2f24:	c7efd2ef          	jal	t0,3a2 <__riscv_save_0>
    2f28:	fa0ff0ef          	jal	ra,26c8 <list_thread>
    2f2c:	4501                	li	a0,0
    2f2e:	c98fd06f          	j	3c6 <__riscv_restore_0>

00002f32 <cmd_free>:
    2f32:	c70fd2ef          	jal	t0,3a2 <__riscv_save_0>
    2f36:	cdcfe0ef          	jal	ra,1412 <list_mem>
    2f3a:	4501                	li	a0,0
    2f3c:	c8afd06f          	j	3c6 <__riscv_restore_0>

00002f40 <finsh_rx_ind>:
    2f40:	c62fd2ef          	jal	t0,3a2 <__riscv_save_0>
    2f44:	8c81a703          	lw	a4,-1848(gp) # 20000288 <shell>
    2f48:	8c818413          	addi	s0,gp,-1848 # 20000288 <shell>
    2f4c:	ef01                	bnez	a4,2f64 <finsh_rx_ind+0x24>
    2f4e:	65b5                	lui	a1,0xd
    2f50:	0000d537          	lui	a0,0xd
    2f54:	06900613          	li	a2,105
    2f58:	15c58593          	addi	a1,a1,348 # d15c <__FUNCTION__.4344>
    2f5c:	1a850513          	addi	a0,a0,424 # d1a8 <__rti_finsh_system_init_name+0x28>
    2f60:	c80fe0ef          	jal	ra,13e0 <rt_assert_handler>
    2f64:	4008                	lw	a0,0(s0)
    2f66:	c4bfd0ef          	jal	ra,bb0 <rt_sem_release>
    2f6a:	4501                	li	a0,0
    2f6c:	c5afd06f          	j	3c6 <__riscv_restore_0>

00002f70 <finsh_system_init>:
    2f70:	c32fd2ef          	jal	t0,3a2 <__riscv_save_0>
    2f74:	000117b7          	lui	a5,0x11
    2f78:	10478793          	addi	a5,a5,260 # 11104 <__fsym_list_mem>
    2f7c:	8cf1a623          	sw	a5,-1844(gp) # 2000028c <_syscall_table_begin>
    2f80:	000117b7          	lui	a5,0x11
    2f84:	27878793          	addi	a5,a5,632 # 11278 <__rt_init_desc_rti_start>
    2f88:	8cf1a823          	sw	a5,-1840(gp) # 20000290 <_syscall_table_end>
    2f8c:	000117b7          	lui	a5,0x11
    2f90:	27878793          	addi	a5,a5,632 # 11278 <__rt_init_desc_rti_start>
    2f94:	8cf1aa23          	sw	a5,-1836(gp) # 20000294 <_sysvar_table_begin>
    2f98:	000117b7          	lui	a5,0x11
    2f9c:	27878793          	addi	a5,a5,632 # 11278 <__rt_init_desc_rti_start>
    2fa0:	21000593          	li	a1,528
    2fa4:	4505                	li	a0,1
    2fa6:	8cf1ac23          	sw	a5,-1832(gp) # 20000298 <_sysvar_table_end>
    2faa:	8c818413          	addi	s0,gp,-1848 # 20000288 <shell>
    2fae:	fc4fe0ef          	jal	ra,1772 <rt_calloc>
    2fb2:	c008                	sw	a0,0(s0)
    2fb4:	e919                	bnez	a0,2fca <finsh_system_init+0x5a>
    2fb6:	0000d537          	lui	a0,0xd
    2fba:	1dc50513          	addi	a0,a0,476 # d1dc <__rti_finsh_system_init_name+0x5c>
    2fbe:	b2efe0ef          	jal	ra,12ec <rt_kprintf>
    2fc2:	547d                	li	s0,-1
    2fc4:	8522                	mv	a0,s0
    2fc6:	c00fd06f          	j	3c6 <__riscv_restore_0>
    2fca:	000035b7          	lui	a1,0x3
    2fce:	0000d537          	lui	a0,0xd
    2fd2:	47a9                	li	a5,10
    2fd4:	472d                	li	a4,11
    2fd6:	40000693          	li	a3,1024
    2fda:	4601                	li	a2,0
    2fdc:	10858593          	addi	a1,a1,264 # 3108 <finsh_thread_entry>
    2fe0:	1f450513          	addi	a0,a0,500 # d1f4 <__rti_finsh_system_init_name+0x74>
    2fe4:	fa9fe0ef          	jal	ra,1f8c <rt_thread_create>
    2fe8:	84aa                	mv	s1,a0
    2fea:	4008                	lw	a0,0(s0)
    2fec:	0000d5b7          	lui	a1,0xd
    2ff0:	4681                	li	a3,0
    2ff2:	4601                	li	a2,0
    2ff4:	1fc58593          	addi	a1,a1,508 # d1fc <__rti_finsh_system_init_name+0x7c>
    2ff8:	a2dfd0ef          	jal	ra,a24 <rt_sem_init>
    2ffc:	4401                	li	s0,0
    2ffe:	d0f9                	beqz	s1,2fc4 <finsh_system_init+0x54>
    3000:	8526                	mv	a0,s1
    3002:	9b6ff0ef          	jal	ra,21b8 <rt_thread_startup>
    3006:	bf7d                	j	2fc4 <finsh_system_init+0x54>

00003008 <finsh_get_prompt>:
    3008:	b9afd2ef          	jal	t0,3a2 <__riscv_save_0>
    300c:	cc9ff0ef          	jal	ra,2cd4 <msh_is_used>
    3010:	c50d                	beqz	a0,303a <finsh_get_prompt+0x32>
    3012:	0000d5b7          	lui	a1,0xd
    3016:	19458593          	addi	a1,a1,404 # d194 <__rti_finsh_system_init_name+0x14>
    301a:	c9418513          	addi	a0,gp,-876 # 20000654 <finsh_prompt.4331>
    301e:	313080ef          	jal	ra,bb30 <strcpy>
    3022:	0000d5b7          	lui	a1,0xd
    3026:	1a458593          	addi	a1,a1,420 # d1a4 <__rti_finsh_system_init_name+0x24>
    302a:	c9418513          	addi	a0,gp,-876 # 20000654 <finsh_prompt.4331>
    302e:	2e5080ef          	jal	ra,bb12 <strcat>
    3032:	c9418513          	addi	a0,gp,-876 # 20000654 <finsh_prompt.4331>
    3036:	b90fd06f          	j	3c6 <__riscv_restore_0>
    303a:	0000d5b7          	lui	a1,0xd
    303e:	19c58593          	addi	a1,a1,412 # d19c <__rti_finsh_system_init_name+0x1c>
    3042:	bfe1                	j	301a <finsh_get_prompt+0x12>

00003044 <shell_handle_history>:
    3044:	b5efd2ef          	jal	t0,3a2 <__riscv_save_0>
    3048:	842a                	mv	s0,a0
    304a:	0000d537          	lui	a0,0xd
    304e:	21850513          	addi	a0,a0,536 # d218 <__rti_finsh_system_init_name+0x98>
    3052:	a9afe0ef          	jal	ra,12ec <rt_kprintf>
    3056:	fb3ff0ef          	jal	ra,3008 <finsh_get_prompt>
    305a:	85aa                	mv	a1,a0
    305c:	0000d537          	lui	a0,0xd
    3060:	1ba40613          	addi	a2,s0,442
    3064:	22050513          	addi	a0,a0,544 # d220 <__rti_finsh_system_init_name+0xa0>
    3068:	a84fe0ef          	jal	ra,12ec <rt_kprintf>
    306c:	4501                	li	a0,0
    306e:	b58fd06f          	j	3c6 <__riscv_restore_0>

00003072 <finsh_set_device>:
    3072:	b30fd2ef          	jal	t0,3a2 <__riscv_save_0>
    3076:	8c81a783          	lw	a5,-1848(gp) # 20000288 <shell>
    307a:	892a                	mv	s2,a0
    307c:	8c818413          	addi	s0,gp,-1848 # 20000288 <shell>
    3080:	ef81                	bnez	a5,3098 <finsh_set_device+0x26>
    3082:	65b5                	lui	a1,0xd
    3084:	0000d537          	lui	a0,0xd
    3088:	07c00613          	li	a2,124
    308c:	16c58593          	addi	a1,a1,364 # d16c <__FUNCTION__.4349>
    3090:	1a850513          	addi	a0,a0,424 # d1a8 <__rti_finsh_system_init_name+0x28>
    3094:	b4cfe0ef          	jal	ra,13e0 <rt_assert_handler>
    3098:	854a                	mv	a0,s2
    309a:	d4cfd0ef          	jal	ra,5e6 <rt_device_find>
    309e:	84aa                	mv	s1,a0
    30a0:	e911                	bnez	a0,30b4 <finsh_set_device+0x42>
    30a2:	0000d537          	lui	a0,0xd
    30a6:	85ca                	mv	a1,s2
    30a8:	1bc50513          	addi	a0,a0,444 # d1bc <__rti_finsh_system_init_name+0x3c>
    30ac:	a40fe0ef          	jal	ra,12ec <rt_kprintf>
    30b0:	b16fd06f          	j	3c6 <__riscv_restore_0>
    30b4:	401c                	lw	a5,0(s0)
    30b6:	20c7a783          	lw	a5,524(a5)
    30ba:	fea78be3          	beq	a5,a0,30b0 <finsh_set_device+0x3e>
    30be:	14300593          	li	a1,323
    30c2:	dbafd0ef          	jal	ra,67c <rt_device_open>
    30c6:	f56d                	bnez	a0,30b0 <finsh_set_device+0x3e>
    30c8:	401c                	lw	a5,0(s0)
    30ca:	20c7a503          	lw	a0,524(a5)
    30ce:	c909                	beqz	a0,30e0 <finsh_set_device+0x6e>
    30d0:	e7efd0ef          	jal	ra,74e <rt_device_close>
    30d4:	401c                	lw	a5,0(s0)
    30d6:	4581                	li	a1,0
    30d8:	20c7a503          	lw	a0,524(a5)
    30dc:	fa6fd0ef          	jal	ra,882 <rt_device_set_rx_indicate>
    30e0:	4000                	lw	s0,0(s0)
    30e2:	05000613          	li	a2,80
    30e6:	4581                	li	a1,0
    30e8:	1ba40513          	addi	a0,s0,442
    30ec:	ae6fd0ef          	jal	ra,3d2 <memset>
    30f0:	000035b7          	lui	a1,0x3
    30f4:	20041523          	sh	zero,522(s0)
    30f8:	20942623          	sw	s1,524(s0)
    30fc:	f4058593          	addi	a1,a1,-192 # 2f40 <finsh_rx_ind>
    3100:	8526                	mv	a0,s1
    3102:	f80fd0ef          	jal	ra,882 <rt_device_set_rx_indicate>
    3106:	b76d                	j	30b0 <finsh_set_device+0x3e>

00003108 <finsh_thread_entry>:
    3108:	a6afd2ef          	jal	t0,372 <__riscv_save_12>
    310c:	8c81a783          	lw	a5,-1848(gp) # 20000288 <shell>
    3110:	1141                	addi	sp,sp,-16
    3112:	8c818493          	addi	s1,gp,-1848 # 20000288 <shell>
    3116:	0247c703          	lbu	a4,36(a5)
    311a:	00176713          	ori	a4,a4,1
    311e:	02e78223          	sb	a4,36(a5)
    3122:	20c7a783          	lw	a5,524(a5)
    3126:	e791                	bnez	a5,3132 <finsh_thread_entry+0x2a>
    3128:	98efe0ef          	jal	ra,12b6 <rt_console_get_device>
    312c:	c119                	beqz	a0,3132 <finsh_thread_entry+0x2a>
    312e:	f45ff0ef          	jal	ra,3072 <finsh_set_device>
    3132:	ed7ff0ef          	jal	ra,3008 <finsh_get_prompt>
    3136:	9b6fe0ef          	jal	ra,12ec <rt_kprintf>
    313a:	6b35                	lui	s6,0xd
    313c:	0000dbb7          	lui	s7,0xd
    3140:	0000dc37          	lui	s8,0xd
    3144:	0000dcb7          	lui	s9,0xd
    3148:	0000d9b7          	lui	s3,0xd
    314c:	0000da37          	lui	s4,0xd
    3150:	0000dab7          	lui	s5,0xd
    3154:	409c                	lw	a5,0(s1)
    3156:	eb89                	bnez	a5,3168 <finsh_thread_entry+0x60>
    3158:	05e00613          	li	a2,94
    315c:	14cb0593          	addi	a1,s6,332 # d14c <__FUNCTION__.4336>
    3160:	1a8b8513          	addi	a0,s7,424 # d1a8 <__rti_finsh_system_init_name+0x28>
    3164:	a7cfe0ef          	jal	ra,13e0 <rt_assert_handler>
    3168:	409c                	lw	a5,0(s1)
    316a:	4685                	li	a3,1
    316c:	00f10613          	addi	a2,sp,15
    3170:	20c7a503          	lw	a0,524(a5)
    3174:	55fd                	li	a1,-1
    3176:	e44fd0ef          	jal	ra,7ba <rt_device_read>
    317a:	4785                	li	a5,1
    317c:	00f51a63          	bne	a0,a5,3190 <finsh_thread_entry+0x88>
    3180:	00f10903          	lb	s2,15(sp)
    3184:	47ed                	li	a5,27
    3186:	4080                	lw	s0,0(s1)
    3188:	00f91963          	bne	s2,a5,319a <finsh_thread_entry+0x92>
    318c:	d008                	sw	a0,32(s0)
    318e:	b7d9                	j	3154 <finsh_thread_entry+0x4c>
    3190:	4088                	lw	a0,0(s1)
    3192:	55fd                	li	a1,-1
    3194:	8effd0ef          	jal	ra,a82 <rt_sem_take>
    3198:	bfc1                	j	3168 <finsh_thread_entry+0x60>
    319a:	501c                	lw	a5,32(s0)
    319c:	02a79263          	bne	a5,a0,31c0 <finsh_thread_entry+0xb8>
    31a0:	05b00793          	li	a5,91
    31a4:	00f91563          	bne	s2,a5,31ae <finsh_thread_entry+0xa6>
    31a8:	4789                	li	a5,2
    31aa:	d01c                	sw	a5,32(s0)
    31ac:	b765                	j	3154 <finsh_thread_entry+0x4c>
    31ae:	02042023          	sw	zero,32(s0)
    31b2:	fa0901e3          	beqz	s2,3154 <finsh_thread_entry+0x4c>
    31b6:	47a5                	li	a5,9
    31b8:	12f91763          	bne	s2,a5,32e6 <finsh_thread_entry+0x1de>
    31bc:	4901                	li	s2,0
    31be:	a8d9                	j	3294 <finsh_thread_entry+0x18c>
    31c0:	4709                	li	a4,2
    31c2:	fee798e3          	bne	a5,a4,31b2 <finsh_thread_entry+0xaa>
    31c6:	02042023          	sw	zero,32(s0)
    31ca:	04100793          	li	a5,65
    31ce:	04f91263          	bne	s2,a5,3212 <finsh_thread_entry+0x10a>
    31d2:	306e                	lhu	a1,38(s0)
    31d4:	d1c1                	beqz	a1,3154 <finsh_thread_entry+0x4c>
    31d6:	15fd                	addi	a1,a1,-1
    31d8:	05c2                	slli	a1,a1,0x10
    31da:	81c1                	srli	a1,a1,0x10
    31dc:	b06e                	sh	a1,38(s0)
    31de:	1ba40793          	addi	a5,s0,442
    31e2:	05000713          	li	a4,80
    31e6:	02e585b3          	mul	a1,a1,a4
    31ea:	05000613          	li	a2,80
    31ee:	853e                	mv	a0,a5
    31f0:	02a58593          	addi	a1,a1,42
    31f4:	95a2                	add	a1,a1,s0
    31f6:	06b080ef          	jal	ra,ba60 <memcpy>
    31fa:	147080ef          	jal	ra,bb40 <strlen>
    31fe:	0ff57513          	andi	a0,a0,255
    3202:	20a40523          	sb	a0,522(s0)
    3206:	20a405a3          	sb	a0,523(s0)
    320a:	8522                	mv	a0,s0
    320c:	e39ff0ef          	jal	ra,3044 <shell_handle_history>
    3210:	b791                	j	3154 <finsh_thread_entry+0x4c>
    3212:	04200793          	li	a5,66
    3216:	02f91163          	bne	s2,a5,3238 <finsh_thread_entry+0x130>
    321a:	3416                	lhu	a3,40(s0)
    321c:	307e                	lhu	a5,38(s0)
    321e:	fff68713          	addi	a4,a3,-1 # 7fffffff <_eusrstack+0x5ffeffff>
    3222:	00e7d863          	bge	a5,a4,3232 <finsh_thread_entry+0x12a>
    3226:	0785                	addi	a5,a5,1
    3228:	b07e                	sh	a5,38(s0)
    322a:	1ba40793          	addi	a5,s0,442
    322e:	306e                	lhu	a1,38(s0)
    3230:	bf4d                	j	31e2 <finsh_thread_entry+0xda>
    3232:	d28d                	beqz	a3,3154 <finsh_thread_entry+0x4c>
    3234:	b07a                	sh	a4,38(s0)
    3236:	bfd5                	j	322a <finsh_thread_entry+0x122>
    3238:	04400793          	li	a5,68
    323c:	02f91163          	bne	s2,a5,325e <finsh_thread_entry+0x156>
    3240:	20b44783          	lbu	a5,523(s0)
    3244:	f00788e3          	beqz	a5,3154 <finsh_thread_entry+0x4c>
    3248:	20498513          	addi	a0,s3,516 # d204 <__rti_finsh_system_init_name+0x84>
    324c:	8a0fe0ef          	jal	ra,12ec <rt_kprintf>
    3250:	4098                	lw	a4,0(s1)
    3252:	20b74783          	lbu	a5,523(a4)
    3256:	17fd                	addi	a5,a5,-1
    3258:	20f705a3          	sb	a5,523(a4)
    325c:	bde5                	j	3154 <finsh_thread_entry+0x4c>
    325e:	04300793          	li	a5,67
    3262:	f4f918e3          	bne	s2,a5,31b2 <finsh_thread_entry+0xaa>
    3266:	20b44783          	lbu	a5,523(s0)
    326a:	20a44703          	lbu	a4,522(s0)
    326e:	eee7f3e3          	bgeu	a5,a4,3154 <finsh_thread_entry+0x4c>
    3272:	943e                	add	s0,s0,a5
    3274:	1ba40583          	lb	a1,442(s0)
    3278:	208a8513          	addi	a0,s5,520 # d208 <__rti_finsh_system_init_name+0x88>
    327c:	870fe0ef          	jal	ra,12ec <rt_kprintf>
    3280:	4098                	lw	a4,0(s1)
    3282:	20b74783          	lbu	a5,523(a4)
    3286:	0785                	addi	a5,a5,1
    3288:	bfc1                	j	3258 <finsh_thread_entry+0x150>
    328a:	20498513          	addi	a0,s3,516
    328e:	85efe0ef          	jal	ra,12ec <rt_kprintf>
    3292:	0905                	addi	s2,s2,1
    3294:	4080                	lw	s0,0(s1)
    3296:	20b44783          	lbu	a5,523(s0)
    329a:	fef948e3          	blt	s2,a5,328a <finsh_thread_entry+0x182>
    329e:	854a0513          	addi	a0,s4,-1964 # c854 <__FUNCTION__.2526+0x134>
    32a2:	84afe0ef          	jal	ra,12ec <rt_kprintf>
    32a6:	a2fff0ef          	jal	ra,2cd4 <msh_is_used>
    32aa:	4785                	li	a5,1
    32ac:	1ba40413          	addi	s0,s0,442
    32b0:	00f51563          	bne	a0,a5,32ba <finsh_thread_entry+0x1b2>
    32b4:	8522                	mv	a0,s0
    32b6:	bcdff0ef          	jal	ra,2e82 <msh_auto_complete>
    32ba:	d4fff0ef          	jal	ra,3008 <finsh_get_prompt>
    32be:	85aa                	mv	a1,a0
    32c0:	0000d537          	lui	a0,0xd
    32c4:	8622                	mv	a2,s0
    32c6:	22050513          	addi	a0,a0,544 # d220 <__rti_finsh_system_init_name+0xa0>
    32ca:	822fe0ef          	jal	ra,12ec <rt_kprintf>
    32ce:	4080                	lw	s0,0(s1)
    32d0:	1ba40513          	addi	a0,s0,442
    32d4:	06d080ef          	jal	ra,bb40 <strlen>
    32d8:	0ff57513          	andi	a0,a0,255
    32dc:	20a40523          	sb	a0,522(s0)
    32e0:	20a405a3          	sb	a0,523(s0)
    32e4:	bd85                	j	3154 <finsh_thread_entry+0x4c>
    32e6:	07f00793          	li	a5,127
    32ea:	00f90563          	beq	s2,a5,32f4 <finsh_thread_entry+0x1ec>
    32ee:	47a1                	li	a5,8
    32f0:	08f91563          	bne	s2,a5,337a <finsh_thread_entry+0x272>
    32f4:	20b44783          	lbu	a5,523(s0)
    32f8:	e4078ee3          	beqz	a5,3154 <finsh_thread_entry+0x4c>
    32fc:	20a44603          	lbu	a2,522(s0)
    3300:	17fd                	addi	a5,a5,-1
    3302:	0ff7f793          	andi	a5,a5,255
    3306:	167d                	addi	a2,a2,-1
    3308:	0ff67613          	andi	a2,a2,255
    330c:	20c40523          	sb	a2,522(s0)
    3310:	20f405a3          	sb	a5,523(s0)
    3314:	04c7f863          	bgeu	a5,a2,3364 <finsh_thread_entry+0x25c>
    3318:	1bb78593          	addi	a1,a5,443
    331c:	1ba78513          	addi	a0,a5,442
    3320:	8e1d                	sub	a2,a2,a5
    3322:	95a2                	add	a1,a1,s0
    3324:	9522                	add	a0,a0,s0
    3326:	b8dfd0ef          	jal	ra,eb2 <rt_memmove>
    332a:	409c                	lw	a5,0(s1)
    332c:	20cc8513          	addi	a0,s9,524 # d20c <__rti_finsh_system_init_name+0x8c>
    3330:	20a7c703          	lbu	a4,522(a5)
    3334:	973e                	add	a4,a4,a5
    3336:	1a070d23          	sb	zero,442(a4)
    333a:	20b7c583          	lbu	a1,523(a5)
    333e:	1ba58593          	addi	a1,a1,442
    3342:	95be                	add	a1,a1,a5
    3344:	fa9fd0ef          	jal	ra,12ec <rt_kprintf>
    3348:	409c                	lw	a5,0(s1)
    334a:	20b7c403          	lbu	s0,523(a5)
    334e:	409c                	lw	a5,0(s1)
    3350:	20a7c783          	lbu	a5,522(a5)
    3354:	e087c0e3          	blt	a5,s0,3154 <finsh_thread_entry+0x4c>
    3358:	20498513          	addi	a0,s3,516
    335c:	f91fd0ef          	jal	ra,12ec <rt_kprintf>
    3360:	0405                	addi	s0,s0,1
    3362:	b7f5                	j	334e <finsh_thread_entry+0x246>
    3364:	214c0513          	addi	a0,s8,532 # d214 <__rti_finsh_system_init_name+0x94>
    3368:	f85fd0ef          	jal	ra,12ec <rt_kprintf>
    336c:	409c                	lw	a5,0(s1)
    336e:	20a7c703          	lbu	a4,522(a5)
    3372:	97ba                	add	a5,a5,a4
    3374:	1a078d23          	sb	zero,442(a5)
    3378:	bbf1                	j	3154 <finsh_thread_entry+0x4c>
    337a:	4735                	li	a4,13
    337c:	20a44783          	lbu	a5,522(s0)
    3380:	00e90563          	beq	s2,a4,338a <finsh_thread_entry+0x282>
    3384:	4729                	li	a4,10
    3386:	0ee91e63          	bne	s2,a4,3482 <finsh_thread_entry+0x37a>
    338a:	cbb9                	beqz	a5,33e0 <finsh_thread_entry+0x2d8>
    338c:	02845903          	lhu	s2,40(s0)
    3390:	4791                	li	a5,4
    3392:	1ba40d13          	addi	s10,s0,442
    3396:	0927fb63          	bgeu	a5,s2,342c <finsh_thread_entry+0x324>
    339a:	16a40d93          	addi	s11,s0,362
    339e:	05000613          	li	a2,80
    33a2:	85ea                	mv	a1,s10
    33a4:	856e                	mv	a0,s11
    33a6:	696080ef          	jal	ra,ba3c <memcmp>
    33aa:	c91d                	beqz	a0,33e0 <finsh_thread_entry+0x2d8>
    33ac:	02a40913          	addi	s2,s0,42
    33b0:	854a                	mv	a0,s2
    33b2:	05090913          	addi	s2,s2,80
    33b6:	05000613          	li	a2,80
    33ba:	85ca                	mv	a1,s2
    33bc:	6a4080ef          	jal	ra,ba60 <memcpy>
    33c0:	ff2d98e3          	bne	s11,s2,33b0 <finsh_thread_entry+0x2a8>
    33c4:	05000613          	li	a2,80
    33c8:	4581                	li	a1,0
    33ca:	856e                	mv	a0,s11
    33cc:	806fd0ef          	jal	ra,3d2 <memset>
    33d0:	20a44603          	lbu	a2,522(s0)
    33d4:	85ea                	mv	a1,s10
    33d6:	856e                	mv	a0,s11
    33d8:	688080ef          	jal	ra,ba60 <memcpy>
    33dc:	4795                	li	a5,5
    33de:	b41e                	sh	a5,40(s0)
    33e0:	341e                	lhu	a5,40(s0)
    33e2:	b07e                	sh	a5,38(s0)
    33e4:	8f1ff0ef          	jal	ra,2cd4 <msh_is_used>
    33e8:	4785                	li	a5,1
    33ea:	02f51263          	bne	a0,a5,340e <finsh_thread_entry+0x306>
    33ee:	409c                	lw	a5,0(s1)
    33f0:	0247c783          	lbu	a5,36(a5)
    33f4:	8b85                	andi	a5,a5,1
    33f6:	c789                	beqz	a5,3400 <finsh_thread_entry+0x2f8>
    33f8:	854a0513          	addi	a0,s4,-1964
    33fc:	ef1fd0ef          	jal	ra,12ec <rt_kprintf>
    3400:	4088                	lw	a0,0(s1)
    3402:	20a54583          	lbu	a1,522(a0)
    3406:	1ba50513          	addi	a0,a0,442
    340a:	8cfff0ef          	jal	ra,2cd8 <msh_exec>
    340e:	bfbff0ef          	jal	ra,3008 <finsh_get_prompt>
    3412:	edbfd0ef          	jal	ra,12ec <rt_kprintf>
    3416:	4080                	lw	s0,0(s1)
    3418:	05000613          	li	a2,80
    341c:	4581                	li	a1,0
    341e:	1ba40513          	addi	a0,s0,442
    3422:	fb1fc0ef          	jal	ra,3d2 <memset>
    3426:	20041523          	sh	zero,522(s0)
    342a:	b32d                	j	3154 <finsh_thread_entry+0x4c>
    342c:	02090163          	beqz	s2,344e <finsh_thread_entry+0x346>
    3430:	fff90513          	addi	a0,s2,-1
    3434:	05000793          	li	a5,80
    3438:	02f50533          	mul	a0,a0,a5
    343c:	05000613          	li	a2,80
    3440:	85ea                	mv	a1,s10
    3442:	02a50513          	addi	a0,a0,42
    3446:	9522                	add	a0,a0,s0
    3448:	5f4080ef          	jal	ra,ba3c <memcmp>
    344c:	d951                	beqz	a0,33e0 <finsh_thread_entry+0x2d8>
    344e:	05000d93          	li	s11,80
    3452:	03b90533          	mul	a0,s2,s11
    3456:	05000613          	li	a2,80
    345a:	4581                	li	a1,0
    345c:	02a50513          	addi	a0,a0,42
    3460:	9522                	add	a0,a0,s0
    3462:	f71fc0ef          	jal	ra,3d2 <memset>
    3466:	340a                	lhu	a0,40(s0)
    3468:	20a44603          	lbu	a2,522(s0)
    346c:	85ea                	mv	a1,s10
    346e:	03b50533          	mul	a0,a0,s11
    3472:	02a50513          	addi	a0,a0,42
    3476:	9522                	add	a0,a0,s0
    3478:	5e8080ef          	jal	ra,ba60 <memcpy>
    347c:	341e                	lhu	a5,40(s0)
    347e:	0785                	addi	a5,a5,1
    3480:	bfb9                	j	33de <finsh_thread_entry+0x2d6>
    3482:	04f00713          	li	a4,79
    3486:	00f77463          	bgeu	a4,a5,348e <finsh_thread_entry+0x386>
    348a:	20040523          	sb	zero,522(s0)
    348e:	20b44603          	lbu	a2,523(s0)
    3492:	20a44783          	lbu	a5,522(s0)
    3496:	08f67263          	bgeu	a2,a5,351a <finsh_thread_entry+0x412>
    349a:	1ba60593          	addi	a1,a2,442
    349e:	1bb60513          	addi	a0,a2,443
    34a2:	95a2                	add	a1,a1,s0
    34a4:	40c78633          	sub	a2,a5,a2
    34a8:	9522                	add	a0,a0,s0
    34aa:	a09fd0ef          	jal	ra,eb2 <rt_memmove>
    34ae:	408c                	lw	a1,0(s1)
    34b0:	20b5c783          	lbu	a5,523(a1)
    34b4:	00f58733          	add	a4,a1,a5
    34b8:	1b270d23          	sb	s2,442(a4)
    34bc:	0245c703          	lbu	a4,36(a1)
    34c0:	8b05                	andi	a4,a4,1
    34c2:	cb11                	beqz	a4,34d6 <finsh_thread_entry+0x3ce>
    34c4:	1ba78793          	addi	a5,a5,442
    34c8:	0000d537          	lui	a0,0xd
    34cc:	95be                	add	a1,a1,a5
    34ce:	f4050513          	addi	a0,a0,-192 # cf40 <__fsym_reboot_name+0xc>
    34d2:	e1bfd0ef          	jal	ra,12ec <rt_kprintf>
    34d6:	409c                	lw	a5,0(s1)
    34d8:	20b7c403          	lbu	s0,523(a5)
    34dc:	409c                	lw	a5,0(s1)
    34de:	20a7c783          	lbu	a5,522(a5)
    34e2:	02f44663          	blt	s0,a5,350e <finsh_thread_entry+0x406>
    34e6:	4098                	lw	a4,0(s1)
    34e8:	20a74783          	lbu	a5,522(a4)
    34ec:	20b74683          	lbu	a3,523(a4)
    34f0:	0785                	addi	a5,a5,1
    34f2:	0685                	addi	a3,a3,1
    34f4:	0ff7f793          	andi	a5,a5,255
    34f8:	20d705a3          	sb	a3,523(a4)
    34fc:	20f70523          	sb	a5,522(a4)
    3500:	04f00693          	li	a3,79
    3504:	c4f6f8e3          	bgeu	a3,a5,3154 <finsh_thread_entry+0x4c>
    3508:	20071523          	sh	zero,522(a4)
    350c:	b1a1                	j	3154 <finsh_thread_entry+0x4c>
    350e:	20498513          	addi	a0,s3,516
    3512:	ddbfd0ef          	jal	ra,12ec <rt_kprintf>
    3516:	0405                	addi	s0,s0,1
    3518:	b7d1                	j	34dc <finsh_thread_entry+0x3d4>
    351a:	97a2                	add	a5,a5,s0
    351c:	1b278d23          	sb	s2,442(a5)
    3520:	02444783          	lbu	a5,36(s0)
    3524:	8b85                	andi	a5,a5,1
    3526:	d3e1                	beqz	a5,34e6 <finsh_thread_entry+0x3de>
    3528:	85ca                	mv	a1,s2
    352a:	208a8513          	addi	a0,s5,520
    352e:	dbffd0ef          	jal	ra,12ec <rt_kprintf>
    3532:	bf55                	j	34e6 <finsh_thread_entry+0x3de>

00003534 <rt_serial_write>:
    3534:	e55fc2ef          	jal	t0,388 <__riscv_save_4>
    3538:	842a                	mv	s0,a0
    353a:	84b2                	mv	s1,a2
    353c:	8936                	mv	s2,a3
    353e:	ed01                	bnez	a0,3556 <rt_serial_write+0x22>
    3540:	65b5                	lui	a1,0xd
    3542:	0000c537          	lui	a0,0xc
    3546:	12800613          	li	a2,296
    354a:	28858593          	addi	a1,a1,648 # d288 <__FUNCTION__.2805>
    354e:	d3050513          	addi	a0,a0,-720 # bd30 <__FUNCTION__.2425+0x80>
    3552:	e8ffd0ef          	jal	ra,13e0 <rt_assert_handler>
    3556:	04090663          	beqz	s2,35a2 <rt_serial_write+0x6e>
    355a:	ec01                	bnez	s0,3572 <rt_serial_write+0x3e>
    355c:	65b5                	lui	a1,0xd
    355e:	0000d537          	lui	a0,0xd
    3562:	04e00613          	li	a2,78
    3566:	22858593          	addi	a1,a1,552 # d228 <__FUNCTION__.2747>
    356a:	2ec50513          	addi	a0,a0,748 # d2ec <__FUNCTION__.2837+0x28>
    356e:	e73fd0ef          	jal	ra,13e0 <rt_assert_handler>
    3572:	012489b3          	add	s3,s1,s2
    3576:	4a29                	li	s4,10
    3578:	209c                	lbu	a5,0(s1)
    357a:	01479b63          	bne	a5,s4,3590 <rt_serial_write+0x5c>
    357e:	2c3e                	lhu	a5,26(s0)
    3580:	0407f793          	andi	a5,a5,64
    3584:	c791                	beqz	a5,3590 <rt_serial_write+0x5c>
    3586:	407c                	lw	a5,68(s0)
    3588:	45b5                	li	a1,13
    358a:	8522                	mv	a0,s0
    358c:	479c                	lw	a5,8(a5)
    358e:	9782                	jalr	a5
    3590:	407c                	lw	a5,68(s0)
    3592:	00048583          	lb	a1,0(s1)
    3596:	8522                	mv	a0,s0
    3598:	479c                	lw	a5,8(a5)
    359a:	0485                	addi	s1,s1,1
    359c:	9782                	jalr	a5
    359e:	fd349de3          	bne	s1,s3,3578 <rt_serial_write+0x44>
    35a2:	854a                	mv	a0,s2
    35a4:	e19fc06f          	j	3bc <__riscv_restore_4>

000035a8 <rt_serial_init>:
    35a8:	dfbfc2ef          	jal	t0,3a2 <__riscv_save_0>
    35ac:	842a                	mv	s0,a0
    35ae:	ed01                	bnez	a0,35c6 <rt_serial_init+0x1e>
    35b0:	65b5                	lui	a1,0xd
    35b2:	0000c537          	lui	a0,0xc
    35b6:	0a100613          	li	a2,161
    35ba:	24858593          	addi	a1,a1,584 # d248 <__FUNCTION__.2769>
    35be:	d3050513          	addi	a0,a0,-720 # bd30 <__FUNCTION__.2425+0x80>
    35c2:	e1ffd0ef          	jal	ra,13e0 <rt_assert_handler>
    35c6:	407c                	lw	a5,68(s0)
    35c8:	04042823          	sw	zero,80(s0)
    35cc:	04042a23          	sw	zero,84(s0)
    35d0:	439c                	lw	a5,0(a5)
    35d2:	4501                	li	a0,0
    35d4:	c789                	beqz	a5,35de <rt_serial_init+0x36>
    35d6:	04840593          	addi	a1,s0,72
    35da:	8522                	mv	a0,s0
    35dc:	9782                	jalr	a5
    35de:	de9fc06f          	j	3c6 <__riscv_restore_0>

000035e2 <rt_serial_open>:
    35e2:	dc1fc2ef          	jal	t0,3a2 <__riscv_save_0>
    35e6:	842a                	mv	s0,a0
    35e8:	84ae                	mv	s1,a1
    35ea:	ed01                	bnez	a0,3602 <rt_serial_open+0x20>
    35ec:	65b5                	lui	a1,0xd
    35ee:	0000c537          	lui	a0,0xc
    35f2:	0b400613          	li	a2,180
    35f6:	25858593          	addi	a1,a1,600 # d258 <__FUNCTION__.2776>
    35fa:	d3050513          	addi	a0,a0,-720 # bd30 <__FUNCTION__.2425+0x80>
    35fe:	de3fd0ef          	jal	ra,13e0 <rt_assert_handler>
    3602:	1004f793          	andi	a5,s1,256
    3606:	c791                	beqz	a5,3612 <rt_serial_open+0x30>
    3608:	2c1a                	lhu	a4,24(s0)
    360a:	5561                	li	a0,-8
    360c:	10077713          	andi	a4,a4,256
    3610:	cf41                	beqz	a4,36a8 <rt_serial_open+0xc6>
    3612:	4004f713          	andi	a4,s1,1024
    3616:	c711                	beqz	a4,3622 <rt_serial_open+0x40>
    3618:	2c1a                	lhu	a4,24(s0)
    361a:	5561                	li	a0,-8
    361c:	40077713          	andi	a4,a4,1024
    3620:	c741                	beqz	a4,36a8 <rt_serial_open+0xc6>
    3622:	0404f713          	andi	a4,s1,64
    3626:	04000913          	li	s2,64
    362a:	e709                	bnez	a4,3634 <rt_serial_open+0x52>
    362c:	01a45903          	lhu	s2,26(s0)
    3630:	04097913          	andi	s2,s2,64
    3634:	4838                	lw	a4,80(s0)
    3636:	0ff4f493          	andi	s1,s1,255
    363a:	ac26                	sh	s1,26(s0)
    363c:	eb25                	bnez	a4,36ac <rt_serial_open+0xca>
    363e:	cfb9                	beqz	a5,369c <rt_serial_open+0xba>
    3640:	4468                	lw	a0,76(s0)
    3642:	8129                	srli	a0,a0,0xa
    3644:	0542                	slli	a0,a0,0x10
    3646:	8141                	srli	a0,a0,0x10
    3648:	0531                	addi	a0,a0,12
    364a:	f67fd0ef          	jal	ra,15b0 <rt_malloc>
    364e:	84aa                	mv	s1,a0
    3650:	ed01                	bnez	a0,3668 <rt_serial_open+0x86>
    3652:	65b5                	lui	a1,0xd
    3654:	0000d537          	lui	a0,0xd
    3658:	0cf00613          	li	a2,207
    365c:	25858593          	addi	a1,a1,600 # d258 <__FUNCTION__.2776>
    3660:	2d850513          	addi	a0,a0,728 # d2d8 <__FUNCTION__.2837+0x14>
    3664:	d7dfd0ef          	jal	ra,13e0 <rt_assert_handler>
    3668:	4470                	lw	a2,76(s0)
    366a:	00c48513          	addi	a0,s1,12
    366e:	4581                	li	a1,0
    3670:	8229                	srli	a2,a2,0xa
    3672:	0642                	slli	a2,a2,0x10
    3674:	8241                	srli	a2,a2,0x10
    3676:	c088                	sw	a0,0(s1)
    3678:	fb2fd0ef          	jal	ra,e2a <rt_memset>
    367c:	0004a223          	sw	zero,4(s1)
    3680:	2c3e                	lhu	a5,26(s0)
    3682:	0004a423          	sw	zero,8(s1)
    3686:	c824                	sw	s1,80(s0)
    3688:	1007e793          	ori	a5,a5,256
    368c:	ac3e                	sh	a5,26(s0)
    368e:	407c                	lw	a5,68(s0)
    3690:	10000613          	li	a2,256
    3694:	45c1                	li	a1,16
    3696:	43dc                	lw	a5,4(a5)
    3698:	8522                	mv	a0,s0
    369a:	9782                	jalr	a5
    369c:	2c3e                	lhu	a5,26(s0)
    369e:	4501                	li	a0,0
    36a0:	00f96933          	or	s2,s2,a5
    36a4:	01241d23          	sh	s2,26(s0)
    36a8:	d1ffc06f          	j	3c6 <__riscv_restore_0>
    36ac:	dbe5                	beqz	a5,369c <rt_serial_open+0xba>
    36ae:	1004e493          	ori	s1,s1,256
    36b2:	ac26                	sh	s1,26(s0)
    36b4:	b7e5                	j	369c <rt_serial_open+0xba>

000036b6 <rt_serial_control>:
    36b6:	cedfc2ef          	jal	t0,3a2 <__riscv_save_0>
    36ba:	842a                	mv	s0,a0
    36bc:	892e                	mv	s2,a1
    36be:	84b2                	mv	s1,a2
    36c0:	ed01                	bnez	a0,36d8 <rt_serial_control+0x22>
    36c2:	65b5                	lui	a1,0xd
    36c4:	0000c537          	lui	a0,0xc
    36c8:	13700613          	li	a2,311
    36cc:	29858593          	addi	a1,a1,664 # d298 <__FUNCTION__.2813>
    36d0:	d3050513          	addi	a0,a0,-720 # bd30 <__FUNCTION__.2425+0x80>
    36d4:	d0dfd0ef          	jal	ra,13e0 <rt_assert_handler>
    36d8:	4789                	li	a5,2
    36da:	00f90c63          	beq	s2,a5,36f2 <rt_serial_control+0x3c>
    36de:	478d                	li	a5,3
    36e0:	02f90063          	beq	s2,a5,3700 <rt_serial_control+0x4a>
    36e4:	4785                	li	a5,1
    36e6:	04f91663          	bne	s2,a5,3732 <rt_serial_control+0x7c>
    36ea:	2c1e                	lhu	a5,24(s0)
    36ec:	fdf7f793          	andi	a5,a5,-33
    36f0:	a021                	j	36f8 <rt_serial_control+0x42>
    36f2:	2c1e                	lhu	a5,24(s0)
    36f4:	0207e793          	ori	a5,a5,32
    36f8:	ac1e                	sh	a5,24(s0)
    36fa:	4501                	li	a0,0
    36fc:	ccbfc06f          	j	3c6 <__riscv_restore_0>
    3700:	dced                	beqz	s1,36fa <rt_serial_control+0x44>
    3702:	40d8                	lw	a4,4(s1)
    3704:	447c                	lw	a5,76(s0)
    3706:	2c54                	lbu	a3,28(s0)
    3708:	8329                	srli	a4,a4,0xa
    370a:	83a9                	srli	a5,a5,0xa
    370c:	0742                	slli	a4,a4,0x10
    370e:	07c2                	slli	a5,a5,0x10
    3710:	8341                	srli	a4,a4,0x10
    3712:	83c1                	srli	a5,a5,0x10
    3714:	00f70463          	beq	a4,a5,371c <rt_serial_control+0x66>
    3718:	451d                	li	a0,7
    371a:	f2ed                	bnez	a3,36fc <rt_serial_control+0x46>
    371c:	409c                	lw	a5,0(s1)
    371e:	c43c                	sw	a5,72(s0)
    3720:	40dc                	lw	a5,4(s1)
    3722:	c47c                	sw	a5,76(s0)
    3724:	daf9                	beqz	a3,36fa <rt_serial_control+0x44>
    3726:	407c                	lw	a5,68(s0)
    3728:	85a6                	mv	a1,s1
    372a:	8522                	mv	a0,s0
    372c:	439c                	lw	a5,0(a5)
    372e:	9782                	jalr	a5
    3730:	b7e9                	j	36fa <rt_serial_control+0x44>
    3732:	407c                	lw	a5,68(s0)
    3734:	8626                	mv	a2,s1
    3736:	85ca                	mv	a1,s2
    3738:	43dc                	lw	a5,4(a5)
    373a:	8522                	mv	a0,s0
    373c:	9782                	jalr	a5
    373e:	bf7d                	j	36fc <rt_serial_control+0x46>

00003740 <rt_serial_read>:
    3740:	c49fc2ef          	jal	t0,388 <__riscv_save_4>
    3744:	892a                	mv	s2,a0
    3746:	89b2                	mv	s3,a2
    3748:	8436                	mv	s0,a3
    374a:	ed01                	bnez	a0,3762 <rt_serial_read+0x22>
    374c:	65b5                	lui	a1,0xd
    374e:	0000c537          	lui	a0,0xc
    3752:	11400613          	li	a2,276
    3756:	27858593          	addi	a1,a1,632 # d278 <__FUNCTION__.2797>
    375a:	d3050513          	addi	a0,a0,-720 # bd30 <__FUNCTION__.2425+0x80>
    375e:	c83fd0ef          	jal	ra,13e0 <rt_assert_handler>
    3762:	c435                	beqz	s0,37ce <rt_serial_read+0x8e>
    3764:	01a95783          	lhu	a5,26(s2)
    3768:	84a2                	mv	s1,s0
    376a:	1007f793          	andi	a5,a5,256
    376e:	e39d                	bnez	a5,3794 <rt_serial_read+0x54>
    3770:	5a7d                	li	s4,-1
    3772:	4aa9                	li	s5,10
    3774:	04492783          	lw	a5,68(s2)
    3778:	854a                	mv	a0,s2
    377a:	47dc                	lw	a5,12(a5)
    377c:	9782                	jalr	a5
    377e:	01450963          	beq	a0,s4,3790 <rt_serial_read+0x50>
    3782:	00a98023          	sb	a0,0(s3)
    3786:	14fd                	addi	s1,s1,-1
    3788:	0985                	addi	s3,s3,1
    378a:	01550363          	beq	a0,s5,3790 <rt_serial_read+0x50>
    378e:	f0fd                	bnez	s1,3774 <rt_serial_read+0x34>
    3790:	8c05                	sub	s0,s0,s1
    3792:	a835                	j	37ce <rt_serial_read+0x8e>
    3794:	05092483          	lw	s1,80(s2)
    3798:	ec81                	bnez	s1,37b0 <rt_serial_read+0x70>
    379a:	65b5                	lui	a1,0xd
    379c:	0000d537          	lui	a0,0xd
    37a0:	07100613          	li	a2,113
    37a4:	23858593          	addi	a1,a1,568 # d238 <__FUNCTION__.2758>
    37a8:	2d850513          	addi	a0,a0,728 # d2d8 <__FUNCTION__.2837+0x14>
    37ac:	c35fd0ef          	jal	ra,13e0 <rt_assert_handler>
    37b0:	8a22                	mv	s4,s0
    37b2:	4a85                	li	s5,1
    37b4:	e11fe0ef          	jal	ra,25c4 <rt_hw_interrupt_disable>
    37b8:	20fe                	lhu	a5,6(s1)
    37ba:	20da                	lhu	a4,4(s1)
    37bc:	862a                	mv	a2,a0
    37be:	4494                	lw	a3,8(s1)
    37c0:	00f71a63          	bne	a4,a5,37d4 <rt_serial_read+0x94>
    37c4:	ea81                	bnez	a3,37d4 <rt_serial_read+0x94>
    37c6:	e0bfe0ef          	jal	ra,25d0 <rt_hw_interrupt_enable>
    37ca:	41440433          	sub	s0,s0,s4
    37ce:	8522                	mv	a0,s0
    37d0:	bedfc06f          	j	3bc <__riscv_restore_4>
    37d4:	4098                	lw	a4,0(s1)
    37d6:	973e                	add	a4,a4,a5
    37d8:	00074b03          	lbu	s6,0(a4)
    37dc:	04c92703          	lw	a4,76(s2)
    37e0:	0785                	addi	a5,a5,1
    37e2:	07c2                	slli	a5,a5,0x10
    37e4:	8329                	srli	a4,a4,0xa
    37e6:	83c1                	srli	a5,a5,0x10
    37e8:	0742                	slli	a4,a4,0x10
    37ea:	a0fe                	sh	a5,6(s1)
    37ec:	8341                	srli	a4,a4,0x10
    37ee:	00e7e463          	bltu	a5,a4,37f6 <rt_serial_read+0xb6>
    37f2:	00049323          	sh	zero,6(s1)
    37f6:	01569463          	bne	a3,s5,37fe <rt_serial_read+0xbe>
    37fa:	0004a423          	sw	zero,8(s1)
    37fe:	8532                	mv	a0,a2
    3800:	dd1fe0ef          	jal	ra,25d0 <rt_hw_interrupt_enable>
    3804:	1a7d                	addi	s4,s4,-1
    3806:	01698023          	sb	s6,0(s3)
    380a:	0985                	addi	s3,s3,1
    380c:	fa0a14e3          	bnez	s4,37b4 <rt_serial_read+0x74>
    3810:	bf6d                	j	37ca <rt_serial_read+0x8a>

00003812 <rt_serial_close>:
    3812:	b91fc2ef          	jal	t0,3a2 <__riscv_save_0>
    3816:	842a                	mv	s0,a0
    3818:	ed01                	bnez	a0,3830 <rt_serial_close+0x1e>
    381a:	65b5                	lui	a1,0xd
    381c:	0000c537          	lui	a0,0xc
    3820:	0f600613          	li	a2,246
    3824:	26858593          	addi	a1,a1,616 # d268 <__FUNCTION__.2788>
    3828:	d3050513          	addi	a0,a0,-720 # bd30 <__FUNCTION__.2425+0x80>
    382c:	bb5fd0ef          	jal	ra,13e0 <rt_assert_handler>
    3830:	2c58                	lbu	a4,28(s0)
    3832:	4785                	li	a5,1
    3834:	04e7e363          	bltu	a5,a4,387a <rt_serial_close+0x68>
    3838:	2c3e                	lhu	a5,26(s0)
    383a:	1007f793          	andi	a5,a5,256
    383e:	cf95                	beqz	a5,387a <rt_serial_close+0x68>
    3840:	4824                	lw	s1,80(s0)
    3842:	ec81                	bnez	s1,385a <rt_serial_close+0x48>
    3844:	65b5                	lui	a1,0xd
    3846:	0000d537          	lui	a0,0xd
    384a:	10100613          	li	a2,257
    384e:	26858593          	addi	a1,a1,616 # d268 <__FUNCTION__.2788>
    3852:	2d850513          	addi	a0,a0,728 # d2d8 <__FUNCTION__.2837+0x14>
    3856:	b8bfd0ef          	jal	ra,13e0 <rt_assert_handler>
    385a:	8526                	mv	a0,s1
    385c:	f3bfd0ef          	jal	ra,1796 <rt_free>
    3860:	2c3e                	lhu	a5,26(s0)
    3862:	04042823          	sw	zero,80(s0)
    3866:	10000613          	li	a2,256
    386a:	eff7f793          	andi	a5,a5,-257
    386e:	ac3e                	sh	a5,26(s0)
    3870:	407c                	lw	a5,68(s0)
    3872:	45c5                	li	a1,17
    3874:	8522                	mv	a0,s0
    3876:	43dc                	lw	a5,4(a5)
    3878:	9782                	jalr	a5
    387a:	4501                	li	a0,0
    387c:	b4bfc06f          	j	3c6 <__riscv_restore_0>

00003880 <rt_hw_serial_register>:
    3880:	b23fc2ef          	jal	t0,3a2 <__riscv_save_0>
    3884:	1141                	addi	sp,sp,-16
    3886:	842a                	mv	s0,a0
    3888:	84ae                	mv	s1,a1
    388a:	8932                	mv	s2,a2
    388c:	ed11                	bnez	a0,38a8 <rt_hw_serial_register+0x28>
    388e:	65b5                	lui	a1,0xd
    3890:	0000d537          	lui	a0,0xd
    3894:	16d00613          	li	a2,365
    3898:	2ac58593          	addi	a1,a1,684 # d2ac <__FUNCTION__.2828>
    389c:	2ec50513          	addi	a0,a0,748 # d2ec <__FUNCTION__.2837+0x28>
    38a0:	c636                	sw	a3,12(sp)
    38a2:	b3ffd0ef          	jal	ra,13e0 <rt_assert_handler>
    38a6:	46b2                	lw	a3,12(sp)
    38a8:	000037b7          	lui	a5,0x3
    38ac:	5a878793          	addi	a5,a5,1448 # 35a8 <rt_serial_init>
    38b0:	d41c                	sw	a5,40(s0)
    38b2:	000037b7          	lui	a5,0x3
    38b6:	5e278793          	addi	a5,a5,1506 # 35e2 <rt_serial_open>
    38ba:	d45c                	sw	a5,44(s0)
    38bc:	000047b7          	lui	a5,0x4
    38c0:	81278793          	addi	a5,a5,-2030 # 3812 <rt_serial_close>
    38c4:	d81c                	sw	a5,48(s0)
    38c6:	000037b7          	lui	a5,0x3
    38ca:	74078793          	addi	a5,a5,1856 # 3740 <rt_serial_read>
    38ce:	d85c                	sw	a5,52(s0)
    38d0:	000037b7          	lui	a5,0x3
    38d4:	53478793          	addi	a5,a5,1332 # 3534 <rt_serial_write>
    38d8:	dc1c                	sw	a5,56(s0)
    38da:	000037b7          	lui	a5,0x3
    38de:	6b678793          	addi	a5,a5,1718 # 36b6 <rt_serial_control>
    38e2:	01091613          	slli	a2,s2,0x10
    38e6:	00042a23          	sw	zero,20(s0)
    38ea:	02042023          	sw	zero,32(s0)
    38ee:	02042223          	sw	zero,36(s0)
    38f2:	dc5c                	sw	a5,60(s0)
    38f4:	c034                	sw	a3,64(s0)
    38f6:	8241                	srli	a2,a2,0x10
    38f8:	85a6                	mv	a1,s1
    38fa:	8522                	mv	a0,s0
    38fc:	d4dfc0ef          	jal	ra,648 <rt_device_register>
    3900:	0141                	addi	sp,sp,16
    3902:	ac5fc06f          	j	3c6 <__riscv_restore_0>

00003906 <rt_hw_serial_isr>:
    3906:	0ff5f593          	andi	a1,a1,255
    390a:	4785                	li	a5,1
    390c:	0af59d63          	bne	a1,a5,39c6 <rt_hw_serial_isr+0xc0>
    3910:	a79fc2ef          	jal	t0,388 <__riscv_save_4>
    3914:	4920                	lw	s0,80(a0)
    3916:	1141                	addi	sp,sp,-16
    3918:	84aa                	mv	s1,a0
    391a:	ec01                	bnez	s0,3932 <rt_hw_serial_isr+0x2c>
    391c:	65b5                	lui	a1,0xd
    391e:	0000d537          	lui	a0,0xd
    3922:	19000613          	li	a2,400
    3926:	2c458593          	addi	a1,a1,708 # d2c4 <__FUNCTION__.2837>
    392a:	2d850513          	addi	a0,a0,728 # d2d8 <__FUNCTION__.2837+0x14>
    392e:	ab3fd0ef          	jal	ra,13e0 <rt_assert_handler>
    3932:	597d                	li	s2,-1
    3934:	4985                	li	s3,1
    3936:	40fc                	lw	a5,68(s1)
    3938:	8526                	mv	a0,s1
    393a:	47dc                	lw	a5,12(a5)
    393c:	9782                	jalr	a5
    393e:	8a2a                	mv	s4,a0
    3940:	05250763          	beq	a0,s2,398e <rt_hw_serial_isr+0x88>
    3944:	c81fe0ef          	jal	ra,25c4 <rt_hw_interrupt_disable>
    3948:	205a                	lhu	a4,4(s0)
    394a:	401c                	lw	a5,0(s0)
    394c:	97ba                	add	a5,a5,a4
    394e:	01478023          	sb	s4,0(a5)
    3952:	205e                	lhu	a5,4(s0)
    3954:	44f8                	lw	a4,76(s1)
    3956:	0785                	addi	a5,a5,1
    3958:	07c2                	slli	a5,a5,0x10
    395a:	8329                	srli	a4,a4,0xa
    395c:	83c1                	srli	a5,a5,0x10
    395e:	0742                	slli	a4,a4,0x10
    3960:	a05e                	sh	a5,4(s0)
    3962:	8341                	srli	a4,a4,0x10
    3964:	00e7e463          	bltu	a5,a4,396c <rt_hw_serial_isr+0x66>
    3968:	00041223          	sh	zero,4(s0)
    396c:	2076                	lhu	a3,6(s0)
    396e:	205e                	lhu	a5,4(s0)
    3970:	00d79c63          	bne	a5,a3,3988 <rt_hw_serial_isr+0x82>
    3974:	0785                	addi	a5,a5,1
    3976:	07c2                	slli	a5,a5,0x10
    3978:	83c1                	srli	a5,a5,0x10
    397a:	a07e                	sh	a5,6(s0)
    397c:	01342423          	sw	s3,8(s0)
    3980:	00e7e463          	bltu	a5,a4,3988 <rt_hw_serial_isr+0x82>
    3984:	00041323          	sh	zero,6(s0)
    3988:	c49fe0ef          	jal	ra,25d0 <rt_hw_interrupt_enable>
    398c:	b76d                	j	3936 <rt_hw_serial_isr+0x30>
    398e:	509c                	lw	a5,32(s1)
    3990:	c385                	beqz	a5,39b0 <rt_hw_serial_isr+0xaa>
    3992:	c33fe0ef          	jal	ra,25c4 <rt_hw_interrupt_disable>
    3996:	205a                	lhu	a4,4(s0)
    3998:	206e                	lhu	a1,6(s0)
    399a:	00b76e63          	bltu	a4,a1,39b6 <rt_hw_serial_isr+0xb0>
    399e:	40b705b3          	sub	a1,a4,a1
    39a2:	c62e                	sw	a1,12(sp)
    39a4:	c2dfe0ef          	jal	ra,25d0 <rt_hw_interrupt_enable>
    39a8:	509c                	lw	a5,32(s1)
    39aa:	45b2                	lw	a1,12(sp)
    39ac:	8526                	mv	a0,s1
    39ae:	9782                	jalr	a5
    39b0:	0141                	addi	sp,sp,16
    39b2:	a0bfc06f          	j	3bc <__riscv_restore_4>
    39b6:	44fc                	lw	a5,76(s1)
    39b8:	8d99                	sub	a1,a1,a4
    39ba:	83a9                	srli	a5,a5,0xa
    39bc:	07c2                	slli	a5,a5,0x10
    39be:	83c1                	srli	a5,a5,0x10
    39c0:	40b785b3          	sub	a1,a5,a1
    39c4:	bff9                	j	39a2 <rt_hw_serial_isr+0x9c>
    39c6:	8082                	ret

000039c8 <_pin_control>:
    39c8:	9dbfc2ef          	jal	t0,3a2 <__riscv_save_0>
    39cc:	842a                	mv	s0,a0
    39ce:	84b2                	mv	s1,a2
    39d0:	ed01                	bnez	a0,39e8 <_pin_control+0x20>
    39d2:	65b5                	lui	a1,0xd
    39d4:	0000d537          	lui	a0,0xd
    39d8:	04500613          	li	a2,69
    39dc:	31858593          	addi	a1,a1,792 # d318 <__FUNCTION__.4543>
    39e0:	35050513          	addi	a0,a0,848 # d350 <__FUNCTION__.4585+0xc>
    39e4:	9fdfd0ef          	jal	ra,13e0 <rt_assert_handler>
    39e8:	557d                	li	a0,-1
    39ea:	c881                	beqz	s1,39fa <_pin_control+0x32>
    39ec:	407c                	lw	a5,68(s0)
    39ee:	20b2                	lhu	a2,2(s1)
    39f0:	208e                	lhu	a1,0(s1)
    39f2:	439c                	lw	a5,0(a5)
    39f4:	8522                	mv	a0,s0
    39f6:	9782                	jalr	a5
    39f8:	4501                	li	a0,0
    39fa:	9cdfc06f          	j	3c6 <__riscv_restore_0>

000039fe <rt_pin_mode>:
    39fe:	98bfc2ef          	jal	t0,388 <__riscv_save_4>
    3a02:	d1818793          	addi	a5,gp,-744 # 200006d8 <_hw_pin>
    3a06:	43fc                	lw	a5,68(a5)
    3a08:	84aa                	mv	s1,a0
    3a0a:	892e                	mv	s2,a1
    3a0c:	d1818993          	addi	s3,gp,-744 # 200006d8 <_hw_pin>
    3a10:	ef81                	bnez	a5,3a28 <rt_pin_mode+0x2a>
    3a12:	65b5                	lui	a1,0xd
    3a14:	0000d537          	lui	a0,0xd
    3a18:	08400613          	li	a2,132
    3a1c:	32858593          	addi	a1,a1,808 # d328 <__FUNCTION__.4570>
    3a20:	3d050513          	addi	a0,a0,976 # d3d0 <__fsym_pinMode_name+0x8>
    3a24:	9bdfd0ef          	jal	ra,13e0 <rt_assert_handler>
    3a28:	0449a783          	lw	a5,68(s3)
    3a2c:	864a                	mv	a2,s2
    3a2e:	85a6                	mv	a1,s1
    3a30:	439c                	lw	a5,0(a5)
    3a32:	d1818513          	addi	a0,gp,-744 # 200006d8 <_hw_pin>
    3a36:	9782                	jalr	a5
    3a38:	985fc06f          	j	3bc <__riscv_restore_4>

00003a3c <rt_pin_write>:
    3a3c:	94dfc2ef          	jal	t0,388 <__riscv_save_4>
    3a40:	d1818793          	addi	a5,gp,-744 # 200006d8 <_hw_pin>
    3a44:	43fc                	lw	a5,68(a5)
    3a46:	84aa                	mv	s1,a0
    3a48:	892e                	mv	s2,a1
    3a4a:	d1818993          	addi	s3,gp,-744 # 200006d8 <_hw_pin>
    3a4e:	ef81                	bnez	a5,3a66 <rt_pin_write+0x2a>
    3a50:	65b5                	lui	a1,0xd
    3a52:	0000d537          	lui	a0,0xd
    3a56:	08b00613          	li	a2,139
    3a5a:	33458593          	addi	a1,a1,820 # d334 <__FUNCTION__.4578>
    3a5e:	3d050513          	addi	a0,a0,976 # d3d0 <__fsym_pinMode_name+0x8>
    3a62:	97ffd0ef          	jal	ra,13e0 <rt_assert_handler>
    3a66:	0449a783          	lw	a5,68(s3)
    3a6a:	864a                	mv	a2,s2
    3a6c:	85a6                	mv	a1,s1
    3a6e:	43dc                	lw	a5,4(a5)
    3a70:	d1818513          	addi	a0,gp,-744 # 200006d8 <_hw_pin>
    3a74:	9782                	jalr	a5
    3a76:	947fc06f          	j	3bc <__riscv_restore_4>

00003a7a <rt_pin_read>:
    3a7a:	929fc2ef          	jal	t0,3a2 <__riscv_save_0>
    3a7e:	d1818793          	addi	a5,gp,-744 # 200006d8 <_hw_pin>
    3a82:	43fc                	lw	a5,68(a5)
    3a84:	84aa                	mv	s1,a0
    3a86:	d1818913          	addi	s2,gp,-744 # 200006d8 <_hw_pin>
    3a8a:	ef81                	bnez	a5,3aa2 <rt_pin_read+0x28>
    3a8c:	65b5                	lui	a1,0xd
    3a8e:	0000d537          	lui	a0,0xd
    3a92:	09200613          	li	a2,146
    3a96:	34458593          	addi	a1,a1,836 # d344 <__FUNCTION__.4585>
    3a9a:	3d050513          	addi	a0,a0,976 # d3d0 <__fsym_pinMode_name+0x8>
    3a9e:	943fd0ef          	jal	ra,13e0 <rt_assert_handler>
    3aa2:	04492783          	lw	a5,68(s2)
    3aa6:	85a6                	mv	a1,s1
    3aa8:	d1818513          	addi	a0,gp,-744 # 200006d8 <_hw_pin>
    3aac:	479c                	lw	a5,8(a5)
    3aae:	9782                	jalr	a5
    3ab0:	917fc06f          	j	3c6 <__riscv_restore_0>

00003ab4 <_pin_write>:
    3ab4:	8effc2ef          	jal	t0,3a2 <__riscv_save_0>
    3ab8:	84aa                	mv	s1,a0
    3aba:	8932                	mv	s2,a2
    3abc:	8436                	mv	s0,a3
    3abe:	ed01                	bnez	a0,3ad6 <_pin_write+0x22>
    3ac0:	65b5                	lui	a1,0xd
    3ac2:	0000d537          	lui	a0,0xd
    3ac6:	03500613          	li	a2,53
    3aca:	30c58593          	addi	a1,a1,780 # d30c <__FUNCTION__.4535>
    3ace:	35050513          	addi	a0,a0,848 # d350 <__FUNCTION__.4585+0xc>
    3ad2:	90ffd0ef          	jal	ra,13e0 <rt_assert_handler>
    3ad6:	02090063          	beqz	s2,3af6 <_pin_write+0x42>
    3ada:	4791                	li	a5,4
    3adc:	00f41d63          	bne	s0,a5,3af6 <_pin_write+0x42>
    3ae0:	40fc                	lw	a5,68(s1)
    3ae2:	00295603          	lhu	a2,2(s2)
    3ae6:	00095583          	lhu	a1,0(s2)
    3aea:	43dc                	lw	a5,4(a5)
    3aec:	8526                	mv	a0,s1
    3aee:	9782                	jalr	a5
    3af0:	8522                	mv	a0,s0
    3af2:	8d5fc06f          	j	3c6 <__riscv_restore_0>
    3af6:	4401                	li	s0,0
    3af8:	bfe5                	j	3af0 <_pin_write+0x3c>

00003afa <_pin_read>:
    3afa:	8a9fc2ef          	jal	t0,3a2 <__riscv_save_0>
    3afe:	892a                	mv	s2,a0
    3b00:	84b2                	mv	s1,a2
    3b02:	8436                	mv	s0,a3
    3b04:	ed01                	bnez	a0,3b1c <_pin_read+0x22>
    3b06:	65b5                	lui	a1,0xd
    3b08:	0000d537          	lui	a0,0xd
    3b0c:	02600613          	li	a2,38
    3b10:	30058593          	addi	a1,a1,768 # d300 <__FUNCTION__.4526>
    3b14:	35050513          	addi	a0,a0,848 # d350 <__FUNCTION__.4585+0xc>
    3b18:	8c9fd0ef          	jal	ra,13e0 <rt_assert_handler>
    3b1c:	cc91                	beqz	s1,3b38 <_pin_read+0x3e>
    3b1e:	4791                	li	a5,4
    3b20:	00f41c63          	bne	s0,a5,3b38 <_pin_read+0x3e>
    3b24:	04492783          	lw	a5,68(s2)
    3b28:	208e                	lhu	a1,0(s1)
    3b2a:	854a                	mv	a0,s2
    3b2c:	479c                	lw	a5,8(a5)
    3b2e:	9782                	jalr	a5
    3b30:	a0aa                	sh	a0,2(s1)
    3b32:	8522                	mv	a0,s0
    3b34:	893fc06f          	j	3c6 <__riscv_restore_0>
    3b38:	4401                	li	s0,0
    3b3a:	bfe5                	j	3b32 <_pin_read+0x38>

00003b3c <rt_device_pin_register>:
    3b3c:	867fc2ef          	jal	t0,3a2 <__riscv_save_0>
    3b40:	d1818793          	addi	a5,gp,-744 # 200006d8 <_hw_pin>
    3b44:	4749                	li	a4,18
    3b46:	cbd8                	sw	a4,20(a5)
    3b48:	00004737          	lui	a4,0x4
    3b4c:	afa70713          	addi	a4,a4,-1286 # 3afa <_pin_read>
    3b50:	dbd8                	sw	a4,52(a5)
    3b52:	00004737          	lui	a4,0x4
    3b56:	ab470713          	addi	a4,a4,-1356 # 3ab4 <_pin_write>
    3b5a:	df98                	sw	a4,56(a5)
    3b5c:	00004737          	lui	a4,0x4
    3b60:	9c870713          	addi	a4,a4,-1592 # 39c8 <_pin_control>
    3b64:	c3ec                	sw	a1,68(a5)
    3b66:	c3b0                	sw	a2,64(a5)
    3b68:	85aa                	mv	a1,a0
    3b6a:	460d                	li	a2,3
    3b6c:	d1818513          	addi	a0,gp,-744 # 200006d8 <_hw_pin>
    3b70:	0207a023          	sw	zero,32(a5)
    3b74:	0207a223          	sw	zero,36(a5)
    3b78:	0207a423          	sw	zero,40(a5)
    3b7c:	0207a623          	sw	zero,44(a5)
    3b80:	0207a823          	sw	zero,48(a5)
    3b84:	dfd8                	sw	a4,60(a5)
    3b86:	ac3fc0ef          	jal	ra,648 <rt_device_register>
    3b8a:	4501                	li	a0,0
    3b8c:	83bfc06f          	j	3c6 <__riscv_restore_0>

00003b90 <rt_heap_begin_get>:
    3b90:	20000537          	lui	a0,0x20000
    3b94:	72050513          	addi	a0,a0,1824 # 20000720 <rt_heap>
    3b98:	8082                	ret

00003b9a <rt_heap_end_get>:
    3b9a:	20008537          	lui	a0,0x20008
    3b9e:	72050513          	addi	a0,a0,1824 # 20008720 <g_sdio_cmd_struct>
    3ba2:	8082                	ret

00003ba4 <rt_hw_board_init>:
    3ba4:	ffefc2ef          	jal	t0,3a2 <__riscv_save_0>
    3ba8:	200007b7          	lui	a5,0x20000
    3bac:	1c47a703          	lw	a4,452(a5) # 200001c4 <SystemCoreClock>
    3bb0:	3e800793          	li	a5,1000
    3bb4:	56c1                	li	a3,-16
    3bb6:	02f75733          	divu	a4,a4,a5
    3bba:	e000e7b7          	lui	a5,0xe000e
    3bbe:	40d78623          	sb	a3,1036(a5) # e000e40c <_eusrstack+0xbfffe40c>
    3bc2:	40d78723          	sb	a3,1038(a5)
    3bc6:	6685                	lui	a3,0x1
    3bc8:	10d7a023          	sw	a3,256(a5)
    3bcc:	6691                	lui	a3,0x4
    3bce:	10d7a023          	sw	a3,256(a5)
    3bd2:	e000f7b7          	lui	a5,0xe000f
    3bd6:	0007a023          	sw	zero,0(a5) # e000f000 <_eusrstack+0xbffff000>
    3bda:	0007a223          	sw	zero,4(a5)
    3bde:	4601                	li	a2,0
    3be0:	c790                	sw	a2,8(a5)
    3be2:	4681                	li	a3,0
    3be4:	c7d4                	sw	a3,12(a5)
    3be6:	4681                	li	a3,0
    3be8:	fff70613          	addi	a2,a4,-1
    3bec:	cb90                	sw	a2,16(a5)
    3bee:	cbd4                	sw	a3,20(a5)
    3bf0:	473d                	li	a4,15
    3bf2:	c398                	sw	a4,0(a5)
    3bf4:	8edfc0ef          	jal	ra,4e0 <rt_components_board_init>
    3bf8:	f99ff0ef          	jal	ra,3b90 <rt_heap_begin_get>
    3bfc:	842a                	mv	s0,a0
    3bfe:	f9dff0ef          	jal	ra,3b9a <rt_heap_end_get>
    3c02:	85aa                	mv	a1,a0
    3c04:	8522                	mv	a0,s0
    3c06:	8f5fd0ef          	jal	ra,14fa <rt_system_heap_init>
    3c0a:	0000d537          	lui	a0,0xd
    3c0e:	3e850513          	addi	a0,a0,1000 # d3e8 <__fsym_pinMode_name+0x20>
    3c12:	eaafd0ef          	jal	ra,12bc <rt_console_set_device>
    3c16:	fb0fc06f          	j	3c6 <__riscv_restore_0>

00003c1a <SysTick_Handler>:
    3c1a:	34011173          	csrrw	sp,mscratch,sp
    3c1e:	810fd0ef          	jal	ra,c2e <rt_interrupt_enter>
    3c22:	e000f7b7          	lui	a5,0xe000f
    3c26:	0007a223          	sw	zero,4(a5) # e000f004 <_eusrstack+0xbffff004>
    3c2a:	857fc0ef          	jal	ra,480 <rt_tick_increase>
    3c2e:	82efd0ef          	jal	ra,c5c <rt_interrupt_leave>
    3c32:	34011173          	csrrw	sp,mscratch,sp
    3c36:	30200073          	mret

00003c3a <delay_us>:
    3c3a:	e000f7b7          	lui	a5,0xe000f
    3c3e:	4741                	li	a4,16
    3c40:	c398                	sw	a4,0(a5)
    3c42:	8dc1d703          	lhu	a4,-1828(gp) # 2000029c <g_fac_us>
    3c46:	4681                	li	a3,0
    3c48:	02a70633          	mul	a2,a4,a0
    3c4c:	cb90                	sw	a2,16(a5)
    3c4e:	cbd4                	sw	a3,20(a5)
    3c50:	4398                	lw	a4,0(a5)
    3c52:	02176713          	ori	a4,a4,33
    3c56:	c398                	sw	a4,0(a5)
    3c58:	43d8                	lw	a4,4(a5)
    3c5a:	8b05                	andi	a4,a4,1
    3c5c:	df75                	beqz	a4,3c58 <delay_us+0x1e>
    3c5e:	43d8                	lw	a4,4(a5)
    3c60:	9b79                	andi	a4,a4,-2
    3c62:	c3d8                	sw	a4,4(a5)
    3c64:	8082                	ret

00003c66 <delay_ms>:
    3c66:	f3cfc2ef          	jal	t0,3a2 <__riscv_save_0>
    3c6a:	3e800413          	li	s0,1000
    3c6e:	028554b3          	divu	s1,a0,s0
    3c72:	000f4937          	lui	s2,0xf4
    3c76:	24090913          	addi	s2,s2,576 # f4240 <__rt_init_end+0xe2f88>
    3c7a:	02857433          	remu	s0,a0,s0
    3c7e:	e891                	bnez	s1,3c92 <delay_ms+0x2c>
    3c80:	c419                	beqz	s0,3c8e <delay_ms+0x28>
    3c82:	3e800513          	li	a0,1000
    3c86:	02a40533          	mul	a0,s0,a0
    3c8a:	fb1ff0ef          	jal	ra,3c3a <delay_us>
    3c8e:	f38fc06f          	j	3c6 <__riscv_restore_0>
    3c92:	854a                	mv	a0,s2
    3c94:	fa7ff0ef          	jal	ra,3c3a <delay_us>
    3c98:	14fd                	addi	s1,s1,-1
    3c9a:	b7d5                	j	3c7e <delay_ms+0x18>

00003c9c <cmd_resp1_error>:
    3c9c:	f06fc2ef          	jal	t0,3a2 <__riscv_save_0>
    3ca0:	84aa                	mv	s1,a0
    3ca2:	40018437          	lui	s0,0x40018
    3ca6:	585c                	lw	a5,52(s0)
    3ca8:	0457f793          	andi	a5,a5,69
    3cac:	dfed                	beqz	a5,3ca6 <cmd_resp1_error+0xa>
    3cae:	4511                	li	a0,4
    3cb0:	37c050ef          	jal	ra,902c <SDIO_GetFlagStatus>
    3cb4:	c519                	beqz	a0,3cc2 <cmd_resp1_error+0x26>
    3cb6:	4511                	li	a0,4
    3cb8:	382050ef          	jal	ra,903a <SDIO_ClearFlag>
    3cbc:	450d                	li	a0,3
    3cbe:	f08fc06f          	j	3c6 <__riscv_restore_0>
    3cc2:	4505                	li	a0,1
    3cc4:	368050ef          	jal	ra,902c <SDIO_GetFlagStatus>
    3cc8:	c511                	beqz	a0,3cd4 <cmd_resp1_error+0x38>
    3cca:	4505                	li	a0,1
    3ccc:	36e050ef          	jal	ra,903a <SDIO_ClearFlag>
    3cd0:	4505                	li	a0,1
    3cd2:	b7f5                	j	3cbe <cmd_resp1_error+0x22>
    3cd4:	481c                	lw	a5,16(s0)
    3cd6:	4541                	li	a0,16
    3cd8:	fe9793e3          	bne	a5,s1,3cbe <cmd_resp1_error+0x22>
    3cdc:	5ff00793          	li	a5,1535
    3ce0:	dc1c                	sw	a5,56(s0)
    3ce2:	4848                	lw	a0,20(s0)
    3ce4:	fdffe7b7          	lui	a5,0xfdffe
    3ce8:	07a1                	addi	a5,a5,8
    3cea:	8d7d                	and	a0,a0,a5
    3cec:	bfc9                	j	3cbe <cmd_resp1_error+0x22>

00003cee <sd_process_irq_src>:
    3cee:	eb4fc2ef          	jal	t0,3a2 <__riscv_save_0>
    3cf2:	40018437          	lui	s0,0x40018
    3cf6:	585c                	lw	a5,52(s0)
    3cf8:	1007f793          	andi	a5,a5,256
    3cfc:	c7b5                	beqz	a5,3d68 <sd_process_irq_src+0x7a>
    3cfe:	8de1c703          	lbu	a4,-1826(gp) # 2000029e <g_stop_condition>
    3d02:	4785                	li	a5,1
    3d04:	8e018413          	addi	s0,gp,-1824 # 200002a0 <g_transfer_error>
    3d08:	04f71d63          	bne	a4,a5,3d62 <sd_process_irq_src+0x74>
    3d0c:	20008537          	lui	a0,0x20008
    3d10:	72050793          	addi	a5,a0,1824 # 20008720 <g_sdio_cmd_struct>
    3d14:	4731                	li	a4,12
    3d16:	c3d8                	sw	a4,4(a5)
    3d18:	04000713          	li	a4,64
    3d1c:	c798                	sw	a4,8(a5)
    3d1e:	72050513          	addi	a0,a0,1824
    3d22:	40000713          	li	a4,1024
    3d26:	0007a023          	sw	zero,0(a5) # fdffe000 <_eusrstack+0xddfee000>
    3d2a:	0007a623          	sw	zero,12(a5)
    3d2e:	cb98                	sw	a4,16(a5)
    3d30:	2da050ef          	jal	ra,900a <SDIO_SendCommand>
    3d34:	4531                	li	a0,12
    3d36:	f67ff0ef          	jal	ra,3c9c <cmd_resp1_error>
    3d3a:	c008                	sw	a0,0(s0)
    3d3c:	400187b7          	lui	a5,0x40018
    3d40:	5f98                	lw	a4,56(a5)
    3d42:	76d1                	lui	a3,0xffff4
    3d44:	cc568693          	addi	a3,a3,-827 # ffff3cc5 <_eusrstack+0xdffe3cc5>
    3d48:	10076713          	ori	a4,a4,256
    3d4c:	df98                	sw	a4,56(a5)
    3d4e:	5fd8                	lw	a4,60(a5)
    3d50:	8f75                	and	a4,a4,a3
    3d52:	dfd8                	sw	a4,60(a5)
    3d54:	4705                	li	a4,1
    3d56:	8ce18fa3          	sb	a4,-1825(gp) # 2000029f <g_transfer_end>
    3d5a:	401c                	lw	a5,0(s0)
    3d5c:	853e                	mv	a0,a5
    3d5e:	e68fc06f          	j	3c6 <__riscv_restore_0>
    3d62:	00042023          	sw	zero,0(s0) # 40018000 <_eusrstack+0x20008000>
    3d66:	bfd9                	j	3d3c <sd_process_irq_src+0x4e>
    3d68:	4509                	li	a0,2
    3d6a:	2c2050ef          	jal	ra,902c <SDIO_GetFlagStatus>
    3d6e:	cd19                	beqz	a0,3d8c <sd_process_irq_src+0x9e>
    3d70:	4509                	li	a0,2
    3d72:	2c8050ef          	jal	ra,903a <SDIO_ClearFlag>
    3d76:	5c5c                	lw	a5,60(s0)
    3d78:	7751                	lui	a4,0xffff4
    3d7a:	cc570713          	addi	a4,a4,-827 # ffff3cc5 <_eusrstack+0xdffe3cc5>
    3d7e:	8ff9                	and	a5,a5,a4
    3d80:	dc5c                	sw	a5,60(s0)
    3d82:	4709                	li	a4,2
    3d84:	8ee1a023          	sw	a4,-1824(gp) # 200002a0 <g_transfer_error>
    3d88:	4789                	li	a5,2
    3d8a:	bfc9                	j	3d5c <sd_process_irq_src+0x6e>
    3d8c:	4521                	li	a0,8
    3d8e:	29e050ef          	jal	ra,902c <SDIO_GetFlagStatus>
    3d92:	cd19                	beqz	a0,3db0 <sd_process_irq_src+0xc2>
    3d94:	4521                	li	a0,8
    3d96:	2a4050ef          	jal	ra,903a <SDIO_ClearFlag>
    3d9a:	5c5c                	lw	a5,60(s0)
    3d9c:	7751                	lui	a4,0xffff4
    3d9e:	cc570713          	addi	a4,a4,-827 # ffff3cc5 <_eusrstack+0xdffe3cc5>
    3da2:	8ff9                	and	a5,a5,a4
    3da4:	dc5c                	sw	a5,60(s0)
    3da6:	4711                	li	a4,4
    3da8:	8ee1a023          	sw	a4,-1824(gp) # 200002a0 <g_transfer_error>
    3dac:	4791                	li	a5,4
    3dae:	b77d                	j	3d5c <sd_process_irq_src+0x6e>
    3db0:	02000513          	li	a0,32
    3db4:	278050ef          	jal	ra,902c <SDIO_GetFlagStatus>
    3db8:	c105                	beqz	a0,3dd8 <sd_process_irq_src+0xea>
    3dba:	02000513          	li	a0,32
    3dbe:	27c050ef          	jal	ra,903a <SDIO_ClearFlag>
    3dc2:	5c5c                	lw	a5,60(s0)
    3dc4:	7751                	lui	a4,0xffff4
    3dc6:	cc570713          	addi	a4,a4,-827 # ffff3cc5 <_eusrstack+0xdffe3cc5>
    3dca:	8ff9                	and	a5,a5,a4
    3dcc:	dc5c                	sw	a5,60(s0)
    3dce:	4719                	li	a4,6
    3dd0:	8ee1a023          	sw	a4,-1824(gp) # 200002a0 <g_transfer_error>
    3dd4:	4799                	li	a5,6
    3dd6:	b759                	j	3d5c <sd_process_irq_src+0x6e>
    3dd8:	4541                	li	a0,16
    3dda:	252050ef          	jal	ra,902c <SDIO_GetFlagStatus>
    3dde:	cd19                	beqz	a0,3dfc <sd_process_irq_src+0x10e>
    3de0:	4541                	li	a0,16
    3de2:	258050ef          	jal	ra,903a <SDIO_ClearFlag>
    3de6:	5c5c                	lw	a5,60(s0)
    3de8:	7751                	lui	a4,0xffff4
    3dea:	cc570713          	addi	a4,a4,-827 # ffff3cc5 <_eusrstack+0xdffe3cc5>
    3dee:	8ff9                	and	a5,a5,a4
    3df0:	dc5c                	sw	a5,60(s0)
    3df2:	4715                	li	a4,5
    3df4:	8ee1a023          	sw	a4,-1824(gp) # 200002a0 <g_transfer_error>
    3df8:	4795                	li	a5,5
    3dfa:	b78d                	j	3d5c <sd_process_irq_src+0x6e>
    3dfc:	20000513          	li	a0,512
    3e00:	22c050ef          	jal	ra,902c <SDIO_GetFlagStatus>
    3e04:	4781                	li	a5,0
    3e06:	d939                	beqz	a0,3d5c <sd_process_irq_src+0x6e>
    3e08:	20000513          	li	a0,512
    3e0c:	22e050ef          	jal	ra,903a <SDIO_ClearFlag>
    3e10:	5c5c                	lw	a5,60(s0)
    3e12:	7751                	lui	a4,0xffff4
    3e14:	cc570713          	addi	a4,a4,-827 # ffff3cc5 <_eusrstack+0xdffe3cc5>
    3e18:	8ff9                	and	a5,a5,a4
    3e1a:	dc5c                	sw	a5,60(s0)
    3e1c:	471d                	li	a4,7
    3e1e:	8ee1a023          	sw	a4,-1824(gp) # 200002a0 <g_transfer_error>
    3e22:	479d                	li	a5,7
    3e24:	bf25                	j	3d5c <sd_process_irq_src+0x6e>

00003e26 <SDIO_IRQHandler>:
    3e26:	ec9ff0ef          	jal	ra,3cee <sd_process_irq_src>
    3e2a:	30200073          	mret

00003e2e <lcd_rd_data>:
    3e2e:	601007b7          	lui	a5,0x60100
    3e32:	17f9                	addi	a5,a5,-2
    3e34:	23be                	lhu	a5,2(a5)
    3e36:	1141                	addi	sp,sp,-16
    3e38:	07c2                	slli	a5,a5,0x10
    3e3a:	83c1                	srli	a5,a5,0x10
    3e3c:	877c                	sh	a5,14(sp)
    3e3e:	8728                	lhu	a0,14(sp)
    3e40:	0141                	addi	sp,sp,16
    3e42:	8082                	ret

00003e44 <lcd_wr_data>:
    3e44:	1141                	addi	sp,sp,-16
    3e46:	8768                	sh	a0,14(sp)
    3e48:	8738                	lhu	a4,14(sp)
    3e4a:	601007b7          	lui	a5,0x60100
    3e4e:	0742                	slli	a4,a4,0x10
    3e50:	8341                	srli	a4,a4,0x10
    3e52:	a39a                	sh	a4,0(a5)
    3e54:	0141                	addi	sp,sp,16
    3e56:	8082                	ret

00003e58 <lcd_wr_regno>:
    3e58:	1141                	addi	sp,sp,-16
    3e5a:	8768                	sh	a0,14(sp)
    3e5c:	873c                	lhu	a5,14(sp)
    3e5e:	60100737          	lui	a4,0x60100
    3e62:	07c2                	slli	a5,a5,0x10
    3e64:	83c1                	srli	a5,a5,0x10
    3e66:	fef71f23          	sh	a5,-2(a4) # 600ffffe <_eusrstack+0x400efffe>
    3e6a:	0141                	addi	sp,sp,16
    3e6c:	8082                	ret

00003e6e <lcd_write_reg>:
    3e6e:	601007b7          	lui	a5,0x60100
    3e72:	fea79f23          	sh	a0,-2(a5) # 600ffffe <_eusrstack+0x400efffe>
    3e76:	a38e                	sh	a1,0(a5)
    3e78:	8082                	ret

00003e7a <lcd_write_ram_prepare>:
    3e7a:	200087b7          	lui	a5,0x20008
    3e7e:	73c7d703          	lhu	a4,1852(a5) # 2000873c <lcddev+0x8>
    3e82:	601007b7          	lui	a5,0x60100
    3e86:	fee79f23          	sh	a4,-2(a5) # 600ffffe <_eusrstack+0x400efffe>
    3e8a:	8082                	ret

00003e8c <lcd_set_cursor>:
    3e8c:	200088b7          	lui	a7,0x20008
    3e90:	73488793          	addi	a5,a7,1844 # 20008734 <lcddev>
    3e94:	0047de03          	lhu	t3,4(a5)
    3e98:	27ba                	lhu	a4,10(a5)
    3e9a:	27d2                	lhu	a2,12(a5)
    3e9c:	6789                	lui	a5,0x2
    3e9e:	96378793          	addi	a5,a5,-1693 # 1963 <rt_object_init+0x41>
    3ea2:	0085d313          	srli	t1,a1,0x8
    3ea6:	73488893          	addi	a7,a7,1844
    3eaa:	0ff5f593          	andi	a1,a1,255
    3eae:	08fe1463          	bne	t3,a5,3f36 <lcd_set_cursor+0xaa>
    3eb2:	0008d803          	lhu	a6,0(a7)
    3eb6:	0068ce83          	lbu	t4,6(a7)
    3eba:	60100e37          	lui	t3,0x60100
    3ebe:	187d                	addi	a6,a6,-1
    3ec0:	01081793          	slli	a5,a6,0x10
    3ec4:	83c1                	srli	a5,a5,0x10
    3ec6:	ffee0693          	addi	a3,t3,-2 # 600ffffe <_eusrstack+0x400efffe>
    3eca:	040e9663          	bnez	t4,3f16 <lcd_set_cursor+0x8a>
    3ece:	8f89                	sub	a5,a5,a0
    3ed0:	feee1f23          	sh	a4,-2(t3)
    3ed4:	07c2                	slli	a5,a5,0x10
    3ed6:	00069123          	sh	zero,2(a3)
    3eda:	83c1                	srli	a5,a5,0x10
    3edc:	00069123          	sh	zero,2(a3)
    3ee0:	0087d713          	srli	a4,a5,0x8
    3ee4:	a2ba                	sh	a4,2(a3)
    3ee6:	0ff7f793          	andi	a5,a5,255
    3eea:	a2be                	sh	a5,2(a3)
    3eec:	601007b7          	lui	a5,0x60100
    3ef0:	fec79f23          	sh	a2,-2(a5) # 600ffffe <_eusrstack+0x400efffe>
    3ef4:	00679023          	sh	t1,0(a5)
    3ef8:	a38e                	sh	a1,0(a5)
    3efa:	ffe78713          	addi	a4,a5,-2
    3efe:	0028d783          	lhu	a5,2(a7)
    3f02:	17fd                	addi	a5,a5,-1
    3f04:	4087d693          	srai	a3,a5,0x8
    3f08:	06c2                	slli	a3,a3,0x10
    3f0a:	82c1                	srli	a3,a3,0x10
    3f0c:	a336                	sh	a3,2(a4)
    3f0e:	0ff7f793          	andi	a5,a5,255
    3f12:	a33e                	sh	a5,2(a4)
    3f14:	8082                	ret
    3f16:	feee1f23          	sh	a4,-2(t3)
    3f1a:	40885813          	srai	a6,a6,0x8
    3f1e:	00855713          	srli	a4,a0,0x8
    3f22:	a2ba                	sh	a4,2(a3)
    3f24:	0ff57513          	andi	a0,a0,255
    3f28:	0842                	slli	a6,a6,0x10
    3f2a:	a2aa                	sh	a0,2(a3)
    3f2c:	01085813          	srli	a6,a6,0x10
    3f30:	01069123          	sh	a6,2(a3)
    3f34:	bf4d                	j	3ee6 <lcd_set_cursor+0x5a>
    3f36:	00855893          	srli	a7,a0,0x8
    3f3a:	0ff57793          	andi	a5,a0,255
    3f3e:	60100537          	lui	a0,0x60100
    3f42:	6815                	lui	a6,0x5
    3f44:	ffe50693          	addi	a3,a0,-2 # 600ffffe <_eusrstack+0x400efffe>
    3f48:	fee51f23          	sh	a4,-2(a0)
    3f4c:	51080813          	addi	a6,a6,1296 # 5510 <lcd_ex_nt35310_reginit+0x7e4>
    3f50:	01169123          	sh	a7,2(a3)
    3f54:	030e1363          	bne	t3,a6,3f7a <lcd_set_cursor+0xee>
    3f58:	0705                	addi	a4,a4,1
    3f5a:	0742                	slli	a4,a4,0x10
    3f5c:	8341                	srli	a4,a4,0x10
    3f5e:	fee51f23          	sh	a4,-2(a0)
    3f62:	a2be                	sh	a5,2(a3)
    3f64:	fec51f23          	sh	a2,-2(a0)
    3f68:	0605                	addi	a2,a2,1
    3f6a:	0642                	slli	a2,a2,0x10
    3f6c:	00669123          	sh	t1,2(a3)
    3f70:	8241                	srli	a2,a2,0x10
    3f72:	fec51f23          	sh	a2,-2(a0)
    3f76:	a2ae                	sh	a1,2(a3)
    3f78:	8082                	ret
    3f7a:	a2be                	sh	a5,2(a3)
    3f7c:	fec51f23          	sh	a2,-2(a0)
    3f80:	00669123          	sh	t1,2(a3)
    3f84:	bfcd                	j	3f76 <lcd_set_cursor+0xea>

00003f86 <lcd_scan_dir>:
    3f86:	20008737          	lui	a4,0x20008
    3f8a:	73470793          	addi	a5,a4,1844 # 20008734 <lcddev>
    3f8e:	23f0                	lbu	a2,6(a5)
    3f90:	23d6                	lhu	a3,4(a5)
    3f92:	4585                	li	a1,1
    3f94:	6789                	lui	a5,0x2
    3f96:	73470713          	addi	a4,a4,1844
    3f9a:	96378793          	addi	a5,a5,-1693 # 1963 <rt_object_init+0x41>
    3f9e:	00b61e63          	bne	a2,a1,3fba <lcd_scan_dir+0x34>
    3fa2:	02f69963          	bne	a3,a5,3fd4 <lcd_scan_dir+0x4e>
    3fa6:	157d                	addi	a0,a0,-1
    3fa8:	0ff57513          	andi	a0,a0,255
    3fac:	4799                	li	a5,6
    3fae:	04a7f463          	bgeu	a5,a0,3ff6 <lcd_scan_dir+0x70>
    3fb2:	03600613          	li	a2,54
    3fb6:	4781                	li	a5,0
    3fb8:	a049                	j	403a <lcd_scan_dir+0xb4>
    3fba:	e61d                	bnez	a2,3fe8 <lcd_scan_dir+0x62>
    3fbc:	02f69663          	bne	a3,a5,3fe8 <lcd_scan_dir+0x62>
    3fc0:	479d                	li	a5,7
    3fc2:	1aa7e163          	bltu	a5,a0,4164 <lcd_scan_dir+0x1de>
    3fc6:	67b5                	lui	a5,0xd
    3fc8:	3f078793          	addi	a5,a5,1008 # d3f0 <__fsym_pinMode_name+0x28>
    3fcc:	050a                	slli	a0,a0,0x2
    3fce:	953e                	add	a0,a0,a5
    3fd0:	411c                	lw	a5,0(a0)
    3fd2:	8782                	jr	a5
    3fd4:	479d                	li	a5,7
    3fd6:	18a7e763          	bltu	a5,a0,4164 <lcd_scan_dir+0x1de>
    3fda:	67b5                	lui	a5,0xd
    3fdc:	41078793          	addi	a5,a5,1040 # d410 <__fsym_pinMode_name+0x48>
    3fe0:	050a                	slli	a0,a0,0x2
    3fe2:	953e                	add	a0,a0,a5
    3fe4:	411c                	lw	a5,0(a0)
    3fe6:	8782                	jr	a5
    3fe8:	157d                	addi	a0,a0,-1
    3fea:	0ff57513          	andi	a0,a0,255
    3fee:	4619                	li	a2,6
    3ff0:	4781                	li	a5,0
    3ff2:	00a66b63          	bltu	a2,a0,4008 <lcd_scan_dir+0x82>
    3ff6:	67b5                	lui	a5,0xd
    3ff8:	43078793          	addi	a5,a5,1072 # d430 <__fsym_pinMode_name+0x68>
    3ffc:	050a                	slli	a0,a0,0x2
    3ffe:	953e                	add	a0,a0,a5
    4000:	411c                	lw	a5,0(a0)
    4002:	8782                	jr	a5
    4004:	0e000793          	li	a5,224
    4008:	6615                	lui	a2,0x5
    400a:	51060613          	addi	a2,a2,1296 # 5510 <lcd_ex_nt35310_reginit+0x7e4>
    400e:	04c68a63          	beq	a3,a2,4062 <lcd_scan_dir+0xdc>
    4012:	6625                	lui	a2,0x9
    4014:	34160613          	addi	a2,a2,833 # 9341 <fmodf+0x3f>
    4018:	00c68d63          	beq	a3,a2,4032 <lcd_scan_dir+0xac>
    401c:	661d                	lui	a2,0x7
    401e:	78960593          	addi	a1,a2,1929 # 7789 <ch32_pin_attach_irq+0x3>
    4022:	00b68863          	beq	a3,a1,4032 <lcd_scan_dir+0xac>
    4026:	79660593          	addi	a1,a2,1942
    402a:	03600613          	li	a2,54
    402e:	00b69663          	bne	a3,a1,403a <lcd_scan_dir+0xb4>
    4032:	0087e793          	ori	a5,a5,8
    4036:	03600613          	li	a2,54
    403a:	601005b7          	lui	a1,0x60100
    403e:	fec59f23          	sh	a2,-2(a1) # 600ffffe <_eusrstack+0x400efffe>
    4042:	6609                	lui	a2,0x2
    4044:	a19e                	sh	a5,0(a1)
    4046:	96360613          	addi	a2,a2,-1693 # 1963 <rt_object_init+0x41>
    404a:	0cc68863          	beq	a3,a2,411a <lcd_scan_dir+0x194>
    404e:	0207f793          	andi	a5,a5,32
    4052:	2312                	lhu	a2,0(a4)
    4054:	232e                	lhu	a1,2(a4)
    4056:	cf99                	beqz	a5,4074 <lcd_scan_dir+0xee>
    4058:	02b67063          	bgeu	a2,a1,4078 <lcd_scan_dir+0xf2>
    405c:	a30e                	sh	a1,0(a4)
    405e:	a332                	sh	a2,2(a4)
    4060:	a821                	j	4078 <lcd_scan_dir+0xf2>
    4062:	660d                	lui	a2,0x3
    4064:	60060613          	addi	a2,a2,1536 # 3600 <rt_serial_open+0x1e>
    4068:	bfc9                	j	403a <lcd_scan_dir+0xb4>
    406a:	03600613          	li	a2,54
    406e:	04000793          	li	a5,64
    4072:	b7e1                	j	403a <lcd_scan_dir+0xb4>
    4074:	fec5e4e3          	bltu	a1,a2,405c <lcd_scan_dir+0xd6>
    4078:	6795                	lui	a5,0x5
    407a:	51078793          	addi	a5,a5,1296 # 5510 <lcd_ex_nt35310_reginit+0x7e4>
    407e:	08f69e63          	bne	a3,a5,411a <lcd_scan_dir+0x194>
    4082:	2732                	lhu	a2,10(a4)
    4084:	601007b7          	lui	a5,0x60100
    4088:	2756                	lhu	a3,12(a4)
    408a:	00160813          	addi	a6,a2,1
    408e:	232e                	lhu	a1,2(a4)
    4090:	230a                	lhu	a0,0(a4)
    4092:	0842                	slli	a6,a6,0x10
    4094:	fec79f23          	sh	a2,-2(a5) # 600ffffe <_eusrstack+0x400efffe>
    4098:	00079023          	sh	zero,0(a5)
    409c:	01085813          	srli	a6,a6,0x10
    40a0:	ff079f23          	sh	a6,-2(a5)
    40a4:	00260813          	addi	a6,a2,2
    40a8:	0842                	slli	a6,a6,0x10
    40aa:	00079023          	sh	zero,0(a5)
    40ae:	01085813          	srli	a6,a6,0x10
    40b2:	157d                	addi	a0,a0,-1
    40b4:	ff079f23          	sh	a6,-2(a5)
    40b8:	40855813          	srai	a6,a0,0x8
    40bc:	0842                	slli	a6,a6,0x10
    40be:	060d                	addi	a2,a2,3
    40c0:	01085813          	srli	a6,a6,0x10
    40c4:	0642                	slli	a2,a2,0x10
    40c6:	01079023          	sh	a6,0(a5)
    40ca:	8241                	srli	a2,a2,0x10
    40cc:	fec79f23          	sh	a2,-2(a5)
    40d0:	0ff57513          	andi	a0,a0,255
    40d4:	a38a                	sh	a0,0(a5)
    40d6:	00168613          	addi	a2,a3,1
    40da:	fed79f23          	sh	a3,-2(a5)
    40de:	0642                	slli	a2,a2,0x10
    40e0:	00079023          	sh	zero,0(a5)
    40e4:	8241                	srli	a2,a2,0x10
    40e6:	fec79f23          	sh	a2,-2(a5)
    40ea:	00268613          	addi	a2,a3,2
    40ee:	0642                	slli	a2,a2,0x10
    40f0:	00079023          	sh	zero,0(a5)
    40f4:	8241                	srli	a2,a2,0x10
    40f6:	fec79f23          	sh	a2,-2(a5)
    40fa:	fff58613          	addi	a2,a1,-1
    40fe:	40865593          	srai	a1,a2,0x8
    4102:	05c2                	slli	a1,a1,0x10
    4104:	068d                	addi	a3,a3,3
    4106:	81c1                	srli	a1,a1,0x10
    4108:	06c2                	slli	a3,a3,0x10
    410a:	a38e                	sh	a1,0(a5)
    410c:	82c1                	srli	a3,a3,0x10
    410e:	fed79f23          	sh	a3,-2(a5)
    4112:	0ff67613          	andi	a2,a2,255
    4116:	a392                	sh	a2,0(a5)
    4118:	8082                	ret
    411a:	2736                	lhu	a3,10(a4)
    411c:	60100637          	lui	a2,0x60100
    4120:	fed61f23          	sh	a3,-2(a2) # 600ffffe <_eusrstack+0x400efffe>
    4124:	00061023          	sh	zero,0(a2)
    4128:	00061023          	sh	zero,0(a2)
    412c:	2316                	lhu	a3,0(a4)
    412e:	16fd                	addi	a3,a3,-1
    4130:	4086d593          	srai	a1,a3,0x8
    4134:	05c2                	slli	a1,a1,0x10
    4136:	81c1                	srli	a1,a1,0x10
    4138:	a20e                	sh	a1,0(a2)
    413a:	0ff6f693          	andi	a3,a3,255
    413e:	a216                	sh	a3,0(a2)
    4140:	2756                	lhu	a3,12(a4)
    4142:	fed61f23          	sh	a3,-2(a2)
    4146:	00061023          	sh	zero,0(a2)
    414a:	00061023          	sh	zero,0(a2)
    414e:	233a                	lhu	a4,2(a4)
    4150:	177d                	addi	a4,a4,-1
    4152:	40875693          	srai	a3,a4,0x8
    4156:	06c2                	slli	a3,a3,0x10
    4158:	82c1                	srli	a3,a3,0x10
    415a:	a216                	sh	a3,0(a2)
    415c:	0ff77713          	andi	a4,a4,255
    4160:	a21a                	sh	a4,0(a2)
    4162:	8082                	ret
    4164:	4781                	li	a5,0
    4166:	b54d                	j	4008 <lcd_scan_dir+0x82>
    4168:	0a000793          	li	a5,160
    416c:	bd71                	j	4008 <lcd_scan_dir+0x82>
    416e:	06000793          	li	a5,96
    4172:	bd59                	j	4008 <lcd_scan_dir+0x82>
    4174:	02000793          	li	a5,32
    4178:	bd41                	j	4008 <lcd_scan_dir+0x82>
    417a:	0c000793          	li	a5,192
    417e:	b569                	j	4008 <lcd_scan_dir+0x82>
    4180:	04000793          	li	a5,64
    4184:	b551                	j	4008 <lcd_scan_dir+0x82>
    4186:	08000793          	li	a5,128
    418a:	bdbd                	j	4008 <lcd_scan_dir+0x82>

0000418c <lcd_draw_point>:
    418c:	a16fc2ef          	jal	t0,3a2 <__riscv_save_0>
    4190:	1141                	addi	sp,sp,-16
    4192:	c632                	sw	a2,12(sp)
    4194:	cf9ff0ef          	jal	ra,3e8c <lcd_set_cursor>
    4198:	ce3ff0ef          	jal	ra,3e7a <lcd_write_ram_prepare>
    419c:	4632                	lw	a2,12(sp)
    419e:	601007b7          	lui	a5,0x60100
    41a2:	0642                	slli	a2,a2,0x10
    41a4:	8241                	srli	a2,a2,0x10
    41a6:	a392                	sh	a2,0(a5)
    41a8:	0141                	addi	sp,sp,16
    41aa:	a1cfc06f          	j	3c6 <__riscv_restore_0>

000041ae <lcd_ssd_backlight_set>:
    41ae:	9f4fc2ef          	jal	t0,3a2 <__riscv_save_0>
    41b2:	601007b7          	lui	a5,0x60100
    41b6:	0be00713          	li	a4,190
    41ba:	ffe78413          	addi	s0,a5,-2 # 600ffffe <_eusrstack+0x400efffe>
    41be:	fee79f23          	sh	a4,-2(a5)
    41c2:	4795                	li	a5,5
    41c4:	a03e                	sh	a5,2(s0)
    41c6:	54a060ef          	jal	ra,a710 <__floatsidf>
    41ca:	000107b7          	lui	a5,0x10
    41ce:	3d07a603          	lw	a2,976(a5) # 103d0 <asc2_3216+0x17c4>
    41d2:	3d47a683          	lw	a3,980(a5)
    41d6:	0e9050ef          	jal	ra,9abe <__muldf3>
    41da:	4da060ef          	jal	ra,a6b4 <__fixunsdfsi>
    41de:	0542                	slli	a0,a0,0x10
    41e0:	8141                	srli	a0,a0,0x10
    41e2:	a02a                	sh	a0,2(s0)
    41e4:	4785                	li	a5,1
    41e6:	a03e                	sh	a5,2(s0)
    41e8:	0ff00793          	li	a5,255
    41ec:	a03e                	sh	a5,2(s0)
    41ee:	00041123          	sh	zero,2(s0)
    41f2:	00041123          	sh	zero,2(s0)
    41f6:	9d0fc06f          	j	3c6 <__riscv_restore_0>

000041fa <lcd_display_dir>:
    41fa:	9a8fc2ef          	jal	t0,3a2 <__riscv_save_0>
    41fe:	200087b7          	lui	a5,0x20008
    4202:	73478693          	addi	a3,a5,1844 # 20008734 <lcddev>
    4206:	a2e8                	sb	a0,6(a3)
    4208:	22da                	lhu	a4,4(a3)
    420a:	73478793          	addi	a5,a5,1844
    420e:	e155                	bnez	a0,42b2 <lcd_display_dir+0xb8>
    4210:	01400637          	lui	a2,0x1400
    4214:	0f060613          	addi	a2,a2,240 # 14000f0 <__rt_init_end+0x13eee38>
    4218:	c290                	sw	a2,0(a3)
    421a:	6615                	lui	a2,0x5
    421c:	51060593          	addi	a1,a2,1296 # 5510 <lcd_ex_nt35310_reginit+0x7e4>
    4220:	02b71563          	bne	a4,a1,424a <lcd_display_dir+0x50>
    4224:	2a0037b7          	lui	a5,0x2a003
    4228:	c0078793          	addi	a5,a5,-1024 # 2a002c00 <_eusrstack+0x9ff2c00>
    422c:	c69c                	sw	a5,8(a3)
    422e:	678d                	lui	a5,0x3
    4230:	b0078793          	addi	a5,a5,-1280 # 2b00 <list_msgqueue+0xb2>
    4234:	a6de                	sh	a5,12(a3)
    4236:	032007b7          	lui	a5,0x3200
    423a:	1e078793          	addi	a5,a5,480 # 32001e0 <__rt_init_end+0x31eef28>
    423e:	c29c                	sw	a5,0(a3)
    4240:	4501                	li	a0,0
    4242:	d45ff0ef          	jal	ra,3f86 <lcd_scan_dir>
    4246:	980fc06f          	j	3c6 <__riscv_restore_0>
    424a:	6689                	lui	a3,0x2
    424c:	96368693          	addi	a3,a3,-1693 # 1963 <rt_object_init+0x41>
    4250:	02d71a63          	bne	a4,a3,4284 <lcd_display_dir+0x8a>
    4254:	002b06b7          	lui	a3,0x2b0
    4258:	02c68693          	addi	a3,a3,44 # 2b002c <__rt_init_end+0x29ed74>
    425c:	c794                	sw	a3,8(a5)
    425e:	02a00693          	li	a3,42
    4262:	a7d6                	sh	a3,12(a5)
    4264:	032006b7          	lui	a3,0x3200
    4268:	1e068693          	addi	a3,a3,480 # 32001e0 <__rt_init_end+0x31eef28>
    426c:	c394                	sw	a3,0(a5)
    426e:	66a9                	lui	a3,0xa
    4270:	80668693          	addi	a3,a3,-2042 # 9806 <__divdf3+0x2fc>
    4274:	fcd716e3          	bne	a4,a3,4240 <lcd_display_dir+0x46>
    4278:	03200737          	lui	a4,0x3200
    427c:	1e070713          	addi	a4,a4,480 # 32001e0 <__rt_init_end+0x31eef28>
    4280:	c398                	sw	a4,0(a5)
    4282:	bf7d                	j	4240 <lcd_display_dir+0x46>
    4284:	002a06b7          	lui	a3,0x2a0
    4288:	02c68693          	addi	a3,a3,44 # 2a002c <__rt_init_end+0x28ed74>
    428c:	c794                	sw	a3,8(a5)
    428e:	02b00693          	li	a3,43
    4292:	a7d6                	sh	a3,12(a5)
    4294:	31060613          	addi	a2,a2,784
    4298:	00c71763          	bne	a4,a2,42a6 <lcd_display_dir+0xac>
    429c:	01e006b7          	lui	a3,0x1e00
    42a0:	14068693          	addi	a3,a3,320 # 1e00140 <__rt_init_end+0x1deee88>
    42a4:	b7e1                	j	426c <lcd_display_dir+0x72>
    42a6:	669d                	lui	a3,0x7
    42a8:	79668693          	addi	a3,a3,1942 # 7796 <ch32_pin_attach_irq+0x10>
    42ac:	fed708e3          	beq	a4,a3,429c <lcd_display_dir+0xa2>
    42b0:	bf7d                	j	426e <lcd_display_dir+0x74>
    42b2:	00f00637          	lui	a2,0xf00
    42b6:	14060613          	addi	a2,a2,320 # f00140 <__rt_init_end+0xeeee88>
    42ba:	c290                	sw	a2,0(a3)
    42bc:	6615                	lui	a2,0x5
    42be:	51060613          	addi	a2,a2,1296 # 5510 <lcd_ex_nt35310_reginit+0x7e4>
    42c2:	02c71063          	bne	a4,a2,42e2 <lcd_display_dir+0xe8>
    42c6:	2a0037b7          	lui	a5,0x2a003
    42ca:	c0078793          	addi	a5,a5,-1024 # 2a002c00 <_eusrstack+0x9ff2c00>
    42ce:	c69c                	sw	a5,8(a3)
    42d0:	678d                	lui	a5,0x3
    42d2:	b0078793          	addi	a5,a5,-1280 # 2b00 <list_msgqueue+0xb2>
    42d6:	a6de                	sh	a5,12(a3)
    42d8:	01e007b7          	lui	a5,0x1e00
    42dc:	32078793          	addi	a5,a5,800 # 1e00320 <__rt_init_end+0x1def068>
    42e0:	bfb9                	j	423e <lcd_display_dir+0x44>
    42e2:	6689                	lui	a3,0x2
    42e4:	96368693          	addi	a3,a3,-1693 # 1963 <rt_object_init+0x41>
    42e8:	00d70763          	beq	a4,a3,42f6 <lcd_display_dir+0xfc>
    42ec:	66a9                	lui	a3,0xa
    42ee:	80668693          	addi	a3,a3,-2042 # 9806 <__divdf3+0x2fc>
    42f2:	02d71c63          	bne	a4,a3,432a <lcd_display_dir+0x130>
    42f6:	002a06b7          	lui	a3,0x2a0
    42fa:	02c68693          	addi	a3,a3,44 # 2a002c <__rt_init_end+0x28ed74>
    42fe:	c794                	sw	a3,8(a5)
    4300:	02b00693          	li	a3,43
    4304:	a7d6                	sh	a3,12(a5)
    4306:	01e006b7          	lui	a3,0x1e00
    430a:	32068693          	addi	a3,a3,800 # 1e00320 <__rt_init_end+0x1def068>
    430e:	c394                	sw	a3,0(a5)
    4310:	6695                	lui	a3,0x5
    4312:	31068693          	addi	a3,a3,784 # 5310 <lcd_ex_nt35310_reginit+0x5e4>
    4316:	00d70763          	beq	a4,a3,4324 <lcd_display_dir+0x12a>
    431a:	669d                	lui	a3,0x7
    431c:	79668693          	addi	a3,a3,1942 # 7796 <ch32_pin_attach_irq+0x10>
    4320:	f2d710e3          	bne	a4,a3,4240 <lcd_display_dir+0x46>
    4324:	01400737          	lui	a4,0x1400
    4328:	bf91                	j	427c <lcd_display_dir+0x82>
    432a:	002a06b7          	lui	a3,0x2a0
    432e:	02c68693          	addi	a3,a3,44 # 2a002c <__rt_init_end+0x28ed74>
    4332:	c794                	sw	a3,8(a5)
    4334:	02b00693          	li	a3,43
    4338:	a7d6                	sh	a3,12(a5)
    433a:	bfd9                	j	4310 <lcd_display_dir+0x116>

0000433c <lcd_clear>:
    433c:	866fc2ef          	jal	t0,3a2 <__riscv_save_0>
    4340:	200087b7          	lui	a5,0x20008
    4344:	73478793          	addi	a5,a5,1844 # 20008734 <lcddev>
    4348:	239a                	lhu	a4,0(a5)
    434a:	23a2                	lhu	s0,2(a5)
    434c:	4581                	li	a1,0
    434e:	84aa                	mv	s1,a0
    4350:	4501                	li	a0,0
    4352:	02e40433          	mul	s0,s0,a4
    4356:	b37ff0ef          	jal	ra,3e8c <lcd_set_cursor>
    435a:	b21ff0ef          	jal	ra,3e7a <lcd_write_ram_prepare>
    435e:	4781                	li	a5,0
    4360:	60100737          	lui	a4,0x60100
    4364:	00879463          	bne	a5,s0,436c <lcd_clear+0x30>
    4368:	85efc06f          	j	3c6 <__riscv_restore_0>
    436c:	a306                	sh	s1,0(a4)
    436e:	0785                	addi	a5,a5,1
    4370:	bfd5                	j	4364 <lcd_clear+0x28>

00004372 <lcd_init>:
    4372:	816fc2ef          	jal	t0,388 <__riscv_save_4>
    4376:	7119                	addi	sp,sp,-128
    4378:	4585                	li	a1,1
    437a:	10000513          	li	a0,256
    437e:	433040ef          	jal	ra,8fb0 <RCC_AHBPeriphClockCmd>
    4382:	4585                	li	a1,1
    4384:	4521                	li	a0,8
    4386:	449040ef          	jal	ra,8fce <RCC_APB2PeriphClockCmd>
    438a:	4585                	li	a1,1
    438c:	02000513          	li	a0,32
    4390:	43f040ef          	jal	ra,8fce <RCC_APB2PeriphClockCmd>
    4394:	4585                	li	a1,1
    4396:	04000513          	li	a0,64
    439a:	435040ef          	jal	ra,8fce <RCC_APB2PeriphClockCmd>
    439e:	77f1                	lui	a5,0xffffc
    43a0:	70378793          	addi	a5,a5,1795 # ffffc703 <_eusrstack+0xdffec703>
    43a4:	40011437          	lui	s0,0x40011
    43a8:	827c                	sh	a5,4(sp)
    43aa:	47e1                	li	a5,24
    43ac:	40040513          	addi	a0,s0,1024 # 40011400 <_eusrstack+0x20001400>
    43b0:	c63e                	sw	a5,12(sp)
    43b2:	004c                	addi	a1,sp,4
    43b4:	478d                	li	a5,3
    43b6:	40012937          	lui	s2,0x40012
    43ba:	c43e                	sw	a5,8(sp)
    43bc:	17b040ef          	jal	ra,8d36 <GPIO_Init>
    43c0:	f8000793          	li	a5,-128
    43c4:	80090513          	addi	a0,s2,-2048 # 40011800 <_eusrstack+0x20001800>
    43c8:	004c                	addi	a1,sp,4
    43ca:	827c                	sh	a5,4(sp)
    43cc:	16b040ef          	jal	ra,8d36 <GPIO_Init>
    43d0:	08000793          	li	a5,128
    43d4:	40040513          	addi	a0,s0,1024
    43d8:	004c                	addi	a1,sp,4
    43da:	827c                	sh	a5,4(sp)
    43dc:	15b040ef          	jal	ra,8d36 <GPIO_Init>
    43e0:	02000793          	li	a5,32
    43e4:	40040513          	addi	a0,s0,1024
    43e8:	004c                	addi	a1,sp,4
    43ea:	827c                	sh	a5,4(sp)
    43ec:	14b040ef          	jal	ra,8d36 <GPIO_Init>
    43f0:	44c1                	li	s1,16
    43f2:	40040513          	addi	a0,s0,1024
    43f6:	004c                	addi	a1,sp,4
    43f8:	8264                	sh	s1,4(sp)
    43fa:	13d040ef          	jal	ra,8d36 <GPIO_Init>
    43fe:	80090513          	addi	a0,s2,-2048
    4402:	004c                	addi	a1,sp,4
    4404:	4aa1                	li	s5,8
    4406:	01511223          	sh	s5,4(sp)
    440a:	12d040ef          	jal	ra,8d36 <GPIO_Init>
    440e:	004c                	addi	a1,sp,4
    4410:	c0040513          	addi	a0,s0,-1024
    4414:	8264                	sh	s1,4(sp)
    4416:	44c1                	li	s1,16
    4418:	c626                	sw	s1,12(sp)
    441a:	11d040ef          	jal	ra,8d36 <GPIO_Init>
    441e:	6785                	lui	a5,0x1
    4420:	d4be                	sw	a5,104(sp)
    4422:	6791                	lui	a5,0x4
    4424:	d8be                	sw	a5,112(sp)
    4426:	081c                	addi	a5,sp,16
    4428:	dcbe                	sw	a5,120(sp)
    442a:	107c                	addi	a5,sp,44
    442c:	debe                	sw	a5,124(sp)
    442e:	47bd                	li	a5,15
    4430:	c83e                	sw	a5,16(sp)
    4432:	03c00793          	li	a5,60
    4436:	cc3e                	sw	a5,24(sp)
    4438:	00a8                	addi	a0,sp,72
    443a:	47a5                	li	a5,9
    443c:	d63e                	sw	a5,44(sp)
    443e:	da3e                	sw	a5,52(sp)
    4440:	caa6                	sw	s1,84(sp)
    4442:	c482                	sw	zero,72(sp)
    4444:	c882                	sw	zero,80(sp)
    4446:	c682                	sw	zero,76(sp)
    4448:	cc82                	sw	zero,88(sp)
    444a:	d082                	sw	zero,96(sp)
    444c:	d282                	sw	zero,100(sp)
    444e:	d682                	sw	zero,108(sp)
    4450:	ce82                	sw	zero,92(sp)
    4452:	da82                	sw	zero,116(sp)
    4454:	ca02                	sw	zero,20(sp)
    4456:	ce02                	sw	zero,28(sp)
    4458:	d002                	sw	zero,32(sp)
    445a:	d202                	sw	zero,36(sp)
    445c:	d402                	sw	zero,40(sp)
    445e:	d802                	sw	zero,48(sp)
    4460:	dc02                	sw	zero,56(sp)
    4462:	de02                	sw	zero,60(sp)
    4464:	c082                	sw	zero,64(sp)
    4466:	c282                	sw	zero,68(sp)
    4468:	007040ef          	jal	ra,8c6e <FSMC_NORSRAMInit>
    446c:	4585                	li	a1,1
    446e:	4501                	li	a0,0
    4470:	0a9040ef          	jal	ra,8d18 <FSMC_NORSRAMCmd>
    4474:	03200513          	li	a0,50
    4478:	0d300a13          	li	s4,211
    447c:	601004b7          	lui	s1,0x60100
    4480:	ca5fd0ef          	jal	ra,2124 <rt_thread_mdelay>
    4484:	20008437          	lui	s0,0x20008
    4488:	ff449f23          	sh	s4,-2(s1) # 600ffffe <_eusrstack+0x400efffe>
    448c:	73440913          	addi	s2,s0,1844 # 20008734 <lcddev>
    4490:	99fff0ef          	jal	ra,3e2e <lcd_rd_data>
    4494:	00a91223          	sh	a0,4(s2)
    4498:	997ff0ef          	jal	ra,3e2e <lcd_rd_data>
    449c:	00a91223          	sh	a0,4(s2)
    44a0:	98fff0ef          	jal	ra,3e2e <lcd_rd_data>
    44a4:	0522                	slli	a0,a0,0x8
    44a6:	00a91223          	sh	a0,4(s2)
    44aa:	985ff0ef          	jal	ra,3e2e <lcd_rd_data>
    44ae:	00495783          	lhu	a5,4(s2)
    44b2:	73440413          	addi	s0,s0,1844
    44b6:	8d5d                	or	a0,a0,a5
    44b8:	0542                	slli	a0,a0,0x10
    44ba:	8141                	srli	a0,a0,0x10
    44bc:	67a5                	lui	a5,0x9
    44be:	00a91223          	sh	a0,4(s2)
    44c2:	34178793          	addi	a5,a5,833 # 9341 <fmodf+0x3f>
    44c6:	18f50363          	beq	a0,a5,464c <lcd_init+0x2da>
    44ca:	4791                	li	a5,4
    44cc:	fef49f23          	sh	a5,-2(s1)
    44d0:	95fff0ef          	jal	ra,3e2e <lcd_rd_data>
    44d4:	a04a                	sh	a0,4(s0)
    44d6:	959ff0ef          	jal	ra,3e2e <lcd_rd_data>
    44da:	a04a                	sh	a0,4(s0)
    44dc:	953ff0ef          	jal	ra,3e2e <lcd_rd_data>
    44e0:	0522                	slli	a0,a0,0x8
    44e2:	a04a                	sh	a0,4(s0)
    44e4:	94bff0ef          	jal	ra,3e2e <lcd_rd_data>
    44e8:	205e                	lhu	a5,4(s0)
    44ea:	8d5d                	or	a0,a0,a5
    44ec:	0542                	slli	a0,a0,0x10
    44ee:	8141                	srli	a0,a0,0x10
    44f0:	67a1                	lui	a5,0x8
    44f2:	a04a                	sh	a0,4(s0)
    44f4:	55278793          	addi	a5,a5,1362 # 8552 <NMI_Handler+0xc>
    44f8:	00f51763          	bne	a0,a5,4506 <lcd_init+0x194>
    44fc:	679d                	lui	a5,0x7
    44fe:	78978793          	addi	a5,a5,1929 # 7789 <ch32_pin_attach_irq+0x3>
    4502:	a05e                	sh	a5,4(s0)
    4504:	a2a1                	j	464c <lcd_init+0x2da>
    4506:	6b1d                	lui	s6,0x7
    4508:	789b0793          	addi	a5,s6,1929 # 7789 <ch32_pin_attach_irq+0x3>
    450c:	14f50063          	beq	a0,a5,464c <lcd_init+0x2da>
    4510:	0d400793          	li	a5,212
    4514:	fef49f23          	sh	a5,-2(s1)
    4518:	917ff0ef          	jal	ra,3e2e <lcd_rd_data>
    451c:	a04a                	sh	a0,4(s0)
    451e:	911ff0ef          	jal	ra,3e2e <lcd_rd_data>
    4522:	a04a                	sh	a0,4(s0)
    4524:	90bff0ef          	jal	ra,3e2e <lcd_rd_data>
    4528:	0522                	slli	a0,a0,0x8
    452a:	a04a                	sh	a0,4(s0)
    452c:	903ff0ef          	jal	ra,3e2e <lcd_rd_data>
    4530:	205e                	lhu	a5,4(s0)
    4532:	6915                	lui	s2,0x5
    4534:	8d5d                	or	a0,a0,a5
    4536:	0542                	slli	a0,a0,0x10
    4538:	8141                	srli	a0,a0,0x10
    453a:	a04a                	sh	a0,4(s0)
    453c:	31090793          	addi	a5,s2,784 # 5310 <lcd_ex_nt35310_reginit+0x5e4>
    4540:	10f50663          	beq	a0,a5,464c <lcd_init+0x2da>
    4544:	ff449f23          	sh	s4,-2(s1)
    4548:	8e7ff0ef          	jal	ra,3e2e <lcd_rd_data>
    454c:	a04a                	sh	a0,4(s0)
    454e:	8e1ff0ef          	jal	ra,3e2e <lcd_rd_data>
    4552:	a04a                	sh	a0,4(s0)
    4554:	8dbff0ef          	jal	ra,3e2e <lcd_rd_data>
    4558:	0522                	slli	a0,a0,0x8
    455a:	a04a                	sh	a0,4(s0)
    455c:	8d3ff0ef          	jal	ra,3e2e <lcd_rd_data>
    4560:	205e                	lhu	a5,4(s0)
    4562:	796b0b13          	addi	s6,s6,1942
    4566:	8d5d                	or	a0,a0,a5
    4568:	0542                	slli	a0,a0,0x10
    456a:	8141                	srli	a0,a0,0x10
    456c:	a04a                	sh	a0,4(s0)
    456e:	0d650f63          	beq	a0,s6,464c <lcd_init+0x2da>
    4572:	77fd                	lui	a5,0xfffff
    4574:	fef49f23          	sh	a5,-2(s1)
    4578:	ffe48993          	addi	s3,s1,-2
    457c:	05500713          	li	a4,85
    4580:	00e99123          	sh	a4,2(s3)
    4584:	00178713          	addi	a4,a5,1 # fffff001 <_eusrstack+0xdffef001>
    4588:	fee49f23          	sh	a4,-2(s1)
    458c:	0aa00713          	li	a4,170
    4590:	00e99123          	sh	a4,2(s3)
    4594:	00278713          	addi	a4,a5,2
    4598:	fee49f23          	sh	a4,-2(s1)
    459c:	05200713          	li	a4,82
    45a0:	00e99123          	sh	a4,2(s3)
    45a4:	00378713          	addi	a4,a5,3
    45a8:	fee49f23          	sh	a4,-2(s1)
    45ac:	01599123          	sh	s5,2(s3)
    45b0:	0791                	addi	a5,a5,4
    45b2:	fef49f23          	sh	a5,-2(s1)
    45b6:	4785                	li	a5,1
    45b8:	00f99123          	sh	a5,2(s3)
    45bc:	69b1                	lui	s3,0xc
    45be:	50098793          	addi	a5,s3,1280 # c500 <__FUNCTION__.2479+0x1c>
    45c2:	fef49f23          	sh	a5,-2(s1)
    45c6:	869ff0ef          	jal	ra,3e2e <lcd_rd_data>
    45ca:	0522                	slli	a0,a0,0x8
    45cc:	a04a                	sh	a0,4(s0)
    45ce:	50198993          	addi	s3,s3,1281
    45d2:	ff349f23          	sh	s3,-2(s1)
    45d6:	859ff0ef          	jal	ra,3e2e <lcd_rd_data>
    45da:	205e                	lhu	a5,4(s0)
    45dc:	8d5d                	or	a0,a0,a5
    45de:	a04a                	sh	a0,4(s0)
    45e0:	4515                	li	a0,5
    45e2:	b43fd0ef          	jal	ra,2124 <rt_thread_mdelay>
    45e6:	205a                	lhu	a4,4(s0)
    45e8:	51090793          	addi	a5,s2,1296
    45ec:	06f70063          	beq	a4,a5,464c <lcd_init+0x2da>
    45f0:	ff449f23          	sh	s4,-2(s1)
    45f4:	83bff0ef          	jal	ra,3e2e <lcd_rd_data>
    45f8:	a04a                	sh	a0,4(s0)
    45fa:	835ff0ef          	jal	ra,3e2e <lcd_rd_data>
    45fe:	a04a                	sh	a0,4(s0)
    4600:	82fff0ef          	jal	ra,3e2e <lcd_rd_data>
    4604:	0522                	slli	a0,a0,0x8
    4606:	a04a                	sh	a0,4(s0)
    4608:	827ff0ef          	jal	ra,3e2e <lcd_rd_data>
    460c:	205e                	lhu	a5,4(s0)
    460e:	8d5d                	or	a0,a0,a5
    4610:	0542                	slli	a0,a0,0x10
    4612:	8141                	srli	a0,a0,0x10
    4614:	67a9                	lui	a5,0xa
    4616:	a04a                	sh	a0,4(s0)
    4618:	80678793          	addi	a5,a5,-2042 # 9806 <__divdf3+0x2fc>
    461c:	02f50863          	beq	a0,a5,464c <lcd_init+0x2da>
    4620:	0a100793          	li	a5,161
    4624:	fef49f23          	sh	a5,-2(s1)
    4628:	807ff0ef          	jal	ra,3e2e <lcd_rd_data>
    462c:	a04a                	sh	a0,4(s0)
    462e:	801ff0ef          	jal	ra,3e2e <lcd_rd_data>
    4632:	0522                	slli	a0,a0,0x8
    4634:	a04a                	sh	a0,4(s0)
    4636:	ff8ff0ef          	jal	ra,3e2e <lcd_rd_data>
    463a:	205e                	lhu	a5,4(s0)
    463c:	76190913          	addi	s2,s2,1889
    4640:	8d5d                	or	a0,a0,a5
    4642:	0542                	slli	a0,a0,0x10
    4644:	8141                	srli	a0,a0,0x10
    4646:	05250463          	beq	a0,s2,468e <lcd_init+0x31c>
    464a:	a04a                	sh	a0,4(s0)
    464c:	205e                	lhu	a5,4(s0)
    464e:	669d                	lui	a3,0x7
    4650:	78968713          	addi	a4,a3,1929 # 7789 <ch32_pin_attach_irq+0x3>
    4654:	04e79163          	bne	a5,a4,4696 <lcd_init+0x324>
    4658:	24b1                	jal	48a4 <lcd_ex_st7789_reginit>
    465a:	205e                	lhu	a5,4(s0)
    465c:	671d                	lui	a4,0x7
    465e:	78970693          	addi	a3,a4,1929 # 7789 <ch32_pin_attach_irq+0x3>
    4662:	08d79b63          	bne	a5,a3,46f8 <lcd_init+0x386>
    4666:	478d                	li	a5,3
    4668:	d63e                	sw	a5,44(sp)
    466a:	da3e                	sw	a5,52(sp)
    466c:	4501                	li	a0,0
    466e:	b8dff0ef          	jal	ra,41fa <lcd_display_dir>
    4672:	40011537          	lui	a0,0x40011
    4676:	45c1                	li	a1,16
    4678:	c0050513          	addi	a0,a0,-1024 # 40010c00 <_eusrstack+0x20000c00>
    467c:	784040ef          	jal	ra,8e00 <GPIO_SetBits>
    4680:	6541                	lui	a0,0x10
    4682:	157d                	addi	a0,a0,-1
    4684:	cb9ff0ef          	jal	ra,433c <lcd_clear>
    4688:	6109                	addi	sp,sp,128
    468a:	d33fb06f          	j	3bc <__riscv_restore_4>
    468e:	6789                	lui	a5,0x2
    4690:	96378793          	addi	a5,a5,-1693 # 1963 <rt_object_init+0x41>
    4694:	b5bd                	j	4502 <lcd_init+0x190>
    4696:	6725                	lui	a4,0x9
    4698:	34170713          	addi	a4,a4,833 # 9341 <fmodf+0x3f>
    469c:	00e79463          	bne	a5,a4,46a4 <lcd_init+0x332>
    46a0:	2ee5                	jal	4a98 <lcd_ex_ili9341_reginit>
    46a2:	bf65                	j	465a <lcd_init+0x2e8>
    46a4:	6715                	lui	a4,0x5
    46a6:	31070613          	addi	a2,a4,784 # 5310 <lcd_ex_nt35310_reginit+0x5e4>
    46aa:	00c79563          	bne	a5,a2,46b4 <lcd_init+0x342>
    46ae:	67e000ef          	jal	ra,4d2c <lcd_ex_nt35310_reginit>
    46b2:	b765                	j	465a <lcd_init+0x2e8>
    46b4:	79668693          	addi	a3,a3,1942
    46b8:	00d79563          	bne	a5,a3,46c2 <lcd_init+0x350>
    46bc:	778010ef          	jal	ra,5e34 <lcd_ex_st7796_reginit>
    46c0:	bf69                	j	465a <lcd_init+0x2e8>
    46c2:	51070713          	addi	a4,a4,1296
    46c6:	00e79563          	bne	a5,a4,46d0 <lcd_init+0x35e>
    46ca:	19b010ef          	jal	ra,6064 <lcd_ex_nt35510_reginit>
    46ce:	b771                	j	465a <lcd_init+0x2e8>
    46d0:	6729                	lui	a4,0xa
    46d2:	80670713          	addi	a4,a4,-2042 # 9806 <__divdf3+0x2fc>
    46d6:	00e79563          	bne	a5,a4,46e0 <lcd_init+0x36e>
    46da:	1e5020ef          	jal	ra,70be <lcd_ex_ili9806_reginit>
    46de:	bfb5                	j	465a <lcd_init+0x2e8>
    46e0:	6709                	lui	a4,0x2
    46e2:	96370713          	addi	a4,a4,-1693 # 1963 <rt_object_init+0x41>
    46e6:	f6e79ae3          	bne	a5,a4,465a <lcd_init+0x2e8>
    46ea:	599020ef          	jal	ra,7482 <lcd_ex_ssd1963_reginit>
    46ee:	06400513          	li	a0,100
    46f2:	abdff0ef          	jal	ra,41ae <lcd_ssd_backlight_set>
    46f6:	b795                	j	465a <lcd_init+0x2e8>
    46f8:	66a9                	lui	a3,0xa
    46fa:	80668693          	addi	a3,a3,-2042 # 9806 <__divdf3+0x2fc>
    46fe:	00d78c63          	beq	a5,a3,4716 <lcd_init+0x3a4>
    4702:	66a5                	lui	a3,0x9
    4704:	34168693          	addi	a3,a3,833 # 9341 <fmodf+0x3f>
    4708:	00d78763          	beq	a5,a3,4716 <lcd_init+0x3a4>
    470c:	6695                	lui	a3,0x5
    470e:	51068613          	addi	a2,a3,1296 # 5510 <lcd_ex_nt35310_reginit+0x7e4>
    4712:	00c79463          	bne	a5,a2,471a <lcd_init+0x3a8>
    4716:	4789                	li	a5,2
    4718:	bf81                	j	4668 <lcd_init+0x2f6>
    471a:	31068693          	addi	a3,a3,784
    471e:	00d78b63          	beq	a5,a3,4734 <lcd_init+0x3c2>
    4722:	79670713          	addi	a4,a4,1942
    4726:	00e78763          	beq	a5,a4,4734 <lcd_init+0x3c2>
    472a:	6709                	lui	a4,0x2
    472c:	96370713          	addi	a4,a4,-1693 # 1963 <rt_object_init+0x41>
    4730:	f2e79ee3          	bne	a5,a4,466c <lcd_init+0x2fa>
    4734:	4785                	li	a5,1
    4736:	bf0d                	j	4668 <lcd_init+0x2f6>

00004738 <lcd_show_char>:
    4738:	c3bfb2ef          	jal	t0,372 <__riscv_save_12>
    473c:	0076f493          	andi	s1,a3,7
    4740:	8a3e                	mv	s4,a5
    4742:	009034b3          	snez	s1,s1
    4746:	0036d793          	srli	a5,a3,0x3
    474a:	94be                	add	s1,s1,a5
    474c:	0016d793          	srli	a5,a3,0x1
    4750:	02f484b3          	mul	s1,s1,a5
    4754:	fe060413          	addi	s0,a2,-32
    4758:	0462                	slli	s0,s0,0x18
    475a:	47c1                	li	a5,16
    475c:	8b2a                	mv	s6,a0
    475e:	8bae                	mv	s7,a1
    4760:	8ab6                	mv	s5,a3
    4762:	89ba                	mv	s3,a4
    4764:	8461                	srai	s0,s0,0x18
    4766:	0ff4f493          	andi	s1,s1,255
    476a:	0af68563          	beq	a3,a5,4814 <lcd_show_char+0xdc>
    476e:	00d7e763          	bltu	a5,a3,477c <lcd_show_char+0x44>
    4772:	47b1                	li	a5,12
    4774:	02f68063          	beq	a3,a5,4794 <lcd_show_char+0x5c>
    4778:	c37fb06f          	j	3ae <__riscv_restore_12>
    477c:	47e1                	li	a5,24
    477e:	0af68063          	beq	a3,a5,481e <lcd_show_char+0xe6>
    4782:	02000793          	li	a5,32
    4786:	fef699e3          	bne	a3,a5,4778 <lcd_show_char+0x40>
    478a:	663d                	lui	a2,0xf
    478c:	041a                	slli	s0,s0,0x6
    478e:	c0c60613          	addi	a2,a2,-1012 # ec0c <asc2_3216>
    4792:	a031                	j	479e <lcd_show_char+0x66>
    4794:	02d40433          	mul	s0,s0,a3
    4798:	6635                	lui	a2,0xd
    479a:	44c60613          	addi	a2,a2,1100 # d44c <asc2_1206>
    479e:	9432                	add	s0,s0,a2
    47a0:	20008cb7          	lui	s9,0x20008
    47a4:	94a2                	add	s1,s1,s0
    47a6:	895e                	mv	s2,s7
    47a8:	20000d37          	lui	s10,0x20000
    47ac:	734c8c93          	addi	s9,s9,1844 # 20008734 <lcddev>
    47b0:	fc8484e3          	beq	s1,s0,4778 <lcd_show_char+0x40>
    47b4:	00890c13          	addi	s8,s2,8
    47b8:	00044d83          	lbu	s11,0(s0)
    47bc:	0c42                	slli	s8,s8,0x10
    47be:	010c5c13          	srli	s8,s8,0x10
    47c2:	018d9793          	slli	a5,s11,0x18
    47c6:	87e1                	srai	a5,a5,0x18
    47c8:	8652                	mv	a2,s4
    47ca:	0007c663          	bltz	a5,47d6 <lcd_show_char+0x9e>
    47ce:	00099863          	bnez	s3,47de <lcd_show_char+0xa6>
    47d2:	1c0d2603          	lw	a2,448(s10) # 200001c0 <g_back_color>
    47d6:	85ca                	mv	a1,s2
    47d8:	855a                	mv	a0,s6
    47da:	9b3ff0ef          	jal	ra,418c <lcd_draw_point>
    47de:	0905                	addi	s2,s2,1
    47e0:	002cd783          	lhu	a5,2(s9)
    47e4:	0942                	slli	s2,s2,0x10
    47e6:	0d86                	slli	s11,s11,0x1
    47e8:	01095913          	srli	s2,s2,0x10
    47ec:	0ffdfd93          	andi	s11,s11,255
    47f0:	f8f974e3          	bgeu	s2,a5,4778 <lcd_show_char+0x40>
    47f4:	417907b3          	sub	a5,s2,s7
    47f8:	02fa9b63          	bne	s5,a5,482e <lcd_show_char+0xf6>
    47fc:	0b05                	addi	s6,s6,1
    47fe:	000cd783          	lhu	a5,0(s9)
    4802:	0b42                	slli	s6,s6,0x10
    4804:	010b5b13          	srli	s6,s6,0x10
    4808:	f6fb78e3          	bgeu	s6,a5,4778 <lcd_show_char+0x40>
    480c:	8c5e                	mv	s8,s7
    480e:	0405                	addi	s0,s0,1
    4810:	8962                	mv	s2,s8
    4812:	bf79                	j	47b0 <lcd_show_char+0x78>
    4814:	6639                	lui	a2,0xe
    4816:	0412                	slli	s0,s0,0x4
    4818:	8c060613          	addi	a2,a2,-1856 # d8c0 <asc2_1608>
    481c:	b749                	j	479e <lcd_show_char+0x66>
    481e:	02400613          	li	a2,36
    4822:	02c40433          	mul	s0,s0,a2
    4826:	6639                	lui	a2,0xe
    4828:	eb060613          	addi	a2,a2,-336 # deb0 <asc2_2412>
    482c:	bf8d                	j	479e <lcd_show_char+0x66>
    482e:	f9891ae3          	bne	s2,s8,47c2 <lcd_show_char+0x8a>
    4832:	bff1                	j	480e <lcd_show_char+0xd6>

00004834 <lcd_show_string>:
    4834:	b47fb2ef          	jal	t0,37a <__riscv_save_10>
    4838:	962a                	add	a2,a2,a0
    483a:	96ae                	add	a3,a3,a1
    483c:	01061993          	slli	s3,a2,0x10
    4840:	01069a13          	slli	s4,a3,0x10
    4844:	1141                	addi	sp,sp,-16
    4846:	84ae                	mv	s1,a1
    4848:	893e                	mv	s2,a5
    484a:	0109d993          	srli	s3,s3,0x10
    484e:	010a5a13          	srli	s4,s4,0x10
    4852:	8aba                	mv	s5,a4
    4854:	00175b93          	srli	s7,a4,0x1
    4858:	842a                	mv	s0,a0
    485a:	05e00b13          	li	s6,94
    485e:	0ff57c13          	andi	s8,a0,255
    4862:	00090603          	lb	a2,0(s2)
    4866:	fe060793          	addi	a5,a2,-32
    486a:	0ff7f793          	andi	a5,a5,255
    486e:	00fb7563          	bgeu	s6,a5,4878 <lcd_show_string+0x44>
    4872:	0141                	addi	sp,sp,16
    4874:	b3ffb06f          	j	3b2 <__riscv_restore_10>
    4878:	01346663          	bltu	s0,s3,4884 <lcd_show_string+0x50>
    487c:	94d6                	add	s1,s1,s5
    487e:	04c2                	slli	s1,s1,0x10
    4880:	8462                	mv	s0,s8
    4882:	80c1                	srli	s1,s1,0x10
    4884:	ff44f7e3          	bgeu	s1,s4,4872 <lcd_show_string+0x3e>
    4888:	87c2                	mv	a5,a6
    488a:	8522                	mv	a0,s0
    488c:	4701                	li	a4,0
    488e:	86d6                	mv	a3,s5
    4890:	85a6                	mv	a1,s1
    4892:	945e                	add	s0,s0,s7
    4894:	c642                	sw	a6,12(sp)
    4896:	0442                	slli	s0,s0,0x10
    4898:	ea1ff0ef          	jal	ra,4738 <lcd_show_char>
    489c:	8041                	srli	s0,s0,0x10
    489e:	0905                	addi	s2,s2,1
    48a0:	4832                	lw	a6,12(sp)
    48a2:	b7c1                	j	4862 <lcd_show_string+0x2e>

000048a4 <lcd_ex_st7789_reginit>:
    48a4:	afffb2ef          	jal	t0,3a2 <__riscv_save_0>
    48a8:	4545                	li	a0,17
    48aa:	daeff0ef          	jal	ra,3e58 <lcd_wr_regno>
    48ae:	07800513          	li	a0,120
    48b2:	bb4ff0ef          	jal	ra,3c66 <delay_ms>
    48b6:	03600513          	li	a0,54
    48ba:	d9eff0ef          	jal	ra,3e58 <lcd_wr_regno>
    48be:	4501                	li	a0,0
    48c0:	d84ff0ef          	jal	ra,3e44 <lcd_wr_data>
    48c4:	03a00513          	li	a0,58
    48c8:	d90ff0ef          	jal	ra,3e58 <lcd_wr_regno>
    48cc:	4515                	li	a0,5
    48ce:	d76ff0ef          	jal	ra,3e44 <lcd_wr_data>
    48d2:	0b200513          	li	a0,178
    48d6:	d82ff0ef          	jal	ra,3e58 <lcd_wr_regno>
    48da:	4531                	li	a0,12
    48dc:	d68ff0ef          	jal	ra,3e44 <lcd_wr_data>
    48e0:	4531                	li	a0,12
    48e2:	d62ff0ef          	jal	ra,3e44 <lcd_wr_data>
    48e6:	4501                	li	a0,0
    48e8:	d5cff0ef          	jal	ra,3e44 <lcd_wr_data>
    48ec:	03300513          	li	a0,51
    48f0:	d54ff0ef          	jal	ra,3e44 <lcd_wr_data>
    48f4:	03300513          	li	a0,51
    48f8:	d4cff0ef          	jal	ra,3e44 <lcd_wr_data>
    48fc:	0b700513          	li	a0,183
    4900:	d58ff0ef          	jal	ra,3e58 <lcd_wr_regno>
    4904:	03500513          	li	a0,53
    4908:	d3cff0ef          	jal	ra,3e44 <lcd_wr_data>
    490c:	0bb00513          	li	a0,187
    4910:	d48ff0ef          	jal	ra,3e58 <lcd_wr_regno>
    4914:	03200513          	li	a0,50
    4918:	d2cff0ef          	jal	ra,3e44 <lcd_wr_data>
    491c:	0c000513          	li	a0,192
    4920:	d38ff0ef          	jal	ra,3e58 <lcd_wr_regno>
    4924:	4531                	li	a0,12
    4926:	d1eff0ef          	jal	ra,3e44 <lcd_wr_data>
    492a:	0c200513          	li	a0,194
    492e:	d2aff0ef          	jal	ra,3e58 <lcd_wr_regno>
    4932:	4505                	li	a0,1
    4934:	d10ff0ef          	jal	ra,3e44 <lcd_wr_data>
    4938:	0c300513          	li	a0,195
    493c:	d1cff0ef          	jal	ra,3e58 <lcd_wr_regno>
    4940:	4541                	li	a0,16
    4942:	d02ff0ef          	jal	ra,3e44 <lcd_wr_data>
    4946:	0c400513          	li	a0,196
    494a:	d0eff0ef          	jal	ra,3e58 <lcd_wr_regno>
    494e:	02000513          	li	a0,32
    4952:	cf2ff0ef          	jal	ra,3e44 <lcd_wr_data>
    4956:	0c600513          	li	a0,198
    495a:	cfeff0ef          	jal	ra,3e58 <lcd_wr_regno>
    495e:	453d                	li	a0,15
    4960:	ce4ff0ef          	jal	ra,3e44 <lcd_wr_data>
    4964:	0d000513          	li	a0,208
    4968:	cf0ff0ef          	jal	ra,3e58 <lcd_wr_regno>
    496c:	0a400513          	li	a0,164
    4970:	cd4ff0ef          	jal	ra,3e44 <lcd_wr_data>
    4974:	0a100513          	li	a0,161
    4978:	cccff0ef          	jal	ra,3e44 <lcd_wr_data>
    497c:	0e000513          	li	a0,224
    4980:	cd8ff0ef          	jal	ra,3e58 <lcd_wr_regno>
    4984:	0d000513          	li	a0,208
    4988:	cbcff0ef          	jal	ra,3e44 <lcd_wr_data>
    498c:	4501                	li	a0,0
    498e:	cb6ff0ef          	jal	ra,3e44 <lcd_wr_data>
    4992:	4509                	li	a0,2
    4994:	cb0ff0ef          	jal	ra,3e44 <lcd_wr_data>
    4998:	451d                	li	a0,7
    499a:	caaff0ef          	jal	ra,3e44 <lcd_wr_data>
    499e:	4529                	li	a0,10
    49a0:	ca4ff0ef          	jal	ra,3e44 <lcd_wr_data>
    49a4:	02800513          	li	a0,40
    49a8:	c9cff0ef          	jal	ra,3e44 <lcd_wr_data>
    49ac:	03200513          	li	a0,50
    49b0:	c94ff0ef          	jal	ra,3e44 <lcd_wr_data>
    49b4:	04400513          	li	a0,68
    49b8:	c8cff0ef          	jal	ra,3e44 <lcd_wr_data>
    49bc:	04200513          	li	a0,66
    49c0:	c84ff0ef          	jal	ra,3e44 <lcd_wr_data>
    49c4:	4519                	li	a0,6
    49c6:	c7eff0ef          	jal	ra,3e44 <lcd_wr_data>
    49ca:	4539                	li	a0,14
    49cc:	c78ff0ef          	jal	ra,3e44 <lcd_wr_data>
    49d0:	4549                	li	a0,18
    49d2:	c72ff0ef          	jal	ra,3e44 <lcd_wr_data>
    49d6:	4551                	li	a0,20
    49d8:	c6cff0ef          	jal	ra,3e44 <lcd_wr_data>
    49dc:	455d                	li	a0,23
    49de:	c66ff0ef          	jal	ra,3e44 <lcd_wr_data>
    49e2:	0e100513          	li	a0,225
    49e6:	c72ff0ef          	jal	ra,3e58 <lcd_wr_regno>
    49ea:	0d000513          	li	a0,208
    49ee:	c56ff0ef          	jal	ra,3e44 <lcd_wr_data>
    49f2:	4501                	li	a0,0
    49f4:	c50ff0ef          	jal	ra,3e44 <lcd_wr_data>
    49f8:	4509                	li	a0,2
    49fa:	c4aff0ef          	jal	ra,3e44 <lcd_wr_data>
    49fe:	451d                	li	a0,7
    4a00:	c44ff0ef          	jal	ra,3e44 <lcd_wr_data>
    4a04:	4529                	li	a0,10
    4a06:	c3eff0ef          	jal	ra,3e44 <lcd_wr_data>
    4a0a:	02800513          	li	a0,40
    4a0e:	c36ff0ef          	jal	ra,3e44 <lcd_wr_data>
    4a12:	03100513          	li	a0,49
    4a16:	c2eff0ef          	jal	ra,3e44 <lcd_wr_data>
    4a1a:	05400513          	li	a0,84
    4a1e:	c26ff0ef          	jal	ra,3e44 <lcd_wr_data>
    4a22:	04700513          	li	a0,71
    4a26:	c1eff0ef          	jal	ra,3e44 <lcd_wr_data>
    4a2a:	4539                	li	a0,14
    4a2c:	c18ff0ef          	jal	ra,3e44 <lcd_wr_data>
    4a30:	4571                	li	a0,28
    4a32:	c12ff0ef          	jal	ra,3e44 <lcd_wr_data>
    4a36:	455d                	li	a0,23
    4a38:	c0cff0ef          	jal	ra,3e44 <lcd_wr_data>
    4a3c:	456d                	li	a0,27
    4a3e:	c06ff0ef          	jal	ra,3e44 <lcd_wr_data>
    4a42:	4579                	li	a0,30
    4a44:	c00ff0ef          	jal	ra,3e44 <lcd_wr_data>
    4a48:	02a00513          	li	a0,42
    4a4c:	c0cff0ef          	jal	ra,3e58 <lcd_wr_regno>
    4a50:	4501                	li	a0,0
    4a52:	bf2ff0ef          	jal	ra,3e44 <lcd_wr_data>
    4a56:	4501                	li	a0,0
    4a58:	becff0ef          	jal	ra,3e44 <lcd_wr_data>
    4a5c:	4501                	li	a0,0
    4a5e:	be6ff0ef          	jal	ra,3e44 <lcd_wr_data>
    4a62:	0ef00513          	li	a0,239
    4a66:	bdeff0ef          	jal	ra,3e44 <lcd_wr_data>
    4a6a:	02b00513          	li	a0,43
    4a6e:	beaff0ef          	jal	ra,3e58 <lcd_wr_regno>
    4a72:	4501                	li	a0,0
    4a74:	bd0ff0ef          	jal	ra,3e44 <lcd_wr_data>
    4a78:	4501                	li	a0,0
    4a7a:	bcaff0ef          	jal	ra,3e44 <lcd_wr_data>
    4a7e:	4505                	li	a0,1
    4a80:	bc4ff0ef          	jal	ra,3e44 <lcd_wr_data>
    4a84:	03f00513          	li	a0,63
    4a88:	bbcff0ef          	jal	ra,3e44 <lcd_wr_data>
    4a8c:	02900513          	li	a0,41
    4a90:	bc8ff0ef          	jal	ra,3e58 <lcd_wr_regno>
    4a94:	933fb06f          	j	3c6 <__riscv_restore_0>

00004a98 <lcd_ex_ili9341_reginit>:
    4a98:	90bfb2ef          	jal	t0,3a2 <__riscv_save_0>
    4a9c:	0cf00513          	li	a0,207
    4aa0:	bb8ff0ef          	jal	ra,3e58 <lcd_wr_regno>
    4aa4:	4501                	li	a0,0
    4aa6:	b9eff0ef          	jal	ra,3e44 <lcd_wr_data>
    4aaa:	0c100513          	li	a0,193
    4aae:	b96ff0ef          	jal	ra,3e44 <lcd_wr_data>
    4ab2:	03000513          	li	a0,48
    4ab6:	b8eff0ef          	jal	ra,3e44 <lcd_wr_data>
    4aba:	0ed00513          	li	a0,237
    4abe:	b9aff0ef          	jal	ra,3e58 <lcd_wr_regno>
    4ac2:	06400513          	li	a0,100
    4ac6:	b7eff0ef          	jal	ra,3e44 <lcd_wr_data>
    4aca:	450d                	li	a0,3
    4acc:	b78ff0ef          	jal	ra,3e44 <lcd_wr_data>
    4ad0:	4549                	li	a0,18
    4ad2:	b72ff0ef          	jal	ra,3e44 <lcd_wr_data>
    4ad6:	08100513          	li	a0,129
    4ada:	b6aff0ef          	jal	ra,3e44 <lcd_wr_data>
    4ade:	0e800513          	li	a0,232
    4ae2:	b76ff0ef          	jal	ra,3e58 <lcd_wr_regno>
    4ae6:	08500513          	li	a0,133
    4aea:	b5aff0ef          	jal	ra,3e44 <lcd_wr_data>
    4aee:	4541                	li	a0,16
    4af0:	b54ff0ef          	jal	ra,3e44 <lcd_wr_data>
    4af4:	07a00513          	li	a0,122
    4af8:	b4cff0ef          	jal	ra,3e44 <lcd_wr_data>
    4afc:	0cb00513          	li	a0,203
    4b00:	b58ff0ef          	jal	ra,3e58 <lcd_wr_regno>
    4b04:	03900513          	li	a0,57
    4b08:	b3cff0ef          	jal	ra,3e44 <lcd_wr_data>
    4b0c:	02c00513          	li	a0,44
    4b10:	b34ff0ef          	jal	ra,3e44 <lcd_wr_data>
    4b14:	4501                	li	a0,0
    4b16:	b2eff0ef          	jal	ra,3e44 <lcd_wr_data>
    4b1a:	03400513          	li	a0,52
    4b1e:	b26ff0ef          	jal	ra,3e44 <lcd_wr_data>
    4b22:	4509                	li	a0,2
    4b24:	b20ff0ef          	jal	ra,3e44 <lcd_wr_data>
    4b28:	0f700513          	li	a0,247
    4b2c:	b2cff0ef          	jal	ra,3e58 <lcd_wr_regno>
    4b30:	02000513          	li	a0,32
    4b34:	b10ff0ef          	jal	ra,3e44 <lcd_wr_data>
    4b38:	0ea00513          	li	a0,234
    4b3c:	b1cff0ef          	jal	ra,3e58 <lcd_wr_regno>
    4b40:	4501                	li	a0,0
    4b42:	b02ff0ef          	jal	ra,3e44 <lcd_wr_data>
    4b46:	4501                	li	a0,0
    4b48:	afcff0ef          	jal	ra,3e44 <lcd_wr_data>
    4b4c:	0c000513          	li	a0,192
    4b50:	b08ff0ef          	jal	ra,3e58 <lcd_wr_regno>
    4b54:	456d                	li	a0,27
    4b56:	aeeff0ef          	jal	ra,3e44 <lcd_wr_data>
    4b5a:	0c100513          	li	a0,193
    4b5e:	afaff0ef          	jal	ra,3e58 <lcd_wr_regno>
    4b62:	4505                	li	a0,1
    4b64:	ae0ff0ef          	jal	ra,3e44 <lcd_wr_data>
    4b68:	0c500513          	li	a0,197
    4b6c:	aecff0ef          	jal	ra,3e58 <lcd_wr_regno>
    4b70:	03000513          	li	a0,48
    4b74:	ad0ff0ef          	jal	ra,3e44 <lcd_wr_data>
    4b78:	03000513          	li	a0,48
    4b7c:	ac8ff0ef          	jal	ra,3e44 <lcd_wr_data>
    4b80:	0c700513          	li	a0,199
    4b84:	ad4ff0ef          	jal	ra,3e58 <lcd_wr_regno>
    4b88:	0b700513          	li	a0,183
    4b8c:	ab8ff0ef          	jal	ra,3e44 <lcd_wr_data>
    4b90:	03600513          	li	a0,54
    4b94:	ac4ff0ef          	jal	ra,3e58 <lcd_wr_regno>
    4b98:	04800513          	li	a0,72
    4b9c:	aa8ff0ef          	jal	ra,3e44 <lcd_wr_data>
    4ba0:	03a00513          	li	a0,58
    4ba4:	ab4ff0ef          	jal	ra,3e58 <lcd_wr_regno>
    4ba8:	05500513          	li	a0,85
    4bac:	a98ff0ef          	jal	ra,3e44 <lcd_wr_data>
    4bb0:	0b100513          	li	a0,177
    4bb4:	aa4ff0ef          	jal	ra,3e58 <lcd_wr_regno>
    4bb8:	4501                	li	a0,0
    4bba:	a8aff0ef          	jal	ra,3e44 <lcd_wr_data>
    4bbe:	4569                	li	a0,26
    4bc0:	a84ff0ef          	jal	ra,3e44 <lcd_wr_data>
    4bc4:	0b600513          	li	a0,182
    4bc8:	a90ff0ef          	jal	ra,3e58 <lcd_wr_regno>
    4bcc:	4529                	li	a0,10
    4bce:	a76ff0ef          	jal	ra,3e44 <lcd_wr_data>
    4bd2:	0a200513          	li	a0,162
    4bd6:	a6eff0ef          	jal	ra,3e44 <lcd_wr_data>
    4bda:	0f200513          	li	a0,242
    4bde:	a7aff0ef          	jal	ra,3e58 <lcd_wr_regno>
    4be2:	4501                	li	a0,0
    4be4:	a60ff0ef          	jal	ra,3e44 <lcd_wr_data>
    4be8:	02600513          	li	a0,38
    4bec:	a6cff0ef          	jal	ra,3e58 <lcd_wr_regno>
    4bf0:	4505                	li	a0,1
    4bf2:	a52ff0ef          	jal	ra,3e44 <lcd_wr_data>
    4bf6:	0e000513          	li	a0,224
    4bfa:	a5eff0ef          	jal	ra,3e58 <lcd_wr_regno>
    4bfe:	453d                	li	a0,15
    4c00:	a44ff0ef          	jal	ra,3e44 <lcd_wr_data>
    4c04:	02a00513          	li	a0,42
    4c08:	a3cff0ef          	jal	ra,3e44 <lcd_wr_data>
    4c0c:	02800513          	li	a0,40
    4c10:	a34ff0ef          	jal	ra,3e44 <lcd_wr_data>
    4c14:	4521                	li	a0,8
    4c16:	a2eff0ef          	jal	ra,3e44 <lcd_wr_data>
    4c1a:	4539                	li	a0,14
    4c1c:	a28ff0ef          	jal	ra,3e44 <lcd_wr_data>
    4c20:	4521                	li	a0,8
    4c22:	a22ff0ef          	jal	ra,3e44 <lcd_wr_data>
    4c26:	05400513          	li	a0,84
    4c2a:	a1aff0ef          	jal	ra,3e44 <lcd_wr_data>
    4c2e:	0a900513          	li	a0,169
    4c32:	a12ff0ef          	jal	ra,3e44 <lcd_wr_data>
    4c36:	04300513          	li	a0,67
    4c3a:	a0aff0ef          	jal	ra,3e44 <lcd_wr_data>
    4c3e:	4529                	li	a0,10
    4c40:	a04ff0ef          	jal	ra,3e44 <lcd_wr_data>
    4c44:	453d                	li	a0,15
    4c46:	9feff0ef          	jal	ra,3e44 <lcd_wr_data>
    4c4a:	4501                	li	a0,0
    4c4c:	9f8ff0ef          	jal	ra,3e44 <lcd_wr_data>
    4c50:	4501                	li	a0,0
    4c52:	9f2ff0ef          	jal	ra,3e44 <lcd_wr_data>
    4c56:	4501                	li	a0,0
    4c58:	9ecff0ef          	jal	ra,3e44 <lcd_wr_data>
    4c5c:	4501                	li	a0,0
    4c5e:	9e6ff0ef          	jal	ra,3e44 <lcd_wr_data>
    4c62:	0e100513          	li	a0,225
    4c66:	9f2ff0ef          	jal	ra,3e58 <lcd_wr_regno>
    4c6a:	4501                	li	a0,0
    4c6c:	9d8ff0ef          	jal	ra,3e44 <lcd_wr_data>
    4c70:	4555                	li	a0,21
    4c72:	9d2ff0ef          	jal	ra,3e44 <lcd_wr_data>
    4c76:	455d                	li	a0,23
    4c78:	9ccff0ef          	jal	ra,3e44 <lcd_wr_data>
    4c7c:	451d                	li	a0,7
    4c7e:	9c6ff0ef          	jal	ra,3e44 <lcd_wr_data>
    4c82:	4545                	li	a0,17
    4c84:	9c0ff0ef          	jal	ra,3e44 <lcd_wr_data>
    4c88:	4519                	li	a0,6
    4c8a:	9baff0ef          	jal	ra,3e44 <lcd_wr_data>
    4c8e:	02b00513          	li	a0,43
    4c92:	9b2ff0ef          	jal	ra,3e44 <lcd_wr_data>
    4c96:	05600513          	li	a0,86
    4c9a:	9aaff0ef          	jal	ra,3e44 <lcd_wr_data>
    4c9e:	03c00513          	li	a0,60
    4ca2:	9a2ff0ef          	jal	ra,3e44 <lcd_wr_data>
    4ca6:	4515                	li	a0,5
    4ca8:	99cff0ef          	jal	ra,3e44 <lcd_wr_data>
    4cac:	4541                	li	a0,16
    4cae:	996ff0ef          	jal	ra,3e44 <lcd_wr_data>
    4cb2:	453d                	li	a0,15
    4cb4:	990ff0ef          	jal	ra,3e44 <lcd_wr_data>
    4cb8:	03f00513          	li	a0,63
    4cbc:	988ff0ef          	jal	ra,3e44 <lcd_wr_data>
    4cc0:	03f00513          	li	a0,63
    4cc4:	980ff0ef          	jal	ra,3e44 <lcd_wr_data>
    4cc8:	453d                	li	a0,15
    4cca:	97aff0ef          	jal	ra,3e44 <lcd_wr_data>
    4cce:	02b00513          	li	a0,43
    4cd2:	986ff0ef          	jal	ra,3e58 <lcd_wr_regno>
    4cd6:	4501                	li	a0,0
    4cd8:	96cff0ef          	jal	ra,3e44 <lcd_wr_data>
    4cdc:	4501                	li	a0,0
    4cde:	966ff0ef          	jal	ra,3e44 <lcd_wr_data>
    4ce2:	4505                	li	a0,1
    4ce4:	960ff0ef          	jal	ra,3e44 <lcd_wr_data>
    4ce8:	03f00513          	li	a0,63
    4cec:	958ff0ef          	jal	ra,3e44 <lcd_wr_data>
    4cf0:	02a00513          	li	a0,42
    4cf4:	964ff0ef          	jal	ra,3e58 <lcd_wr_regno>
    4cf8:	4501                	li	a0,0
    4cfa:	94aff0ef          	jal	ra,3e44 <lcd_wr_data>
    4cfe:	4501                	li	a0,0
    4d00:	944ff0ef          	jal	ra,3e44 <lcd_wr_data>
    4d04:	4501                	li	a0,0
    4d06:	93eff0ef          	jal	ra,3e44 <lcd_wr_data>
    4d0a:	0ef00513          	li	a0,239
    4d0e:	936ff0ef          	jal	ra,3e44 <lcd_wr_data>
    4d12:	4545                	li	a0,17
    4d14:	944ff0ef          	jal	ra,3e58 <lcd_wr_regno>
    4d18:	07800513          	li	a0,120
    4d1c:	f4bfe0ef          	jal	ra,3c66 <delay_ms>
    4d20:	02900513          	li	a0,41
    4d24:	934ff0ef          	jal	ra,3e58 <lcd_wr_regno>
    4d28:	e9efb06f          	j	3c6 <__riscv_restore_0>

00004d2c <lcd_ex_nt35310_reginit>:
    4d2c:	e76fb2ef          	jal	t0,3a2 <__riscv_save_0>
    4d30:	0ed00513          	li	a0,237
    4d34:	924ff0ef          	jal	ra,3e58 <lcd_wr_regno>
    4d38:	4505                	li	a0,1
    4d3a:	90aff0ef          	jal	ra,3e44 <lcd_wr_data>
    4d3e:	0fe00513          	li	a0,254
    4d42:	902ff0ef          	jal	ra,3e44 <lcd_wr_data>
    4d46:	0ee00513          	li	a0,238
    4d4a:	90eff0ef          	jal	ra,3e58 <lcd_wr_regno>
    4d4e:	0de00513          	li	a0,222
    4d52:	8f2ff0ef          	jal	ra,3e44 <lcd_wr_data>
    4d56:	02100513          	li	a0,33
    4d5a:	8eaff0ef          	jal	ra,3e44 <lcd_wr_data>
    4d5e:	0f100513          	li	a0,241
    4d62:	8f6ff0ef          	jal	ra,3e58 <lcd_wr_regno>
    4d66:	4505                	li	a0,1
    4d68:	8dcff0ef          	jal	ra,3e44 <lcd_wr_data>
    4d6c:	0df00513          	li	a0,223
    4d70:	8e8ff0ef          	jal	ra,3e58 <lcd_wr_regno>
    4d74:	4541                	li	a0,16
    4d76:	8ceff0ef          	jal	ra,3e44 <lcd_wr_data>
    4d7a:	0c400513          	li	a0,196
    4d7e:	8daff0ef          	jal	ra,3e58 <lcd_wr_regno>
    4d82:	08f00513          	li	a0,143
    4d86:	8beff0ef          	jal	ra,3e44 <lcd_wr_data>
    4d8a:	0c600513          	li	a0,198
    4d8e:	8caff0ef          	jal	ra,3e58 <lcd_wr_regno>
    4d92:	4501                	li	a0,0
    4d94:	8b0ff0ef          	jal	ra,3e44 <lcd_wr_data>
    4d98:	0e200513          	li	a0,226
    4d9c:	8a8ff0ef          	jal	ra,3e44 <lcd_wr_data>
    4da0:	0e200513          	li	a0,226
    4da4:	8a0ff0ef          	jal	ra,3e44 <lcd_wr_data>
    4da8:	0e200513          	li	a0,226
    4dac:	898ff0ef          	jal	ra,3e44 <lcd_wr_data>
    4db0:	0bf00513          	li	a0,191
    4db4:	8a4ff0ef          	jal	ra,3e58 <lcd_wr_regno>
    4db8:	0aa00513          	li	a0,170
    4dbc:	888ff0ef          	jal	ra,3e44 <lcd_wr_data>
    4dc0:	0b000513          	li	a0,176
    4dc4:	894ff0ef          	jal	ra,3e58 <lcd_wr_regno>
    4dc8:	4535                	li	a0,13
    4dca:	87aff0ef          	jal	ra,3e44 <lcd_wr_data>
    4dce:	4501                	li	a0,0
    4dd0:	874ff0ef          	jal	ra,3e44 <lcd_wr_data>
    4dd4:	4535                	li	a0,13
    4dd6:	86eff0ef          	jal	ra,3e44 <lcd_wr_data>
    4dda:	4501                	li	a0,0
    4ddc:	868ff0ef          	jal	ra,3e44 <lcd_wr_data>
    4de0:	4545                	li	a0,17
    4de2:	862ff0ef          	jal	ra,3e44 <lcd_wr_data>
    4de6:	4501                	li	a0,0
    4de8:	85cff0ef          	jal	ra,3e44 <lcd_wr_data>
    4dec:	4565                	li	a0,25
    4dee:	856ff0ef          	jal	ra,3e44 <lcd_wr_data>
    4df2:	4501                	li	a0,0
    4df4:	850ff0ef          	jal	ra,3e44 <lcd_wr_data>
    4df8:	02100513          	li	a0,33
    4dfc:	848ff0ef          	jal	ra,3e44 <lcd_wr_data>
    4e00:	4501                	li	a0,0
    4e02:	842ff0ef          	jal	ra,3e44 <lcd_wr_data>
    4e06:	02d00513          	li	a0,45
    4e0a:	83aff0ef          	jal	ra,3e44 <lcd_wr_data>
    4e0e:	4501                	li	a0,0
    4e10:	834ff0ef          	jal	ra,3e44 <lcd_wr_data>
    4e14:	03d00513          	li	a0,61
    4e18:	82cff0ef          	jal	ra,3e44 <lcd_wr_data>
    4e1c:	4501                	li	a0,0
    4e1e:	826ff0ef          	jal	ra,3e44 <lcd_wr_data>
    4e22:	05d00513          	li	a0,93
    4e26:	81eff0ef          	jal	ra,3e44 <lcd_wr_data>
    4e2a:	4501                	li	a0,0
    4e2c:	818ff0ef          	jal	ra,3e44 <lcd_wr_data>
    4e30:	05d00513          	li	a0,93
    4e34:	810ff0ef          	jal	ra,3e44 <lcd_wr_data>
    4e38:	4501                	li	a0,0
    4e3a:	80aff0ef          	jal	ra,3e44 <lcd_wr_data>
    4e3e:	0b100513          	li	a0,177
    4e42:	816ff0ef          	jal	ra,3e58 <lcd_wr_regno>
    4e46:	08000513          	li	a0,128
    4e4a:	ffbfe0ef          	jal	ra,3e44 <lcd_wr_data>
    4e4e:	4501                	li	a0,0
    4e50:	ff5fe0ef          	jal	ra,3e44 <lcd_wr_data>
    4e54:	08b00513          	li	a0,139
    4e58:	fedfe0ef          	jal	ra,3e44 <lcd_wr_data>
    4e5c:	4501                	li	a0,0
    4e5e:	fe7fe0ef          	jal	ra,3e44 <lcd_wr_data>
    4e62:	09600513          	li	a0,150
    4e66:	fdffe0ef          	jal	ra,3e44 <lcd_wr_data>
    4e6a:	4501                	li	a0,0
    4e6c:	fd9fe0ef          	jal	ra,3e44 <lcd_wr_data>
    4e70:	0b200513          	li	a0,178
    4e74:	fe5fe0ef          	jal	ra,3e58 <lcd_wr_regno>
    4e78:	4501                	li	a0,0
    4e7a:	fcbfe0ef          	jal	ra,3e44 <lcd_wr_data>
    4e7e:	4501                	li	a0,0
    4e80:	fc5fe0ef          	jal	ra,3e44 <lcd_wr_data>
    4e84:	4509                	li	a0,2
    4e86:	fbffe0ef          	jal	ra,3e44 <lcd_wr_data>
    4e8a:	4501                	li	a0,0
    4e8c:	fb9fe0ef          	jal	ra,3e44 <lcd_wr_data>
    4e90:	450d                	li	a0,3
    4e92:	fb3fe0ef          	jal	ra,3e44 <lcd_wr_data>
    4e96:	4501                	li	a0,0
    4e98:	fadfe0ef          	jal	ra,3e44 <lcd_wr_data>
    4e9c:	0b300513          	li	a0,179
    4ea0:	fb9fe0ef          	jal	ra,3e58 <lcd_wr_regno>
    4ea4:	4501                	li	a0,0
    4ea6:	f9ffe0ef          	jal	ra,3e44 <lcd_wr_data>
    4eaa:	4501                	li	a0,0
    4eac:	f99fe0ef          	jal	ra,3e44 <lcd_wr_data>
    4eb0:	4501                	li	a0,0
    4eb2:	f93fe0ef          	jal	ra,3e44 <lcd_wr_data>
    4eb6:	4501                	li	a0,0
    4eb8:	f8dfe0ef          	jal	ra,3e44 <lcd_wr_data>
    4ebc:	4501                	li	a0,0
    4ebe:	f87fe0ef          	jal	ra,3e44 <lcd_wr_data>
    4ec2:	4501                	li	a0,0
    4ec4:	f81fe0ef          	jal	ra,3e44 <lcd_wr_data>
    4ec8:	4501                	li	a0,0
    4eca:	f7bfe0ef          	jal	ra,3e44 <lcd_wr_data>
    4ece:	4501                	li	a0,0
    4ed0:	f75fe0ef          	jal	ra,3e44 <lcd_wr_data>
    4ed4:	4501                	li	a0,0
    4ed6:	f6ffe0ef          	jal	ra,3e44 <lcd_wr_data>
    4eda:	4501                	li	a0,0
    4edc:	f69fe0ef          	jal	ra,3e44 <lcd_wr_data>
    4ee0:	4501                	li	a0,0
    4ee2:	f63fe0ef          	jal	ra,3e44 <lcd_wr_data>
    4ee6:	4501                	li	a0,0
    4ee8:	f5dfe0ef          	jal	ra,3e44 <lcd_wr_data>
    4eec:	4501                	li	a0,0
    4eee:	f57fe0ef          	jal	ra,3e44 <lcd_wr_data>
    4ef2:	4501                	li	a0,0
    4ef4:	f51fe0ef          	jal	ra,3e44 <lcd_wr_data>
    4ef8:	4501                	li	a0,0
    4efa:	f4bfe0ef          	jal	ra,3e44 <lcd_wr_data>
    4efe:	4501                	li	a0,0
    4f00:	f45fe0ef          	jal	ra,3e44 <lcd_wr_data>
    4f04:	4501                	li	a0,0
    4f06:	f3ffe0ef          	jal	ra,3e44 <lcd_wr_data>
    4f0a:	4501                	li	a0,0
    4f0c:	f39fe0ef          	jal	ra,3e44 <lcd_wr_data>
    4f10:	4501                	li	a0,0
    4f12:	f33fe0ef          	jal	ra,3e44 <lcd_wr_data>
    4f16:	4501                	li	a0,0
    4f18:	f2dfe0ef          	jal	ra,3e44 <lcd_wr_data>
    4f1c:	4501                	li	a0,0
    4f1e:	f27fe0ef          	jal	ra,3e44 <lcd_wr_data>
    4f22:	4501                	li	a0,0
    4f24:	f21fe0ef          	jal	ra,3e44 <lcd_wr_data>
    4f28:	4501                	li	a0,0
    4f2a:	f1bfe0ef          	jal	ra,3e44 <lcd_wr_data>
    4f2e:	4501                	li	a0,0
    4f30:	f15fe0ef          	jal	ra,3e44 <lcd_wr_data>
    4f34:	0b400513          	li	a0,180
    4f38:	f21fe0ef          	jal	ra,3e58 <lcd_wr_regno>
    4f3c:	08b00513          	li	a0,139
    4f40:	f05fe0ef          	jal	ra,3e44 <lcd_wr_data>
    4f44:	4501                	li	a0,0
    4f46:	efffe0ef          	jal	ra,3e44 <lcd_wr_data>
    4f4a:	09600513          	li	a0,150
    4f4e:	ef7fe0ef          	jal	ra,3e44 <lcd_wr_data>
    4f52:	4501                	li	a0,0
    4f54:	ef1fe0ef          	jal	ra,3e44 <lcd_wr_data>
    4f58:	0a100513          	li	a0,161
    4f5c:	ee9fe0ef          	jal	ra,3e44 <lcd_wr_data>
    4f60:	4501                	li	a0,0
    4f62:	ee3fe0ef          	jal	ra,3e44 <lcd_wr_data>
    4f66:	0b500513          	li	a0,181
    4f6a:	eeffe0ef          	jal	ra,3e58 <lcd_wr_regno>
    4f6e:	4509                	li	a0,2
    4f70:	ed5fe0ef          	jal	ra,3e44 <lcd_wr_data>
    4f74:	4501                	li	a0,0
    4f76:	ecffe0ef          	jal	ra,3e44 <lcd_wr_data>
    4f7a:	450d                	li	a0,3
    4f7c:	ec9fe0ef          	jal	ra,3e44 <lcd_wr_data>
    4f80:	4501                	li	a0,0
    4f82:	ec3fe0ef          	jal	ra,3e44 <lcd_wr_data>
    4f86:	4511                	li	a0,4
    4f88:	ebdfe0ef          	jal	ra,3e44 <lcd_wr_data>
    4f8c:	4501                	li	a0,0
    4f8e:	eb7fe0ef          	jal	ra,3e44 <lcd_wr_data>
    4f92:	0b600513          	li	a0,182
    4f96:	ec3fe0ef          	jal	ra,3e58 <lcd_wr_regno>
    4f9a:	4501                	li	a0,0
    4f9c:	ea9fe0ef          	jal	ra,3e44 <lcd_wr_data>
    4fa0:	4501                	li	a0,0
    4fa2:	ea3fe0ef          	jal	ra,3e44 <lcd_wr_data>
    4fa6:	0b700513          	li	a0,183
    4faa:	eaffe0ef          	jal	ra,3e58 <lcd_wr_regno>
    4fae:	4501                	li	a0,0
    4fb0:	e95fe0ef          	jal	ra,3e44 <lcd_wr_data>
    4fb4:	4501                	li	a0,0
    4fb6:	e8ffe0ef          	jal	ra,3e44 <lcd_wr_data>
    4fba:	03f00513          	li	a0,63
    4fbe:	e87fe0ef          	jal	ra,3e44 <lcd_wr_data>
    4fc2:	4501                	li	a0,0
    4fc4:	e81fe0ef          	jal	ra,3e44 <lcd_wr_data>
    4fc8:	05e00513          	li	a0,94
    4fcc:	e79fe0ef          	jal	ra,3e44 <lcd_wr_data>
    4fd0:	4501                	li	a0,0
    4fd2:	e73fe0ef          	jal	ra,3e44 <lcd_wr_data>
    4fd6:	06400513          	li	a0,100
    4fda:	e6bfe0ef          	jal	ra,3e44 <lcd_wr_data>
    4fde:	4501                	li	a0,0
    4fe0:	e65fe0ef          	jal	ra,3e44 <lcd_wr_data>
    4fe4:	08c00513          	li	a0,140
    4fe8:	e5dfe0ef          	jal	ra,3e44 <lcd_wr_data>
    4fec:	4501                	li	a0,0
    4fee:	e57fe0ef          	jal	ra,3e44 <lcd_wr_data>
    4ff2:	0ac00513          	li	a0,172
    4ff6:	e4ffe0ef          	jal	ra,3e44 <lcd_wr_data>
    4ffa:	4501                	li	a0,0
    4ffc:	e49fe0ef          	jal	ra,3e44 <lcd_wr_data>
    5000:	0dc00513          	li	a0,220
    5004:	e41fe0ef          	jal	ra,3e44 <lcd_wr_data>
    5008:	4501                	li	a0,0
    500a:	e3bfe0ef          	jal	ra,3e44 <lcd_wr_data>
    500e:	07000513          	li	a0,112
    5012:	e33fe0ef          	jal	ra,3e44 <lcd_wr_data>
    5016:	4501                	li	a0,0
    5018:	e2dfe0ef          	jal	ra,3e44 <lcd_wr_data>
    501c:	09000513          	li	a0,144
    5020:	e25fe0ef          	jal	ra,3e44 <lcd_wr_data>
    5024:	4501                	li	a0,0
    5026:	e1ffe0ef          	jal	ra,3e44 <lcd_wr_data>
    502a:	0eb00513          	li	a0,235
    502e:	e17fe0ef          	jal	ra,3e44 <lcd_wr_data>
    5032:	4501                	li	a0,0
    5034:	e11fe0ef          	jal	ra,3e44 <lcd_wr_data>
    5038:	0dc00513          	li	a0,220
    503c:	e09fe0ef          	jal	ra,3e44 <lcd_wr_data>
    5040:	4501                	li	a0,0
    5042:	e03fe0ef          	jal	ra,3e44 <lcd_wr_data>
    5046:	0b800513          	li	a0,184
    504a:	e0ffe0ef          	jal	ra,3e58 <lcd_wr_regno>
    504e:	4501                	li	a0,0
    5050:	df5fe0ef          	jal	ra,3e44 <lcd_wr_data>
    5054:	4501                	li	a0,0
    5056:	deffe0ef          	jal	ra,3e44 <lcd_wr_data>
    505a:	4501                	li	a0,0
    505c:	de9fe0ef          	jal	ra,3e44 <lcd_wr_data>
    5060:	4501                	li	a0,0
    5062:	de3fe0ef          	jal	ra,3e44 <lcd_wr_data>
    5066:	4501                	li	a0,0
    5068:	dddfe0ef          	jal	ra,3e44 <lcd_wr_data>
    506c:	4501                	li	a0,0
    506e:	dd7fe0ef          	jal	ra,3e44 <lcd_wr_data>
    5072:	4501                	li	a0,0
    5074:	dd1fe0ef          	jal	ra,3e44 <lcd_wr_data>
    5078:	4501                	li	a0,0
    507a:	dcbfe0ef          	jal	ra,3e44 <lcd_wr_data>
    507e:	0ba00513          	li	a0,186
    5082:	dd7fe0ef          	jal	ra,3e58 <lcd_wr_regno>
    5086:	02400513          	li	a0,36
    508a:	dbbfe0ef          	jal	ra,3e44 <lcd_wr_data>
    508e:	4501                	li	a0,0
    5090:	db5fe0ef          	jal	ra,3e44 <lcd_wr_data>
    5094:	4501                	li	a0,0
    5096:	daffe0ef          	jal	ra,3e44 <lcd_wr_data>
    509a:	4501                	li	a0,0
    509c:	da9fe0ef          	jal	ra,3e44 <lcd_wr_data>
    50a0:	0c100513          	li	a0,193
    50a4:	db5fe0ef          	jal	ra,3e58 <lcd_wr_regno>
    50a8:	02000513          	li	a0,32
    50ac:	d99fe0ef          	jal	ra,3e44 <lcd_wr_data>
    50b0:	4501                	li	a0,0
    50b2:	d93fe0ef          	jal	ra,3e44 <lcd_wr_data>
    50b6:	05400513          	li	a0,84
    50ba:	d8bfe0ef          	jal	ra,3e44 <lcd_wr_data>
    50be:	4501                	li	a0,0
    50c0:	d85fe0ef          	jal	ra,3e44 <lcd_wr_data>
    50c4:	0ff00513          	li	a0,255
    50c8:	d7dfe0ef          	jal	ra,3e44 <lcd_wr_data>
    50cc:	4501                	li	a0,0
    50ce:	d77fe0ef          	jal	ra,3e44 <lcd_wr_data>
    50d2:	0c200513          	li	a0,194
    50d6:	d83fe0ef          	jal	ra,3e58 <lcd_wr_regno>
    50da:	4529                	li	a0,10
    50dc:	d69fe0ef          	jal	ra,3e44 <lcd_wr_data>
    50e0:	4501                	li	a0,0
    50e2:	d63fe0ef          	jal	ra,3e44 <lcd_wr_data>
    50e6:	4511                	li	a0,4
    50e8:	d5dfe0ef          	jal	ra,3e44 <lcd_wr_data>
    50ec:	4501                	li	a0,0
    50ee:	d57fe0ef          	jal	ra,3e44 <lcd_wr_data>
    50f2:	0c300513          	li	a0,195
    50f6:	d63fe0ef          	jal	ra,3e58 <lcd_wr_regno>
    50fa:	03c00513          	li	a0,60
    50fe:	d47fe0ef          	jal	ra,3e44 <lcd_wr_data>
    5102:	4501                	li	a0,0
    5104:	d41fe0ef          	jal	ra,3e44 <lcd_wr_data>
    5108:	03a00513          	li	a0,58
    510c:	d39fe0ef          	jal	ra,3e44 <lcd_wr_data>
    5110:	4501                	li	a0,0
    5112:	d33fe0ef          	jal	ra,3e44 <lcd_wr_data>
    5116:	03900513          	li	a0,57
    511a:	d2bfe0ef          	jal	ra,3e44 <lcd_wr_data>
    511e:	4501                	li	a0,0
    5120:	d25fe0ef          	jal	ra,3e44 <lcd_wr_data>
    5124:	03700513          	li	a0,55
    5128:	d1dfe0ef          	jal	ra,3e44 <lcd_wr_data>
    512c:	4501                	li	a0,0
    512e:	d17fe0ef          	jal	ra,3e44 <lcd_wr_data>
    5132:	03c00513          	li	a0,60
    5136:	d0ffe0ef          	jal	ra,3e44 <lcd_wr_data>
    513a:	4501                	li	a0,0
    513c:	d09fe0ef          	jal	ra,3e44 <lcd_wr_data>
    5140:	03600513          	li	a0,54
    5144:	d01fe0ef          	jal	ra,3e44 <lcd_wr_data>
    5148:	4501                	li	a0,0
    514a:	cfbfe0ef          	jal	ra,3e44 <lcd_wr_data>
    514e:	03200513          	li	a0,50
    5152:	cf3fe0ef          	jal	ra,3e44 <lcd_wr_data>
    5156:	4501                	li	a0,0
    5158:	cedfe0ef          	jal	ra,3e44 <lcd_wr_data>
    515c:	02f00513          	li	a0,47
    5160:	ce5fe0ef          	jal	ra,3e44 <lcd_wr_data>
    5164:	4501                	li	a0,0
    5166:	cdffe0ef          	jal	ra,3e44 <lcd_wr_data>
    516a:	02c00513          	li	a0,44
    516e:	cd7fe0ef          	jal	ra,3e44 <lcd_wr_data>
    5172:	4501                	li	a0,0
    5174:	cd1fe0ef          	jal	ra,3e44 <lcd_wr_data>
    5178:	02900513          	li	a0,41
    517c:	cc9fe0ef          	jal	ra,3e44 <lcd_wr_data>
    5180:	4501                	li	a0,0
    5182:	cc3fe0ef          	jal	ra,3e44 <lcd_wr_data>
    5186:	02600513          	li	a0,38
    518a:	cbbfe0ef          	jal	ra,3e44 <lcd_wr_data>
    518e:	4501                	li	a0,0
    5190:	cb5fe0ef          	jal	ra,3e44 <lcd_wr_data>
    5194:	02400513          	li	a0,36
    5198:	cadfe0ef          	jal	ra,3e44 <lcd_wr_data>
    519c:	4501                	li	a0,0
    519e:	ca7fe0ef          	jal	ra,3e44 <lcd_wr_data>
    51a2:	02400513          	li	a0,36
    51a6:	c9ffe0ef          	jal	ra,3e44 <lcd_wr_data>
    51aa:	4501                	li	a0,0
    51ac:	c99fe0ef          	jal	ra,3e44 <lcd_wr_data>
    51b0:	02300513          	li	a0,35
    51b4:	c91fe0ef          	jal	ra,3e44 <lcd_wr_data>
    51b8:	4501                	li	a0,0
    51ba:	c8bfe0ef          	jal	ra,3e44 <lcd_wr_data>
    51be:	03c00513          	li	a0,60
    51c2:	c83fe0ef          	jal	ra,3e44 <lcd_wr_data>
    51c6:	4501                	li	a0,0
    51c8:	c7dfe0ef          	jal	ra,3e44 <lcd_wr_data>
    51cc:	03600513          	li	a0,54
    51d0:	c75fe0ef          	jal	ra,3e44 <lcd_wr_data>
    51d4:	4501                	li	a0,0
    51d6:	c6ffe0ef          	jal	ra,3e44 <lcd_wr_data>
    51da:	03200513          	li	a0,50
    51de:	c67fe0ef          	jal	ra,3e44 <lcd_wr_data>
    51e2:	4501                	li	a0,0
    51e4:	c61fe0ef          	jal	ra,3e44 <lcd_wr_data>
    51e8:	02f00513          	li	a0,47
    51ec:	c59fe0ef          	jal	ra,3e44 <lcd_wr_data>
    51f0:	4501                	li	a0,0
    51f2:	c53fe0ef          	jal	ra,3e44 <lcd_wr_data>
    51f6:	02c00513          	li	a0,44
    51fa:	c4bfe0ef          	jal	ra,3e44 <lcd_wr_data>
    51fe:	4501                	li	a0,0
    5200:	c45fe0ef          	jal	ra,3e44 <lcd_wr_data>
    5204:	02900513          	li	a0,41
    5208:	c3dfe0ef          	jal	ra,3e44 <lcd_wr_data>
    520c:	4501                	li	a0,0
    520e:	c37fe0ef          	jal	ra,3e44 <lcd_wr_data>
    5212:	02600513          	li	a0,38
    5216:	c2ffe0ef          	jal	ra,3e44 <lcd_wr_data>
    521a:	4501                	li	a0,0
    521c:	c29fe0ef          	jal	ra,3e44 <lcd_wr_data>
    5220:	02400513          	li	a0,36
    5224:	c21fe0ef          	jal	ra,3e44 <lcd_wr_data>
    5228:	4501                	li	a0,0
    522a:	c1bfe0ef          	jal	ra,3e44 <lcd_wr_data>
    522e:	02400513          	li	a0,36
    5232:	c13fe0ef          	jal	ra,3e44 <lcd_wr_data>
    5236:	4501                	li	a0,0
    5238:	c0dfe0ef          	jal	ra,3e44 <lcd_wr_data>
    523c:	02300513          	li	a0,35
    5240:	c05fe0ef          	jal	ra,3e44 <lcd_wr_data>
    5244:	4501                	li	a0,0
    5246:	bfffe0ef          	jal	ra,3e44 <lcd_wr_data>
    524a:	0c400513          	li	a0,196
    524e:	c0bfe0ef          	jal	ra,3e58 <lcd_wr_regno>
    5252:	06200513          	li	a0,98
    5256:	beffe0ef          	jal	ra,3e44 <lcd_wr_data>
    525a:	4501                	li	a0,0
    525c:	be9fe0ef          	jal	ra,3e44 <lcd_wr_data>
    5260:	4515                	li	a0,5
    5262:	be3fe0ef          	jal	ra,3e44 <lcd_wr_data>
    5266:	4501                	li	a0,0
    5268:	bddfe0ef          	jal	ra,3e44 <lcd_wr_data>
    526c:	08400513          	li	a0,132
    5270:	bd5fe0ef          	jal	ra,3e44 <lcd_wr_data>
    5274:	4501                	li	a0,0
    5276:	bcffe0ef          	jal	ra,3e44 <lcd_wr_data>
    527a:	0f000513          	li	a0,240
    527e:	bc7fe0ef          	jal	ra,3e44 <lcd_wr_data>
    5282:	4501                	li	a0,0
    5284:	bc1fe0ef          	jal	ra,3e44 <lcd_wr_data>
    5288:	4561                	li	a0,24
    528a:	bbbfe0ef          	jal	ra,3e44 <lcd_wr_data>
    528e:	4501                	li	a0,0
    5290:	bb5fe0ef          	jal	ra,3e44 <lcd_wr_data>
    5294:	0a400513          	li	a0,164
    5298:	badfe0ef          	jal	ra,3e44 <lcd_wr_data>
    529c:	4501                	li	a0,0
    529e:	ba7fe0ef          	jal	ra,3e44 <lcd_wr_data>
    52a2:	4561                	li	a0,24
    52a4:	ba1fe0ef          	jal	ra,3e44 <lcd_wr_data>
    52a8:	4501                	li	a0,0
    52aa:	b9bfe0ef          	jal	ra,3e44 <lcd_wr_data>
    52ae:	05000513          	li	a0,80
    52b2:	b93fe0ef          	jal	ra,3e44 <lcd_wr_data>
    52b6:	4501                	li	a0,0
    52b8:	b8dfe0ef          	jal	ra,3e44 <lcd_wr_data>
    52bc:	4531                	li	a0,12
    52be:	b87fe0ef          	jal	ra,3e44 <lcd_wr_data>
    52c2:	4501                	li	a0,0
    52c4:	b81fe0ef          	jal	ra,3e44 <lcd_wr_data>
    52c8:	455d                	li	a0,23
    52ca:	b7bfe0ef          	jal	ra,3e44 <lcd_wr_data>
    52ce:	4501                	li	a0,0
    52d0:	b75fe0ef          	jal	ra,3e44 <lcd_wr_data>
    52d4:	09500513          	li	a0,149
    52d8:	b6dfe0ef          	jal	ra,3e44 <lcd_wr_data>
    52dc:	4501                	li	a0,0
    52de:	b67fe0ef          	jal	ra,3e44 <lcd_wr_data>
    52e2:	0f300513          	li	a0,243
    52e6:	b5ffe0ef          	jal	ra,3e44 <lcd_wr_data>
    52ea:	4501                	li	a0,0
    52ec:	b59fe0ef          	jal	ra,3e44 <lcd_wr_data>
    52f0:	0e600513          	li	a0,230
    52f4:	b51fe0ef          	jal	ra,3e44 <lcd_wr_data>
    52f8:	4501                	li	a0,0
    52fa:	b4bfe0ef          	jal	ra,3e44 <lcd_wr_data>
    52fe:	0c500513          	li	a0,197
    5302:	b57fe0ef          	jal	ra,3e58 <lcd_wr_regno>
    5306:	03200513          	li	a0,50
    530a:	b3bfe0ef          	jal	ra,3e44 <lcd_wr_data>
    530e:	4501                	li	a0,0
    5310:	b35fe0ef          	jal	ra,3e44 <lcd_wr_data>
    5314:	04400513          	li	a0,68
    5318:	b2dfe0ef          	jal	ra,3e44 <lcd_wr_data>
    531c:	4501                	li	a0,0
    531e:	b27fe0ef          	jal	ra,3e44 <lcd_wr_data>
    5322:	06500513          	li	a0,101
    5326:	b1ffe0ef          	jal	ra,3e44 <lcd_wr_data>
    532a:	4501                	li	a0,0
    532c:	b19fe0ef          	jal	ra,3e44 <lcd_wr_data>
    5330:	07600513          	li	a0,118
    5334:	b11fe0ef          	jal	ra,3e44 <lcd_wr_data>
    5338:	4501                	li	a0,0
    533a:	b0bfe0ef          	jal	ra,3e44 <lcd_wr_data>
    533e:	08800513          	li	a0,136
    5342:	b03fe0ef          	jal	ra,3e44 <lcd_wr_data>
    5346:	4501                	li	a0,0
    5348:	afdfe0ef          	jal	ra,3e44 <lcd_wr_data>
    534c:	0c600513          	li	a0,198
    5350:	b09fe0ef          	jal	ra,3e58 <lcd_wr_regno>
    5354:	02000513          	li	a0,32
    5358:	aedfe0ef          	jal	ra,3e44 <lcd_wr_data>
    535c:	4501                	li	a0,0
    535e:	ae7fe0ef          	jal	ra,3e44 <lcd_wr_data>
    5362:	455d                	li	a0,23
    5364:	ae1fe0ef          	jal	ra,3e44 <lcd_wr_data>
    5368:	4501                	li	a0,0
    536a:	adbfe0ef          	jal	ra,3e44 <lcd_wr_data>
    536e:	4505                	li	a0,1
    5370:	ad5fe0ef          	jal	ra,3e44 <lcd_wr_data>
    5374:	4501                	li	a0,0
    5376:	acffe0ef          	jal	ra,3e44 <lcd_wr_data>
    537a:	0c700513          	li	a0,199
    537e:	adbfe0ef          	jal	ra,3e58 <lcd_wr_regno>
    5382:	4501                	li	a0,0
    5384:	ac1fe0ef          	jal	ra,3e44 <lcd_wr_data>
    5388:	4501                	li	a0,0
    538a:	abbfe0ef          	jal	ra,3e44 <lcd_wr_data>
    538e:	4501                	li	a0,0
    5390:	ab5fe0ef          	jal	ra,3e44 <lcd_wr_data>
    5394:	4501                	li	a0,0
    5396:	aaffe0ef          	jal	ra,3e44 <lcd_wr_data>
    539a:	0c800513          	li	a0,200
    539e:	abbfe0ef          	jal	ra,3e58 <lcd_wr_regno>
    53a2:	4501                	li	a0,0
    53a4:	aa1fe0ef          	jal	ra,3e44 <lcd_wr_data>
    53a8:	4501                	li	a0,0
    53aa:	a9bfe0ef          	jal	ra,3e44 <lcd_wr_data>
    53ae:	4501                	li	a0,0
    53b0:	a95fe0ef          	jal	ra,3e44 <lcd_wr_data>
    53b4:	4501                	li	a0,0
    53b6:	a8ffe0ef          	jal	ra,3e44 <lcd_wr_data>
    53ba:	0c900513          	li	a0,201
    53be:	a9bfe0ef          	jal	ra,3e58 <lcd_wr_regno>
    53c2:	4501                	li	a0,0
    53c4:	a81fe0ef          	jal	ra,3e44 <lcd_wr_data>
    53c8:	4501                	li	a0,0
    53ca:	a7bfe0ef          	jal	ra,3e44 <lcd_wr_data>
    53ce:	4501                	li	a0,0
    53d0:	a75fe0ef          	jal	ra,3e44 <lcd_wr_data>
    53d4:	4501                	li	a0,0
    53d6:	a6ffe0ef          	jal	ra,3e44 <lcd_wr_data>
    53da:	4501                	li	a0,0
    53dc:	a69fe0ef          	jal	ra,3e44 <lcd_wr_data>
    53e0:	4501                	li	a0,0
    53e2:	a63fe0ef          	jal	ra,3e44 <lcd_wr_data>
    53e6:	4501                	li	a0,0
    53e8:	a5dfe0ef          	jal	ra,3e44 <lcd_wr_data>
    53ec:	4501                	li	a0,0
    53ee:	a57fe0ef          	jal	ra,3e44 <lcd_wr_data>
    53f2:	4501                	li	a0,0
    53f4:	a51fe0ef          	jal	ra,3e44 <lcd_wr_data>
    53f8:	4501                	li	a0,0
    53fa:	a4bfe0ef          	jal	ra,3e44 <lcd_wr_data>
    53fe:	4501                	li	a0,0
    5400:	a45fe0ef          	jal	ra,3e44 <lcd_wr_data>
    5404:	4501                	li	a0,0
    5406:	a3ffe0ef          	jal	ra,3e44 <lcd_wr_data>
    540a:	4501                	li	a0,0
    540c:	a39fe0ef          	jal	ra,3e44 <lcd_wr_data>
    5410:	4501                	li	a0,0
    5412:	a33fe0ef          	jal	ra,3e44 <lcd_wr_data>
    5416:	4501                	li	a0,0
    5418:	a2dfe0ef          	jal	ra,3e44 <lcd_wr_data>
    541c:	4501                	li	a0,0
    541e:	a27fe0ef          	jal	ra,3e44 <lcd_wr_data>
    5422:	0e000513          	li	a0,224
    5426:	a33fe0ef          	jal	ra,3e58 <lcd_wr_regno>
    542a:	4559                	li	a0,22
    542c:	a19fe0ef          	jal	ra,3e44 <lcd_wr_data>
    5430:	4501                	li	a0,0
    5432:	a13fe0ef          	jal	ra,3e44 <lcd_wr_data>
    5436:	4571                	li	a0,28
    5438:	a0dfe0ef          	jal	ra,3e44 <lcd_wr_data>
    543c:	4501                	li	a0,0
    543e:	a07fe0ef          	jal	ra,3e44 <lcd_wr_data>
    5442:	02100513          	li	a0,33
    5446:	9fffe0ef          	jal	ra,3e44 <lcd_wr_data>
    544a:	4501                	li	a0,0
    544c:	9f9fe0ef          	jal	ra,3e44 <lcd_wr_data>
    5450:	03600513          	li	a0,54
    5454:	9f1fe0ef          	jal	ra,3e44 <lcd_wr_data>
    5458:	4501                	li	a0,0
    545a:	9ebfe0ef          	jal	ra,3e44 <lcd_wr_data>
    545e:	04600513          	li	a0,70
    5462:	9e3fe0ef          	jal	ra,3e44 <lcd_wr_data>
    5466:	4501                	li	a0,0
    5468:	9ddfe0ef          	jal	ra,3e44 <lcd_wr_data>
    546c:	05200513          	li	a0,82
    5470:	9d5fe0ef          	jal	ra,3e44 <lcd_wr_data>
    5474:	4501                	li	a0,0
    5476:	9cffe0ef          	jal	ra,3e44 <lcd_wr_data>
    547a:	06400513          	li	a0,100
    547e:	9c7fe0ef          	jal	ra,3e44 <lcd_wr_data>
    5482:	4501                	li	a0,0
    5484:	9c1fe0ef          	jal	ra,3e44 <lcd_wr_data>
    5488:	07a00513          	li	a0,122
    548c:	9b9fe0ef          	jal	ra,3e44 <lcd_wr_data>
    5490:	4501                	li	a0,0
    5492:	9b3fe0ef          	jal	ra,3e44 <lcd_wr_data>
    5496:	08b00513          	li	a0,139
    549a:	9abfe0ef          	jal	ra,3e44 <lcd_wr_data>
    549e:	4501                	li	a0,0
    54a0:	9a5fe0ef          	jal	ra,3e44 <lcd_wr_data>
    54a4:	09900513          	li	a0,153
    54a8:	99dfe0ef          	jal	ra,3e44 <lcd_wr_data>
    54ac:	4501                	li	a0,0
    54ae:	997fe0ef          	jal	ra,3e44 <lcd_wr_data>
    54b2:	0a800513          	li	a0,168
    54b6:	98ffe0ef          	jal	ra,3e44 <lcd_wr_data>
    54ba:	4501                	li	a0,0
    54bc:	989fe0ef          	jal	ra,3e44 <lcd_wr_data>
    54c0:	0b900513          	li	a0,185
    54c4:	981fe0ef          	jal	ra,3e44 <lcd_wr_data>
    54c8:	4501                	li	a0,0
    54ca:	97bfe0ef          	jal	ra,3e44 <lcd_wr_data>
    54ce:	0c400513          	li	a0,196
    54d2:	973fe0ef          	jal	ra,3e44 <lcd_wr_data>
    54d6:	4501                	li	a0,0
    54d8:	96dfe0ef          	jal	ra,3e44 <lcd_wr_data>
    54dc:	0ca00513          	li	a0,202
    54e0:	965fe0ef          	jal	ra,3e44 <lcd_wr_data>
    54e4:	4501                	li	a0,0
    54e6:	95ffe0ef          	jal	ra,3e44 <lcd_wr_data>
    54ea:	0d200513          	li	a0,210
    54ee:	957fe0ef          	jal	ra,3e44 <lcd_wr_data>
    54f2:	4501                	li	a0,0
    54f4:	951fe0ef          	jal	ra,3e44 <lcd_wr_data>
    54f8:	0d900513          	li	a0,217
    54fc:	949fe0ef          	jal	ra,3e44 <lcd_wr_data>
    5500:	4501                	li	a0,0
    5502:	943fe0ef          	jal	ra,3e44 <lcd_wr_data>
    5506:	0e000513          	li	a0,224
    550a:	93bfe0ef          	jal	ra,3e44 <lcd_wr_data>
    550e:	4501                	li	a0,0
    5510:	935fe0ef          	jal	ra,3e44 <lcd_wr_data>
    5514:	0f300513          	li	a0,243
    5518:	92dfe0ef          	jal	ra,3e44 <lcd_wr_data>
    551c:	4501                	li	a0,0
    551e:	927fe0ef          	jal	ra,3e44 <lcd_wr_data>
    5522:	0e100513          	li	a0,225
    5526:	933fe0ef          	jal	ra,3e58 <lcd_wr_regno>
    552a:	4559                	li	a0,22
    552c:	919fe0ef          	jal	ra,3e44 <lcd_wr_data>
    5530:	4501                	li	a0,0
    5532:	913fe0ef          	jal	ra,3e44 <lcd_wr_data>
    5536:	4571                	li	a0,28
    5538:	90dfe0ef          	jal	ra,3e44 <lcd_wr_data>
    553c:	4501                	li	a0,0
    553e:	907fe0ef          	jal	ra,3e44 <lcd_wr_data>
    5542:	02200513          	li	a0,34
    5546:	8fffe0ef          	jal	ra,3e44 <lcd_wr_data>
    554a:	4501                	li	a0,0
    554c:	8f9fe0ef          	jal	ra,3e44 <lcd_wr_data>
    5550:	03600513          	li	a0,54
    5554:	8f1fe0ef          	jal	ra,3e44 <lcd_wr_data>
    5558:	4501                	li	a0,0
    555a:	8ebfe0ef          	jal	ra,3e44 <lcd_wr_data>
    555e:	04500513          	li	a0,69
    5562:	8e3fe0ef          	jal	ra,3e44 <lcd_wr_data>
    5566:	4501                	li	a0,0
    5568:	8ddfe0ef          	jal	ra,3e44 <lcd_wr_data>
    556c:	05200513          	li	a0,82
    5570:	8d5fe0ef          	jal	ra,3e44 <lcd_wr_data>
    5574:	4501                	li	a0,0
    5576:	8cffe0ef          	jal	ra,3e44 <lcd_wr_data>
    557a:	06400513          	li	a0,100
    557e:	8c7fe0ef          	jal	ra,3e44 <lcd_wr_data>
    5582:	4501                	li	a0,0
    5584:	8c1fe0ef          	jal	ra,3e44 <lcd_wr_data>
    5588:	07a00513          	li	a0,122
    558c:	8b9fe0ef          	jal	ra,3e44 <lcd_wr_data>
    5590:	4501                	li	a0,0
    5592:	8b3fe0ef          	jal	ra,3e44 <lcd_wr_data>
    5596:	08b00513          	li	a0,139
    559a:	8abfe0ef          	jal	ra,3e44 <lcd_wr_data>
    559e:	4501                	li	a0,0
    55a0:	8a5fe0ef          	jal	ra,3e44 <lcd_wr_data>
    55a4:	09900513          	li	a0,153
    55a8:	89dfe0ef          	jal	ra,3e44 <lcd_wr_data>
    55ac:	4501                	li	a0,0
    55ae:	897fe0ef          	jal	ra,3e44 <lcd_wr_data>
    55b2:	0a800513          	li	a0,168
    55b6:	88ffe0ef          	jal	ra,3e44 <lcd_wr_data>
    55ba:	4501                	li	a0,0
    55bc:	889fe0ef          	jal	ra,3e44 <lcd_wr_data>
    55c0:	0b900513          	li	a0,185
    55c4:	881fe0ef          	jal	ra,3e44 <lcd_wr_data>
    55c8:	4501                	li	a0,0
    55ca:	87bfe0ef          	jal	ra,3e44 <lcd_wr_data>
    55ce:	0c400513          	li	a0,196
    55d2:	873fe0ef          	jal	ra,3e44 <lcd_wr_data>
    55d6:	4501                	li	a0,0
    55d8:	86dfe0ef          	jal	ra,3e44 <lcd_wr_data>
    55dc:	0ca00513          	li	a0,202
    55e0:	865fe0ef          	jal	ra,3e44 <lcd_wr_data>
    55e4:	4501                	li	a0,0
    55e6:	85ffe0ef          	jal	ra,3e44 <lcd_wr_data>
    55ea:	0d200513          	li	a0,210
    55ee:	857fe0ef          	jal	ra,3e44 <lcd_wr_data>
    55f2:	4501                	li	a0,0
    55f4:	851fe0ef          	jal	ra,3e44 <lcd_wr_data>
    55f8:	0d800513          	li	a0,216
    55fc:	849fe0ef          	jal	ra,3e44 <lcd_wr_data>
    5600:	4501                	li	a0,0
    5602:	843fe0ef          	jal	ra,3e44 <lcd_wr_data>
    5606:	0e000513          	li	a0,224
    560a:	83bfe0ef          	jal	ra,3e44 <lcd_wr_data>
    560e:	4501                	li	a0,0
    5610:	835fe0ef          	jal	ra,3e44 <lcd_wr_data>
    5614:	0f300513          	li	a0,243
    5618:	82dfe0ef          	jal	ra,3e44 <lcd_wr_data>
    561c:	4501                	li	a0,0
    561e:	827fe0ef          	jal	ra,3e44 <lcd_wr_data>
    5622:	0e200513          	li	a0,226
    5626:	833fe0ef          	jal	ra,3e58 <lcd_wr_regno>
    562a:	4515                	li	a0,5
    562c:	819fe0ef          	jal	ra,3e44 <lcd_wr_data>
    5630:	4501                	li	a0,0
    5632:	813fe0ef          	jal	ra,3e44 <lcd_wr_data>
    5636:	452d                	li	a0,11
    5638:	80dfe0ef          	jal	ra,3e44 <lcd_wr_data>
    563c:	4501                	li	a0,0
    563e:	807fe0ef          	jal	ra,3e44 <lcd_wr_data>
    5642:	456d                	li	a0,27
    5644:	801fe0ef          	jal	ra,3e44 <lcd_wr_data>
    5648:	4501                	li	a0,0
    564a:	ffafe0ef          	jal	ra,3e44 <lcd_wr_data>
    564e:	03400513          	li	a0,52
    5652:	ff2fe0ef          	jal	ra,3e44 <lcd_wr_data>
    5656:	4501                	li	a0,0
    5658:	fecfe0ef          	jal	ra,3e44 <lcd_wr_data>
    565c:	04400513          	li	a0,68
    5660:	fe4fe0ef          	jal	ra,3e44 <lcd_wr_data>
    5664:	4501                	li	a0,0
    5666:	fdefe0ef          	jal	ra,3e44 <lcd_wr_data>
    566a:	04f00513          	li	a0,79
    566e:	fd6fe0ef          	jal	ra,3e44 <lcd_wr_data>
    5672:	4501                	li	a0,0
    5674:	fd0fe0ef          	jal	ra,3e44 <lcd_wr_data>
    5678:	06100513          	li	a0,97
    567c:	fc8fe0ef          	jal	ra,3e44 <lcd_wr_data>
    5680:	4501                	li	a0,0
    5682:	fc2fe0ef          	jal	ra,3e44 <lcd_wr_data>
    5686:	07900513          	li	a0,121
    568a:	fbafe0ef          	jal	ra,3e44 <lcd_wr_data>
    568e:	4501                	li	a0,0
    5690:	fb4fe0ef          	jal	ra,3e44 <lcd_wr_data>
    5694:	08800513          	li	a0,136
    5698:	facfe0ef          	jal	ra,3e44 <lcd_wr_data>
    569c:	4501                	li	a0,0
    569e:	fa6fe0ef          	jal	ra,3e44 <lcd_wr_data>
    56a2:	09700513          	li	a0,151
    56a6:	f9efe0ef          	jal	ra,3e44 <lcd_wr_data>
    56aa:	4501                	li	a0,0
    56ac:	f98fe0ef          	jal	ra,3e44 <lcd_wr_data>
    56b0:	0a600513          	li	a0,166
    56b4:	f90fe0ef          	jal	ra,3e44 <lcd_wr_data>
    56b8:	4501                	li	a0,0
    56ba:	f8afe0ef          	jal	ra,3e44 <lcd_wr_data>
    56be:	0b700513          	li	a0,183
    56c2:	f82fe0ef          	jal	ra,3e44 <lcd_wr_data>
    56c6:	4501                	li	a0,0
    56c8:	f7cfe0ef          	jal	ra,3e44 <lcd_wr_data>
    56cc:	0c200513          	li	a0,194
    56d0:	f74fe0ef          	jal	ra,3e44 <lcd_wr_data>
    56d4:	4501                	li	a0,0
    56d6:	f6efe0ef          	jal	ra,3e44 <lcd_wr_data>
    56da:	0c700513          	li	a0,199
    56de:	f66fe0ef          	jal	ra,3e44 <lcd_wr_data>
    56e2:	4501                	li	a0,0
    56e4:	f60fe0ef          	jal	ra,3e44 <lcd_wr_data>
    56e8:	0d100513          	li	a0,209
    56ec:	f58fe0ef          	jal	ra,3e44 <lcd_wr_data>
    56f0:	4501                	li	a0,0
    56f2:	f52fe0ef          	jal	ra,3e44 <lcd_wr_data>
    56f6:	0d600513          	li	a0,214
    56fa:	f4afe0ef          	jal	ra,3e44 <lcd_wr_data>
    56fe:	4501                	li	a0,0
    5700:	f44fe0ef          	jal	ra,3e44 <lcd_wr_data>
    5704:	0dd00513          	li	a0,221
    5708:	f3cfe0ef          	jal	ra,3e44 <lcd_wr_data>
    570c:	4501                	li	a0,0
    570e:	f36fe0ef          	jal	ra,3e44 <lcd_wr_data>
    5712:	0f300513          	li	a0,243
    5716:	f2efe0ef          	jal	ra,3e44 <lcd_wr_data>
    571a:	4501                	li	a0,0
    571c:	f28fe0ef          	jal	ra,3e44 <lcd_wr_data>
    5720:	0e300513          	li	a0,227
    5724:	f34fe0ef          	jal	ra,3e58 <lcd_wr_regno>
    5728:	4515                	li	a0,5
    572a:	f1afe0ef          	jal	ra,3e44 <lcd_wr_data>
    572e:	4501                	li	a0,0
    5730:	f14fe0ef          	jal	ra,3e44 <lcd_wr_data>
    5734:	4529                	li	a0,10
    5736:	f0efe0ef          	jal	ra,3e44 <lcd_wr_data>
    573a:	4501                	li	a0,0
    573c:	f08fe0ef          	jal	ra,3e44 <lcd_wr_data>
    5740:	4571                	li	a0,28
    5742:	f02fe0ef          	jal	ra,3e44 <lcd_wr_data>
    5746:	4501                	li	a0,0
    5748:	efcfe0ef          	jal	ra,3e44 <lcd_wr_data>
    574c:	03300513          	li	a0,51
    5750:	ef4fe0ef          	jal	ra,3e44 <lcd_wr_data>
    5754:	4501                	li	a0,0
    5756:	eeefe0ef          	jal	ra,3e44 <lcd_wr_data>
    575a:	04400513          	li	a0,68
    575e:	ee6fe0ef          	jal	ra,3e44 <lcd_wr_data>
    5762:	4501                	li	a0,0
    5764:	ee0fe0ef          	jal	ra,3e44 <lcd_wr_data>
    5768:	05000513          	li	a0,80
    576c:	ed8fe0ef          	jal	ra,3e44 <lcd_wr_data>
    5770:	4501                	li	a0,0
    5772:	ed2fe0ef          	jal	ra,3e44 <lcd_wr_data>
    5776:	06200513          	li	a0,98
    577a:	ecafe0ef          	jal	ra,3e44 <lcd_wr_data>
    577e:	4501                	li	a0,0
    5780:	ec4fe0ef          	jal	ra,3e44 <lcd_wr_data>
    5784:	07800513          	li	a0,120
    5788:	ebcfe0ef          	jal	ra,3e44 <lcd_wr_data>
    578c:	4501                	li	a0,0
    578e:	eb6fe0ef          	jal	ra,3e44 <lcd_wr_data>
    5792:	08800513          	li	a0,136
    5796:	eaefe0ef          	jal	ra,3e44 <lcd_wr_data>
    579a:	4501                	li	a0,0
    579c:	ea8fe0ef          	jal	ra,3e44 <lcd_wr_data>
    57a0:	09700513          	li	a0,151
    57a4:	ea0fe0ef          	jal	ra,3e44 <lcd_wr_data>
    57a8:	4501                	li	a0,0
    57aa:	e9afe0ef          	jal	ra,3e44 <lcd_wr_data>
    57ae:	0a600513          	li	a0,166
    57b2:	e92fe0ef          	jal	ra,3e44 <lcd_wr_data>
    57b6:	4501                	li	a0,0
    57b8:	e8cfe0ef          	jal	ra,3e44 <lcd_wr_data>
    57bc:	0b700513          	li	a0,183
    57c0:	e84fe0ef          	jal	ra,3e44 <lcd_wr_data>
    57c4:	4501                	li	a0,0
    57c6:	e7efe0ef          	jal	ra,3e44 <lcd_wr_data>
    57ca:	0c200513          	li	a0,194
    57ce:	e76fe0ef          	jal	ra,3e44 <lcd_wr_data>
    57d2:	4501                	li	a0,0
    57d4:	e70fe0ef          	jal	ra,3e44 <lcd_wr_data>
    57d8:	0c700513          	li	a0,199
    57dc:	e68fe0ef          	jal	ra,3e44 <lcd_wr_data>
    57e0:	4501                	li	a0,0
    57e2:	e62fe0ef          	jal	ra,3e44 <lcd_wr_data>
    57e6:	0d100513          	li	a0,209
    57ea:	e5afe0ef          	jal	ra,3e44 <lcd_wr_data>
    57ee:	4501                	li	a0,0
    57f0:	e54fe0ef          	jal	ra,3e44 <lcd_wr_data>
    57f4:	0d500513          	li	a0,213
    57f8:	e4cfe0ef          	jal	ra,3e44 <lcd_wr_data>
    57fc:	4501                	li	a0,0
    57fe:	e46fe0ef          	jal	ra,3e44 <lcd_wr_data>
    5802:	0dd00513          	li	a0,221
    5806:	e3efe0ef          	jal	ra,3e44 <lcd_wr_data>
    580a:	4501                	li	a0,0
    580c:	e38fe0ef          	jal	ra,3e44 <lcd_wr_data>
    5810:	0f300513          	li	a0,243
    5814:	e30fe0ef          	jal	ra,3e44 <lcd_wr_data>
    5818:	4501                	li	a0,0
    581a:	e2afe0ef          	jal	ra,3e44 <lcd_wr_data>
    581e:	0e400513          	li	a0,228
    5822:	e36fe0ef          	jal	ra,3e58 <lcd_wr_regno>
    5826:	4505                	li	a0,1
    5828:	e1cfe0ef          	jal	ra,3e44 <lcd_wr_data>
    582c:	4501                	li	a0,0
    582e:	e16fe0ef          	jal	ra,3e44 <lcd_wr_data>
    5832:	4505                	li	a0,1
    5834:	e10fe0ef          	jal	ra,3e44 <lcd_wr_data>
    5838:	4501                	li	a0,0
    583a:	e0afe0ef          	jal	ra,3e44 <lcd_wr_data>
    583e:	4509                	li	a0,2
    5840:	e04fe0ef          	jal	ra,3e44 <lcd_wr_data>
    5844:	4501                	li	a0,0
    5846:	dfefe0ef          	jal	ra,3e44 <lcd_wr_data>
    584a:	02a00513          	li	a0,42
    584e:	df6fe0ef          	jal	ra,3e44 <lcd_wr_data>
    5852:	4501                	li	a0,0
    5854:	df0fe0ef          	jal	ra,3e44 <lcd_wr_data>
    5858:	03c00513          	li	a0,60
    585c:	de8fe0ef          	jal	ra,3e44 <lcd_wr_data>
    5860:	4501                	li	a0,0
    5862:	de2fe0ef          	jal	ra,3e44 <lcd_wr_data>
    5866:	04b00513          	li	a0,75
    586a:	ddafe0ef          	jal	ra,3e44 <lcd_wr_data>
    586e:	4501                	li	a0,0
    5870:	dd4fe0ef          	jal	ra,3e44 <lcd_wr_data>
    5874:	05d00513          	li	a0,93
    5878:	dccfe0ef          	jal	ra,3e44 <lcd_wr_data>
    587c:	4501                	li	a0,0
    587e:	dc6fe0ef          	jal	ra,3e44 <lcd_wr_data>
    5882:	07400513          	li	a0,116
    5886:	dbefe0ef          	jal	ra,3e44 <lcd_wr_data>
    588a:	4501                	li	a0,0
    588c:	db8fe0ef          	jal	ra,3e44 <lcd_wr_data>
    5890:	08400513          	li	a0,132
    5894:	db0fe0ef          	jal	ra,3e44 <lcd_wr_data>
    5898:	4501                	li	a0,0
    589a:	daafe0ef          	jal	ra,3e44 <lcd_wr_data>
    589e:	09300513          	li	a0,147
    58a2:	da2fe0ef          	jal	ra,3e44 <lcd_wr_data>
    58a6:	4501                	li	a0,0
    58a8:	d9cfe0ef          	jal	ra,3e44 <lcd_wr_data>
    58ac:	0a200513          	li	a0,162
    58b0:	d94fe0ef          	jal	ra,3e44 <lcd_wr_data>
    58b4:	4501                	li	a0,0
    58b6:	d8efe0ef          	jal	ra,3e44 <lcd_wr_data>
    58ba:	0b300513          	li	a0,179
    58be:	d86fe0ef          	jal	ra,3e44 <lcd_wr_data>
    58c2:	4501                	li	a0,0
    58c4:	d80fe0ef          	jal	ra,3e44 <lcd_wr_data>
    58c8:	0be00513          	li	a0,190
    58cc:	d78fe0ef          	jal	ra,3e44 <lcd_wr_data>
    58d0:	4501                	li	a0,0
    58d2:	d72fe0ef          	jal	ra,3e44 <lcd_wr_data>
    58d6:	0c400513          	li	a0,196
    58da:	d6afe0ef          	jal	ra,3e44 <lcd_wr_data>
    58de:	4501                	li	a0,0
    58e0:	d64fe0ef          	jal	ra,3e44 <lcd_wr_data>
    58e4:	0cd00513          	li	a0,205
    58e8:	d5cfe0ef          	jal	ra,3e44 <lcd_wr_data>
    58ec:	4501                	li	a0,0
    58ee:	d56fe0ef          	jal	ra,3e44 <lcd_wr_data>
    58f2:	0d300513          	li	a0,211
    58f6:	d4efe0ef          	jal	ra,3e44 <lcd_wr_data>
    58fa:	4501                	li	a0,0
    58fc:	d48fe0ef          	jal	ra,3e44 <lcd_wr_data>
    5900:	0dd00513          	li	a0,221
    5904:	d40fe0ef          	jal	ra,3e44 <lcd_wr_data>
    5908:	4501                	li	a0,0
    590a:	d3afe0ef          	jal	ra,3e44 <lcd_wr_data>
    590e:	0f300513          	li	a0,243
    5912:	d32fe0ef          	jal	ra,3e44 <lcd_wr_data>
    5916:	4501                	li	a0,0
    5918:	d2cfe0ef          	jal	ra,3e44 <lcd_wr_data>
    591c:	0e500513          	li	a0,229
    5920:	d38fe0ef          	jal	ra,3e58 <lcd_wr_regno>
    5924:	4501                	li	a0,0
    5926:	d1efe0ef          	jal	ra,3e44 <lcd_wr_data>
    592a:	4501                	li	a0,0
    592c:	d18fe0ef          	jal	ra,3e44 <lcd_wr_data>
    5930:	4501                	li	a0,0
    5932:	d12fe0ef          	jal	ra,3e44 <lcd_wr_data>
    5936:	4501                	li	a0,0
    5938:	d0cfe0ef          	jal	ra,3e44 <lcd_wr_data>
    593c:	4509                	li	a0,2
    593e:	d06fe0ef          	jal	ra,3e44 <lcd_wr_data>
    5942:	4501                	li	a0,0
    5944:	d00fe0ef          	jal	ra,3e44 <lcd_wr_data>
    5948:	02900513          	li	a0,41
    594c:	cf8fe0ef          	jal	ra,3e44 <lcd_wr_data>
    5950:	4501                	li	a0,0
    5952:	cf2fe0ef          	jal	ra,3e44 <lcd_wr_data>
    5956:	03c00513          	li	a0,60
    595a:	ceafe0ef          	jal	ra,3e44 <lcd_wr_data>
    595e:	4501                	li	a0,0
    5960:	ce4fe0ef          	jal	ra,3e44 <lcd_wr_data>
    5964:	04b00513          	li	a0,75
    5968:	cdcfe0ef          	jal	ra,3e44 <lcd_wr_data>
    596c:	4501                	li	a0,0
    596e:	cd6fe0ef          	jal	ra,3e44 <lcd_wr_data>
    5972:	05d00513          	li	a0,93
    5976:	ccefe0ef          	jal	ra,3e44 <lcd_wr_data>
    597a:	4501                	li	a0,0
    597c:	cc8fe0ef          	jal	ra,3e44 <lcd_wr_data>
    5980:	07400513          	li	a0,116
    5984:	cc0fe0ef          	jal	ra,3e44 <lcd_wr_data>
    5988:	4501                	li	a0,0
    598a:	cbafe0ef          	jal	ra,3e44 <lcd_wr_data>
    598e:	08400513          	li	a0,132
    5992:	cb2fe0ef          	jal	ra,3e44 <lcd_wr_data>
    5996:	4501                	li	a0,0
    5998:	cacfe0ef          	jal	ra,3e44 <lcd_wr_data>
    599c:	09300513          	li	a0,147
    59a0:	ca4fe0ef          	jal	ra,3e44 <lcd_wr_data>
    59a4:	4501                	li	a0,0
    59a6:	c9efe0ef          	jal	ra,3e44 <lcd_wr_data>
    59aa:	0a200513          	li	a0,162
    59ae:	c96fe0ef          	jal	ra,3e44 <lcd_wr_data>
    59b2:	4501                	li	a0,0
    59b4:	c90fe0ef          	jal	ra,3e44 <lcd_wr_data>
    59b8:	0b300513          	li	a0,179
    59bc:	c88fe0ef          	jal	ra,3e44 <lcd_wr_data>
    59c0:	4501                	li	a0,0
    59c2:	c82fe0ef          	jal	ra,3e44 <lcd_wr_data>
    59c6:	0be00513          	li	a0,190
    59ca:	c7afe0ef          	jal	ra,3e44 <lcd_wr_data>
    59ce:	4501                	li	a0,0
    59d0:	c74fe0ef          	jal	ra,3e44 <lcd_wr_data>
    59d4:	0c400513          	li	a0,196
    59d8:	c6cfe0ef          	jal	ra,3e44 <lcd_wr_data>
    59dc:	4501                	li	a0,0
    59de:	c66fe0ef          	jal	ra,3e44 <lcd_wr_data>
    59e2:	0cd00513          	li	a0,205
    59e6:	c5efe0ef          	jal	ra,3e44 <lcd_wr_data>
    59ea:	4501                	li	a0,0
    59ec:	c58fe0ef          	jal	ra,3e44 <lcd_wr_data>
    59f0:	0d300513          	li	a0,211
    59f4:	c50fe0ef          	jal	ra,3e44 <lcd_wr_data>
    59f8:	4501                	li	a0,0
    59fa:	c4afe0ef          	jal	ra,3e44 <lcd_wr_data>
    59fe:	0dc00513          	li	a0,220
    5a02:	c42fe0ef          	jal	ra,3e44 <lcd_wr_data>
    5a06:	4501                	li	a0,0
    5a08:	c3cfe0ef          	jal	ra,3e44 <lcd_wr_data>
    5a0c:	0f300513          	li	a0,243
    5a10:	c34fe0ef          	jal	ra,3e44 <lcd_wr_data>
    5a14:	4501                	li	a0,0
    5a16:	c2efe0ef          	jal	ra,3e44 <lcd_wr_data>
    5a1a:	0e600513          	li	a0,230
    5a1e:	c3afe0ef          	jal	ra,3e58 <lcd_wr_regno>
    5a22:	4545                	li	a0,17
    5a24:	c20fe0ef          	jal	ra,3e44 <lcd_wr_data>
    5a28:	4501                	li	a0,0
    5a2a:	c1afe0ef          	jal	ra,3e44 <lcd_wr_data>
    5a2e:	03400513          	li	a0,52
    5a32:	c12fe0ef          	jal	ra,3e44 <lcd_wr_data>
    5a36:	4501                	li	a0,0
    5a38:	c0cfe0ef          	jal	ra,3e44 <lcd_wr_data>
    5a3c:	05600513          	li	a0,86
    5a40:	c04fe0ef          	jal	ra,3e44 <lcd_wr_data>
    5a44:	4501                	li	a0,0
    5a46:	bfefe0ef          	jal	ra,3e44 <lcd_wr_data>
    5a4a:	07600513          	li	a0,118
    5a4e:	bf6fe0ef          	jal	ra,3e44 <lcd_wr_data>
    5a52:	4501                	li	a0,0
    5a54:	bf0fe0ef          	jal	ra,3e44 <lcd_wr_data>
    5a58:	07700513          	li	a0,119
    5a5c:	be8fe0ef          	jal	ra,3e44 <lcd_wr_data>
    5a60:	4501                	li	a0,0
    5a62:	be2fe0ef          	jal	ra,3e44 <lcd_wr_data>
    5a66:	06600513          	li	a0,102
    5a6a:	bdafe0ef          	jal	ra,3e44 <lcd_wr_data>
    5a6e:	4501                	li	a0,0
    5a70:	bd4fe0ef          	jal	ra,3e44 <lcd_wr_data>
    5a74:	08800513          	li	a0,136
    5a78:	bccfe0ef          	jal	ra,3e44 <lcd_wr_data>
    5a7c:	4501                	li	a0,0
    5a7e:	bc6fe0ef          	jal	ra,3e44 <lcd_wr_data>
    5a82:	09900513          	li	a0,153
    5a86:	bbefe0ef          	jal	ra,3e44 <lcd_wr_data>
    5a8a:	4501                	li	a0,0
    5a8c:	bb8fe0ef          	jal	ra,3e44 <lcd_wr_data>
    5a90:	0bb00513          	li	a0,187
    5a94:	bb0fe0ef          	jal	ra,3e44 <lcd_wr_data>
    5a98:	4501                	li	a0,0
    5a9a:	baafe0ef          	jal	ra,3e44 <lcd_wr_data>
    5a9e:	09900513          	li	a0,153
    5aa2:	ba2fe0ef          	jal	ra,3e44 <lcd_wr_data>
    5aa6:	4501                	li	a0,0
    5aa8:	b9cfe0ef          	jal	ra,3e44 <lcd_wr_data>
    5aac:	06600513          	li	a0,102
    5ab0:	b94fe0ef          	jal	ra,3e44 <lcd_wr_data>
    5ab4:	4501                	li	a0,0
    5ab6:	b8efe0ef          	jal	ra,3e44 <lcd_wr_data>
    5aba:	05500513          	li	a0,85
    5abe:	b86fe0ef          	jal	ra,3e44 <lcd_wr_data>
    5ac2:	4501                	li	a0,0
    5ac4:	b80fe0ef          	jal	ra,3e44 <lcd_wr_data>
    5ac8:	05500513          	li	a0,85
    5acc:	b78fe0ef          	jal	ra,3e44 <lcd_wr_data>
    5ad0:	4501                	li	a0,0
    5ad2:	b72fe0ef          	jal	ra,3e44 <lcd_wr_data>
    5ad6:	04500513          	li	a0,69
    5ada:	b6afe0ef          	jal	ra,3e44 <lcd_wr_data>
    5ade:	4501                	li	a0,0
    5ae0:	b64fe0ef          	jal	ra,3e44 <lcd_wr_data>
    5ae4:	04300513          	li	a0,67
    5ae8:	b5cfe0ef          	jal	ra,3e44 <lcd_wr_data>
    5aec:	4501                	li	a0,0
    5aee:	b56fe0ef          	jal	ra,3e44 <lcd_wr_data>
    5af2:	04400513          	li	a0,68
    5af6:	b4efe0ef          	jal	ra,3e44 <lcd_wr_data>
    5afa:	4501                	li	a0,0
    5afc:	b48fe0ef          	jal	ra,3e44 <lcd_wr_data>
    5b00:	0e700513          	li	a0,231
    5b04:	b54fe0ef          	jal	ra,3e58 <lcd_wr_regno>
    5b08:	03200513          	li	a0,50
    5b0c:	b38fe0ef          	jal	ra,3e44 <lcd_wr_data>
    5b10:	4501                	li	a0,0
    5b12:	b32fe0ef          	jal	ra,3e44 <lcd_wr_data>
    5b16:	05500513          	li	a0,85
    5b1a:	b2afe0ef          	jal	ra,3e44 <lcd_wr_data>
    5b1e:	4501                	li	a0,0
    5b20:	b24fe0ef          	jal	ra,3e44 <lcd_wr_data>
    5b24:	07600513          	li	a0,118
    5b28:	b1cfe0ef          	jal	ra,3e44 <lcd_wr_data>
    5b2c:	4501                	li	a0,0
    5b2e:	b16fe0ef          	jal	ra,3e44 <lcd_wr_data>
    5b32:	06600513          	li	a0,102
    5b36:	b0efe0ef          	jal	ra,3e44 <lcd_wr_data>
    5b3a:	4501                	li	a0,0
    5b3c:	b08fe0ef          	jal	ra,3e44 <lcd_wr_data>
    5b40:	06700513          	li	a0,103
    5b44:	b00fe0ef          	jal	ra,3e44 <lcd_wr_data>
    5b48:	4501                	li	a0,0
    5b4a:	afafe0ef          	jal	ra,3e44 <lcd_wr_data>
    5b4e:	06700513          	li	a0,103
    5b52:	af2fe0ef          	jal	ra,3e44 <lcd_wr_data>
    5b56:	4501                	li	a0,0
    5b58:	aecfe0ef          	jal	ra,3e44 <lcd_wr_data>
    5b5c:	08700513          	li	a0,135
    5b60:	ae4fe0ef          	jal	ra,3e44 <lcd_wr_data>
    5b64:	4501                	li	a0,0
    5b66:	adefe0ef          	jal	ra,3e44 <lcd_wr_data>
    5b6a:	09900513          	li	a0,153
    5b6e:	ad6fe0ef          	jal	ra,3e44 <lcd_wr_data>
    5b72:	4501                	li	a0,0
    5b74:	ad0fe0ef          	jal	ra,3e44 <lcd_wr_data>
    5b78:	0bb00513          	li	a0,187
    5b7c:	ac8fe0ef          	jal	ra,3e44 <lcd_wr_data>
    5b80:	4501                	li	a0,0
    5b82:	ac2fe0ef          	jal	ra,3e44 <lcd_wr_data>
    5b86:	09900513          	li	a0,153
    5b8a:	abafe0ef          	jal	ra,3e44 <lcd_wr_data>
    5b8e:	4501                	li	a0,0
    5b90:	ab4fe0ef          	jal	ra,3e44 <lcd_wr_data>
    5b94:	07700513          	li	a0,119
    5b98:	aacfe0ef          	jal	ra,3e44 <lcd_wr_data>
    5b9c:	4501                	li	a0,0
    5b9e:	aa6fe0ef          	jal	ra,3e44 <lcd_wr_data>
    5ba2:	04400513          	li	a0,68
    5ba6:	a9efe0ef          	jal	ra,3e44 <lcd_wr_data>
    5baa:	4501                	li	a0,0
    5bac:	a98fe0ef          	jal	ra,3e44 <lcd_wr_data>
    5bb0:	05600513          	li	a0,86
    5bb4:	a90fe0ef          	jal	ra,3e44 <lcd_wr_data>
    5bb8:	4501                	li	a0,0
    5bba:	a8afe0ef          	jal	ra,3e44 <lcd_wr_data>
    5bbe:	02300513          	li	a0,35
    5bc2:	a82fe0ef          	jal	ra,3e44 <lcd_wr_data>
    5bc6:	4501                	li	a0,0
    5bc8:	a7cfe0ef          	jal	ra,3e44 <lcd_wr_data>
    5bcc:	03300513          	li	a0,51
    5bd0:	a74fe0ef          	jal	ra,3e44 <lcd_wr_data>
    5bd4:	4501                	li	a0,0
    5bd6:	a6efe0ef          	jal	ra,3e44 <lcd_wr_data>
    5bda:	04500513          	li	a0,69
    5bde:	a66fe0ef          	jal	ra,3e44 <lcd_wr_data>
    5be2:	4501                	li	a0,0
    5be4:	a60fe0ef          	jal	ra,3e44 <lcd_wr_data>
    5be8:	0e800513          	li	a0,232
    5bec:	a6cfe0ef          	jal	ra,3e58 <lcd_wr_regno>
    5bf0:	4501                	li	a0,0
    5bf2:	a52fe0ef          	jal	ra,3e44 <lcd_wr_data>
    5bf6:	4501                	li	a0,0
    5bf8:	a4cfe0ef          	jal	ra,3e44 <lcd_wr_data>
    5bfc:	09900513          	li	a0,153
    5c00:	a44fe0ef          	jal	ra,3e44 <lcd_wr_data>
    5c04:	4501                	li	a0,0
    5c06:	a3efe0ef          	jal	ra,3e44 <lcd_wr_data>
    5c0a:	08700513          	li	a0,135
    5c0e:	a36fe0ef          	jal	ra,3e44 <lcd_wr_data>
    5c12:	4501                	li	a0,0
    5c14:	a30fe0ef          	jal	ra,3e44 <lcd_wr_data>
    5c18:	08800513          	li	a0,136
    5c1c:	a28fe0ef          	jal	ra,3e44 <lcd_wr_data>
    5c20:	4501                	li	a0,0
    5c22:	a22fe0ef          	jal	ra,3e44 <lcd_wr_data>
    5c26:	07700513          	li	a0,119
    5c2a:	a1afe0ef          	jal	ra,3e44 <lcd_wr_data>
    5c2e:	4501                	li	a0,0
    5c30:	a14fe0ef          	jal	ra,3e44 <lcd_wr_data>
    5c34:	06600513          	li	a0,102
    5c38:	a0cfe0ef          	jal	ra,3e44 <lcd_wr_data>
    5c3c:	4501                	li	a0,0
    5c3e:	a06fe0ef          	jal	ra,3e44 <lcd_wr_data>
    5c42:	08800513          	li	a0,136
    5c46:	9fefe0ef          	jal	ra,3e44 <lcd_wr_data>
    5c4a:	4501                	li	a0,0
    5c4c:	9f8fe0ef          	jal	ra,3e44 <lcd_wr_data>
    5c50:	0aa00513          	li	a0,170
    5c54:	9f0fe0ef          	jal	ra,3e44 <lcd_wr_data>
    5c58:	4501                	li	a0,0
    5c5a:	9eafe0ef          	jal	ra,3e44 <lcd_wr_data>
    5c5e:	0bb00513          	li	a0,187
    5c62:	9e2fe0ef          	jal	ra,3e44 <lcd_wr_data>
    5c66:	4501                	li	a0,0
    5c68:	9dcfe0ef          	jal	ra,3e44 <lcd_wr_data>
    5c6c:	09900513          	li	a0,153
    5c70:	9d4fe0ef          	jal	ra,3e44 <lcd_wr_data>
    5c74:	4501                	li	a0,0
    5c76:	9cefe0ef          	jal	ra,3e44 <lcd_wr_data>
    5c7a:	06600513          	li	a0,102
    5c7e:	9c6fe0ef          	jal	ra,3e44 <lcd_wr_data>
    5c82:	4501                	li	a0,0
    5c84:	9c0fe0ef          	jal	ra,3e44 <lcd_wr_data>
    5c88:	05500513          	li	a0,85
    5c8c:	9b8fe0ef          	jal	ra,3e44 <lcd_wr_data>
    5c90:	4501                	li	a0,0
    5c92:	9b2fe0ef          	jal	ra,3e44 <lcd_wr_data>
    5c96:	05500513          	li	a0,85
    5c9a:	9aafe0ef          	jal	ra,3e44 <lcd_wr_data>
    5c9e:	4501                	li	a0,0
    5ca0:	9a4fe0ef          	jal	ra,3e44 <lcd_wr_data>
    5ca4:	04400513          	li	a0,68
    5ca8:	99cfe0ef          	jal	ra,3e44 <lcd_wr_data>
    5cac:	4501                	li	a0,0
    5cae:	996fe0ef          	jal	ra,3e44 <lcd_wr_data>
    5cb2:	04400513          	li	a0,68
    5cb6:	98efe0ef          	jal	ra,3e44 <lcd_wr_data>
    5cba:	4501                	li	a0,0
    5cbc:	988fe0ef          	jal	ra,3e44 <lcd_wr_data>
    5cc0:	05500513          	li	a0,85
    5cc4:	980fe0ef          	jal	ra,3e44 <lcd_wr_data>
    5cc8:	4501                	li	a0,0
    5cca:	97afe0ef          	jal	ra,3e44 <lcd_wr_data>
    5cce:	0e900513          	li	a0,233
    5cd2:	986fe0ef          	jal	ra,3e58 <lcd_wr_regno>
    5cd6:	0aa00513          	li	a0,170
    5cda:	96afe0ef          	jal	ra,3e44 <lcd_wr_data>
    5cde:	4501                	li	a0,0
    5ce0:	964fe0ef          	jal	ra,3e44 <lcd_wr_data>
    5ce4:	4501                	li	a0,0
    5ce6:	95efe0ef          	jal	ra,3e44 <lcd_wr_data>
    5cea:	4501                	li	a0,0
    5cec:	958fe0ef          	jal	ra,3e44 <lcd_wr_data>
    5cf0:	4501                	li	a0,0
    5cf2:	966fe0ef          	jal	ra,3e58 <lcd_wr_regno>
    5cf6:	0aa00513          	li	a0,170
    5cfa:	94afe0ef          	jal	ra,3e44 <lcd_wr_data>
    5cfe:	0cf00513          	li	a0,207
    5d02:	956fe0ef          	jal	ra,3e58 <lcd_wr_regno>
    5d06:	4501                	li	a0,0
    5d08:	93cfe0ef          	jal	ra,3e44 <lcd_wr_data>
    5d0c:	4501                	li	a0,0
    5d0e:	936fe0ef          	jal	ra,3e44 <lcd_wr_data>
    5d12:	4501                	li	a0,0
    5d14:	930fe0ef          	jal	ra,3e44 <lcd_wr_data>
    5d18:	4501                	li	a0,0
    5d1a:	92afe0ef          	jal	ra,3e44 <lcd_wr_data>
    5d1e:	4501                	li	a0,0
    5d20:	924fe0ef          	jal	ra,3e44 <lcd_wr_data>
    5d24:	4501                	li	a0,0
    5d26:	91efe0ef          	jal	ra,3e44 <lcd_wr_data>
    5d2a:	4501                	li	a0,0
    5d2c:	918fe0ef          	jal	ra,3e44 <lcd_wr_data>
    5d30:	4501                	li	a0,0
    5d32:	912fe0ef          	jal	ra,3e44 <lcd_wr_data>
    5d36:	4501                	li	a0,0
    5d38:	90cfe0ef          	jal	ra,3e44 <lcd_wr_data>
    5d3c:	4501                	li	a0,0
    5d3e:	906fe0ef          	jal	ra,3e44 <lcd_wr_data>
    5d42:	4501                	li	a0,0
    5d44:	900fe0ef          	jal	ra,3e44 <lcd_wr_data>
    5d48:	4501                	li	a0,0
    5d4a:	8fafe0ef          	jal	ra,3e44 <lcd_wr_data>
    5d4e:	4501                	li	a0,0
    5d50:	8f4fe0ef          	jal	ra,3e44 <lcd_wr_data>
    5d54:	4501                	li	a0,0
    5d56:	8eefe0ef          	jal	ra,3e44 <lcd_wr_data>
    5d5a:	4501                	li	a0,0
    5d5c:	8e8fe0ef          	jal	ra,3e44 <lcd_wr_data>
    5d60:	4501                	li	a0,0
    5d62:	8e2fe0ef          	jal	ra,3e44 <lcd_wr_data>
    5d66:	4501                	li	a0,0
    5d68:	8dcfe0ef          	jal	ra,3e44 <lcd_wr_data>
    5d6c:	0f000513          	li	a0,240
    5d70:	8e8fe0ef          	jal	ra,3e58 <lcd_wr_regno>
    5d74:	4501                	li	a0,0
    5d76:	8cefe0ef          	jal	ra,3e44 <lcd_wr_data>
    5d7a:	05000513          	li	a0,80
    5d7e:	8c6fe0ef          	jal	ra,3e44 <lcd_wr_data>
    5d82:	4501                	li	a0,0
    5d84:	8c0fe0ef          	jal	ra,3e44 <lcd_wr_data>
    5d88:	4501                	li	a0,0
    5d8a:	8bafe0ef          	jal	ra,3e44 <lcd_wr_data>
    5d8e:	4501                	li	a0,0
    5d90:	8b4fe0ef          	jal	ra,3e44 <lcd_wr_data>
    5d94:	0f300513          	li	a0,243
    5d98:	8c0fe0ef          	jal	ra,3e58 <lcd_wr_regno>
    5d9c:	4501                	li	a0,0
    5d9e:	8a6fe0ef          	jal	ra,3e44 <lcd_wr_data>
    5da2:	0f900513          	li	a0,249
    5da6:	8b2fe0ef          	jal	ra,3e58 <lcd_wr_regno>
    5daa:	4519                	li	a0,6
    5dac:	898fe0ef          	jal	ra,3e44 <lcd_wr_data>
    5db0:	4541                	li	a0,16
    5db2:	892fe0ef          	jal	ra,3e44 <lcd_wr_data>
    5db6:	02900513          	li	a0,41
    5dba:	88afe0ef          	jal	ra,3e44 <lcd_wr_data>
    5dbe:	4501                	li	a0,0
    5dc0:	884fe0ef          	jal	ra,3e44 <lcd_wr_data>
    5dc4:	03a00513          	li	a0,58
    5dc8:	890fe0ef          	jal	ra,3e58 <lcd_wr_regno>
    5dcc:	05500513          	li	a0,85
    5dd0:	874fe0ef          	jal	ra,3e44 <lcd_wr_data>
    5dd4:	4545                	li	a0,17
    5dd6:	882fe0ef          	jal	ra,3e58 <lcd_wr_regno>
    5dda:	06400513          	li	a0,100
    5dde:	e89fd0ef          	jal	ra,3c66 <delay_ms>
    5de2:	02900513          	li	a0,41
    5de6:	872fe0ef          	jal	ra,3e58 <lcd_wr_regno>
    5dea:	03500513          	li	a0,53
    5dee:	86afe0ef          	jal	ra,3e58 <lcd_wr_regno>
    5df2:	4501                	li	a0,0
    5df4:	850fe0ef          	jal	ra,3e44 <lcd_wr_data>
    5df8:	05100513          	li	a0,81
    5dfc:	85cfe0ef          	jal	ra,3e58 <lcd_wr_regno>
    5e00:	0ff00513          	li	a0,255
    5e04:	840fe0ef          	jal	ra,3e44 <lcd_wr_data>
    5e08:	05300513          	li	a0,83
    5e0c:	84cfe0ef          	jal	ra,3e58 <lcd_wr_regno>
    5e10:	02c00513          	li	a0,44
    5e14:	830fe0ef          	jal	ra,3e44 <lcd_wr_data>
    5e18:	05500513          	li	a0,85
    5e1c:	83cfe0ef          	jal	ra,3e58 <lcd_wr_regno>
    5e20:	08200513          	li	a0,130
    5e24:	820fe0ef          	jal	ra,3e44 <lcd_wr_data>
    5e28:	02c00513          	li	a0,44
    5e2c:	82cfe0ef          	jal	ra,3e58 <lcd_wr_regno>
    5e30:	d96fa06f          	j	3c6 <__riscv_restore_0>

00005e34 <lcd_ex_st7796_reginit>:
    5e34:	d6efa2ef          	jal	t0,3a2 <__riscv_save_0>
    5e38:	4545                	li	a0,17
    5e3a:	81efe0ef          	jal	ra,3e58 <lcd_wr_regno>
    5e3e:	07800513          	li	a0,120
    5e42:	e25fd0ef          	jal	ra,3c66 <delay_ms>
    5e46:	03600513          	li	a0,54
    5e4a:	80efe0ef          	jal	ra,3e58 <lcd_wr_regno>
    5e4e:	04800513          	li	a0,72
    5e52:	ff3fd0ef          	jal	ra,3e44 <lcd_wr_data>
    5e56:	03a00513          	li	a0,58
    5e5a:	ffffd0ef          	jal	ra,3e58 <lcd_wr_regno>
    5e5e:	05500513          	li	a0,85
    5e62:	fe3fd0ef          	jal	ra,3e44 <lcd_wr_data>
    5e66:	0f000513          	li	a0,240
    5e6a:	feffd0ef          	jal	ra,3e58 <lcd_wr_regno>
    5e6e:	0c300513          	li	a0,195
    5e72:	fd3fd0ef          	jal	ra,3e44 <lcd_wr_data>
    5e76:	0f000513          	li	a0,240
    5e7a:	fdffd0ef          	jal	ra,3e58 <lcd_wr_regno>
    5e7e:	09600513          	li	a0,150
    5e82:	fc3fd0ef          	jal	ra,3e44 <lcd_wr_data>
    5e86:	0b400513          	li	a0,180
    5e8a:	fcffd0ef          	jal	ra,3e58 <lcd_wr_regno>
    5e8e:	4505                	li	a0,1
    5e90:	fb5fd0ef          	jal	ra,3e44 <lcd_wr_data>
    5e94:	0b600513          	li	a0,182
    5e98:	fc1fd0ef          	jal	ra,3e58 <lcd_wr_regno>
    5e9c:	4529                	li	a0,10
    5e9e:	fa7fd0ef          	jal	ra,3e44 <lcd_wr_data>
    5ea2:	0a200513          	li	a0,162
    5ea6:	f9ffd0ef          	jal	ra,3e44 <lcd_wr_data>
    5eaa:	0b700513          	li	a0,183
    5eae:	fabfd0ef          	jal	ra,3e58 <lcd_wr_regno>
    5eb2:	0c600513          	li	a0,198
    5eb6:	f8ffd0ef          	jal	ra,3e44 <lcd_wr_data>
    5eba:	0b900513          	li	a0,185
    5ebe:	f9bfd0ef          	jal	ra,3e58 <lcd_wr_regno>
    5ec2:	4509                	li	a0,2
    5ec4:	f81fd0ef          	jal	ra,3e44 <lcd_wr_data>
    5ec8:	0e000513          	li	a0,224
    5ecc:	f79fd0ef          	jal	ra,3e44 <lcd_wr_data>
    5ed0:	0c000513          	li	a0,192
    5ed4:	f85fd0ef          	jal	ra,3e58 <lcd_wr_regno>
    5ed8:	08000513          	li	a0,128
    5edc:	f69fd0ef          	jal	ra,3e44 <lcd_wr_data>
    5ee0:	4559                	li	a0,22
    5ee2:	f63fd0ef          	jal	ra,3e44 <lcd_wr_data>
    5ee6:	0c100513          	li	a0,193
    5eea:	f6ffd0ef          	jal	ra,3e58 <lcd_wr_regno>
    5eee:	4565                	li	a0,25
    5ef0:	f55fd0ef          	jal	ra,3e44 <lcd_wr_data>
    5ef4:	0c200513          	li	a0,194
    5ef8:	f61fd0ef          	jal	ra,3e58 <lcd_wr_regno>
    5efc:	0a700513          	li	a0,167
    5f00:	f45fd0ef          	jal	ra,3e44 <lcd_wr_data>
    5f04:	0c500513          	li	a0,197
    5f08:	f51fd0ef          	jal	ra,3e58 <lcd_wr_regno>
    5f0c:	4559                	li	a0,22
    5f0e:	f37fd0ef          	jal	ra,3e44 <lcd_wr_data>
    5f12:	0e800513          	li	a0,232
    5f16:	f43fd0ef          	jal	ra,3e58 <lcd_wr_regno>
    5f1a:	04000513          	li	a0,64
    5f1e:	f27fd0ef          	jal	ra,3e44 <lcd_wr_data>
    5f22:	08a00513          	li	a0,138
    5f26:	f1ffd0ef          	jal	ra,3e44 <lcd_wr_data>
    5f2a:	4501                	li	a0,0
    5f2c:	f19fd0ef          	jal	ra,3e44 <lcd_wr_data>
    5f30:	4501                	li	a0,0
    5f32:	f13fd0ef          	jal	ra,3e44 <lcd_wr_data>
    5f36:	02900513          	li	a0,41
    5f3a:	f0bfd0ef          	jal	ra,3e44 <lcd_wr_data>
    5f3e:	4565                	li	a0,25
    5f40:	f05fd0ef          	jal	ra,3e44 <lcd_wr_data>
    5f44:	0a500513          	li	a0,165
    5f48:	efdfd0ef          	jal	ra,3e44 <lcd_wr_data>
    5f4c:	03300513          	li	a0,51
    5f50:	ef5fd0ef          	jal	ra,3e44 <lcd_wr_data>
    5f54:	0e000513          	li	a0,224
    5f58:	f01fd0ef          	jal	ra,3e58 <lcd_wr_regno>
    5f5c:	0f000513          	li	a0,240
    5f60:	ee5fd0ef          	jal	ra,3e44 <lcd_wr_data>
    5f64:	451d                	li	a0,7
    5f66:	edffd0ef          	jal	ra,3e44 <lcd_wr_data>
    5f6a:	4535                	li	a0,13
    5f6c:	ed9fd0ef          	jal	ra,3e44 <lcd_wr_data>
    5f70:	4511                	li	a0,4
    5f72:	ed3fd0ef          	jal	ra,3e44 <lcd_wr_data>
    5f76:	4515                	li	a0,5
    5f78:	ecdfd0ef          	jal	ra,3e44 <lcd_wr_data>
    5f7c:	4551                	li	a0,20
    5f7e:	ec7fd0ef          	jal	ra,3e44 <lcd_wr_data>
    5f82:	03600513          	li	a0,54
    5f86:	ebffd0ef          	jal	ra,3e44 <lcd_wr_data>
    5f8a:	05400513          	li	a0,84
    5f8e:	eb7fd0ef          	jal	ra,3e44 <lcd_wr_data>
    5f92:	04c00513          	li	a0,76
    5f96:	eaffd0ef          	jal	ra,3e44 <lcd_wr_data>
    5f9a:	03800513          	li	a0,56
    5f9e:	ea7fd0ef          	jal	ra,3e44 <lcd_wr_data>
    5fa2:	454d                	li	a0,19
    5fa4:	ea1fd0ef          	jal	ra,3e44 <lcd_wr_data>
    5fa8:	4551                	li	a0,20
    5faa:	e9bfd0ef          	jal	ra,3e44 <lcd_wr_data>
    5fae:	02e00513          	li	a0,46
    5fb2:	e93fd0ef          	jal	ra,3e44 <lcd_wr_data>
    5fb6:	03400513          	li	a0,52
    5fba:	e8bfd0ef          	jal	ra,3e44 <lcd_wr_data>
    5fbe:	0e100513          	li	a0,225
    5fc2:	e97fd0ef          	jal	ra,3e58 <lcd_wr_regno>
    5fc6:	0f000513          	li	a0,240
    5fca:	e7bfd0ef          	jal	ra,3e44 <lcd_wr_data>
    5fce:	4541                	li	a0,16
    5fd0:	e75fd0ef          	jal	ra,3e44 <lcd_wr_data>
    5fd4:	4551                	li	a0,20
    5fd6:	e6ffd0ef          	jal	ra,3e44 <lcd_wr_data>
    5fda:	4539                	li	a0,14
    5fdc:	e69fd0ef          	jal	ra,3e44 <lcd_wr_data>
    5fe0:	4531                	li	a0,12
    5fe2:	e63fd0ef          	jal	ra,3e44 <lcd_wr_data>
    5fe6:	4521                	li	a0,8
    5fe8:	e5dfd0ef          	jal	ra,3e44 <lcd_wr_data>
    5fec:	03500513          	li	a0,53
    5ff0:	e55fd0ef          	jal	ra,3e44 <lcd_wr_data>
    5ff4:	04400513          	li	a0,68
    5ff8:	e4dfd0ef          	jal	ra,3e44 <lcd_wr_data>
    5ffc:	04c00513          	li	a0,76
    6000:	e45fd0ef          	jal	ra,3e44 <lcd_wr_data>
    6004:	02600513          	li	a0,38
    6008:	e3dfd0ef          	jal	ra,3e44 <lcd_wr_data>
    600c:	4541                	li	a0,16
    600e:	e37fd0ef          	jal	ra,3e44 <lcd_wr_data>
    6012:	4549                	li	a0,18
    6014:	e31fd0ef          	jal	ra,3e44 <lcd_wr_data>
    6018:	02c00513          	li	a0,44
    601c:	e29fd0ef          	jal	ra,3e44 <lcd_wr_data>
    6020:	03200513          	li	a0,50
    6024:	e21fd0ef          	jal	ra,3e44 <lcd_wr_data>
    6028:	0f000513          	li	a0,240
    602c:	e2dfd0ef          	jal	ra,3e58 <lcd_wr_regno>
    6030:	03c00513          	li	a0,60
    6034:	e11fd0ef          	jal	ra,3e44 <lcd_wr_data>
    6038:	0f000513          	li	a0,240
    603c:	e1dfd0ef          	jal	ra,3e58 <lcd_wr_regno>
    6040:	06900513          	li	a0,105
    6044:	e01fd0ef          	jal	ra,3e44 <lcd_wr_data>
    6048:	07800513          	li	a0,120
    604c:	c1bfd0ef          	jal	ra,3c66 <delay_ms>
    6050:	02100513          	li	a0,33
    6054:	e05fd0ef          	jal	ra,3e58 <lcd_wr_regno>
    6058:	02900513          	li	a0,41
    605c:	dfdfd0ef          	jal	ra,3e58 <lcd_wr_regno>
    6060:	b66fa06f          	j	3c6 <__riscv_restore_0>

00006064 <lcd_ex_nt35510_reginit>:
    6064:	b3efa2ef          	jal	t0,3a2 <__riscv_save_0>
    6068:	05500593          	li	a1,85
    606c:	653d                	lui	a0,0xf
    606e:	e01fd0ef          	jal	ra,3e6e <lcd_write_reg>
    6072:	643d                	lui	s0,0xf
    6074:	00140513          	addi	a0,s0,1 # f001 <asc2_3216+0x3f5>
    6078:	0aa00593          	li	a1,170
    607c:	df3fd0ef          	jal	ra,3e6e <lcd_write_reg>
    6080:	00240513          	addi	a0,s0,2
    6084:	05200593          	li	a1,82
    6088:	de7fd0ef          	jal	ra,3e6e <lcd_write_reg>
    608c:	00340513          	addi	a0,s0,3
    6090:	45a1                	li	a1,8
    6092:	dddfd0ef          	jal	ra,3e6e <lcd_write_reg>
    6096:	00440513          	addi	a0,s0,4
    609a:	4585                	li	a1,1
    609c:	dd3fd0ef          	jal	ra,3e6e <lcd_write_reg>
    60a0:	45b5                	li	a1,13
    60a2:	652d                	lui	a0,0xb
    60a4:	642d                	lui	s0,0xb
    60a6:	dc9fd0ef          	jal	ra,3e6e <lcd_write_reg>
    60aa:	00140513          	addi	a0,s0,1 # b001 <__mulsf3+0xf5>
    60ae:	45b5                	li	a1,13
    60b0:	dbffd0ef          	jal	ra,3e6e <lcd_write_reg>
    60b4:	00240513          	addi	a0,s0,2
    60b8:	45b5                	li	a1,13
    60ba:	db5fd0ef          	jal	ra,3e6e <lcd_write_reg>
    60be:	60040513          	addi	a0,s0,1536
    60c2:	03400593          	li	a1,52
    60c6:	da9fd0ef          	jal	ra,3e6e <lcd_write_reg>
    60ca:	60140513          	addi	a0,s0,1537
    60ce:	03400593          	li	a1,52
    60d2:	d9dfd0ef          	jal	ra,3e6e <lcd_write_reg>
    60d6:	60240513          	addi	a0,s0,1538
    60da:	03400593          	li	a1,52
    60de:	d91fd0ef          	jal	ra,3e6e <lcd_write_reg>
    60e2:	10040513          	addi	a0,s0,256
    60e6:	45b5                	li	a1,13
    60e8:	d87fd0ef          	jal	ra,3e6e <lcd_write_reg>
    60ec:	10140513          	addi	a0,s0,257
    60f0:	45b5                	li	a1,13
    60f2:	d7dfd0ef          	jal	ra,3e6e <lcd_write_reg>
    60f6:	10240513          	addi	a0,s0,258
    60fa:	45b5                	li	a1,13
    60fc:	d73fd0ef          	jal	ra,3e6e <lcd_write_reg>
    6100:	70040513          	addi	a0,s0,1792
    6104:	03400593          	li	a1,52
    6108:	d67fd0ef          	jal	ra,3e6e <lcd_write_reg>
    610c:	70140513          	addi	a0,s0,1793
    6110:	03400593          	li	a1,52
    6114:	d5bfd0ef          	jal	ra,3e6e <lcd_write_reg>
    6118:	70240513          	addi	a0,s0,1794
    611c:	03400593          	li	a1,52
    6120:	d4ffd0ef          	jal	ra,3e6e <lcd_write_reg>
    6124:	20040513          	addi	a0,s0,512
    6128:	4581                	li	a1,0
    612a:	d45fd0ef          	jal	ra,3e6e <lcd_write_reg>
    612e:	20140513          	addi	a0,s0,513
    6132:	4581                	li	a1,0
    6134:	d3bfd0ef          	jal	ra,3e6e <lcd_write_reg>
    6138:	20240513          	addi	a0,s0,514
    613c:	4581                	li	a1,0
    613e:	64b1                	lui	s1,0xc
    6140:	d2ffd0ef          	jal	ra,3e6e <lcd_write_reg>
    6144:	80048513          	addi	a0,s1,-2048 # b800 <__extendsfdf2+0x50>
    6148:	02400593          	li	a1,36
    614c:	d23fd0ef          	jal	ra,3e6e <lcd_write_reg>
    6150:	80148513          	addi	a0,s1,-2047
    6154:	02400593          	li	a1,36
    6158:	d17fd0ef          	jal	ra,3e6e <lcd_write_reg>
    615c:	80248513          	addi	a0,s1,-2046
    6160:	02400593          	li	a1,36
    6164:	d0bfd0ef          	jal	ra,3e6e <lcd_write_reg>
    6168:	f0048513          	addi	a0,s1,-256
    616c:	4585                	li	a1,1
    616e:	d01fd0ef          	jal	ra,3e6e <lcd_write_reg>
    6172:	30040513          	addi	a0,s0,768
    6176:	45bd                	li	a1,15
    6178:	cf7fd0ef          	jal	ra,3e6e <lcd_write_reg>
    617c:	30140513          	addi	a0,s0,769
    6180:	45bd                	li	a1,15
    6182:	cedfd0ef          	jal	ra,3e6e <lcd_write_reg>
    6186:	30240513          	addi	a0,s0,770
    618a:	45bd                	li	a1,15
    618c:	ce3fd0ef          	jal	ra,3e6e <lcd_write_reg>
    6190:	90048513          	addi	a0,s1,-1792
    6194:	03400593          	li	a1,52
    6198:	cd7fd0ef          	jal	ra,3e6e <lcd_write_reg>
    619c:	90148513          	addi	a0,s1,-1791
    61a0:	03400593          	li	a1,52
    61a4:	ccbfd0ef          	jal	ra,3e6e <lcd_write_reg>
    61a8:	90248513          	addi	a0,s1,-1790
    61ac:	03400593          	li	a1,52
    61b0:	cbffd0ef          	jal	ra,3e6e <lcd_write_reg>
    61b4:	50040513          	addi	a0,s0,1280
    61b8:	45a1                	li	a1,8
    61ba:	cb5fd0ef          	jal	ra,3e6e <lcd_write_reg>
    61be:	50140513          	addi	a0,s0,1281
    61c2:	45a1                	li	a1,8
    61c4:	cabfd0ef          	jal	ra,3e6e <lcd_write_reg>
    61c8:	50240513          	addi	a0,s0,1282
    61cc:	45a1                	li	a1,8
    61ce:	ca1fd0ef          	jal	ra,3e6e <lcd_write_reg>
    61d2:	20048513          	addi	a0,s1,512
    61d6:	458d                	li	a1,3
    61d8:	c97fd0ef          	jal	ra,3e6e <lcd_write_reg>
    61dc:	a0048513          	addi	a0,s1,-1536
    61e0:	02400593          	li	a1,36
    61e4:	c8bfd0ef          	jal	ra,3e6e <lcd_write_reg>
    61e8:	a0148513          	addi	a0,s1,-1535
    61ec:	02400593          	li	a1,36
    61f0:	c7ffd0ef          	jal	ra,3e6e <lcd_write_reg>
    61f4:	a0248513          	addi	a0,s1,-1534
    61f8:	02400593          	li	a1,36
    61fc:	c73fd0ef          	jal	ra,3e6e <lcd_write_reg>
    6200:	c0048513          	addi	a0,s1,-1024
    6204:	4581                	li	a1,0
    6206:	c69fd0ef          	jal	ra,3e6e <lcd_write_reg>
    620a:	c0148513          	addi	a0,s1,-1023
    620e:	07800593          	li	a1,120
    6212:	c5dfd0ef          	jal	ra,3e6e <lcd_write_reg>
    6216:	c0248513          	addi	a0,s1,-1022
    621a:	4581                	li	a1,0
    621c:	c53fd0ef          	jal	ra,3e6e <lcd_write_reg>
    6220:	d0048513          	addi	a0,s1,-768
    6224:	4581                	li	a1,0
    6226:	c49fd0ef          	jal	ra,3e6e <lcd_write_reg>
    622a:	d0148513          	addi	a0,s1,-767
    622e:	07800593          	li	a1,120
    6232:	c3dfd0ef          	jal	ra,3e6e <lcd_write_reg>
    6236:	d0248513          	addi	a0,s1,-766
    623a:	4581                	li	a1,0
    623c:	c33fd0ef          	jal	ra,3e6e <lcd_write_reg>
    6240:	e0048513          	addi	a0,s1,-512
    6244:	4581                	li	a1,0
    6246:	c29fd0ef          	jal	ra,3e6e <lcd_write_reg>
    624a:	e0148513          	addi	a0,s1,-511
    624e:	06400593          	li	a1,100
    6252:	6435                	lui	s0,0xd
    6254:	c1bfd0ef          	jal	ra,3e6e <lcd_write_reg>
    6258:	10040513          	addi	a0,s0,256 # d100 <__fsym___cmd_free_desc+0xc>
    625c:	4581                	li	a1,0
    625e:	c11fd0ef          	jal	ra,3e6e <lcd_write_reg>
    6262:	10140513          	addi	a0,s0,257
    6266:	03300593          	li	a1,51
    626a:	c05fd0ef          	jal	ra,3e6e <lcd_write_reg>
    626e:	10240513          	addi	a0,s0,258
    6272:	4581                	li	a1,0
    6274:	bfbfd0ef          	jal	ra,3e6e <lcd_write_reg>
    6278:	10340513          	addi	a0,s0,259
    627c:	03400593          	li	a1,52
    6280:	beffd0ef          	jal	ra,3e6e <lcd_write_reg>
    6284:	10440513          	addi	a0,s0,260
    6288:	4581                	li	a1,0
    628a:	be5fd0ef          	jal	ra,3e6e <lcd_write_reg>
    628e:	10540513          	addi	a0,s0,261
    6292:	03a00593          	li	a1,58
    6296:	bd9fd0ef          	jal	ra,3e6e <lcd_write_reg>
    629a:	10640513          	addi	a0,s0,262
    629e:	4581                	li	a1,0
    62a0:	bcffd0ef          	jal	ra,3e6e <lcd_write_reg>
    62a4:	10740513          	addi	a0,s0,263
    62a8:	04a00593          	li	a1,74
    62ac:	bc3fd0ef          	jal	ra,3e6e <lcd_write_reg>
    62b0:	10840513          	addi	a0,s0,264
    62b4:	4581                	li	a1,0
    62b6:	bb9fd0ef          	jal	ra,3e6e <lcd_write_reg>
    62ba:	10940513          	addi	a0,s0,265
    62be:	05c00593          	li	a1,92
    62c2:	badfd0ef          	jal	ra,3e6e <lcd_write_reg>
    62c6:	10a40513          	addi	a0,s0,266
    62ca:	4581                	li	a1,0
    62cc:	ba3fd0ef          	jal	ra,3e6e <lcd_write_reg>
    62d0:	10b40513          	addi	a0,s0,267
    62d4:	08100593          	li	a1,129
    62d8:	b97fd0ef          	jal	ra,3e6e <lcd_write_reg>
    62dc:	10c40513          	addi	a0,s0,268
    62e0:	4581                	li	a1,0
    62e2:	b8dfd0ef          	jal	ra,3e6e <lcd_write_reg>
    62e6:	10d40513          	addi	a0,s0,269
    62ea:	0a600593          	li	a1,166
    62ee:	b81fd0ef          	jal	ra,3e6e <lcd_write_reg>
    62f2:	10e40513          	addi	a0,s0,270
    62f6:	4581                	li	a1,0
    62f8:	b77fd0ef          	jal	ra,3e6e <lcd_write_reg>
    62fc:	10f40513          	addi	a0,s0,271
    6300:	0e500593          	li	a1,229
    6304:	b6bfd0ef          	jal	ra,3e6e <lcd_write_reg>
    6308:	11040513          	addi	a0,s0,272
    630c:	4585                	li	a1,1
    630e:	b61fd0ef          	jal	ra,3e6e <lcd_write_reg>
    6312:	11140513          	addi	a0,s0,273
    6316:	45cd                	li	a1,19
    6318:	b57fd0ef          	jal	ra,3e6e <lcd_write_reg>
    631c:	11240513          	addi	a0,s0,274
    6320:	4585                	li	a1,1
    6322:	b4dfd0ef          	jal	ra,3e6e <lcd_write_reg>
    6326:	11340513          	addi	a0,s0,275
    632a:	05400593          	li	a1,84
    632e:	b41fd0ef          	jal	ra,3e6e <lcd_write_reg>
    6332:	11440513          	addi	a0,s0,276
    6336:	4585                	li	a1,1
    6338:	b37fd0ef          	jal	ra,3e6e <lcd_write_reg>
    633c:	11540513          	addi	a0,s0,277
    6340:	08200593          	li	a1,130
    6344:	b2bfd0ef          	jal	ra,3e6e <lcd_write_reg>
    6348:	11640513          	addi	a0,s0,278
    634c:	4585                	li	a1,1
    634e:	b21fd0ef          	jal	ra,3e6e <lcd_write_reg>
    6352:	11740513          	addi	a0,s0,279
    6356:	0ca00593          	li	a1,202
    635a:	b15fd0ef          	jal	ra,3e6e <lcd_write_reg>
    635e:	11840513          	addi	a0,s0,280
    6362:	4589                	li	a1,2
    6364:	b0bfd0ef          	jal	ra,3e6e <lcd_write_reg>
    6368:	11940513          	addi	a0,s0,281
    636c:	4581                	li	a1,0
    636e:	b01fd0ef          	jal	ra,3e6e <lcd_write_reg>
    6372:	11a40513          	addi	a0,s0,282
    6376:	4589                	li	a1,2
    6378:	af7fd0ef          	jal	ra,3e6e <lcd_write_reg>
    637c:	11b40513          	addi	a0,s0,283
    6380:	4585                	li	a1,1
    6382:	aedfd0ef          	jal	ra,3e6e <lcd_write_reg>
    6386:	11c40513          	addi	a0,s0,284
    638a:	4589                	li	a1,2
    638c:	ae3fd0ef          	jal	ra,3e6e <lcd_write_reg>
    6390:	11d40513          	addi	a0,s0,285
    6394:	03400593          	li	a1,52
    6398:	ad7fd0ef          	jal	ra,3e6e <lcd_write_reg>
    639c:	11e40513          	addi	a0,s0,286
    63a0:	4589                	li	a1,2
    63a2:	acdfd0ef          	jal	ra,3e6e <lcd_write_reg>
    63a6:	11f40513          	addi	a0,s0,287
    63aa:	06700593          	li	a1,103
    63ae:	ac1fd0ef          	jal	ra,3e6e <lcd_write_reg>
    63b2:	12040513          	addi	a0,s0,288
    63b6:	4589                	li	a1,2
    63b8:	ab7fd0ef          	jal	ra,3e6e <lcd_write_reg>
    63bc:	12140513          	addi	a0,s0,289
    63c0:	08400593          	li	a1,132
    63c4:	aabfd0ef          	jal	ra,3e6e <lcd_write_reg>
    63c8:	12240513          	addi	a0,s0,290
    63cc:	4589                	li	a1,2
    63ce:	aa1fd0ef          	jal	ra,3e6e <lcd_write_reg>
    63d2:	12340513          	addi	a0,s0,291
    63d6:	0a400593          	li	a1,164
    63da:	a95fd0ef          	jal	ra,3e6e <lcd_write_reg>
    63de:	12440513          	addi	a0,s0,292
    63e2:	4589                	li	a1,2
    63e4:	a8bfd0ef          	jal	ra,3e6e <lcd_write_reg>
    63e8:	12540513          	addi	a0,s0,293
    63ec:	0b700593          	li	a1,183
    63f0:	a7ffd0ef          	jal	ra,3e6e <lcd_write_reg>
    63f4:	12640513          	addi	a0,s0,294
    63f8:	4589                	li	a1,2
    63fa:	a75fd0ef          	jal	ra,3e6e <lcd_write_reg>
    63fe:	12740513          	addi	a0,s0,295
    6402:	0cf00593          	li	a1,207
    6406:	a69fd0ef          	jal	ra,3e6e <lcd_write_reg>
    640a:	12840513          	addi	a0,s0,296
    640e:	4589                	li	a1,2
    6410:	a5ffd0ef          	jal	ra,3e6e <lcd_write_reg>
    6414:	12940513          	addi	a0,s0,297
    6418:	0de00593          	li	a1,222
    641c:	a53fd0ef          	jal	ra,3e6e <lcd_write_reg>
    6420:	12a40513          	addi	a0,s0,298
    6424:	4589                	li	a1,2
    6426:	a49fd0ef          	jal	ra,3e6e <lcd_write_reg>
    642a:	12b40513          	addi	a0,s0,299
    642e:	0f200593          	li	a1,242
    6432:	a3dfd0ef          	jal	ra,3e6e <lcd_write_reg>
    6436:	12c40513          	addi	a0,s0,300
    643a:	4589                	li	a1,2
    643c:	a33fd0ef          	jal	ra,3e6e <lcd_write_reg>
    6440:	12d40513          	addi	a0,s0,301
    6444:	0fe00593          	li	a1,254
    6448:	a27fd0ef          	jal	ra,3e6e <lcd_write_reg>
    644c:	12e40513          	addi	a0,s0,302
    6450:	458d                	li	a1,3
    6452:	a1dfd0ef          	jal	ra,3e6e <lcd_write_reg>
    6456:	12f40513          	addi	a0,s0,303
    645a:	45c1                	li	a1,16
    645c:	a13fd0ef          	jal	ra,3e6e <lcd_write_reg>
    6460:	13040513          	addi	a0,s0,304
    6464:	458d                	li	a1,3
    6466:	a09fd0ef          	jal	ra,3e6e <lcd_write_reg>
    646a:	13140513          	addi	a0,s0,305
    646e:	03300593          	li	a1,51
    6472:	9fdfd0ef          	jal	ra,3e6e <lcd_write_reg>
    6476:	13240513          	addi	a0,s0,306
    647a:	458d                	li	a1,3
    647c:	9f3fd0ef          	jal	ra,3e6e <lcd_write_reg>
    6480:	13340513          	addi	a0,s0,307
    6484:	06d00593          	li	a1,109
    6488:	9e7fd0ef          	jal	ra,3e6e <lcd_write_reg>
    648c:	20040513          	addi	a0,s0,512
    6490:	4581                	li	a1,0
    6492:	9ddfd0ef          	jal	ra,3e6e <lcd_write_reg>
    6496:	20140513          	addi	a0,s0,513
    649a:	03300593          	li	a1,51
    649e:	9d1fd0ef          	jal	ra,3e6e <lcd_write_reg>
    64a2:	20240513          	addi	a0,s0,514
    64a6:	4581                	li	a1,0
    64a8:	9c7fd0ef          	jal	ra,3e6e <lcd_write_reg>
    64ac:	20340513          	addi	a0,s0,515
    64b0:	03400593          	li	a1,52
    64b4:	9bbfd0ef          	jal	ra,3e6e <lcd_write_reg>
    64b8:	20440513          	addi	a0,s0,516
    64bc:	4581                	li	a1,0
    64be:	9b1fd0ef          	jal	ra,3e6e <lcd_write_reg>
    64c2:	20540513          	addi	a0,s0,517
    64c6:	03a00593          	li	a1,58
    64ca:	9a5fd0ef          	jal	ra,3e6e <lcd_write_reg>
    64ce:	20640513          	addi	a0,s0,518
    64d2:	4581                	li	a1,0
    64d4:	99bfd0ef          	jal	ra,3e6e <lcd_write_reg>
    64d8:	20740513          	addi	a0,s0,519
    64dc:	04a00593          	li	a1,74
    64e0:	98ffd0ef          	jal	ra,3e6e <lcd_write_reg>
    64e4:	20840513          	addi	a0,s0,520
    64e8:	4581                	li	a1,0
    64ea:	985fd0ef          	jal	ra,3e6e <lcd_write_reg>
    64ee:	20940513          	addi	a0,s0,521
    64f2:	05c00593          	li	a1,92
    64f6:	979fd0ef          	jal	ra,3e6e <lcd_write_reg>
    64fa:	20a40513          	addi	a0,s0,522
    64fe:	4581                	li	a1,0
    6500:	96ffd0ef          	jal	ra,3e6e <lcd_write_reg>
    6504:	20b40513          	addi	a0,s0,523
    6508:	08100593          	li	a1,129
    650c:	963fd0ef          	jal	ra,3e6e <lcd_write_reg>
    6510:	20c40513          	addi	a0,s0,524
    6514:	4581                	li	a1,0
    6516:	959fd0ef          	jal	ra,3e6e <lcd_write_reg>
    651a:	20d40513          	addi	a0,s0,525
    651e:	0a600593          	li	a1,166
    6522:	94dfd0ef          	jal	ra,3e6e <lcd_write_reg>
    6526:	20e40513          	addi	a0,s0,526
    652a:	4581                	li	a1,0
    652c:	943fd0ef          	jal	ra,3e6e <lcd_write_reg>
    6530:	20f40513          	addi	a0,s0,527
    6534:	0e500593          	li	a1,229
    6538:	937fd0ef          	jal	ra,3e6e <lcd_write_reg>
    653c:	21040513          	addi	a0,s0,528
    6540:	4585                	li	a1,1
    6542:	92dfd0ef          	jal	ra,3e6e <lcd_write_reg>
    6546:	21140513          	addi	a0,s0,529
    654a:	45cd                	li	a1,19
    654c:	923fd0ef          	jal	ra,3e6e <lcd_write_reg>
    6550:	21240513          	addi	a0,s0,530
    6554:	4585                	li	a1,1
    6556:	919fd0ef          	jal	ra,3e6e <lcd_write_reg>
    655a:	21340513          	addi	a0,s0,531
    655e:	05400593          	li	a1,84
    6562:	90dfd0ef          	jal	ra,3e6e <lcd_write_reg>
    6566:	21440513          	addi	a0,s0,532
    656a:	4585                	li	a1,1
    656c:	903fd0ef          	jal	ra,3e6e <lcd_write_reg>
    6570:	21540513          	addi	a0,s0,533
    6574:	08200593          	li	a1,130
    6578:	8f7fd0ef          	jal	ra,3e6e <lcd_write_reg>
    657c:	21640513          	addi	a0,s0,534
    6580:	4585                	li	a1,1
    6582:	8edfd0ef          	jal	ra,3e6e <lcd_write_reg>
    6586:	21740513          	addi	a0,s0,535
    658a:	0ca00593          	li	a1,202
    658e:	8e1fd0ef          	jal	ra,3e6e <lcd_write_reg>
    6592:	21840513          	addi	a0,s0,536
    6596:	4589                	li	a1,2
    6598:	8d7fd0ef          	jal	ra,3e6e <lcd_write_reg>
    659c:	21940513          	addi	a0,s0,537
    65a0:	4581                	li	a1,0
    65a2:	8cdfd0ef          	jal	ra,3e6e <lcd_write_reg>
    65a6:	21a40513          	addi	a0,s0,538
    65aa:	4589                	li	a1,2
    65ac:	8c3fd0ef          	jal	ra,3e6e <lcd_write_reg>
    65b0:	21b40513          	addi	a0,s0,539
    65b4:	4585                	li	a1,1
    65b6:	8b9fd0ef          	jal	ra,3e6e <lcd_write_reg>
    65ba:	21c40513          	addi	a0,s0,540
    65be:	4589                	li	a1,2
    65c0:	8affd0ef          	jal	ra,3e6e <lcd_write_reg>
    65c4:	21d40513          	addi	a0,s0,541
    65c8:	03400593          	li	a1,52
    65cc:	8a3fd0ef          	jal	ra,3e6e <lcd_write_reg>
    65d0:	21e40513          	addi	a0,s0,542
    65d4:	4589                	li	a1,2
    65d6:	899fd0ef          	jal	ra,3e6e <lcd_write_reg>
    65da:	21f40513          	addi	a0,s0,543
    65de:	06700593          	li	a1,103
    65e2:	88dfd0ef          	jal	ra,3e6e <lcd_write_reg>
    65e6:	22040513          	addi	a0,s0,544
    65ea:	4589                	li	a1,2
    65ec:	883fd0ef          	jal	ra,3e6e <lcd_write_reg>
    65f0:	22140513          	addi	a0,s0,545
    65f4:	08400593          	li	a1,132
    65f8:	877fd0ef          	jal	ra,3e6e <lcd_write_reg>
    65fc:	22240513          	addi	a0,s0,546
    6600:	4589                	li	a1,2
    6602:	86dfd0ef          	jal	ra,3e6e <lcd_write_reg>
    6606:	22340513          	addi	a0,s0,547
    660a:	0a400593          	li	a1,164
    660e:	861fd0ef          	jal	ra,3e6e <lcd_write_reg>
    6612:	22440513          	addi	a0,s0,548
    6616:	4589                	li	a1,2
    6618:	857fd0ef          	jal	ra,3e6e <lcd_write_reg>
    661c:	22540513          	addi	a0,s0,549
    6620:	0b700593          	li	a1,183
    6624:	84bfd0ef          	jal	ra,3e6e <lcd_write_reg>
    6628:	22640513          	addi	a0,s0,550
    662c:	4589                	li	a1,2
    662e:	841fd0ef          	jal	ra,3e6e <lcd_write_reg>
    6632:	22740513          	addi	a0,s0,551
    6636:	0cf00593          	li	a1,207
    663a:	835fd0ef          	jal	ra,3e6e <lcd_write_reg>
    663e:	22840513          	addi	a0,s0,552
    6642:	4589                	li	a1,2
    6644:	82bfd0ef          	jal	ra,3e6e <lcd_write_reg>
    6648:	22940513          	addi	a0,s0,553
    664c:	0de00593          	li	a1,222
    6650:	81ffd0ef          	jal	ra,3e6e <lcd_write_reg>
    6654:	22a40513          	addi	a0,s0,554
    6658:	4589                	li	a1,2
    665a:	815fd0ef          	jal	ra,3e6e <lcd_write_reg>
    665e:	22b40513          	addi	a0,s0,555
    6662:	0f200593          	li	a1,242
    6666:	809fd0ef          	jal	ra,3e6e <lcd_write_reg>
    666a:	22c40513          	addi	a0,s0,556
    666e:	4589                	li	a1,2
    6670:	ffefd0ef          	jal	ra,3e6e <lcd_write_reg>
    6674:	22d40513          	addi	a0,s0,557
    6678:	0fe00593          	li	a1,254
    667c:	ff2fd0ef          	jal	ra,3e6e <lcd_write_reg>
    6680:	22e40513          	addi	a0,s0,558
    6684:	458d                	li	a1,3
    6686:	fe8fd0ef          	jal	ra,3e6e <lcd_write_reg>
    668a:	22f40513          	addi	a0,s0,559
    668e:	45c1                	li	a1,16
    6690:	fdefd0ef          	jal	ra,3e6e <lcd_write_reg>
    6694:	23040513          	addi	a0,s0,560
    6698:	458d                	li	a1,3
    669a:	fd4fd0ef          	jal	ra,3e6e <lcd_write_reg>
    669e:	23140513          	addi	a0,s0,561
    66a2:	03300593          	li	a1,51
    66a6:	fc8fd0ef          	jal	ra,3e6e <lcd_write_reg>
    66aa:	23240513          	addi	a0,s0,562
    66ae:	458d                	li	a1,3
    66b0:	fbefd0ef          	jal	ra,3e6e <lcd_write_reg>
    66b4:	23340513          	addi	a0,s0,563
    66b8:	06d00593          	li	a1,109
    66bc:	fb2fd0ef          	jal	ra,3e6e <lcd_write_reg>
    66c0:	30040513          	addi	a0,s0,768
    66c4:	4581                	li	a1,0
    66c6:	fa8fd0ef          	jal	ra,3e6e <lcd_write_reg>
    66ca:	30140513          	addi	a0,s0,769
    66ce:	03300593          	li	a1,51
    66d2:	f9cfd0ef          	jal	ra,3e6e <lcd_write_reg>
    66d6:	30240513          	addi	a0,s0,770
    66da:	4581                	li	a1,0
    66dc:	f92fd0ef          	jal	ra,3e6e <lcd_write_reg>
    66e0:	30340513          	addi	a0,s0,771
    66e4:	03400593          	li	a1,52
    66e8:	f86fd0ef          	jal	ra,3e6e <lcd_write_reg>
    66ec:	30440513          	addi	a0,s0,772
    66f0:	4581                	li	a1,0
    66f2:	f7cfd0ef          	jal	ra,3e6e <lcd_write_reg>
    66f6:	30540513          	addi	a0,s0,773
    66fa:	03a00593          	li	a1,58
    66fe:	f70fd0ef          	jal	ra,3e6e <lcd_write_reg>
    6702:	30640513          	addi	a0,s0,774
    6706:	4581                	li	a1,0
    6708:	f66fd0ef          	jal	ra,3e6e <lcd_write_reg>
    670c:	30740513          	addi	a0,s0,775
    6710:	04a00593          	li	a1,74
    6714:	f5afd0ef          	jal	ra,3e6e <lcd_write_reg>
    6718:	30840513          	addi	a0,s0,776
    671c:	4581                	li	a1,0
    671e:	f50fd0ef          	jal	ra,3e6e <lcd_write_reg>
    6722:	30940513          	addi	a0,s0,777
    6726:	05c00593          	li	a1,92
    672a:	f44fd0ef          	jal	ra,3e6e <lcd_write_reg>
    672e:	30a40513          	addi	a0,s0,778
    6732:	4581                	li	a1,0
    6734:	f3afd0ef          	jal	ra,3e6e <lcd_write_reg>
    6738:	30b40513          	addi	a0,s0,779
    673c:	08100593          	li	a1,129
    6740:	f2efd0ef          	jal	ra,3e6e <lcd_write_reg>
    6744:	30c40513          	addi	a0,s0,780
    6748:	4581                	li	a1,0
    674a:	f24fd0ef          	jal	ra,3e6e <lcd_write_reg>
    674e:	30d40513          	addi	a0,s0,781
    6752:	0a600593          	li	a1,166
    6756:	f18fd0ef          	jal	ra,3e6e <lcd_write_reg>
    675a:	30e40513          	addi	a0,s0,782
    675e:	4581                	li	a1,0
    6760:	f0efd0ef          	jal	ra,3e6e <lcd_write_reg>
    6764:	30f40513          	addi	a0,s0,783
    6768:	0e500593          	li	a1,229
    676c:	f02fd0ef          	jal	ra,3e6e <lcd_write_reg>
    6770:	31040513          	addi	a0,s0,784
    6774:	4585                	li	a1,1
    6776:	ef8fd0ef          	jal	ra,3e6e <lcd_write_reg>
    677a:	31140513          	addi	a0,s0,785
    677e:	45cd                	li	a1,19
    6780:	eeefd0ef          	jal	ra,3e6e <lcd_write_reg>
    6784:	31240513          	addi	a0,s0,786
    6788:	4585                	li	a1,1
    678a:	ee4fd0ef          	jal	ra,3e6e <lcd_write_reg>
    678e:	31340513          	addi	a0,s0,787
    6792:	05400593          	li	a1,84
    6796:	ed8fd0ef          	jal	ra,3e6e <lcd_write_reg>
    679a:	31440513          	addi	a0,s0,788
    679e:	4585                	li	a1,1
    67a0:	ecefd0ef          	jal	ra,3e6e <lcd_write_reg>
    67a4:	31540513          	addi	a0,s0,789
    67a8:	08200593          	li	a1,130
    67ac:	ec2fd0ef          	jal	ra,3e6e <lcd_write_reg>
    67b0:	31640513          	addi	a0,s0,790
    67b4:	4585                	li	a1,1
    67b6:	eb8fd0ef          	jal	ra,3e6e <lcd_write_reg>
    67ba:	31740513          	addi	a0,s0,791
    67be:	0ca00593          	li	a1,202
    67c2:	eacfd0ef          	jal	ra,3e6e <lcd_write_reg>
    67c6:	31840513          	addi	a0,s0,792
    67ca:	4589                	li	a1,2
    67cc:	ea2fd0ef          	jal	ra,3e6e <lcd_write_reg>
    67d0:	31940513          	addi	a0,s0,793
    67d4:	4581                	li	a1,0
    67d6:	e98fd0ef          	jal	ra,3e6e <lcd_write_reg>
    67da:	31a40513          	addi	a0,s0,794
    67de:	4589                	li	a1,2
    67e0:	e8efd0ef          	jal	ra,3e6e <lcd_write_reg>
    67e4:	31b40513          	addi	a0,s0,795
    67e8:	4585                	li	a1,1
    67ea:	e84fd0ef          	jal	ra,3e6e <lcd_write_reg>
    67ee:	31c40513          	addi	a0,s0,796
    67f2:	4589                	li	a1,2
    67f4:	e7afd0ef          	jal	ra,3e6e <lcd_write_reg>
    67f8:	31d40513          	addi	a0,s0,797
    67fc:	03400593          	li	a1,52
    6800:	e6efd0ef          	jal	ra,3e6e <lcd_write_reg>
    6804:	31e40513          	addi	a0,s0,798
    6808:	4589                	li	a1,2
    680a:	e64fd0ef          	jal	ra,3e6e <lcd_write_reg>
    680e:	31f40513          	addi	a0,s0,799
    6812:	06700593          	li	a1,103
    6816:	e58fd0ef          	jal	ra,3e6e <lcd_write_reg>
    681a:	32040513          	addi	a0,s0,800
    681e:	4589                	li	a1,2
    6820:	e4efd0ef          	jal	ra,3e6e <lcd_write_reg>
    6824:	32140513          	addi	a0,s0,801
    6828:	08400593          	li	a1,132
    682c:	e42fd0ef          	jal	ra,3e6e <lcd_write_reg>
    6830:	32240513          	addi	a0,s0,802
    6834:	4589                	li	a1,2
    6836:	e38fd0ef          	jal	ra,3e6e <lcd_write_reg>
    683a:	32340513          	addi	a0,s0,803
    683e:	0a400593          	li	a1,164
    6842:	e2cfd0ef          	jal	ra,3e6e <lcd_write_reg>
    6846:	32440513          	addi	a0,s0,804
    684a:	4589                	li	a1,2
    684c:	e22fd0ef          	jal	ra,3e6e <lcd_write_reg>
    6850:	32540513          	addi	a0,s0,805
    6854:	0b700593          	li	a1,183
    6858:	e16fd0ef          	jal	ra,3e6e <lcd_write_reg>
    685c:	32640513          	addi	a0,s0,806
    6860:	4589                	li	a1,2
    6862:	e0cfd0ef          	jal	ra,3e6e <lcd_write_reg>
    6866:	32740513          	addi	a0,s0,807
    686a:	0cf00593          	li	a1,207
    686e:	e00fd0ef          	jal	ra,3e6e <lcd_write_reg>
    6872:	32840513          	addi	a0,s0,808
    6876:	4589                	li	a1,2
    6878:	df6fd0ef          	jal	ra,3e6e <lcd_write_reg>
    687c:	32940513          	addi	a0,s0,809
    6880:	0de00593          	li	a1,222
    6884:	deafd0ef          	jal	ra,3e6e <lcd_write_reg>
    6888:	32a40513          	addi	a0,s0,810
    688c:	4589                	li	a1,2
    688e:	de0fd0ef          	jal	ra,3e6e <lcd_write_reg>
    6892:	32b40513          	addi	a0,s0,811
    6896:	0f200593          	li	a1,242
    689a:	dd4fd0ef          	jal	ra,3e6e <lcd_write_reg>
    689e:	32c40513          	addi	a0,s0,812
    68a2:	4589                	li	a1,2
    68a4:	dcafd0ef          	jal	ra,3e6e <lcd_write_reg>
    68a8:	32d40513          	addi	a0,s0,813
    68ac:	0fe00593          	li	a1,254
    68b0:	dbefd0ef          	jal	ra,3e6e <lcd_write_reg>
    68b4:	32e40513          	addi	a0,s0,814
    68b8:	458d                	li	a1,3
    68ba:	db4fd0ef          	jal	ra,3e6e <lcd_write_reg>
    68be:	32f40513          	addi	a0,s0,815
    68c2:	45c1                	li	a1,16
    68c4:	daafd0ef          	jal	ra,3e6e <lcd_write_reg>
    68c8:	33040513          	addi	a0,s0,816
    68cc:	458d                	li	a1,3
    68ce:	da0fd0ef          	jal	ra,3e6e <lcd_write_reg>
    68d2:	33140513          	addi	a0,s0,817
    68d6:	03300593          	li	a1,51
    68da:	d94fd0ef          	jal	ra,3e6e <lcd_write_reg>
    68de:	33240513          	addi	a0,s0,818
    68e2:	458d                	li	a1,3
    68e4:	d8afd0ef          	jal	ra,3e6e <lcd_write_reg>
    68e8:	33340513          	addi	a0,s0,819
    68ec:	06d00593          	li	a1,109
    68f0:	d7efd0ef          	jal	ra,3e6e <lcd_write_reg>
    68f4:	40040513          	addi	a0,s0,1024
    68f8:	4581                	li	a1,0
    68fa:	d74fd0ef          	jal	ra,3e6e <lcd_write_reg>
    68fe:	40140513          	addi	a0,s0,1025
    6902:	03300593          	li	a1,51
    6906:	d68fd0ef          	jal	ra,3e6e <lcd_write_reg>
    690a:	40240513          	addi	a0,s0,1026
    690e:	4581                	li	a1,0
    6910:	d5efd0ef          	jal	ra,3e6e <lcd_write_reg>
    6914:	40340513          	addi	a0,s0,1027
    6918:	03400593          	li	a1,52
    691c:	d52fd0ef          	jal	ra,3e6e <lcd_write_reg>
    6920:	40440513          	addi	a0,s0,1028
    6924:	4581                	li	a1,0
    6926:	d48fd0ef          	jal	ra,3e6e <lcd_write_reg>
    692a:	40540513          	addi	a0,s0,1029
    692e:	03a00593          	li	a1,58
    6932:	d3cfd0ef          	jal	ra,3e6e <lcd_write_reg>
    6936:	40640513          	addi	a0,s0,1030
    693a:	4581                	li	a1,0
    693c:	d32fd0ef          	jal	ra,3e6e <lcd_write_reg>
    6940:	40740513          	addi	a0,s0,1031
    6944:	04a00593          	li	a1,74
    6948:	d26fd0ef          	jal	ra,3e6e <lcd_write_reg>
    694c:	40840513          	addi	a0,s0,1032
    6950:	4581                	li	a1,0
    6952:	d1cfd0ef          	jal	ra,3e6e <lcd_write_reg>
    6956:	40940513          	addi	a0,s0,1033
    695a:	05c00593          	li	a1,92
    695e:	d10fd0ef          	jal	ra,3e6e <lcd_write_reg>
    6962:	40a40513          	addi	a0,s0,1034
    6966:	4581                	li	a1,0
    6968:	d06fd0ef          	jal	ra,3e6e <lcd_write_reg>
    696c:	40b40513          	addi	a0,s0,1035
    6970:	08100593          	li	a1,129
    6974:	cfafd0ef          	jal	ra,3e6e <lcd_write_reg>
    6978:	40c40513          	addi	a0,s0,1036
    697c:	4581                	li	a1,0
    697e:	cf0fd0ef          	jal	ra,3e6e <lcd_write_reg>
    6982:	40d40513          	addi	a0,s0,1037
    6986:	0a600593          	li	a1,166
    698a:	ce4fd0ef          	jal	ra,3e6e <lcd_write_reg>
    698e:	40e40513          	addi	a0,s0,1038
    6992:	4581                	li	a1,0
    6994:	cdafd0ef          	jal	ra,3e6e <lcd_write_reg>
    6998:	40f40513          	addi	a0,s0,1039
    699c:	0e500593          	li	a1,229
    69a0:	ccefd0ef          	jal	ra,3e6e <lcd_write_reg>
    69a4:	41040513          	addi	a0,s0,1040
    69a8:	4585                	li	a1,1
    69aa:	cc4fd0ef          	jal	ra,3e6e <lcd_write_reg>
    69ae:	41140513          	addi	a0,s0,1041
    69b2:	45cd                	li	a1,19
    69b4:	cbafd0ef          	jal	ra,3e6e <lcd_write_reg>
    69b8:	41240513          	addi	a0,s0,1042
    69bc:	4585                	li	a1,1
    69be:	cb0fd0ef          	jal	ra,3e6e <lcd_write_reg>
    69c2:	41340513          	addi	a0,s0,1043
    69c6:	05400593          	li	a1,84
    69ca:	ca4fd0ef          	jal	ra,3e6e <lcd_write_reg>
    69ce:	41440513          	addi	a0,s0,1044
    69d2:	4585                	li	a1,1
    69d4:	c9afd0ef          	jal	ra,3e6e <lcd_write_reg>
    69d8:	41540513          	addi	a0,s0,1045
    69dc:	08200593          	li	a1,130
    69e0:	c8efd0ef          	jal	ra,3e6e <lcd_write_reg>
    69e4:	41640513          	addi	a0,s0,1046
    69e8:	4585                	li	a1,1
    69ea:	c84fd0ef          	jal	ra,3e6e <lcd_write_reg>
    69ee:	41740513          	addi	a0,s0,1047
    69f2:	0ca00593          	li	a1,202
    69f6:	c78fd0ef          	jal	ra,3e6e <lcd_write_reg>
    69fa:	41840513          	addi	a0,s0,1048
    69fe:	4589                	li	a1,2
    6a00:	c6efd0ef          	jal	ra,3e6e <lcd_write_reg>
    6a04:	41940513          	addi	a0,s0,1049
    6a08:	4581                	li	a1,0
    6a0a:	c64fd0ef          	jal	ra,3e6e <lcd_write_reg>
    6a0e:	41a40513          	addi	a0,s0,1050
    6a12:	4589                	li	a1,2
    6a14:	c5afd0ef          	jal	ra,3e6e <lcd_write_reg>
    6a18:	41b40513          	addi	a0,s0,1051
    6a1c:	4585                	li	a1,1
    6a1e:	c50fd0ef          	jal	ra,3e6e <lcd_write_reg>
    6a22:	41c40513          	addi	a0,s0,1052
    6a26:	4589                	li	a1,2
    6a28:	c46fd0ef          	jal	ra,3e6e <lcd_write_reg>
    6a2c:	41d40513          	addi	a0,s0,1053
    6a30:	03400593          	li	a1,52
    6a34:	c3afd0ef          	jal	ra,3e6e <lcd_write_reg>
    6a38:	41e40513          	addi	a0,s0,1054
    6a3c:	4589                	li	a1,2
    6a3e:	c30fd0ef          	jal	ra,3e6e <lcd_write_reg>
    6a42:	41f40513          	addi	a0,s0,1055
    6a46:	06700593          	li	a1,103
    6a4a:	c24fd0ef          	jal	ra,3e6e <lcd_write_reg>
    6a4e:	42040513          	addi	a0,s0,1056
    6a52:	4589                	li	a1,2
    6a54:	c1afd0ef          	jal	ra,3e6e <lcd_write_reg>
    6a58:	42140513          	addi	a0,s0,1057
    6a5c:	08400593          	li	a1,132
    6a60:	c0efd0ef          	jal	ra,3e6e <lcd_write_reg>
    6a64:	42240513          	addi	a0,s0,1058
    6a68:	4589                	li	a1,2
    6a6a:	c04fd0ef          	jal	ra,3e6e <lcd_write_reg>
    6a6e:	42340513          	addi	a0,s0,1059
    6a72:	0a400593          	li	a1,164
    6a76:	bf8fd0ef          	jal	ra,3e6e <lcd_write_reg>
    6a7a:	42440513          	addi	a0,s0,1060
    6a7e:	4589                	li	a1,2
    6a80:	beefd0ef          	jal	ra,3e6e <lcd_write_reg>
    6a84:	42540513          	addi	a0,s0,1061
    6a88:	0b700593          	li	a1,183
    6a8c:	be2fd0ef          	jal	ra,3e6e <lcd_write_reg>
    6a90:	42640513          	addi	a0,s0,1062
    6a94:	4589                	li	a1,2
    6a96:	bd8fd0ef          	jal	ra,3e6e <lcd_write_reg>
    6a9a:	42740513          	addi	a0,s0,1063
    6a9e:	0cf00593          	li	a1,207
    6aa2:	bccfd0ef          	jal	ra,3e6e <lcd_write_reg>
    6aa6:	42840513          	addi	a0,s0,1064
    6aaa:	4589                	li	a1,2
    6aac:	bc2fd0ef          	jal	ra,3e6e <lcd_write_reg>
    6ab0:	42940513          	addi	a0,s0,1065
    6ab4:	0de00593          	li	a1,222
    6ab8:	bb6fd0ef          	jal	ra,3e6e <lcd_write_reg>
    6abc:	42a40513          	addi	a0,s0,1066
    6ac0:	4589                	li	a1,2
    6ac2:	bacfd0ef          	jal	ra,3e6e <lcd_write_reg>
    6ac6:	42b40513          	addi	a0,s0,1067
    6aca:	0f200593          	li	a1,242
    6ace:	ba0fd0ef          	jal	ra,3e6e <lcd_write_reg>
    6ad2:	42c40513          	addi	a0,s0,1068
    6ad6:	4589                	li	a1,2
    6ad8:	b96fd0ef          	jal	ra,3e6e <lcd_write_reg>
    6adc:	42d40513          	addi	a0,s0,1069
    6ae0:	0fe00593          	li	a1,254
    6ae4:	b8afd0ef          	jal	ra,3e6e <lcd_write_reg>
    6ae8:	42e40513          	addi	a0,s0,1070
    6aec:	458d                	li	a1,3
    6aee:	b80fd0ef          	jal	ra,3e6e <lcd_write_reg>
    6af2:	42f40513          	addi	a0,s0,1071
    6af6:	45c1                	li	a1,16
    6af8:	b76fd0ef          	jal	ra,3e6e <lcd_write_reg>
    6afc:	43040513          	addi	a0,s0,1072
    6b00:	458d                	li	a1,3
    6b02:	b6cfd0ef          	jal	ra,3e6e <lcd_write_reg>
    6b06:	43140513          	addi	a0,s0,1073
    6b0a:	03300593          	li	a1,51
    6b0e:	b60fd0ef          	jal	ra,3e6e <lcd_write_reg>
    6b12:	43240513          	addi	a0,s0,1074
    6b16:	458d                	li	a1,3
    6b18:	b56fd0ef          	jal	ra,3e6e <lcd_write_reg>
    6b1c:	43340513          	addi	a0,s0,1075
    6b20:	06d00593          	li	a1,109
    6b24:	b4afd0ef          	jal	ra,3e6e <lcd_write_reg>
    6b28:	50040513          	addi	a0,s0,1280
    6b2c:	4581                	li	a1,0
    6b2e:	b40fd0ef          	jal	ra,3e6e <lcd_write_reg>
    6b32:	50140513          	addi	a0,s0,1281
    6b36:	03300593          	li	a1,51
    6b3a:	b34fd0ef          	jal	ra,3e6e <lcd_write_reg>
    6b3e:	50240513          	addi	a0,s0,1282
    6b42:	4581                	li	a1,0
    6b44:	b2afd0ef          	jal	ra,3e6e <lcd_write_reg>
    6b48:	50340513          	addi	a0,s0,1283
    6b4c:	03400593          	li	a1,52
    6b50:	b1efd0ef          	jal	ra,3e6e <lcd_write_reg>
    6b54:	50440513          	addi	a0,s0,1284
    6b58:	4581                	li	a1,0
    6b5a:	b14fd0ef          	jal	ra,3e6e <lcd_write_reg>
    6b5e:	50540513          	addi	a0,s0,1285
    6b62:	03a00593          	li	a1,58
    6b66:	b08fd0ef          	jal	ra,3e6e <lcd_write_reg>
    6b6a:	50640513          	addi	a0,s0,1286
    6b6e:	4581                	li	a1,0
    6b70:	afefd0ef          	jal	ra,3e6e <lcd_write_reg>
    6b74:	50740513          	addi	a0,s0,1287
    6b78:	04a00593          	li	a1,74
    6b7c:	af2fd0ef          	jal	ra,3e6e <lcd_write_reg>
    6b80:	50840513          	addi	a0,s0,1288
    6b84:	4581                	li	a1,0
    6b86:	ae8fd0ef          	jal	ra,3e6e <lcd_write_reg>
    6b8a:	50940513          	addi	a0,s0,1289
    6b8e:	05c00593          	li	a1,92
    6b92:	adcfd0ef          	jal	ra,3e6e <lcd_write_reg>
    6b96:	50a40513          	addi	a0,s0,1290
    6b9a:	4581                	li	a1,0
    6b9c:	ad2fd0ef          	jal	ra,3e6e <lcd_write_reg>
    6ba0:	50b40513          	addi	a0,s0,1291
    6ba4:	08100593          	li	a1,129
    6ba8:	ac6fd0ef          	jal	ra,3e6e <lcd_write_reg>
    6bac:	50c40513          	addi	a0,s0,1292
    6bb0:	4581                	li	a1,0
    6bb2:	abcfd0ef          	jal	ra,3e6e <lcd_write_reg>
    6bb6:	50d40513          	addi	a0,s0,1293
    6bba:	0a600593          	li	a1,166
    6bbe:	ab0fd0ef          	jal	ra,3e6e <lcd_write_reg>
    6bc2:	50e40513          	addi	a0,s0,1294
    6bc6:	4581                	li	a1,0
    6bc8:	aa6fd0ef          	jal	ra,3e6e <lcd_write_reg>
    6bcc:	50f40513          	addi	a0,s0,1295
    6bd0:	0e500593          	li	a1,229
    6bd4:	a9afd0ef          	jal	ra,3e6e <lcd_write_reg>
    6bd8:	51040513          	addi	a0,s0,1296
    6bdc:	4585                	li	a1,1
    6bde:	a90fd0ef          	jal	ra,3e6e <lcd_write_reg>
    6be2:	51140513          	addi	a0,s0,1297
    6be6:	45cd                	li	a1,19
    6be8:	a86fd0ef          	jal	ra,3e6e <lcd_write_reg>
    6bec:	51240513          	addi	a0,s0,1298
    6bf0:	4585                	li	a1,1
    6bf2:	a7cfd0ef          	jal	ra,3e6e <lcd_write_reg>
    6bf6:	51340513          	addi	a0,s0,1299
    6bfa:	05400593          	li	a1,84
    6bfe:	a70fd0ef          	jal	ra,3e6e <lcd_write_reg>
    6c02:	51440513          	addi	a0,s0,1300
    6c06:	4585                	li	a1,1
    6c08:	a66fd0ef          	jal	ra,3e6e <lcd_write_reg>
    6c0c:	51540513          	addi	a0,s0,1301
    6c10:	08200593          	li	a1,130
    6c14:	a5afd0ef          	jal	ra,3e6e <lcd_write_reg>
    6c18:	51640513          	addi	a0,s0,1302
    6c1c:	4585                	li	a1,1
    6c1e:	a50fd0ef          	jal	ra,3e6e <lcd_write_reg>
    6c22:	51740513          	addi	a0,s0,1303
    6c26:	0ca00593          	li	a1,202
    6c2a:	a44fd0ef          	jal	ra,3e6e <lcd_write_reg>
    6c2e:	51840513          	addi	a0,s0,1304
    6c32:	4589                	li	a1,2
    6c34:	a3afd0ef          	jal	ra,3e6e <lcd_write_reg>
    6c38:	51940513          	addi	a0,s0,1305
    6c3c:	4581                	li	a1,0
    6c3e:	a30fd0ef          	jal	ra,3e6e <lcd_write_reg>
    6c42:	51a40513          	addi	a0,s0,1306
    6c46:	4589                	li	a1,2
    6c48:	a26fd0ef          	jal	ra,3e6e <lcd_write_reg>
    6c4c:	51b40513          	addi	a0,s0,1307
    6c50:	4585                	li	a1,1
    6c52:	a1cfd0ef          	jal	ra,3e6e <lcd_write_reg>
    6c56:	51c40513          	addi	a0,s0,1308
    6c5a:	4589                	li	a1,2
    6c5c:	a12fd0ef          	jal	ra,3e6e <lcd_write_reg>
    6c60:	51d40513          	addi	a0,s0,1309
    6c64:	03400593          	li	a1,52
    6c68:	a06fd0ef          	jal	ra,3e6e <lcd_write_reg>
    6c6c:	51e40513          	addi	a0,s0,1310
    6c70:	4589                	li	a1,2
    6c72:	9fcfd0ef          	jal	ra,3e6e <lcd_write_reg>
    6c76:	51f40513          	addi	a0,s0,1311
    6c7a:	06700593          	li	a1,103
    6c7e:	9f0fd0ef          	jal	ra,3e6e <lcd_write_reg>
    6c82:	52040513          	addi	a0,s0,1312
    6c86:	4589                	li	a1,2
    6c88:	9e6fd0ef          	jal	ra,3e6e <lcd_write_reg>
    6c8c:	52140513          	addi	a0,s0,1313
    6c90:	08400593          	li	a1,132
    6c94:	9dafd0ef          	jal	ra,3e6e <lcd_write_reg>
    6c98:	52240513          	addi	a0,s0,1314
    6c9c:	4589                	li	a1,2
    6c9e:	9d0fd0ef          	jal	ra,3e6e <lcd_write_reg>
    6ca2:	52340513          	addi	a0,s0,1315
    6ca6:	0a400593          	li	a1,164
    6caa:	9c4fd0ef          	jal	ra,3e6e <lcd_write_reg>
    6cae:	52440513          	addi	a0,s0,1316
    6cb2:	4589                	li	a1,2
    6cb4:	9bafd0ef          	jal	ra,3e6e <lcd_write_reg>
    6cb8:	52540513          	addi	a0,s0,1317
    6cbc:	0b700593          	li	a1,183
    6cc0:	9aefd0ef          	jal	ra,3e6e <lcd_write_reg>
    6cc4:	52640513          	addi	a0,s0,1318
    6cc8:	4589                	li	a1,2
    6cca:	9a4fd0ef          	jal	ra,3e6e <lcd_write_reg>
    6cce:	52740513          	addi	a0,s0,1319
    6cd2:	0cf00593          	li	a1,207
    6cd6:	998fd0ef          	jal	ra,3e6e <lcd_write_reg>
    6cda:	52840513          	addi	a0,s0,1320
    6cde:	4589                	li	a1,2
    6ce0:	98efd0ef          	jal	ra,3e6e <lcd_write_reg>
    6ce4:	52940513          	addi	a0,s0,1321
    6ce8:	0de00593          	li	a1,222
    6cec:	982fd0ef          	jal	ra,3e6e <lcd_write_reg>
    6cf0:	52a40513          	addi	a0,s0,1322
    6cf4:	4589                	li	a1,2
    6cf6:	978fd0ef          	jal	ra,3e6e <lcd_write_reg>
    6cfa:	52b40513          	addi	a0,s0,1323
    6cfe:	0f200593          	li	a1,242
    6d02:	96cfd0ef          	jal	ra,3e6e <lcd_write_reg>
    6d06:	52c40513          	addi	a0,s0,1324
    6d0a:	4589                	li	a1,2
    6d0c:	962fd0ef          	jal	ra,3e6e <lcd_write_reg>
    6d10:	52d40513          	addi	a0,s0,1325
    6d14:	0fe00593          	li	a1,254
    6d18:	956fd0ef          	jal	ra,3e6e <lcd_write_reg>
    6d1c:	52e40513          	addi	a0,s0,1326
    6d20:	458d                	li	a1,3
    6d22:	94cfd0ef          	jal	ra,3e6e <lcd_write_reg>
    6d26:	52f40513          	addi	a0,s0,1327
    6d2a:	45c1                	li	a1,16
    6d2c:	942fd0ef          	jal	ra,3e6e <lcd_write_reg>
    6d30:	53040513          	addi	a0,s0,1328
    6d34:	458d                	li	a1,3
    6d36:	938fd0ef          	jal	ra,3e6e <lcd_write_reg>
    6d3a:	53140513          	addi	a0,s0,1329
    6d3e:	03300593          	li	a1,51
    6d42:	92cfd0ef          	jal	ra,3e6e <lcd_write_reg>
    6d46:	53240513          	addi	a0,s0,1330
    6d4a:	458d                	li	a1,3
    6d4c:	922fd0ef          	jal	ra,3e6e <lcd_write_reg>
    6d50:	53340513          	addi	a0,s0,1331
    6d54:	06d00593          	li	a1,109
    6d58:	916fd0ef          	jal	ra,3e6e <lcd_write_reg>
    6d5c:	60040513          	addi	a0,s0,1536
    6d60:	4581                	li	a1,0
    6d62:	90cfd0ef          	jal	ra,3e6e <lcd_write_reg>
    6d66:	60140513          	addi	a0,s0,1537
    6d6a:	03300593          	li	a1,51
    6d6e:	900fd0ef          	jal	ra,3e6e <lcd_write_reg>
    6d72:	60240513          	addi	a0,s0,1538
    6d76:	4581                	li	a1,0
    6d78:	8f6fd0ef          	jal	ra,3e6e <lcd_write_reg>
    6d7c:	60340513          	addi	a0,s0,1539
    6d80:	03400593          	li	a1,52
    6d84:	8eafd0ef          	jal	ra,3e6e <lcd_write_reg>
    6d88:	60440513          	addi	a0,s0,1540
    6d8c:	4581                	li	a1,0
    6d8e:	8e0fd0ef          	jal	ra,3e6e <lcd_write_reg>
    6d92:	60540513          	addi	a0,s0,1541
    6d96:	03a00593          	li	a1,58
    6d9a:	8d4fd0ef          	jal	ra,3e6e <lcd_write_reg>
    6d9e:	60640513          	addi	a0,s0,1542
    6da2:	4581                	li	a1,0
    6da4:	8cafd0ef          	jal	ra,3e6e <lcd_write_reg>
    6da8:	60740513          	addi	a0,s0,1543
    6dac:	04a00593          	li	a1,74
    6db0:	8befd0ef          	jal	ra,3e6e <lcd_write_reg>
    6db4:	60840513          	addi	a0,s0,1544
    6db8:	4581                	li	a1,0
    6dba:	8b4fd0ef          	jal	ra,3e6e <lcd_write_reg>
    6dbe:	60940513          	addi	a0,s0,1545
    6dc2:	05c00593          	li	a1,92
    6dc6:	8a8fd0ef          	jal	ra,3e6e <lcd_write_reg>
    6dca:	60a40513          	addi	a0,s0,1546
    6dce:	4581                	li	a1,0
    6dd0:	89efd0ef          	jal	ra,3e6e <lcd_write_reg>
    6dd4:	60b40513          	addi	a0,s0,1547
    6dd8:	08100593          	li	a1,129
    6ddc:	892fd0ef          	jal	ra,3e6e <lcd_write_reg>
    6de0:	60c40513          	addi	a0,s0,1548
    6de4:	4581                	li	a1,0
    6de6:	888fd0ef          	jal	ra,3e6e <lcd_write_reg>
    6dea:	60d40513          	addi	a0,s0,1549
    6dee:	0a600593          	li	a1,166
    6df2:	87cfd0ef          	jal	ra,3e6e <lcd_write_reg>
    6df6:	60e40513          	addi	a0,s0,1550
    6dfa:	4581                	li	a1,0
    6dfc:	872fd0ef          	jal	ra,3e6e <lcd_write_reg>
    6e00:	60f40513          	addi	a0,s0,1551
    6e04:	0e500593          	li	a1,229
    6e08:	866fd0ef          	jal	ra,3e6e <lcd_write_reg>
    6e0c:	61040513          	addi	a0,s0,1552
    6e10:	4585                	li	a1,1
    6e12:	85cfd0ef          	jal	ra,3e6e <lcd_write_reg>
    6e16:	61140513          	addi	a0,s0,1553
    6e1a:	45cd                	li	a1,19
    6e1c:	852fd0ef          	jal	ra,3e6e <lcd_write_reg>
    6e20:	61240513          	addi	a0,s0,1554
    6e24:	4585                	li	a1,1
    6e26:	848fd0ef          	jal	ra,3e6e <lcd_write_reg>
    6e2a:	61340513          	addi	a0,s0,1555
    6e2e:	05400593          	li	a1,84
    6e32:	83cfd0ef          	jal	ra,3e6e <lcd_write_reg>
    6e36:	61440513          	addi	a0,s0,1556
    6e3a:	4585                	li	a1,1
    6e3c:	832fd0ef          	jal	ra,3e6e <lcd_write_reg>
    6e40:	61540513          	addi	a0,s0,1557
    6e44:	08200593          	li	a1,130
    6e48:	826fd0ef          	jal	ra,3e6e <lcd_write_reg>
    6e4c:	61640513          	addi	a0,s0,1558
    6e50:	4585                	li	a1,1
    6e52:	81cfd0ef          	jal	ra,3e6e <lcd_write_reg>
    6e56:	61740513          	addi	a0,s0,1559
    6e5a:	0ca00593          	li	a1,202
    6e5e:	810fd0ef          	jal	ra,3e6e <lcd_write_reg>
    6e62:	61840513          	addi	a0,s0,1560
    6e66:	4589                	li	a1,2
    6e68:	806fd0ef          	jal	ra,3e6e <lcd_write_reg>
    6e6c:	61940513          	addi	a0,s0,1561
    6e70:	4581                	li	a1,0
    6e72:	ffdfc0ef          	jal	ra,3e6e <lcd_write_reg>
    6e76:	61a40513          	addi	a0,s0,1562
    6e7a:	4589                	li	a1,2
    6e7c:	64b5                	lui	s1,0xd
    6e7e:	ff1fc0ef          	jal	ra,3e6e <lcd_write_reg>
    6e82:	61b48513          	addi	a0,s1,1563 # d61b <asc2_1206+0x1cf>
    6e86:	4585                	li	a1,1
    6e88:	fe7fc0ef          	jal	ra,3e6e <lcd_write_reg>
    6e8c:	61c48513          	addi	a0,s1,1564
    6e90:	4589                	li	a1,2
    6e92:	fddfc0ef          	jal	ra,3e6e <lcd_write_reg>
    6e96:	61d48513          	addi	a0,s1,1565
    6e9a:	03400593          	li	a1,52
    6e9e:	fd1fc0ef          	jal	ra,3e6e <lcd_write_reg>
    6ea2:	61e48513          	addi	a0,s1,1566
    6ea6:	4589                	li	a1,2
    6ea8:	fc7fc0ef          	jal	ra,3e6e <lcd_write_reg>
    6eac:	61f48513          	addi	a0,s1,1567
    6eb0:	06700593          	li	a1,103
    6eb4:	fbbfc0ef          	jal	ra,3e6e <lcd_write_reg>
    6eb8:	62048513          	addi	a0,s1,1568
    6ebc:	4589                	li	a1,2
    6ebe:	fb1fc0ef          	jal	ra,3e6e <lcd_write_reg>
    6ec2:	62148513          	addi	a0,s1,1569
    6ec6:	08400593          	li	a1,132
    6eca:	fa5fc0ef          	jal	ra,3e6e <lcd_write_reg>
    6ece:	62248513          	addi	a0,s1,1570
    6ed2:	4589                	li	a1,2
    6ed4:	f9bfc0ef          	jal	ra,3e6e <lcd_write_reg>
    6ed8:	62348513          	addi	a0,s1,1571
    6edc:	0a400593          	li	a1,164
    6ee0:	f8ffc0ef          	jal	ra,3e6e <lcd_write_reg>
    6ee4:	62448513          	addi	a0,s1,1572
    6ee8:	4589                	li	a1,2
    6eea:	f85fc0ef          	jal	ra,3e6e <lcd_write_reg>
    6eee:	62548513          	addi	a0,s1,1573
    6ef2:	0b700593          	li	a1,183
    6ef6:	f79fc0ef          	jal	ra,3e6e <lcd_write_reg>
    6efa:	62648513          	addi	a0,s1,1574
    6efe:	4589                	li	a1,2
    6f00:	f6ffc0ef          	jal	ra,3e6e <lcd_write_reg>
    6f04:	62748513          	addi	a0,s1,1575
    6f08:	0cf00593          	li	a1,207
    6f0c:	f63fc0ef          	jal	ra,3e6e <lcd_write_reg>
    6f10:	62848513          	addi	a0,s1,1576
    6f14:	4589                	li	a1,2
    6f16:	f59fc0ef          	jal	ra,3e6e <lcd_write_reg>
    6f1a:	62948513          	addi	a0,s1,1577
    6f1e:	0de00593          	li	a1,222
    6f22:	f4dfc0ef          	jal	ra,3e6e <lcd_write_reg>
    6f26:	62a48513          	addi	a0,s1,1578
    6f2a:	4589                	li	a1,2
    6f2c:	f43fc0ef          	jal	ra,3e6e <lcd_write_reg>
    6f30:	62b48513          	addi	a0,s1,1579
    6f34:	0f200593          	li	a1,242
    6f38:	f37fc0ef          	jal	ra,3e6e <lcd_write_reg>
    6f3c:	62c48513          	addi	a0,s1,1580
    6f40:	4589                	li	a1,2
    6f42:	f2dfc0ef          	jal	ra,3e6e <lcd_write_reg>
    6f46:	62d48513          	addi	a0,s1,1581
    6f4a:	0fe00593          	li	a1,254
    6f4e:	f21fc0ef          	jal	ra,3e6e <lcd_write_reg>
    6f52:	62e48513          	addi	a0,s1,1582
    6f56:	458d                	li	a1,3
    6f58:	f17fc0ef          	jal	ra,3e6e <lcd_write_reg>
    6f5c:	62f48513          	addi	a0,s1,1583
    6f60:	45c1                	li	a1,16
    6f62:	f0dfc0ef          	jal	ra,3e6e <lcd_write_reg>
    6f66:	63048513          	addi	a0,s1,1584
    6f6a:	458d                	li	a1,3
    6f6c:	f03fc0ef          	jal	ra,3e6e <lcd_write_reg>
    6f70:	63148513          	addi	a0,s1,1585
    6f74:	03300593          	li	a1,51
    6f78:	ef7fc0ef          	jal	ra,3e6e <lcd_write_reg>
    6f7c:	63248513          	addi	a0,s1,1586
    6f80:	458d                	li	a1,3
    6f82:	eedfc0ef          	jal	ra,3e6e <lcd_write_reg>
    6f86:	63348513          	addi	a0,s1,1587
    6f8a:	06d00593          	li	a1,109
    6f8e:	ee1fc0ef          	jal	ra,3e6e <lcd_write_reg>
    6f92:	05500593          	li	a1,85
    6f96:	653d                	lui	a0,0xf
    6f98:	643d                	lui	s0,0xf
    6f9a:	ed5fc0ef          	jal	ra,3e6e <lcd_write_reg>
    6f9e:	00140513          	addi	a0,s0,1 # f001 <asc2_3216+0x3f5>
    6fa2:	0aa00593          	li	a1,170
    6fa6:	ec9fc0ef          	jal	ra,3e6e <lcd_write_reg>
    6faa:	00240513          	addi	a0,s0,2
    6fae:	05200593          	li	a1,82
    6fb2:	ebdfc0ef          	jal	ra,3e6e <lcd_write_reg>
    6fb6:	00340513          	addi	a0,s0,3
    6fba:	45a1                	li	a1,8
    6fbc:	eb3fc0ef          	jal	ra,3e6e <lcd_write_reg>
    6fc0:	00440513          	addi	a0,s0,4
    6fc4:	4581                	li	a1,0
    6fc6:	642d                	lui	s0,0xb
    6fc8:	ea7fc0ef          	jal	ra,3e6e <lcd_write_reg>
    6fcc:	10040513          	addi	a0,s0,256 # b100 <__mulsf3+0x1f4>
    6fd0:	0cc00593          	li	a1,204
    6fd4:	e9bfc0ef          	jal	ra,3e6e <lcd_write_reg>
    6fd8:	10140513          	addi	a0,s0,257
    6fdc:	4581                	li	a1,0
    6fde:	e91fc0ef          	jal	ra,3e6e <lcd_write_reg>
    6fe2:	60040513          	addi	a0,s0,1536
    6fe6:	4595                	li	a1,5
    6fe8:	e87fc0ef          	jal	ra,3e6e <lcd_write_reg>
    6fec:	70040513          	addi	a0,s0,1792
    6ff0:	07000593          	li	a1,112
    6ff4:	e7bfc0ef          	jal	ra,3e6e <lcd_write_reg>
    6ff8:	70140513          	addi	a0,s0,1793
    6ffc:	07000593          	li	a1,112
    7000:	6431                	lui	s0,0xc
    7002:	e6dfc0ef          	jal	ra,3e6e <lcd_write_reg>
    7006:	80040513          	addi	a0,s0,-2048 # b800 <__extendsfdf2+0x50>
    700a:	4585                	li	a1,1
    700c:	e63fc0ef          	jal	ra,3e6e <lcd_write_reg>
    7010:	80140513          	addi	a0,s0,-2047
    7014:	458d                	li	a1,3
    7016:	e59fc0ef          	jal	ra,3e6e <lcd_write_reg>
    701a:	80240513          	addi	a0,s0,-2046
    701e:	458d                	li	a1,3
    7020:	e4ffc0ef          	jal	ra,3e6e <lcd_write_reg>
    7024:	80340513          	addi	a0,s0,-2045
    7028:	458d                	li	a1,3
    702a:	e45fc0ef          	jal	ra,3e6e <lcd_write_reg>
    702e:	c0040513          	addi	a0,s0,-1024
    7032:	4589                	li	a1,2
    7034:	e3bfc0ef          	jal	ra,3e6e <lcd_write_reg>
    7038:	c0140513          	addi	a0,s0,-1023
    703c:	4581                	li	a1,0
    703e:	e31fc0ef          	jal	ra,3e6e <lcd_write_reg>
    7042:	c0240513          	addi	a0,s0,-1022
    7046:	4581                	li	a1,0
    7048:	e27fc0ef          	jal	ra,3e6e <lcd_write_reg>
    704c:	90048513          	addi	a0,s1,-1792
    7050:	0d000593          	li	a1,208
    7054:	e1bfc0ef          	jal	ra,3e6e <lcd_write_reg>
    7058:	90148513          	addi	a0,s1,-1791
    705c:	4589                	li	a1,2
    705e:	e11fc0ef          	jal	ra,3e6e <lcd_write_reg>
    7062:	90248513          	addi	a0,s1,-1790
    7066:	05000593          	li	a1,80
    706a:	e05fc0ef          	jal	ra,3e6e <lcd_write_reg>
    706e:	90348513          	addi	a0,s1,-1789
    7072:	05000593          	li	a1,80
    7076:	df9fc0ef          	jal	ra,3e6e <lcd_write_reg>
    707a:	90448513          	addi	a0,s1,-1788
    707e:	05000593          	li	a1,80
    7082:	dedfc0ef          	jal	ra,3e6e <lcd_write_reg>
    7086:	640d                	lui	s0,0x3
    7088:	50040513          	addi	a0,s0,1280 # 3500 <finsh_thread_entry+0x3f8>
    708c:	4581                	li	a1,0
    708e:	de1fc0ef          	jal	ra,3e6e <lcd_write_reg>
    7092:	6511                	lui	a0,0x4
    7094:	05500593          	li	a1,85
    7098:	a0050513          	addi	a0,a0,-1536 # 3a00 <rt_pin_mode+0x2>
    709c:	dd3fc0ef          	jal	ra,3e6e <lcd_write_reg>
    70a0:	6505                	lui	a0,0x1
    70a2:	10050513          	addi	a0,a0,256 # 1100 <rt_vsnprintf+0x19e>
    70a6:	db3fc0ef          	jal	ra,3e58 <lcd_wr_regno>
    70aa:	07800513          	li	a0,120
    70ae:	b8dfc0ef          	jal	ra,3c3a <delay_us>
    70b2:	90040513          	addi	a0,s0,-1792
    70b6:	da3fc0ef          	jal	ra,3e58 <lcd_wr_regno>
    70ba:	b0cf906f          	j	3c6 <__riscv_restore_0>

000070be <lcd_ex_ili9806_reginit>:
    70be:	ae4f92ef          	jal	t0,3a2 <__riscv_save_0>
    70c2:	0ff00513          	li	a0,255
    70c6:	d93fc0ef          	jal	ra,3e58 <lcd_wr_regno>
    70ca:	0ff00513          	li	a0,255
    70ce:	d77fc0ef          	jal	ra,3e44 <lcd_wr_data>
    70d2:	09800513          	li	a0,152
    70d6:	d6ffc0ef          	jal	ra,3e44 <lcd_wr_data>
    70da:	4519                	li	a0,6
    70dc:	d69fc0ef          	jal	ra,3e44 <lcd_wr_data>
    70e0:	0bc00513          	li	a0,188
    70e4:	d75fc0ef          	jal	ra,3e58 <lcd_wr_regno>
    70e8:	4505                	li	a0,1
    70ea:	d5bfc0ef          	jal	ra,3e44 <lcd_wr_data>
    70ee:	453d                	li	a0,15
    70f0:	d55fc0ef          	jal	ra,3e44 <lcd_wr_data>
    70f4:	06100513          	li	a0,97
    70f8:	d4dfc0ef          	jal	ra,3e44 <lcd_wr_data>
    70fc:	0ff00513          	li	a0,255
    7100:	d45fc0ef          	jal	ra,3e44 <lcd_wr_data>
    7104:	4505                	li	a0,1
    7106:	d3ffc0ef          	jal	ra,3e44 <lcd_wr_data>
    710a:	4505                	li	a0,1
    710c:	d39fc0ef          	jal	ra,3e44 <lcd_wr_data>
    7110:	452d                	li	a0,11
    7112:	d33fc0ef          	jal	ra,3e44 <lcd_wr_data>
    7116:	4541                	li	a0,16
    7118:	d2dfc0ef          	jal	ra,3e44 <lcd_wr_data>
    711c:	03700513          	li	a0,55
    7120:	d25fc0ef          	jal	ra,3e44 <lcd_wr_data>
    7124:	06300513          	li	a0,99
    7128:	d1dfc0ef          	jal	ra,3e44 <lcd_wr_data>
    712c:	0ff00513          	li	a0,255
    7130:	d15fc0ef          	jal	ra,3e44 <lcd_wr_data>
    7134:	0ff00513          	li	a0,255
    7138:	d0dfc0ef          	jal	ra,3e44 <lcd_wr_data>
    713c:	4505                	li	a0,1
    713e:	d07fc0ef          	jal	ra,3e44 <lcd_wr_data>
    7142:	4505                	li	a0,1
    7144:	d01fc0ef          	jal	ra,3e44 <lcd_wr_data>
    7148:	4501                	li	a0,0
    714a:	cfbfc0ef          	jal	ra,3e44 <lcd_wr_data>
    714e:	4501                	li	a0,0
    7150:	cf5fc0ef          	jal	ra,3e44 <lcd_wr_data>
    7154:	0ff00513          	li	a0,255
    7158:	cedfc0ef          	jal	ra,3e44 <lcd_wr_data>
    715c:	05200513          	li	a0,82
    7160:	ce5fc0ef          	jal	ra,3e44 <lcd_wr_data>
    7164:	4505                	li	a0,1
    7166:	cdffc0ef          	jal	ra,3e44 <lcd_wr_data>
    716a:	4501                	li	a0,0
    716c:	cd9fc0ef          	jal	ra,3e44 <lcd_wr_data>
    7170:	04000513          	li	a0,64
    7174:	cd1fc0ef          	jal	ra,3e44 <lcd_wr_data>
    7178:	0bd00513          	li	a0,189
    717c:	cddfc0ef          	jal	ra,3e58 <lcd_wr_regno>
    7180:	4505                	li	a0,1
    7182:	cc3fc0ef          	jal	ra,3e44 <lcd_wr_data>
    7186:	02300513          	li	a0,35
    718a:	cbbfc0ef          	jal	ra,3e44 <lcd_wr_data>
    718e:	04500513          	li	a0,69
    7192:	cb3fc0ef          	jal	ra,3e44 <lcd_wr_data>
    7196:	06700513          	li	a0,103
    719a:	cabfc0ef          	jal	ra,3e44 <lcd_wr_data>
    719e:	4505                	li	a0,1
    71a0:	ca5fc0ef          	jal	ra,3e44 <lcd_wr_data>
    71a4:	02300513          	li	a0,35
    71a8:	c9dfc0ef          	jal	ra,3e44 <lcd_wr_data>
    71ac:	04500513          	li	a0,69
    71b0:	c95fc0ef          	jal	ra,3e44 <lcd_wr_data>
    71b4:	06700513          	li	a0,103
    71b8:	c8dfc0ef          	jal	ra,3e44 <lcd_wr_data>
    71bc:	0be00513          	li	a0,190
    71c0:	c99fc0ef          	jal	ra,3e58 <lcd_wr_regno>
    71c4:	4501                	li	a0,0
    71c6:	c7ffc0ef          	jal	ra,3e44 <lcd_wr_data>
    71ca:	4505                	li	a0,1
    71cc:	c79fc0ef          	jal	ra,3e44 <lcd_wr_data>
    71d0:	0ab00513          	li	a0,171
    71d4:	c71fc0ef          	jal	ra,3e44 <lcd_wr_data>
    71d8:	06000513          	li	a0,96
    71dc:	c69fc0ef          	jal	ra,3e44 <lcd_wr_data>
    71e0:	02200513          	li	a0,34
    71e4:	c61fc0ef          	jal	ra,3e44 <lcd_wr_data>
    71e8:	02200513          	li	a0,34
    71ec:	c59fc0ef          	jal	ra,3e44 <lcd_wr_data>
    71f0:	02200513          	li	a0,34
    71f4:	c51fc0ef          	jal	ra,3e44 <lcd_wr_data>
    71f8:	02200513          	li	a0,34
    71fc:	c49fc0ef          	jal	ra,3e44 <lcd_wr_data>
    7200:	02200513          	li	a0,34
    7204:	c41fc0ef          	jal	ra,3e44 <lcd_wr_data>
    7208:	0c700513          	li	a0,199
    720c:	c4dfc0ef          	jal	ra,3e58 <lcd_wr_regno>
    7210:	03600513          	li	a0,54
    7214:	c31fc0ef          	jal	ra,3e44 <lcd_wr_data>
    7218:	0ed00513          	li	a0,237
    721c:	c3dfc0ef          	jal	ra,3e58 <lcd_wr_regno>
    7220:	07f00513          	li	a0,127
    7224:	c21fc0ef          	jal	ra,3e44 <lcd_wr_data>
    7228:	453d                	li	a0,15
    722a:	c1bfc0ef          	jal	ra,3e44 <lcd_wr_data>
    722e:	0c000513          	li	a0,192
    7232:	c27fc0ef          	jal	ra,3e58 <lcd_wr_regno>
    7236:	453d                	li	a0,15
    7238:	c0dfc0ef          	jal	ra,3e44 <lcd_wr_data>
    723c:	452d                	li	a0,11
    723e:	c07fc0ef          	jal	ra,3e44 <lcd_wr_data>
    7242:	4529                	li	a0,10
    7244:	c01fc0ef          	jal	ra,3e44 <lcd_wr_data>
    7248:	0fc00513          	li	a0,252
    724c:	c0dfc0ef          	jal	ra,3e58 <lcd_wr_regno>
    7250:	4521                	li	a0,8
    7252:	bf3fc0ef          	jal	ra,3e44 <lcd_wr_data>
    7256:	0df00513          	li	a0,223
    725a:	bfffc0ef          	jal	ra,3e58 <lcd_wr_regno>
    725e:	4501                	li	a0,0
    7260:	be5fc0ef          	jal	ra,3e44 <lcd_wr_data>
    7264:	4501                	li	a0,0
    7266:	bdffc0ef          	jal	ra,3e44 <lcd_wr_data>
    726a:	4501                	li	a0,0
    726c:	bd9fc0ef          	jal	ra,3e44 <lcd_wr_data>
    7270:	4501                	li	a0,0
    7272:	bd3fc0ef          	jal	ra,3e44 <lcd_wr_data>
    7276:	4501                	li	a0,0
    7278:	bcdfc0ef          	jal	ra,3e44 <lcd_wr_data>
    727c:	02000513          	li	a0,32
    7280:	bc5fc0ef          	jal	ra,3e44 <lcd_wr_data>
    7284:	0f300513          	li	a0,243
    7288:	bd1fc0ef          	jal	ra,3e58 <lcd_wr_regno>
    728c:	07400513          	li	a0,116
    7290:	bb5fc0ef          	jal	ra,3e44 <lcd_wr_data>
    7294:	0b400513          	li	a0,180
    7298:	bc1fc0ef          	jal	ra,3e58 <lcd_wr_regno>
    729c:	4501                	li	a0,0
    729e:	ba7fc0ef          	jal	ra,3e44 <lcd_wr_data>
    72a2:	4501                	li	a0,0
    72a4:	ba1fc0ef          	jal	ra,3e44 <lcd_wr_data>
    72a8:	4501                	li	a0,0
    72aa:	b9bfc0ef          	jal	ra,3e44 <lcd_wr_data>
    72ae:	0f700513          	li	a0,247
    72b2:	ba7fc0ef          	jal	ra,3e58 <lcd_wr_regno>
    72b6:	08200513          	li	a0,130
    72ba:	b8bfc0ef          	jal	ra,3e44 <lcd_wr_data>
    72be:	0b100513          	li	a0,177
    72c2:	b97fc0ef          	jal	ra,3e58 <lcd_wr_regno>
    72c6:	4501                	li	a0,0
    72c8:	b7dfc0ef          	jal	ra,3e44 <lcd_wr_data>
    72cc:	454d                	li	a0,19
    72ce:	b77fc0ef          	jal	ra,3e44 <lcd_wr_data>
    72d2:	454d                	li	a0,19
    72d4:	b71fc0ef          	jal	ra,3e44 <lcd_wr_data>
    72d8:	0f200513          	li	a0,242
    72dc:	b7dfc0ef          	jal	ra,3e58 <lcd_wr_regno>
    72e0:	08000513          	li	a0,128
    72e4:	b61fc0ef          	jal	ra,3e44 <lcd_wr_data>
    72e8:	4511                	li	a0,4
    72ea:	b5bfc0ef          	jal	ra,3e44 <lcd_wr_data>
    72ee:	04000513          	li	a0,64
    72f2:	b53fc0ef          	jal	ra,3e44 <lcd_wr_data>
    72f6:	02800513          	li	a0,40
    72fa:	b4bfc0ef          	jal	ra,3e44 <lcd_wr_data>
    72fe:	0c100513          	li	a0,193
    7302:	b57fc0ef          	jal	ra,3e58 <lcd_wr_regno>
    7306:	455d                	li	a0,23
    7308:	b3dfc0ef          	jal	ra,3e44 <lcd_wr_data>
    730c:	08800513          	li	a0,136
    7310:	b35fc0ef          	jal	ra,3e44 <lcd_wr_data>
    7314:	08800513          	li	a0,136
    7318:	b2dfc0ef          	jal	ra,3e44 <lcd_wr_data>
    731c:	02000513          	li	a0,32
    7320:	b25fc0ef          	jal	ra,3e44 <lcd_wr_data>
    7324:	0e000513          	li	a0,224
    7328:	b31fc0ef          	jal	ra,3e58 <lcd_wr_regno>
    732c:	4501                	li	a0,0
    732e:	b17fc0ef          	jal	ra,3e44 <lcd_wr_data>
    7332:	4529                	li	a0,10
    7334:	b11fc0ef          	jal	ra,3e44 <lcd_wr_data>
    7338:	4549                	li	a0,18
    733a:	b0bfc0ef          	jal	ra,3e44 <lcd_wr_data>
    733e:	4541                	li	a0,16
    7340:	b05fc0ef          	jal	ra,3e44 <lcd_wr_data>
    7344:	4539                	li	a0,14
    7346:	afffc0ef          	jal	ra,3e44 <lcd_wr_data>
    734a:	02000513          	li	a0,32
    734e:	af7fc0ef          	jal	ra,3e44 <lcd_wr_data>
    7352:	0cc00513          	li	a0,204
    7356:	aeffc0ef          	jal	ra,3e44 <lcd_wr_data>
    735a:	451d                	li	a0,7
    735c:	ae9fc0ef          	jal	ra,3e44 <lcd_wr_data>
    7360:	4519                	li	a0,6
    7362:	ae3fc0ef          	jal	ra,3e44 <lcd_wr_data>
    7366:	452d                	li	a0,11
    7368:	addfc0ef          	jal	ra,3e44 <lcd_wr_data>
    736c:	4539                	li	a0,14
    736e:	ad7fc0ef          	jal	ra,3e44 <lcd_wr_data>
    7372:	453d                	li	a0,15
    7374:	ad1fc0ef          	jal	ra,3e44 <lcd_wr_data>
    7378:	4535                	li	a0,13
    737a:	acbfc0ef          	jal	ra,3e44 <lcd_wr_data>
    737e:	4555                	li	a0,21
    7380:	ac5fc0ef          	jal	ra,3e44 <lcd_wr_data>
    7384:	4541                	li	a0,16
    7386:	abffc0ef          	jal	ra,3e44 <lcd_wr_data>
    738a:	4501                	li	a0,0
    738c:	ab9fc0ef          	jal	ra,3e44 <lcd_wr_data>
    7390:	0e100513          	li	a0,225
    7394:	ac5fc0ef          	jal	ra,3e58 <lcd_wr_regno>
    7398:	4501                	li	a0,0
    739a:	aabfc0ef          	jal	ra,3e44 <lcd_wr_data>
    739e:	452d                	li	a0,11
    73a0:	aa5fc0ef          	jal	ra,3e44 <lcd_wr_data>
    73a4:	454d                	li	a0,19
    73a6:	a9ffc0ef          	jal	ra,3e44 <lcd_wr_data>
    73aa:	4535                	li	a0,13
    73ac:	a99fc0ef          	jal	ra,3e44 <lcd_wr_data>
    73b0:	4539                	li	a0,14
    73b2:	a93fc0ef          	jal	ra,3e44 <lcd_wr_data>
    73b6:	456d                	li	a0,27
    73b8:	a8dfc0ef          	jal	ra,3e44 <lcd_wr_data>
    73bc:	07100513          	li	a0,113
    73c0:	a85fc0ef          	jal	ra,3e44 <lcd_wr_data>
    73c4:	4519                	li	a0,6
    73c6:	a7ffc0ef          	jal	ra,3e44 <lcd_wr_data>
    73ca:	4519                	li	a0,6
    73cc:	a79fc0ef          	jal	ra,3e44 <lcd_wr_data>
    73d0:	4529                	li	a0,10
    73d2:	a73fc0ef          	jal	ra,3e44 <lcd_wr_data>
    73d6:	453d                	li	a0,15
    73d8:	a6dfc0ef          	jal	ra,3e44 <lcd_wr_data>
    73dc:	4539                	li	a0,14
    73de:	a67fc0ef          	jal	ra,3e44 <lcd_wr_data>
    73e2:	453d                	li	a0,15
    73e4:	a61fc0ef          	jal	ra,3e44 <lcd_wr_data>
    73e8:	4555                	li	a0,21
    73ea:	a5bfc0ef          	jal	ra,3e44 <lcd_wr_data>
    73ee:	4531                	li	a0,12
    73f0:	a55fc0ef          	jal	ra,3e44 <lcd_wr_data>
    73f4:	4501                	li	a0,0
    73f6:	a4ffc0ef          	jal	ra,3e44 <lcd_wr_data>
    73fa:	02a00513          	li	a0,42
    73fe:	a5bfc0ef          	jal	ra,3e58 <lcd_wr_regno>
    7402:	4501                	li	a0,0
    7404:	a41fc0ef          	jal	ra,3e44 <lcd_wr_data>
    7408:	4501                	li	a0,0
    740a:	a3bfc0ef          	jal	ra,3e44 <lcd_wr_data>
    740e:	4505                	li	a0,1
    7410:	a35fc0ef          	jal	ra,3e44 <lcd_wr_data>
    7414:	0df00513          	li	a0,223
    7418:	a2dfc0ef          	jal	ra,3e44 <lcd_wr_data>
    741c:	02b00513          	li	a0,43
    7420:	a39fc0ef          	jal	ra,3e58 <lcd_wr_regno>
    7424:	4501                	li	a0,0
    7426:	a1ffc0ef          	jal	ra,3e44 <lcd_wr_data>
    742a:	4501                	li	a0,0
    742c:	a19fc0ef          	jal	ra,3e44 <lcd_wr_data>
    7430:	450d                	li	a0,3
    7432:	a13fc0ef          	jal	ra,3e44 <lcd_wr_data>
    7436:	457d                	li	a0,31
    7438:	a0dfc0ef          	jal	ra,3e44 <lcd_wr_data>
    743c:	03a00513          	li	a0,58
    7440:	a19fc0ef          	jal	ra,3e58 <lcd_wr_regno>
    7444:	05500513          	li	a0,85
    7448:	9fdfc0ef          	jal	ra,3e44 <lcd_wr_data>
    744c:	03600513          	li	a0,54
    7450:	a09fc0ef          	jal	ra,3e58 <lcd_wr_regno>
    7454:	4501                	li	a0,0
    7456:	9effc0ef          	jal	ra,3e44 <lcd_wr_data>
    745a:	4545                	li	a0,17
    745c:	9fdfc0ef          	jal	ra,3e58 <lcd_wr_regno>
    7460:	07800513          	li	a0,120
    7464:	803fc0ef          	jal	ra,3c66 <delay_ms>
    7468:	02900513          	li	a0,41
    746c:	9edfc0ef          	jal	ra,3e58 <lcd_wr_regno>
    7470:	4551                	li	a0,20
    7472:	ff4fc0ef          	jal	ra,3c66 <delay_ms>
    7476:	02c00513          	li	a0,44
    747a:	9dffc0ef          	jal	ra,3e58 <lcd_wr_regno>
    747e:	f49f806f          	j	3c6 <__riscv_restore_0>

00007482 <lcd_ex_ssd1963_reginit>:
    7482:	f21f82ef          	jal	t0,3a2 <__riscv_save_0>
    7486:	0e200513          	li	a0,226
    748a:	9cffc0ef          	jal	ra,3e58 <lcd_wr_regno>
    748e:	4575                	li	a0,29
    7490:	9b5fc0ef          	jal	ra,3e44 <lcd_wr_data>
    7494:	4509                	li	a0,2
    7496:	9affc0ef          	jal	ra,3e44 <lcd_wr_data>
    749a:	4511                	li	a0,4
    749c:	9a9fc0ef          	jal	ra,3e44 <lcd_wr_data>
    74a0:	06400513          	li	a0,100
    74a4:	f96fc0ef          	jal	ra,3c3a <delay_us>
    74a8:	0e000513          	li	a0,224
    74ac:	9adfc0ef          	jal	ra,3e58 <lcd_wr_regno>
    74b0:	4505                	li	a0,1
    74b2:	993fc0ef          	jal	ra,3e44 <lcd_wr_data>
    74b6:	4529                	li	a0,10
    74b8:	faefc0ef          	jal	ra,3c66 <delay_ms>
    74bc:	0e000513          	li	a0,224
    74c0:	999fc0ef          	jal	ra,3e58 <lcd_wr_regno>
    74c4:	450d                	li	a0,3
    74c6:	97ffc0ef          	jal	ra,3e44 <lcd_wr_data>
    74ca:	4531                	li	a0,12
    74cc:	f9afc0ef          	jal	ra,3c66 <delay_ms>
    74d0:	4505                	li	a0,1
    74d2:	987fc0ef          	jal	ra,3e58 <lcd_wr_regno>
    74d6:	4529                	li	a0,10
    74d8:	f8efc0ef          	jal	ra,3c66 <delay_ms>
    74dc:	0e600513          	li	a0,230
    74e0:	979fc0ef          	jal	ra,3e58 <lcd_wr_regno>
    74e4:	02f00513          	li	a0,47
    74e8:	95dfc0ef          	jal	ra,3e44 <lcd_wr_data>
    74ec:	0ff00513          	li	a0,255
    74f0:	955fc0ef          	jal	ra,3e44 <lcd_wr_data>
    74f4:	0ff00513          	li	a0,255
    74f8:	94dfc0ef          	jal	ra,3e44 <lcd_wr_data>
    74fc:	0b000513          	li	a0,176
    7500:	959fc0ef          	jal	ra,3e58 <lcd_wr_regno>
    7504:	02000513          	li	a0,32
    7508:	93dfc0ef          	jal	ra,3e44 <lcd_wr_data>
    750c:	4501                	li	a0,0
    750e:	937fc0ef          	jal	ra,3e44 <lcd_wr_data>
    7512:	450d                	li	a0,3
    7514:	931fc0ef          	jal	ra,3e44 <lcd_wr_data>
    7518:	31f00513          	li	a0,799
    751c:	929fc0ef          	jal	ra,3e44 <lcd_wr_data>
    7520:	4505                	li	a0,1
    7522:	923fc0ef          	jal	ra,3e44 <lcd_wr_data>
    7526:	1df00513          	li	a0,479
    752a:	91bfc0ef          	jal	ra,3e44 <lcd_wr_data>
    752e:	4501                	li	a0,0
    7530:	915fc0ef          	jal	ra,3e44 <lcd_wr_data>
    7534:	0b400513          	li	a0,180
    7538:	921fc0ef          	jal	ra,3e58 <lcd_wr_regno>
    753c:	4511                	li	a0,4
    753e:	907fc0ef          	jal	ra,3e44 <lcd_wr_data>
    7542:	41f00513          	li	a0,1055
    7546:	8fffc0ef          	jal	ra,3e44 <lcd_wr_data>
    754a:	4501                	li	a0,0
    754c:	8f9fc0ef          	jal	ra,3e44 <lcd_wr_data>
    7550:	02e00513          	li	a0,46
    7554:	8f1fc0ef          	jal	ra,3e44 <lcd_wr_data>
    7558:	4501                	li	a0,0
    755a:	8ebfc0ef          	jal	ra,3e44 <lcd_wr_data>
    755e:	4501                	li	a0,0
    7560:	8e5fc0ef          	jal	ra,3e44 <lcd_wr_data>
    7564:	4501                	li	a0,0
    7566:	8dffc0ef          	jal	ra,3e44 <lcd_wr_data>
    756a:	4501                	li	a0,0
    756c:	8d9fc0ef          	jal	ra,3e44 <lcd_wr_data>
    7570:	0b600513          	li	a0,182
    7574:	8e5fc0ef          	jal	ra,3e58 <lcd_wr_regno>
    7578:	4509                	li	a0,2
    757a:	8cbfc0ef          	jal	ra,3e44 <lcd_wr_data>
    757e:	20c00513          	li	a0,524
    7582:	8c3fc0ef          	jal	ra,3e44 <lcd_wr_data>
    7586:	4501                	li	a0,0
    7588:	8bdfc0ef          	jal	ra,3e44 <lcd_wr_data>
    758c:	455d                	li	a0,23
    758e:	8b7fc0ef          	jal	ra,3e44 <lcd_wr_data>
    7592:	4555                	li	a0,21
    7594:	8b1fc0ef          	jal	ra,3e44 <lcd_wr_data>
    7598:	4501                	li	a0,0
    759a:	8abfc0ef          	jal	ra,3e44 <lcd_wr_data>
    759e:	4501                	li	a0,0
    75a0:	8a5fc0ef          	jal	ra,3e44 <lcd_wr_data>
    75a4:	0f000513          	li	a0,240
    75a8:	8b1fc0ef          	jal	ra,3e58 <lcd_wr_regno>
    75ac:	450d                	li	a0,3
    75ae:	897fc0ef          	jal	ra,3e44 <lcd_wr_data>
    75b2:	02900513          	li	a0,41
    75b6:	8a3fc0ef          	jal	ra,3e58 <lcd_wr_regno>
    75ba:	0d000513          	li	a0,208
    75be:	89bfc0ef          	jal	ra,3e58 <lcd_wr_regno>
    75c2:	4501                	li	a0,0
    75c4:	881fc0ef          	jal	ra,3e44 <lcd_wr_data>
    75c8:	0be00513          	li	a0,190
    75cc:	88dfc0ef          	jal	ra,3e58 <lcd_wr_regno>
    75d0:	4515                	li	a0,5
    75d2:	873fc0ef          	jal	ra,3e44 <lcd_wr_data>
    75d6:	0fe00513          	li	a0,254
    75da:	86bfc0ef          	jal	ra,3e44 <lcd_wr_data>
    75de:	4505                	li	a0,1
    75e0:	865fc0ef          	jal	ra,3e44 <lcd_wr_data>
    75e4:	4501                	li	a0,0
    75e6:	85ffc0ef          	jal	ra,3e44 <lcd_wr_data>
    75ea:	4501                	li	a0,0
    75ec:	859fc0ef          	jal	ra,3e44 <lcd_wr_data>
    75f0:	4501                	li	a0,0
    75f2:	853fc0ef          	jal	ra,3e44 <lcd_wr_data>
    75f6:	0b800513          	li	a0,184
    75fa:	85ffc0ef          	jal	ra,3e58 <lcd_wr_regno>
    75fe:	450d                	li	a0,3
    7600:	845fc0ef          	jal	ra,3e44 <lcd_wr_data>
    7604:	4505                	li	a0,1
    7606:	83ffc0ef          	jal	ra,3e44 <lcd_wr_data>
    760a:	0ba00513          	li	a0,186
    760e:	84bfc0ef          	jal	ra,3e58 <lcd_wr_regno>
    7612:	4505                	li	a0,1
    7614:	831fc0ef          	jal	ra,3e44 <lcd_wr_data>
    7618:	daff806f          	j	3c6 <__riscv_restore_0>

0000761c <bit2bitno>:
    761c:	4781                	li	a5,0
    761e:	4685                	li	a3,1
    7620:	02000713          	li	a4,32
    7624:	00f69633          	sll	a2,a3,a5
    7628:	00a60663          	beq	a2,a0,7634 <bit2bitno+0x18>
    762c:	0785                	addi	a5,a5,1
    762e:	fee79be3          	bne	a5,a4,7624 <bit2bitno+0x8>
    7632:	57fd                	li	a5,-1
    7634:	853e                	mv	a0,a5
    7636:	8082                	ret

00007638 <GPIOD_CLK_ENABLE>:
    7638:	d6bf82ef          	jal	t0,3a2 <__riscv_save_0>
    763c:	4585                	li	a1,1
    763e:	02000513          	li	a0,32
    7642:	18d010ef          	jal	ra,8fce <RCC_APB2PeriphClockCmd>
    7646:	d81f806f          	j	3c6 <__riscv_restore_0>

0000764a <GPIOB_CLK_ENABLE>:
    764a:	d59f82ef          	jal	t0,3a2 <__riscv_save_0>
    764e:	4585                	li	a1,1
    7650:	4521                	li	a0,8
    7652:	17d010ef          	jal	ra,8fce <RCC_APB2PeriphClockCmd>
    7656:	d71f806f          	j	3c6 <__riscv_restore_0>

0000765a <GPIOA_CLK_ENABLE>:
    765a:	d49f82ef          	jal	t0,3a2 <__riscv_save_0>
    765e:	4585                	li	a1,1
    7660:	4511                	li	a0,4
    7662:	16d010ef          	jal	ra,8fce <RCC_APB2PeriphClockCmd>
    7666:	d61f806f          	j	3c6 <__riscv_restore_0>

0000766a <GPIOC_CLK_ENABLE>:
    766a:	d39f82ef          	jal	t0,3a2 <__riscv_save_0>
    766e:	4585                	li	a1,1
    7670:	4541                	li	a0,16
    7672:	15d010ef          	jal	ra,8fce <RCC_APB2PeriphClockCmd>
    7676:	d51f806f          	j	3c6 <__riscv_restore_0>

0000767a <GPIOE_CLK_ENABLE>:
    767a:	d29f82ef          	jal	t0,3a2 <__riscv_save_0>
    767e:	4585                	li	a1,1
    7680:	04000513          	li	a0,64
    7684:	14b010ef          	jal	ra,8fce <RCC_APB2PeriphClockCmd>
    7688:	d3ff806f          	j	3c6 <__riscv_restore_0>

0000768c <rt_hw_pin_init>:
    768c:	d17f82ef          	jal	t0,3a2 <__riscv_save_0>
    7690:	65c1                	lui	a1,0x10
    7692:	00011537          	lui	a0,0x11
    7696:	4601                	li	a2,0
    7698:	3e858593          	addi	a1,a1,1000 # 103e8 <_ch32_pin_ops>
    769c:	ad050513          	addi	a0,a0,-1328 # 10ad0 <pins+0x650>
    76a0:	c9cfc0ef          	jal	ra,3b3c <rt_device_pin_register>
    76a4:	d23f806f          	j	3c6 <__riscv_restore_0>

000076a8 <get_pin>:
    76a8:	06400793          	li	a5,100
    76ac:	00a7ec63          	bltu	a5,a0,76c4 <get_pin+0x1c>
    76b0:	00451793          	slli	a5,a0,0x4
    76b4:	6541                	lui	a0,0x10
    76b6:	48050513          	addi	a0,a0,1152 # 10480 <pins>
    76ba:	953e                	add	a0,a0,a5
    76bc:	4118                	lw	a4,0(a0)
    76be:	57fd                	li	a5,-1
    76c0:	00f71363          	bne	a4,a5,76c6 <get_pin+0x1e>
    76c4:	4501                	li	a0,0
    76c6:	8082                	ret

000076c8 <ch32_pin_write>:
    76c8:	cdbf82ef          	jal	t0,3a2 <__riscv_save_0>
    76cc:	1141                	addi	sp,sp,-16
    76ce:	0ff5f513          	andi	a0,a1,255
    76d2:	c632                	sw	a2,12(sp)
    76d4:	fd5ff0ef          	jal	ra,76a8 <get_pin>
    76d8:	c511                	beqz	a0,76e4 <ch32_pin_write+0x1c>
    76da:	254e                	lhu	a1,12(a0)
    76dc:	4632                	lw	a2,12(sp)
    76de:	4508                	lw	a0,8(a0)
    76e0:	724010ef          	jal	ra,8e04 <GPIO_WriteBit>
    76e4:	0141                	addi	sp,sp,16
    76e6:	ce1f806f          	j	3c6 <__riscv_restore_0>

000076ea <ch32_pin_read>:
    76ea:	cb9f82ef          	jal	t0,3a2 <__riscv_save_0>
    76ee:	0ff5f513          	andi	a0,a1,255
    76f2:	fb7ff0ef          	jal	ra,76a8 <get_pin>
    76f6:	87aa                	mv	a5,a0
    76f8:	4501                	li	a0,0
    76fa:	c789                	beqz	a5,7704 <ch32_pin_read+0x1a>
    76fc:	27ce                	lhu	a1,12(a5)
    76fe:	4788                	lw	a0,8(a5)
    7700:	6f6010ef          	jal	ra,8df6 <GPIO_ReadInputDataBit>
    7704:	cc3f806f          	j	3c6 <__riscv_restore_0>

00007708 <ch32_pin_mode>:
    7708:	c9bf82ef          	jal	t0,3a2 <__riscv_save_0>
    770c:	1101                	addi	sp,sp,-32
    770e:	0ff5f513          	andi	a0,a1,255
    7712:	8432                	mv	s0,a2
    7714:	f95ff0ef          	jal	ra,76a8 <get_pin>
    7718:	c505                	beqz	a0,7740 <ch32_pin_mode+0x38>
    771a:	415c                	lw	a5,4(a0)
    771c:	c62a                	sw	a0,12(sp)
    771e:	9782                	jalr	a5
    7720:	4532                	lw	a0,12(sp)
    7722:	455c                	lw	a5,12(a0)
    7724:	82fc                	sh	a5,20(sp)
    7726:	47c1                	li	a5,16
    7728:	ce3e                	sw	a5,28(sp)
    772a:	478d                	li	a5,3
    772c:	cc3e                	sw	a5,24(sp)
    772e:	c409                	beqz	s0,7738 <ch32_pin_mode+0x30>
    7730:	4715                	li	a4,5
    7732:	00e41a63          	bne	s0,a4,7746 <ch32_pin_mode+0x3e>
    7736:	ce02                	sw	zero,28(sp)
    7738:	4508                	lw	a0,8(a0)
    773a:	084c                	addi	a1,sp,20
    773c:	5fa010ef          	jal	ra,8d36 <GPIO_Init>
    7740:	6105                	addi	sp,sp,32
    7742:	c85f806f          	j	3c6 <__riscv_restore_0>
    7746:	4705                	li	a4,1
    7748:	00e41563          	bne	s0,a4,7752 <ch32_pin_mode+0x4a>
    774c:	4791                	li	a5,4
    774e:	ce3e                	sw	a5,28(sp)
    7750:	b7e5                	j	7738 <ch32_pin_mode+0x30>
    7752:	00f41563          	bne	s0,a5,775c <ch32_pin_mode+0x54>
    7756:	02800793          	li	a5,40
    775a:	bfd5                	j	774e <ch32_pin_mode+0x46>
    775c:	4789                	li	a5,2
    775e:	00f41563          	bne	s0,a5,7768 <ch32_pin_mode+0x60>
    7762:	04800793          	li	a5,72
    7766:	b7e5                	j	774e <ch32_pin_mode+0x46>
    7768:	4791                	li	a5,4
    776a:	00f41463          	bne	s0,a5,7772 <ch32_pin_mode+0x6a>
    776e:	47d1                	li	a5,20
    7770:	bff9                	j	774e <ch32_pin_mode+0x46>
    7772:	4799                	li	a5,6
    7774:	00f41463          	bne	s0,a5,777c <ch32_pin_mode+0x74>
    7778:	47f1                	li	a5,28
    777a:	bfd1                	j	774e <ch32_pin_mode+0x46>
    777c:	479d                	li	a5,7
    777e:	faf41de3          	bne	s0,a5,7738 <ch32_pin_mode+0x30>
    7782:	47e1                	li	a5,24
    7784:	b7e9                	j	774e <ch32_pin_mode+0x46>

00007786 <ch32_pin_attach_irq>:
    7786:	c03f82ef          	jal	t0,388 <__riscv_save_4>
    778a:	0ff5f513          	andi	a0,a1,255
    778e:	84ae                	mv	s1,a1
    7790:	89b2                	mv	s3,a2
    7792:	8a36                	mv	s4,a3
    7794:	893a                	mv	s2,a4
    7796:	f13ff0ef          	jal	ra,76a8 <get_pin>
    779a:	4799                	li	a5,6
    779c:	cd31                	beqz	a0,77f8 <ch32_pin_attach_irq+0x72>
    779e:	4548                	lw	a0,12(a0)
    77a0:	e7dff0ef          	jal	ra,761c <bit2bitno>
    77a4:	473d                	li	a4,15
    77a6:	842a                	mv	s0,a0
    77a8:	4799                	li	a5,6
    77aa:	04a76763          	bltu	a4,a0,77f8 <ch32_pin_attach_irq+0x72>
    77ae:	e17fa0ef          	jal	ra,25c4 <rt_hw_interrupt_disable>
    77b2:	46b1                	li	a3,12
    77b4:	02d406b3          	mul	a3,s0,a3
    77b8:	200007b7          	lui	a5,0x20000
    77bc:	08078713          	addi	a4,a5,128 # 20000080 <pin_irq_hdr_tab>
    77c0:	862a                	mv	a2,a0
    77c2:	08078793          	addi	a5,a5,128
    77c6:	9736                	add	a4,a4,a3
    77c8:	00071683          	lh	a3,0(a4)
    77cc:	00969f63          	bne	a3,s1,77ea <ch32_pin_attach_irq+0x64>
    77d0:	434c                	lw	a1,4(a4)
    77d2:	01459c63          	bne	a1,s4,77ea <ch32_pin_attach_irq+0x64>
    77d6:	232e                	lhu	a1,2(a4)
    77d8:	01359963          	bne	a1,s3,77ea <ch32_pin_attach_irq+0x64>
    77dc:	4718                	lw	a4,8(a4)
    77de:	01271663          	bne	a4,s2,77ea <ch32_pin_attach_irq+0x64>
    77e2:	deffa0ef          	jal	ra,25d0 <rt_hw_interrupt_enable>
    77e6:	4781                	li	a5,0
    77e8:	a801                	j	77f8 <ch32_pin_attach_irq+0x72>
    77ea:	577d                	li	a4,-1
    77ec:	00e68963          	beq	a3,a4,77fe <ch32_pin_attach_irq+0x78>
    77f0:	8532                	mv	a0,a2
    77f2:	ddffa0ef          	jal	ra,25d0 <rt_hw_interrupt_enable>
    77f6:	479d                	li	a5,7
    77f8:	853e                	mv	a0,a5
    77fa:	bc3f806f          	j	3bc <__riscv_restore_4>
    77fe:	4531                	li	a0,12
    7800:	02a40533          	mul	a0,s0,a0
    7804:	953e                	add	a0,a0,a5
    7806:	a106                	sh	s1,0(a0)
    7808:	01452223          	sw	s4,4(a0)
    780c:	01351123          	sh	s3,2(a0)
    7810:	01252423          	sw	s2,8(a0)
    7814:	8532                	mv	a0,a2
    7816:	b7f1                	j	77e2 <ch32_pin_attach_irq+0x5c>

00007818 <ch32_pin_dettach_irq>:
    7818:	b8bf82ef          	jal	t0,3a2 <__riscv_save_0>
    781c:	0ff5f513          	andi	a0,a1,255
    7820:	e89ff0ef          	jal	ra,76a8 <get_pin>
    7824:	4719                	li	a4,6
    7826:	c91d                	beqz	a0,785c <ch32_pin_dettach_irq+0x44>
    7828:	4548                	lw	a0,12(a0)
    782a:	df3ff0ef          	jal	ra,761c <bit2bitno>
    782e:	47bd                	li	a5,15
    7830:	842a                	mv	s0,a0
    7832:	4719                	li	a4,6
    7834:	02a7e463          	bltu	a5,a0,785c <ch32_pin_dettach_irq+0x44>
    7838:	d8dfa0ef          	jal	ra,25c4 <rt_hw_interrupt_disable>
    783c:	47b1                	li	a5,12
    783e:	02f40433          	mul	s0,s0,a5
    7842:	200007b7          	lui	a5,0x20000
    7846:	08078793          	addi	a5,a5,128 # 20000080 <pin_irq_hdr_tab>
    784a:	577d                	li	a4,-1
    784c:	97a2                	add	a5,a5,s0
    784e:	00079683          	lh	a3,0(a5)
    7852:	00e69863          	bne	a3,a4,7862 <ch32_pin_dettach_irq+0x4a>
    7856:	d7bfa0ef          	jal	ra,25d0 <rt_hw_interrupt_enable>
    785a:	4701                	li	a4,0
    785c:	853a                	mv	a0,a4
    785e:	b69f806f          	j	3c6 <__riscv_restore_0>
    7862:	6741                	lui	a4,0x10
    7864:	177d                	addi	a4,a4,-1
    7866:	c398                	sw	a4,0(a5)
    7868:	0007a223          	sw	zero,4(a5)
    786c:	0007a423          	sw	zero,8(a5)
    7870:	b7dd                	j	7856 <ch32_pin_dettach_irq+0x3e>

00007872 <ch32_pin_irq_enable>:
    7872:	b17f82ef          	jal	t0,388 <__riscv_save_4>
    7876:	1101                	addi	sp,sp,-32
    7878:	0ff5f513          	andi	a0,a1,255
    787c:	8a32                	mv	s4,a2
    787e:	e2bff0ef          	jal	ra,76a8 <get_pin>
    7882:	4799                	li	a5,6
    7884:	c121                	beqz	a0,78c4 <ch32_pin_irq_enable+0x52>
    7886:	4485                	li	s1,1
    7888:	842a                	mv	s0,a0
    788a:	109a1563          	bne	s4,s1,7994 <ch32_pin_irq_enable+0x122>
    788e:	4548                	lw	a0,12(a0)
    7890:	d8dff0ef          	jal	ra,761c <bit2bitno>
    7894:	473d                	li	a4,15
    7896:	84aa                	mv	s1,a0
    7898:	4799                	li	a5,6
    789a:	02a76563          	bltu	a4,a0,78c4 <ch32_pin_irq_enable+0x52>
    789e:	d27fa0ef          	jal	ra,25c4 <rt_hw_interrupt_disable>
    78a2:	4ab1                	li	s5,12
    78a4:	035487b3          	mul	a5,s1,s5
    78a8:	20000937          	lui	s2,0x20000
    78ac:	08090913          	addi	s2,s2,128 # 20000080 <pin_irq_hdr_tab>
    78b0:	89aa                	mv	s3,a0
    78b2:	993e                	add	s2,s2,a5
    78b4:	00091703          	lh	a4,0(s2)
    78b8:	57fd                	li	a5,-1
    78ba:	00f71963          	bne	a4,a5,78cc <ch32_pin_irq_enable+0x5a>
    78be:	d13fa0ef          	jal	ra,25d0 <rt_hw_interrupt_enable>
    78c2:	4799                	li	a5,6
    78c4:	853e                	mv	a0,a5
    78c6:	6105                	addi	sp,sp,32
    78c8:	af5f806f          	j	3bc <__riscv_restore_4>
    78cc:	405c                	lw	a5,4(s0)
    78ce:	9782                	jalr	a5
    78d0:	4585                	li	a1,1
    78d2:	4505                	li	a0,1
    78d4:	6fa010ef          	jal	ra,8fce <RCC_APB2PeriphClockCmd>
    78d8:	445c                	lw	a5,12(s0)
    78da:	470d                	li	a4,3
    78dc:	c43a                	sw	a4,8(sp)
    78de:	827c                	sh	a5,4(sp)
    78e0:	c83e                	sw	a5,16(sp)
    78e2:	00295783          	lhu	a5,2(s2)
    78e6:	ca02                	sw	zero,20(sp)
    78e8:	ce52                	sw	s4,28(sp)
    78ea:	09478c63          	beq	a5,s4,7982 <ch32_pin_irq_enable+0x110>
    78ee:	c7c1                	beqz	a5,7976 <ch32_pin_irq_enable+0x104>
    78f0:	4709                	li	a4,2
    78f2:	08e78d63          	beq	a5,a4,798c <ch32_pin_irq_enable+0x11a>
    78f6:	4408                	lw	a0,8(s0)
    78f8:	004c                	addi	a1,sp,4
    78fa:	43c010ef          	jal	ra,8d36 <GPIO_Init>
    78fe:	4418                	lw	a4,8(s0)
    7900:	400117b7          	lui	a5,0x40011
    7904:	c0078693          	addi	a3,a5,-1024 # 40010c00 <_eusrstack+0x20000c00>
    7908:	4505                	li	a0,1
    790a:	02d70263          	beq	a4,a3,792e <ch32_pin_irq_enable+0xbc>
    790e:	4509                	li	a0,2
    7910:	00f70f63          	beq	a4,a5,792e <ch32_pin_irq_enable+0xbc>
    7914:	40078793          	addi	a5,a5,1024
    7918:	450d                	li	a0,3
    791a:	00f70a63          	beq	a4,a5,792e <ch32_pin_irq_enable+0xbc>
    791e:	400127b7          	lui	a5,0x40012
    7922:	80078793          	addi	a5,a5,-2048 # 40011800 <_eusrstack+0x20001800>
    7926:	4501                	li	a0,0
    7928:	00f71363          	bne	a4,a5,792e <ch32_pin_irq_enable+0xbc>
    792c:	4511                	li	a0,4
    792e:	0ff4f593          	andi	a1,s1,255
    7932:	4dc010ef          	jal	ra,8e0e <GPIO_EXTILineConfig>
    7936:	0808                	addi	a0,sp,16
    7938:	2a4010ef          	jal	ra,8bdc <EXTI_Init>
    793c:	67c1                	lui	a5,0x10
    793e:	40078793          	addi	a5,a5,1024 # 10400 <pin_irq_map>
    7942:	048e                	slli	s1,s1,0x3
    7944:	94be                	add	s1,s1,a5
    7946:	40d0                	lw	a2,4(s1)
    7948:	e000e737          	lui	a4,0xe000e
    794c:	05000693          	li	a3,80
    7950:	00c707b3          	add	a5,a4,a2
    7954:	40d78023          	sb	a3,1024(a5)
    7958:	00565793          	srli	a5,a2,0x5
    795c:	04078793          	addi	a5,a5,64
    7960:	4685                	li	a3,1
    7962:	078a                	slli	a5,a5,0x2
    7964:	00c696b3          	sll	a3,a3,a2
    7968:	97ba                	add	a5,a5,a4
    796a:	c394                	sw	a3,0(a5)
    796c:	854e                	mv	a0,s3
    796e:	c63fa0ef          	jal	ra,25d0 <rt_hw_interrupt_enable>
    7972:	4781                	li	a5,0
    7974:	bf81                	j	78c4 <ch32_pin_irq_enable+0x52>
    7976:	02800793          	li	a5,40
    797a:	c63e                	sw	a5,12(sp)
    797c:	47a1                	li	a5,8
    797e:	cc3e                	sw	a5,24(sp)
    7980:	bf9d                	j	78f6 <ch32_pin_irq_enable+0x84>
    7982:	04800793          	li	a5,72
    7986:	c63e                	sw	a5,12(sp)
    7988:	cc56                	sw	s5,24(sp)
    798a:	b7b5                	j	78f6 <ch32_pin_irq_enable+0x84>
    798c:	4791                	li	a5,4
    798e:	c63e                	sw	a5,12(sp)
    7990:	47c1                	li	a5,16
    7992:	b7f5                	j	797e <ch32_pin_irq_enable+0x10c>
    7994:	4799                	li	a5,6
    7996:	f20a17e3          	bnez	s4,78c4 <ch32_pin_irq_enable+0x52>
    799a:	4548                	lw	a0,12(a0)
    799c:	c81ff0ef          	jal	ra,761c <bit2bitno>
    79a0:	473d                	li	a4,15
    79a2:	4799                	li	a5,6
    79a4:	f2a760e3          	bltu	a4,a0,78c4 <ch32_pin_irq_enable+0x52>
    79a8:	00351793          	slli	a5,a0,0x3
    79ac:	6541                	lui	a0,0x10
    79ae:	40050513          	addi	a0,a0,1024 # 10400 <pin_irq_map>
    79b2:	953e                	add	a0,a0,a5
    79b4:	4158                	lw	a4,4(a0)
    79b6:	00575793          	srli	a5,a4,0x5
    79ba:	06078793          	addi	a5,a5,96
    79be:	00e494b3          	sll	s1,s1,a4
    79c2:	078a                	slli	a5,a5,0x2
    79c4:	e000e737          	lui	a4,0xe000e
    79c8:	97ba                	add	a5,a5,a4
    79ca:	c384                	sw	s1,0(a5)
    79cc:	0000100f          	fence.i
    79d0:	b74d                	j	7972 <ch32_pin_irq_enable+0x100>

000079d2 <HAL_GPIO_EXTI_Callback>:
    79d2:	9d1f82ef          	jal	t0,3a2 <__riscv_save_0>
    79d6:	c47ff0ef          	jal	ra,761c <bit2bitno>
    79da:	47b1                	li	a5,12
    79dc:	02f50533          	mul	a0,a0,a5
    79e0:	200007b7          	lui	a5,0x20000
    79e4:	08078793          	addi	a5,a5,128 # 20000080 <pin_irq_hdr_tab>
    79e8:	953e                	add	a0,a0,a5
    79ea:	415c                	lw	a5,4(a0)
    79ec:	c399                	beqz	a5,79f2 <HAL_GPIO_EXTI_Callback+0x20>
    79ee:	4508                	lw	a0,8(a0)
    79f0:	9782                	jalr	a5
    79f2:	9d5f806f          	j	3c6 <__riscv_restore_0>

000079f6 <EXTI0_IRQHandler>:
    79f6:	34011173          	csrrw	sp,mscratch,sp
    79fa:	a34f90ef          	jal	ra,c2e <rt_interrupt_enter>
    79fe:	4505                	li	a0,1
    7a00:	246010ef          	jal	ra,8c46 <EXTI_GetITStatus>
    7a04:	c519                	beqz	a0,7a12 <EXTI0_IRQHandler+0x1c>
    7a06:	4505                	li	a0,1
    7a08:	fcbff0ef          	jal	ra,79d2 <HAL_GPIO_EXTI_Callback>
    7a0c:	4505                	li	a0,1
    7a0e:	256010ef          	jal	ra,8c64 <EXTI_ClearITPendingBit>
    7a12:	a4af90ef          	jal	ra,c5c <rt_interrupt_leave>
    7a16:	34011173          	csrrw	sp,mscratch,sp
    7a1a:	30200073          	mret

00007a1e <EXTI1_IRQHandler>:
    7a1e:	34011173          	csrrw	sp,mscratch,sp
    7a22:	a0cf90ef          	jal	ra,c2e <rt_interrupt_enter>
    7a26:	4509                	li	a0,2
    7a28:	21e010ef          	jal	ra,8c46 <EXTI_GetITStatus>
    7a2c:	c519                	beqz	a0,7a3a <EXTI1_IRQHandler+0x1c>
    7a2e:	4509                	li	a0,2
    7a30:	fa3ff0ef          	jal	ra,79d2 <HAL_GPIO_EXTI_Callback>
    7a34:	4509                	li	a0,2
    7a36:	22e010ef          	jal	ra,8c64 <EXTI_ClearITPendingBit>
    7a3a:	a22f90ef          	jal	ra,c5c <rt_interrupt_leave>
    7a3e:	34011173          	csrrw	sp,mscratch,sp
    7a42:	30200073          	mret

00007a46 <EXTI2_IRQHandler>:
    7a46:	34011173          	csrrw	sp,mscratch,sp
    7a4a:	9e4f90ef          	jal	ra,c2e <rt_interrupt_enter>
    7a4e:	4511                	li	a0,4
    7a50:	1f6010ef          	jal	ra,8c46 <EXTI_GetITStatus>
    7a54:	c519                	beqz	a0,7a62 <EXTI2_IRQHandler+0x1c>
    7a56:	4511                	li	a0,4
    7a58:	f7bff0ef          	jal	ra,79d2 <HAL_GPIO_EXTI_Callback>
    7a5c:	4511                	li	a0,4
    7a5e:	206010ef          	jal	ra,8c64 <EXTI_ClearITPendingBit>
    7a62:	9faf90ef          	jal	ra,c5c <rt_interrupt_leave>
    7a66:	34011173          	csrrw	sp,mscratch,sp
    7a6a:	30200073          	mret

00007a6e <EXTI3_IRQHandler>:
    7a6e:	34011173          	csrrw	sp,mscratch,sp
    7a72:	9bcf90ef          	jal	ra,c2e <rt_interrupt_enter>
    7a76:	4521                	li	a0,8
    7a78:	1ce010ef          	jal	ra,8c46 <EXTI_GetITStatus>
    7a7c:	c519                	beqz	a0,7a8a <EXTI3_IRQHandler+0x1c>
    7a7e:	4521                	li	a0,8
    7a80:	f53ff0ef          	jal	ra,79d2 <HAL_GPIO_EXTI_Callback>
    7a84:	4521                	li	a0,8
    7a86:	1de010ef          	jal	ra,8c64 <EXTI_ClearITPendingBit>
    7a8a:	9d2f90ef          	jal	ra,c5c <rt_interrupt_leave>
    7a8e:	34011173          	csrrw	sp,mscratch,sp
    7a92:	30200073          	mret

00007a96 <EXTI4_IRQHandler>:
    7a96:	34011173          	csrrw	sp,mscratch,sp
    7a9a:	994f90ef          	jal	ra,c2e <rt_interrupt_enter>
    7a9e:	4541                	li	a0,16
    7aa0:	1a6010ef          	jal	ra,8c46 <EXTI_GetITStatus>
    7aa4:	c519                	beqz	a0,7ab2 <EXTI4_IRQHandler+0x1c>
    7aa6:	4541                	li	a0,16
    7aa8:	f2bff0ef          	jal	ra,79d2 <HAL_GPIO_EXTI_Callback>
    7aac:	4541                	li	a0,16
    7aae:	1b6010ef          	jal	ra,8c64 <EXTI_ClearITPendingBit>
    7ab2:	9aaf90ef          	jal	ra,c5c <rt_interrupt_leave>
    7ab6:	34011173          	csrrw	sp,mscratch,sp
    7aba:	30200073          	mret

00007abe <EXTI9_5_IRQHandler>:
    7abe:	34011173          	csrrw	sp,mscratch,sp
    7ac2:	96cf90ef          	jal	ra,c2e <rt_interrupt_enter>
    7ac6:	02000513          	li	a0,32
    7aca:	17c010ef          	jal	ra,8c46 <EXTI_GetITStatus>
    7ace:	cd1d                	beqz	a0,7b0c <EXTI9_5_IRQHandler+0x4e>
    7ad0:	02000513          	li	a0,32
    7ad4:	effff0ef          	jal	ra,79d2 <HAL_GPIO_EXTI_Callback>
    7ad8:	04000513          	li	a0,64
    7adc:	ef7ff0ef          	jal	ra,79d2 <HAL_GPIO_EXTI_Callback>
    7ae0:	08000513          	li	a0,128
    7ae4:	eefff0ef          	jal	ra,79d2 <HAL_GPIO_EXTI_Callback>
    7ae8:	10000513          	li	a0,256
    7aec:	ee7ff0ef          	jal	ra,79d2 <HAL_GPIO_EXTI_Callback>
    7af0:	20000513          	li	a0,512
    7af4:	edfff0ef          	jal	ra,79d2 <HAL_GPIO_EXTI_Callback>
    7af8:	3e000513          	li	a0,992
    7afc:	168010ef          	jal	ra,8c64 <EXTI_ClearITPendingBit>
    7b00:	95cf90ef          	jal	ra,c5c <rt_interrupt_leave>
    7b04:	34011173          	csrrw	sp,mscratch,sp
    7b08:	30200073          	mret
    7b0c:	04000513          	li	a0,64
    7b10:	136010ef          	jal	ra,8c46 <EXTI_GetITStatus>
    7b14:	fd55                	bnez	a0,7ad0 <EXTI9_5_IRQHandler+0x12>
    7b16:	08000513          	li	a0,128
    7b1a:	12c010ef          	jal	ra,8c46 <EXTI_GetITStatus>
    7b1e:	f94d                	bnez	a0,7ad0 <EXTI9_5_IRQHandler+0x12>
    7b20:	10000513          	li	a0,256
    7b24:	122010ef          	jal	ra,8c46 <EXTI_GetITStatus>
    7b28:	f545                	bnez	a0,7ad0 <EXTI9_5_IRQHandler+0x12>
    7b2a:	20000513          	li	a0,512
    7b2e:	118010ef          	jal	ra,8c46 <EXTI_GetITStatus>
    7b32:	fd59                	bnez	a0,7ad0 <EXTI9_5_IRQHandler+0x12>
    7b34:	b7f1                	j	7b00 <EXTI9_5_IRQHandler+0x42>

00007b36 <EXTI15_10_IRQHandler>:
    7b36:	34011173          	csrrw	sp,mscratch,sp
    7b3a:	8f4f90ef          	jal	ra,c2e <rt_interrupt_enter>
    7b3e:	40000513          	li	a0,1024
    7b42:	104010ef          	jal	ra,8c46 <EXTI_GetITStatus>
    7b46:	c129                	beqz	a0,7b88 <EXTI15_10_IRQHandler+0x52>
    7b48:	40000513          	li	a0,1024
    7b4c:	e87ff0ef          	jal	ra,79d2 <HAL_GPIO_EXTI_Callback>
    7b50:	6505                	lui	a0,0x1
    7b52:	80050513          	addi	a0,a0,-2048 # 800 <__stack_size>
    7b56:	e7dff0ef          	jal	ra,79d2 <HAL_GPIO_EXTI_Callback>
    7b5a:	6505                	lui	a0,0x1
    7b5c:	e77ff0ef          	jal	ra,79d2 <HAL_GPIO_EXTI_Callback>
    7b60:	6509                	lui	a0,0x2
    7b62:	e71ff0ef          	jal	ra,79d2 <HAL_GPIO_EXTI_Callback>
    7b66:	6511                	lui	a0,0x4
    7b68:	e6bff0ef          	jal	ra,79d2 <HAL_GPIO_EXTI_Callback>
    7b6c:	6521                	lui	a0,0x8
    7b6e:	e65ff0ef          	jal	ra,79d2 <HAL_GPIO_EXTI_Callback>
    7b72:	6541                	lui	a0,0x10
    7b74:	c0050513          	addi	a0,a0,-1024 # fc00 <asc2_3216+0xff4>
    7b78:	0ec010ef          	jal	ra,8c64 <EXTI_ClearITPendingBit>
    7b7c:	8e0f90ef          	jal	ra,c5c <rt_interrupt_leave>
    7b80:	34011173          	csrrw	sp,mscratch,sp
    7b84:	30200073          	mret
    7b88:	6505                	lui	a0,0x1
    7b8a:	80050513          	addi	a0,a0,-2048 # 800 <__stack_size>
    7b8e:	0b8010ef          	jal	ra,8c46 <EXTI_GetITStatus>
    7b92:	f95d                	bnez	a0,7b48 <EXTI15_10_IRQHandler+0x12>
    7b94:	6505                	lui	a0,0x1
    7b96:	0b0010ef          	jal	ra,8c46 <EXTI_GetITStatus>
    7b9a:	f55d                	bnez	a0,7b48 <EXTI15_10_IRQHandler+0x12>
    7b9c:	6509                	lui	a0,0x2
    7b9e:	0a8010ef          	jal	ra,8c46 <EXTI_GetITStatus>
    7ba2:	f15d                	bnez	a0,7b48 <EXTI15_10_IRQHandler+0x12>
    7ba4:	6511                	lui	a0,0x4
    7ba6:	0a0010ef          	jal	ra,8c46 <EXTI_GetITStatus>
    7baa:	fd59                	bnez	a0,7b48 <EXTI15_10_IRQHandler+0x12>
    7bac:	6521                	lui	a0,0x8
    7bae:	098010ef          	jal	ra,8c46 <EXTI_GetITStatus>
    7bb2:	f959                	bnez	a0,7b48 <EXTI15_10_IRQHandler+0x12>
    7bb4:	b7e1                	j	7b7c <EXTI15_10_IRQHandler+0x46>

00007bb6 <ch32dma_transmit>:
    7bb6:	4501                	li	a0,0
    7bb8:	8082                	ret

00007bba <ch32_configure>:
    7bba:	fe8f82ef          	jal	t0,3a2 <__riscv_save_0>
    7bbe:	1141                	addi	sp,sp,-16
    7bc0:	842a                	mv	s0,a0
    7bc2:	84ae                	mv	s1,a1
    7bc4:	ed01                	bnez	a0,7bdc <ch32_configure+0x22>
    7bc6:	65c5                	lui	a1,0x11
    7bc8:	0000d537          	lui	a0,0xd
    7bcc:	02800613          	li	a2,40
    7bd0:	ae458593          	addi	a1,a1,-1308 # 10ae4 <__FUNCTION__.6459>
    7bd4:	2ec50513          	addi	a0,a0,748 # d2ec <__FUNCTION__.2837+0x28>
    7bd8:	809f90ef          	jal	ra,13e0 <rt_assert_handler>
    7bdc:	ec81                	bnez	s1,7bf4 <ch32_configure+0x3a>
    7bde:	65c5                	lui	a1,0x11
    7be0:	00011537          	lui	a0,0x11
    7be4:	02900613          	li	a2,41
    7be8:	ae458593          	addi	a1,a1,-1308 # 10ae4 <__FUNCTION__.6459>
    7bec:	b3c50513          	addi	a0,a0,-1220 # 10b3c <__rti_rt_hw_usart_init_name+0x14>
    7bf0:	ff0f90ef          	jal	ra,13e0 <rt_assert_handler>
    7bf4:	409c                	lw	a5,0(s1)
    7bf6:	4020                	lw	s0,64(s0)
    7bf8:	46a1                	li	a3,8
    7bfa:	c01c                	sw	a5,0(s0)
    7bfc:	47b1                	li	a5,12
    7bfe:	a43e                	sh	a5,10(s0)
    7c00:	40dc                	lw	a5,4(s1)
    7c02:	00041623          	sh	zero,12(s0)
    7c06:	00f7f713          	andi	a4,a5,15
    7c0a:	02d70163          	beq	a4,a3,7c2c <ch32_configure+0x72>
    7c0e:	46a5                	li	a3,9
    7c10:	00d71e63          	bne	a4,a3,7c2c <ch32_configure+0x72>
    7c14:	6705                	lui	a4,0x1
    7c16:	a05a                	sh	a4,4(s0)
    7c18:	0047d713          	srli	a4,a5,0x4
    7c1c:	8b0d                	andi	a4,a4,3
    7c1e:	c701                	beqz	a4,7c26 <ch32_configure+0x6c>
    7c20:	4685                	li	a3,1
    7c22:	00d70863          	beq	a4,a3,7c32 <ch32_configure+0x78>
    7c26:	00041323          	sh	zero,6(s0)
    7c2a:	a031                	j	7c36 <ch32_configure+0x7c>
    7c2c:	00041223          	sh	zero,4(s0)
    7c30:	b7e5                	j	7c18 <ch32_configure+0x5e>
    7c32:	6709                	lui	a4,0x2
    7c34:	a07a                	sh	a4,6(s0)
    7c36:	8399                	srli	a5,a5,0x6
    7c38:	8b8d                	andi	a5,a5,3
    7c3a:	4705                	li	a4,1
    7c3c:	00e78963          	beq	a5,a4,7c4e <ch32_configure+0x94>
    7c40:	c781                	beqz	a5,7c48 <ch32_configure+0x8e>
    7c42:	4709                	li	a4,2
    7c44:	06e78963          	beq	a5,a4,7cb6 <ch32_configure+0xfc>
    7c48:	00041423          	sh	zero,8(s0)
    7c4c:	a021                	j	7c54 <ch32_configure+0x9a>
    7c4e:	60000793          	li	a5,1536
    7c52:	a41e                	sh	a5,8(s0)
    7c54:	4818                	lw	a4,16(s0)
    7c56:	400147b7          	lui	a5,0x40014
    7c5a:	80078793          	addi	a5,a5,-2048 # 40013800 <_eusrstack+0x20003800>
    7c5e:	04f71863          	bne	a4,a5,7cae <ch32_configure+0xf4>
    7c62:	6511                	lui	a0,0x4
    7c64:	4585                	li	a1,1
    7c66:	0511                	addi	a0,a0,4
    7c68:	366010ef          	jal	ra,8fce <RCC_APB2PeriphClockCmd>
    7c6c:	20000793          	li	a5,512
    7c70:	400114b7          	lui	s1,0x40011
    7c74:	827c                	sh	a5,4(sp)
    7c76:	490d                	li	s2,3
    7c78:	47e1                	li	a5,24
    7c7a:	004c                	addi	a1,sp,4
    7c7c:	80048513          	addi	a0,s1,-2048 # 40010800 <_eusrstack+0x20000800>
    7c80:	c63e                	sw	a5,12(sp)
    7c82:	c44a                	sw	s2,8(sp)
    7c84:	0b2010ef          	jal	ra,8d36 <GPIO_Init>
    7c88:	40000793          	li	a5,1024
    7c8c:	827c                	sh	a5,4(sp)
    7c8e:	004c                	addi	a1,sp,4
    7c90:	4791                	li	a5,4
    7c92:	80048513          	addi	a0,s1,-2048
    7c96:	c63e                	sw	a5,12(sp)
    7c98:	c44a                	sw	s2,8(sp)
    7c9a:	09c010ef          	jal	ra,8d36 <GPIO_Init>
    7c9e:	4808                	lw	a0,16(s0)
    7ca0:	85a2                	mv	a1,s0
    7ca2:	52a010ef          	jal	ra,91cc <USART_Init>
    7ca6:	4808                	lw	a0,16(s0)
    7ca8:	4585                	li	a1,1
    7caa:	5b2010ef          	jal	ra,925c <USART_Cmd>
    7cae:	4501                	li	a0,0
    7cb0:	0141                	addi	sp,sp,16
    7cb2:	f14f806f          	j	3c6 <__riscv_restore_0>
    7cb6:	40000793          	li	a5,1024
    7cba:	bf61                	j	7c52 <ch32_configure+0x98>

00007cbc <rt_hw_usart_init>:
    7cbc:	eccf82ef          	jal	t0,388 <__riscv_save_4>
    7cc0:	200084b7          	lui	s1,0x20008
    7cc4:	79c48413          	addi	s0,s1,1948 # 2000879c <uart1>
    7cc8:	03500793          	li	a5,53
    7ccc:	c85c                	sw	a5,20(s0)
    7cce:	20008937          	lui	s2,0x20008
    7cd2:	400147b7          	lui	a5,0x40014
    7cd6:	74490613          	addi	a2,s2,1860 # 20008744 <serial1>
    7cda:	80078793          	addi	a5,a5,-2048 # 40013800 <_eusrstack+0x20003800>
    7cde:	4674                	lw	a3,76(a2)
    7ce0:	c81c                	sw	a5,16(s0)
    7ce2:	67c5                	lui	a5,0x11
    7ce4:	b4c78793          	addi	a5,a5,-1204 # 10b4c <ch32_uart_ops>
    7ce8:	c27c                	sw	a5,68(a2)
    7cea:	c00007b7          	lui	a5,0xc0000
    7cee:	8ff5                	and	a5,a5,a3
    7cf0:	66c1                	lui	a3,0x10
    7cf2:	06a1                	addi	a3,a3,8
    7cf4:	6771                	lui	a4,0x1c
    7cf6:	20070713          	addi	a4,a4,512 # 1c200 <__rt_init_end+0xaf48>
    7cfa:	8fd5                	or	a5,a5,a3
    7cfc:	6511                	lui	a0,0x4
    7cfe:	1141                	addi	sp,sp,-16
    7d00:	c638                	sw	a4,72(a2)
    7d02:	c67c                	sw	a5,76(a2)
    7d04:	4585                	li	a1,1
    7d06:	000c07b7          	lui	a5,0xc0
    7d0a:	0511                	addi	a0,a0,4
    7d0c:	c018                	sw	a4,0(s0)
    7d0e:	c41c                	sw	a5,8(s0)
    7d10:	00042223          	sw	zero,4(s0)
    7d14:	00041623          	sh	zero,12(s0)
    7d18:	2b6010ef          	jal	ra,8fce <RCC_APB2PeriphClockCmd>
    7d1c:	400119b7          	lui	s3,0x40011
    7d20:	20000793          	li	a5,512
    7d24:	827c                	sh	a5,4(sp)
    7d26:	4a0d                	li	s4,3
    7d28:	47e1                	li	a5,24
    7d2a:	004c                	addi	a1,sp,4
    7d2c:	80098513          	addi	a0,s3,-2048 # 40010800 <_eusrstack+0x20000800>
    7d30:	c452                	sw	s4,8(sp)
    7d32:	c63e                	sw	a5,12(sp)
    7d34:	002010ef          	jal	ra,8d36 <GPIO_Init>
    7d38:	40000793          	li	a5,1024
    7d3c:	827c                	sh	a5,4(sp)
    7d3e:	004c                	addi	a1,sp,4
    7d40:	4791                	li	a5,4
    7d42:	80098513          	addi	a0,s3,-2048
    7d46:	c63e                	sw	a5,12(sp)
    7d48:	c452                	sw	s4,8(sp)
    7d4a:	7ed000ef          	jal	ra,8d36 <GPIO_Init>
    7d4e:	4808                	lw	a0,16(s0)
    7d50:	79c48593          	addi	a1,s1,1948
    7d54:	478010ef          	jal	ra,91cc <USART_Init>
    7d58:	4808                	lw	a0,16(s0)
    7d5a:	4585                	li	a1,1
    7d5c:	500010ef          	jal	ra,925c <USART_Cmd>
    7d60:	0000d5b7          	lui	a1,0xd
    7d64:	79c48693          	addi	a3,s1,1948
    7d68:	10300613          	li	a2,259
    7d6c:	3e858593          	addi	a1,a1,1000 # d3e8 <__fsym_pinMode_name+0x20>
    7d70:	74490513          	addi	a0,s2,1860
    7d74:	b0dfb0ef          	jal	ra,3880 <rt_hw_serial_register>
    7d78:	4501                	li	a0,0
    7d7a:	0141                	addi	sp,sp,16
    7d7c:	e40f806f          	j	3bc <__riscv_restore_4>

00007d80 <ch32_getc>:
    7d80:	e22f82ef          	jal	t0,3a2 <__riscv_save_0>
    7d84:	842a                	mv	s0,a0
    7d86:	ed01                	bnez	a0,7d9e <ch32_getc+0x1e>
    7d88:	65c5                	lui	a1,0x11
    7d8a:	0000d537          	lui	a0,0xd
    7d8e:	09800613          	li	a2,152
    7d92:	b1058593          	addi	a1,a1,-1264 # 10b10 <__FUNCTION__.6498>
    7d96:	2ec50513          	addi	a0,a0,748 # d2ec <__FUNCTION__.2837+0x28>
    7d9a:	e46f90ef          	jal	ra,13e0 <rt_assert_handler>
    7d9e:	4020                	lw	s0,64(s0)
    7da0:	02000593          	li	a1,32
    7da4:	4808                	lw	a0,16(s0)
    7da6:	502010ef          	jal	ra,92a8 <USART_GetFlagStatus>
    7daa:	57fd                	li	a5,-1
    7dac:	c509                	beqz	a0,7db6 <ch32_getc+0x36>
    7dae:	481c                	lw	a5,16(s0)
    7db0:	23de                	lhu	a5,4(a5)
    7db2:	0ff7f793          	andi	a5,a5,255
    7db6:	853e                	mv	a0,a5
    7db8:	e0ef806f          	j	3c6 <__riscv_restore_0>

00007dbc <ch32_putc>:
    7dbc:	de6f82ef          	jal	t0,3a2 <__riscv_save_0>
    7dc0:	84aa                	mv	s1,a0
    7dc2:	842e                	mv	s0,a1
    7dc4:	ed01                	bnez	a0,7ddc <ch32_putc+0x20>
    7dc6:	65c5                	lui	a1,0x11
    7dc8:	0000d537          	lui	a0,0xd
    7dcc:	08c00613          	li	a2,140
    7dd0:	b0458593          	addi	a1,a1,-1276 # 10b04 <__FUNCTION__.6489>
    7dd4:	2ec50513          	addi	a0,a0,748 # d2ec <__FUNCTION__.2837+0x28>
    7dd8:	e08f90ef          	jal	ra,13e0 <rt_assert_handler>
    7ddc:	40a4                	lw	s1,64(s1)
    7dde:	4888                	lw	a0,16(s1)
    7de0:	04000593          	li	a1,64
    7de4:	4c4010ef          	jal	ra,92a8 <USART_GetFlagStatus>
    7de8:	d97d                	beqz	a0,7dde <ch32_putc+0x22>
    7dea:	489c                	lw	a5,16(s1)
    7dec:	0442                	slli	s0,s0,0x10
    7dee:	8041                	srli	s0,s0,0x10
    7df0:	a3c2                	sh	s0,4(a5)
    7df2:	4505                	li	a0,1
    7df4:	dd2f806f          	j	3c6 <__riscv_restore_0>

00007df8 <ch32_control>:
    7df8:	daaf82ef          	jal	t0,3a2 <__riscv_save_0>
    7dfc:	84aa                	mv	s1,a0
    7dfe:	842e                	mv	s0,a1
    7e00:	ed01                	bnez	a0,7e18 <ch32_control+0x20>
    7e02:	65c5                	lui	a1,0x11
    7e04:	0000d537          	lui	a0,0xd
    7e08:	07300613          	li	a2,115
    7e0c:	af458593          	addi	a1,a1,-1292 # 10af4 <__FUNCTION__.6480>
    7e10:	2ec50513          	addi	a0,a0,748 # d2ec <__FUNCTION__.2837+0x28>
    7e14:	dccf90ef          	jal	ra,13e0 <rt_assert_handler>
    7e18:	47c1                	li	a5,16
    7e1a:	40b8                	lw	a4,64(s1)
    7e1c:	02f40d63          	beq	s0,a5,7e56 <ch32_control+0x5e>
    7e20:	47c5                	li	a5,17
    7e22:	02f41763          	bne	s0,a5,7e50 <ch32_control+0x58>
    7e26:	4b54                	lw	a3,20(a4)
    7e28:	4605                	li	a2,1
    7e2a:	0056d793          	srli	a5,a3,0x5
    7e2e:	06078793          	addi	a5,a5,96 # c0060 <__rt_init_end+0xaeda8>
    7e32:	00d61633          	sll	a2,a2,a3
    7e36:	078a                	slli	a5,a5,0x2
    7e38:	e000e6b7          	lui	a3,0xe000e
    7e3c:	97b6                	add	a5,a5,a3
    7e3e:	c390                	sw	a2,0(a5)
    7e40:	0000100f          	fence.i
    7e44:	4601                	li	a2,0
    7e46:	4b08                	lw	a0,16(a4)
    7e48:	52500593          	li	a1,1317
    7e4c:	426010ef          	jal	ra,9272 <USART_ITConfig>
    7e50:	4501                	li	a0,0
    7e52:	d74f806f          	j	3c6 <__riscv_restore_0>
    7e56:	4b54                	lw	a3,20(a4)
    7e58:	4605                	li	a2,1
    7e5a:	0056d793          	srli	a5,a3,0x5
    7e5e:	04078793          	addi	a5,a5,64
    7e62:	00d61633          	sll	a2,a2,a3
    7e66:	078a                	slli	a5,a5,0x2
    7e68:	e000e6b7          	lui	a3,0xe000e
    7e6c:	97b6                	add	a5,a5,a3
    7e6e:	c390                	sw	a2,0(a5)
    7e70:	4605                	li	a2,1
    7e72:	bfd1                	j	7e46 <ch32_control+0x4e>

00007e74 <USART1_IRQHandler>:
    7e74:	1141                	addi	sp,sp,-16
    7e76:	c622                	sw	s0,12(sp)
    7e78:	c426                	sw	s1,8(sp)
    7e7a:	34011173          	csrrw	sp,mscratch,sp
    7e7e:	db1f80ef          	jal	ra,c2e <rt_interrupt_enter>
    7e82:	20008537          	lui	a0,0x20008
    7e86:	74450793          	addi	a5,a0,1860 # 20008744 <serial1>
    7e8a:	43a4                	lw	s1,64(a5)
    7e8c:	842a                	mv	s0,a0
    7e8e:	ec81                	bnez	s1,7ea6 <USART1_IRQHandler+0x32>
    7e90:	65c5                	lui	a1,0x11
    7e92:	00011537          	lui	a0,0x11
    7e96:	0b100613          	li	a2,177
    7e9a:	b1c58593          	addi	a1,a1,-1252 # 10b1c <__FUNCTION__.6509>
    7e9e:	ad450513          	addi	a0,a0,-1324 # 10ad4 <pins+0x654>
    7ea2:	d3ef90ef          	jal	ra,13e0 <rt_assert_handler>
    7ea6:	4888                	lw	a0,16(s1)
    7ea8:	52500593          	li	a1,1317
    7eac:	406010ef          	jal	ra,92b2 <USART_GetITStatus>
    7eb0:	c919                	beqz	a0,7ec6 <USART1_IRQHandler+0x52>
    7eb2:	4585                	li	a1,1
    7eb4:	74440513          	addi	a0,s0,1860
    7eb8:	a4ffb0ef          	jal	ra,3906 <rt_hw_serial_isr>
    7ebc:	4888                	lw	a0,16(s1)
    7ebe:	52500593          	li	a1,1317
    7ec2:	42c010ef          	jal	ra,92ee <USART_ClearITPendingBit>
    7ec6:	d97f80ef          	jal	ra,c5c <rt_interrupt_leave>
    7eca:	34011173          	csrrw	sp,mscratch,sp
    7ece:	4432                	lw	s0,12(sp)
    7ed0:	44a2                	lw	s1,8(sp)
    7ed2:	0141                	addi	sp,sp,16
    7ed4:	30200073          	mret

00007ed8 <rainbow_thread_entry>:
    7ed8:	ca2f82ef          	jal	t0,37a <__riscv_save_10>
    7edc:	000117b7          	lui	a5,0x11
    7ee0:	c207a783          	lw	a5,-992(a5) # 10c20 <ch32_uart_ops+0xd4>
    7ee4:	00011537          	lui	a0,0x11
    7ee8:	1101                	addi	sp,sp,-32
    7eea:	c3050513          	addi	a0,a0,-976 # 10c30 <ch32_uart_ops+0xe4>
    7eee:	cc3e                	sw	a5,24(sp)
    7ef0:	bfcf90ef          	jal	ra,12ec <rt_kprintf>
    7ef4:	000117b7          	lui	a5,0x11
    7ef8:	c247ab03          	lw	s6,-988(a5) # 10c24 <ch32_uart_ops+0xd8>
    7efc:	000117b7          	lui	a5,0x11
    7f00:	c287aa83          	lw	s5,-984(a5) # 10c28 <ch32_uart_ops+0xdc>
    7f04:	000117b7          	lui	a5,0x11
    7f08:	c2c7ab83          	lw	s7,-980(a5) # 10c2c <ch32_uart_ops+0xe0>
    7f0c:	20009437          	lui	s0,0x20009
    7f10:	00000493          	li	s1,0
    7f14:	81040413          	addi	s0,s0,-2032 # 20008810 <rainbow_ctrl>
    7f18:	445c                	lw	a5,12(s0)
    7f1a:	06400513          	li	a0,100
    7f1e:	cfbd                	beqz	a5,7f9c <rainbow_thread_entry+0xc4>
    7f20:	2428                	lbu	a0,10(s0)
    7f22:	4a01                	li	s4,0
    7f24:	4c79                	li	s8,30
    7f26:	7bc030ef          	jal	ra,b6e2 <__floatunsisf>
    7f2a:	85da                	mv	a1,s6
    7f2c:	3c1020ef          	jal	ra,aaec <__divsf3>
    7f30:	ce2a                	sw	a0,28(sp)
    7f32:	20008537          	lui	a0,0x20008
    7f36:	7b450913          	addi	s2,a0,1972 # 200087b4 <led_data>
    7f3a:	89aa                	mv	s3,a0
    7f3c:	8552                	mv	a0,s4
    7f3e:	6de030ef          	jal	ra,b61c <__floatsisf>
    7f42:	85de                	mv	a1,s7
    7f44:	7c9020ef          	jal	ra,af0c <__mulsf3>
    7f48:	85a6                	mv	a1,s1
    7f4a:	039020ef          	jal	ra,a782 <__addsf3>
    7f4e:	85d6                	mv	a1,s5
    7f50:	3b2010ef          	jal	ra,9302 <fmodf>
    7f54:	ca2a                	sw	a0,20(sp)
    7f56:	4631                	li	a2,12
    7f58:	084c                	addi	a1,sp,20
    7f5a:	850a                	mv	a0,sp
    7f5c:	305030ef          	jal	ra,ba60 <memcpy>
    7f60:	00290693          	addi	a3,s2,2
    7f64:	00190613          	addi	a2,s2,1
    7f68:	85ca                	mv	a1,s2
    7f6a:	850a                	mv	a0,sp
    7f6c:	0a05                	addi	s4,s4,1
    7f6e:	2235                	jal	809a <ws2812_hsv_to_rgb>
    7f70:	090d                	addi	s2,s2,3
    7f72:	fd8a15e3          	bne	s4,s8,7f3c <rainbow_thread_entry+0x64>
    7f76:	7b498513          	addi	a0,s3,1972
    7f7a:	2c71                	jal	8216 <ws2812_update>
    7f7c:	404c                	lw	a1,4(s0)
    7f7e:	8526                	mv	a0,s1
    7f80:	003020ef          	jal	ra,a782 <__addsf3>
    7f84:	85d6                	mv	a1,s5
    7f86:	84aa                	mv	s1,a0
    7f88:	673020ef          	jal	ra,adfa <__gesf2>
    7f8c:	00054763          	bltz	a0,7f9a <rainbow_thread_entry+0xc2>
    7f90:	8526                	mv	a0,s1
    7f92:	85d6                	mv	a1,s5
    7f94:	20c030ef          	jal	ra,b1a0 <__subsf3>
    7f98:	84aa                	mv	s1,a0
    7f9a:	240a                	lhu	a0,8(s0)
    7f9c:	988fa0ef          	jal	ra,2124 <rt_thread_mdelay>
    7fa0:	bfa5                	j	7f18 <rainbow_thread_entry+0x40>

00007fa2 <rainbow_init>:
    7fa2:	c00f82ef          	jal	t0,3a2 <__riscv_save_0>
    7fa6:	200097b7          	lui	a5,0x20009
    7faa:	81078793          	addi	a5,a5,-2032 # 20008810 <rainbow_ctrl>
    7fae:	00000713          	li	a4,0
    7fb2:	c398                	sw	a4,0(a5)
    7fb4:	00011737          	lui	a4,0x11
    7fb8:	b6072703          	lw	a4,-1184(a4) # 10b60 <ch32_uart_ops+0x14>
    7fbc:	000085b7          	lui	a1,0x8
    7fc0:	00011537          	lui	a0,0x11
    7fc4:	c3d8                	sw	a4,4(a5)
    7fc6:	011e0737          	lui	a4,0x11e0
    7fca:	0765                	addi	a4,a4,25
    7fcc:	c798                	sw	a4,8(a5)
    7fce:	0007a623          	sw	zero,12(a5)
    7fd2:	4729                	li	a4,10
    7fd4:	47a9                	li	a5,10
    7fd6:	20000693          	li	a3,512
    7fda:	4601                	li	a2,0
    7fdc:	ed858593          	addi	a1,a1,-296 # 7ed8 <rainbow_thread_entry>
    7fe0:	b6450513          	addi	a0,a0,-1180 # 10b64 <ch32_uart_ops+0x18>
    7fe4:	fa9f90ef          	jal	ra,1f8c <rt_thread_create>
    7fe8:	c919                	beqz	a0,7ffe <rainbow_init+0x5c>
    7fea:	9cefa0ef          	jal	ra,21b8 <rt_thread_startup>
    7fee:	00011537          	lui	a0,0x11
    7ff2:	b6c50513          	addi	a0,a0,-1172 # 10b6c <ch32_uart_ops+0x20>
    7ff6:	af6f90ef          	jal	ra,12ec <rt_kprintf>
    7ffa:	bccf806f          	j	3c6 <__riscv_restore_0>
    7ffe:	00011537          	lui	a0,0x11
    8002:	b8c50513          	addi	a0,a0,-1140 # 10b8c <ch32_uart_ops+0x40>
    8006:	bfc5                	j	7ff6 <rainbow_init+0x54>

00008008 <rainbow_start>:
    8008:	b9af82ef          	jal	t0,3a2 <__riscv_save_0>
    800c:	4405                	li	s0,1
    800e:	c519                	beqz	a0,801c <rainbow_start+0x14>
    8010:	4795                	li	a5,5
    8012:	0ff57413          	andi	s0,a0,255
    8016:	00a7f363          	bgeu	a5,a0,801c <rainbow_start+0x14>
    801a:	4415                	li	s0,5
    801c:	8522                	mv	a0,s0
    801e:	5fe030ef          	jal	ra,b61c <__floatsisf>
    8022:	85aa                	mv	a1,a0
    8024:	75e020ef          	jal	ra,a782 <__addsf3>
    8028:	03200793          	li	a5,50
    802c:	0287c7b3          	div	a5,a5,s0
    8030:	200094b7          	lui	s1,0x20009
    8034:	81048493          	addi	s1,s1,-2032 # 20008810 <rainbow_ctrl>
    8038:	c0c8                	sw	a0,4(s1)
    803a:	00011537          	lui	a0,0x11
    803e:	85a2                	mv	a1,s0
    8040:	bdc50513          	addi	a0,a0,-1060 # 10bdc <ch32_uart_ops+0x90>
    8044:	a49e                	sh	a5,8(s1)
    8046:	4785                	li	a5,1
    8048:	c4dc                	sw	a5,12(s1)
    804a:	aa2f90ef          	jal	ra,12ec <rt_kprintf>
    804e:	b78f806f          	j	3c6 <__riscv_restore_0>

00008052 <rainbow_stop>:
    8052:	b50f82ef          	jal	t0,3a2 <__riscv_save_0>
    8056:	00011537          	lui	a0,0x11
    805a:	200097b7          	lui	a5,0x20009
    805e:	c0850513          	addi	a0,a0,-1016 # 10c08 <ch32_uart_ops+0xbc>
    8062:	8007ae23          	sw	zero,-2020(a5) # 2000881c <rainbow_ctrl+0xc>
    8066:	a86f90ef          	jal	ra,12ec <rt_kprintf>
    806a:	b5cf806f          	j	3c6 <__riscv_restore_0>

0000806e <rainbow_set_brightness>:
    806e:	b34f82ef          	jal	t0,3a2 <__riscv_save_0>
    8072:	06400793          	li	a5,100
    8076:	06400593          	li	a1,100
    807a:	00a7e463          	bltu	a5,a0,8082 <rainbow_set_brightness+0x14>
    807e:	0ff57593          	andi	a1,a0,255
    8082:	00011537          	lui	a0,0x11
    8086:	200097b7          	lui	a5,0x20009
    808a:	bb850513          	addi	a0,a0,-1096 # 10bb8 <ch32_uart_ops+0x6c>
    808e:	80b78d23          	sb	a1,-2022(a5) # 2000881a <rainbow_ctrl+0xa>
    8092:	a5af90ef          	jal	ra,12ec <rt_kprintf>
    8096:	b30f806f          	j	3c6 <__riscv_restore_0>

0000809a <ws2812_hsv_to_rgb>:
    809a:	ad8f82ef          	jal	t0,372 <__riscv_save_12>
    809e:	00452983          	lw	s3,4(a0)
    80a2:	1141                	addi	sp,sp,-16
    80a4:	84aa                	mv	s1,a0
    80a6:	8d2e                	mv	s10,a1
    80a8:	4500                	lw	s0,8(a0)
    80aa:	00000593          	li	a1,0
    80ae:	854e                	mv	a0,s3
    80b0:	8cb2                	mv	s9,a2
    80b2:	8c36                	mv	s8,a3
    80b4:	5cd020ef          	jal	ra,ae80 <__lesf2>
    80b8:	14a05c63          	blez	a0,8210 <ws2812_hsv_to_rgb+0x176>
    80bc:	4084                	lw	s1,0(s1)
    80be:	000117b7          	lui	a5,0x11
    80c2:	c287a583          	lw	a1,-984(a5) # 10c28 <ch32_uart_ops+0xdc>
    80c6:	8526                	mv	a0,s1
    80c8:	533020ef          	jal	ra,adfa <__gesf2>
    80cc:	00054463          	bltz	a0,80d4 <ws2812_hsv_to_rgb+0x3a>
    80d0:	00000493          	li	s1,0
    80d4:	000117b7          	lui	a5,0x11
    80d8:	c547a583          	lw	a1,-940(a5) # 10c54 <ch32_uart_ops+0x108>
    80dc:	8526                	mv	a0,s1
    80de:	00011937          	lui	s2,0x11
    80e2:	20b020ef          	jal	ra,aaec <__divsf3>
    80e6:	84aa                	mv	s1,a0
    80e8:	47c030ef          	jal	ra,b564 <__fixsfsi>
    80ec:	c62a                	sw	a0,12(sp)
    80ee:	52e030ef          	jal	ra,b61c <__floatsisf>
    80f2:	85aa                	mv	a1,a0
    80f4:	8526                	mv	a0,s1
    80f6:	0aa030ef          	jal	ra,b1a0 <__subsf3>
    80fa:	8daa                	mv	s11,a0
    80fc:	8522                	mv	a0,s0
    80fe:	6b2030ef          	jal	ra,b7b0 <__extendsfdf2>
    8102:	8a2a                	mv	s4,a0
    8104:	854e                	mv	a0,s3
    8106:	8aae                	mv	s5,a1
    8108:	6a8030ef          	jal	ra,b7b0 <__extendsfdf2>
    810c:	862a                	mv	a2,a0
    810e:	86ae                	mv	a3,a1
    8110:	8b2a                	mv	s6,a0
    8112:	8bae                	mv	s7,a1
    8114:	c6092503          	lw	a0,-928(s2) # 10c60 <ch32_uart_ops+0x114>
    8118:	c6492583          	lw	a1,-924(s2)
    811c:	65b010ef          	jal	ra,9f76 <__subdf3>
    8120:	8652                	mv	a2,s4
    8122:	86d6                	mv	a3,s5
    8124:	19b010ef          	jal	ra,9abe <__muldf3>
    8128:	734030ef          	jal	ra,b85c <__truncdfsf2>
    812c:	85ee                	mv	a1,s11
    812e:	84aa                	mv	s1,a0
    8130:	854e                	mv	a0,s3
    8132:	5db020ef          	jal	ra,af0c <__mulsf3>
    8136:	67a030ef          	jal	ra,b7b0 <__extendsfdf2>
    813a:	862a                	mv	a2,a0
    813c:	86ae                	mv	a3,a1
    813e:	c6092503          	lw	a0,-928(s2)
    8142:	c6492583          	lw	a1,-924(s2)
    8146:	631010ef          	jal	ra,9f76 <__subdf3>
    814a:	8652                	mv	a2,s4
    814c:	86d6                	mv	a3,s5
    814e:	171010ef          	jal	ra,9abe <__muldf3>
    8152:	70a030ef          	jal	ra,b85c <__truncdfsf2>
    8156:	89aa                	mv	s3,a0
    8158:	856e                	mv	a0,s11
    815a:	656030ef          	jal	ra,b7b0 <__extendsfdf2>
    815e:	862a                	mv	a2,a0
    8160:	86ae                	mv	a3,a1
    8162:	c6092503          	lw	a0,-928(s2)
    8166:	c6492583          	lw	a1,-924(s2)
    816a:	60d010ef          	jal	ra,9f76 <__subdf3>
    816e:	865a                	mv	a2,s6
    8170:	86de                	mv	a3,s7
    8172:	14d010ef          	jal	ra,9abe <__muldf3>
    8176:	862a                	mv	a2,a0
    8178:	86ae                	mv	a3,a1
    817a:	c6092503          	lw	a0,-928(s2)
    817e:	c6492583          	lw	a1,-924(s2)
    8182:	5f5010ef          	jal	ra,9f76 <__subdf3>
    8186:	8652                	mv	a2,s4
    8188:	86d6                	mv	a3,s5
    818a:	135010ef          	jal	ra,9abe <__muldf3>
    818e:	6ce030ef          	jal	ra,b85c <__truncdfsf2>
    8192:	47b2                	lw	a5,12(sp)
    8194:	4711                	li	a4,4
    8196:	892a                	mv	s2,a0
    8198:	06f76963          	bltu	a4,a5,820a <ws2812_hsv_to_rgb+0x170>
    819c:	6745                	lui	a4,0x11
    819e:	078a                	slli	a5,a5,0x2
    81a0:	c4070713          	addi	a4,a4,-960 # 10c40 <ch32_uart_ops+0xf4>
    81a4:	97ba                	add	a5,a5,a4
    81a6:	439c                	lw	a5,0(a5)
    81a8:	8782                	jr	a5
    81aa:	8922                	mv	s2,s0
    81ac:	844e                	mv	s0,s3
    81ae:	000119b7          	lui	s3,0x11
    81b2:	c589a583          	lw	a1,-936(s3) # 10c58 <ch32_uart_ops+0x10c>
    81b6:	8522                	mv	a0,s0
    81b8:	555020ef          	jal	ra,af0c <__mulsf3>
    81bc:	40a030ef          	jal	ra,b5c6 <__fixunssfsi>
    81c0:	c589a583          	lw	a1,-936(s3)
    81c4:	00ad0023          	sb	a0,0(s10)
    81c8:	854a                	mv	a0,s2
    81ca:	543020ef          	jal	ra,af0c <__mulsf3>
    81ce:	3f8030ef          	jal	ra,b5c6 <__fixunssfsi>
    81d2:	c589a583          	lw	a1,-936(s3)
    81d6:	00ac8023          	sb	a0,0(s9)
    81da:	8526                	mv	a0,s1
    81dc:	531020ef          	jal	ra,af0c <__mulsf3>
    81e0:	3e6030ef          	jal	ra,b5c6 <__fixunssfsi>
    81e4:	00ac0023          	sb	a0,0(s8)
    81e8:	0141                	addi	sp,sp,16
    81ea:	9c4f806f          	j	3ae <__riscv_restore_12>
    81ee:	87a2                	mv	a5,s0
    81f0:	893e                	mv	s2,a5
    81f2:	8426                	mv	s0,s1
    81f4:	84aa                	mv	s1,a0
    81f6:	bf65                	j	81ae <ws2812_hsv_to_rgb+0x114>
    81f8:	87a2                	mv	a5,s0
    81fa:	894e                	mv	s2,s3
    81fc:	8426                	mv	s0,s1
    81fe:	84be                	mv	s1,a5
    8200:	b77d                	j	81ae <ws2812_hsv_to_rgb+0x114>
    8202:	87a2                	mv	a5,s0
    8204:	8926                	mv	s2,s1
    8206:	842a                	mv	s0,a0
    8208:	bfdd                	j	81fe <ws2812_hsv_to_rgb+0x164>
    820a:	8926                	mv	s2,s1
    820c:	84ce                	mv	s1,s3
    820e:	b745                	j	81ae <ws2812_hsv_to_rgb+0x114>
    8210:	84a2                	mv	s1,s0
    8212:	8922                	mv	s2,s0
    8214:	bf69                	j	81ae <ws2812_hsv_to_rgb+0x114>

00008216 <ws2812_update>:
    8216:	98cf82ef          	jal	t0,3a2 <__riscv_save_0>
    821a:	200097b7          	lui	a5,0x20009
    821e:	87c78713          	addi	a4,a5,-1924 # 2000887c <pwm_data>
    8222:	05a50313          	addi	t1,a0,90
    8226:	87c78793          	addi	a5,a5,-1924
    822a:	567d                	li	a2,-1
    822c:	00154f03          	lbu	t5,1(a0)
    8230:	00054e83          	lbu	t4,0(a0)
    8234:	00254e03          	lbu	t3,2(a0)
    8238:	85be                	mv	a1,a5
    823a:	469d                	li	a3,7
    823c:	40df5833          	sra	a6,t5,a3
    8240:	00187813          	andi	a6,a6,1
    8244:	04200893          	li	a7,66
    8248:	00081463          	bnez	a6,8250 <ws2812_update+0x3a>
    824c:	02100893          	li	a7,33
    8250:	01159023          	sh	a7,0(a1)
    8254:	16fd                	addi	a3,a3,-1
    8256:	0589                	addi	a1,a1,2
    8258:	fec692e3          	bne	a3,a2,823c <ws2812_update+0x26>
    825c:	85be                	mv	a1,a5
    825e:	469d                	li	a3,7
    8260:	40ded833          	sra	a6,t4,a3
    8264:	00187813          	andi	a6,a6,1
    8268:	04200893          	li	a7,66
    826c:	00081463          	bnez	a6,8274 <ws2812_update+0x5e>
    8270:	02100893          	li	a7,33
    8274:	01159823          	sh	a7,16(a1)
    8278:	16fd                	addi	a3,a3,-1
    827a:	0589                	addi	a1,a1,2
    827c:	fec692e3          	bne	a3,a2,8260 <ws2812_update+0x4a>
    8280:	85be                	mv	a1,a5
    8282:	469d                	li	a3,7
    8284:	40de5833          	sra	a6,t3,a3
    8288:	00187813          	andi	a6,a6,1
    828c:	04200893          	li	a7,66
    8290:	00081463          	bnez	a6,8298 <ws2812_update+0x82>
    8294:	02100893          	li	a7,33
    8298:	03159023          	sh	a7,32(a1)
    829c:	16fd                	addi	a3,a3,-1
    829e:	0589                	addi	a1,a1,2
    82a0:	fec692e3          	bne	a3,a2,8284 <ws2812_update+0x6e>
    82a4:	050d                	addi	a0,a0,3
    82a6:	03078793          	addi	a5,a5,48
    82aa:	f8a311e3          	bne	t1,a0,822c <ws2812_update+0x16>
    82ae:	06470793          	addi	a5,a4,100
    82b2:	5a071023          	sh	zero,1440(a4)
    82b6:	0709                	addi	a4,a4,2
    82b8:	fee79de3          	bne	a5,a4,82b2 <ws2812_update+0x9c>
    82bc:	40020437          	lui	s0,0x40020
    82c0:	30200593          	li	a1,770
    82c4:	05840513          	addi	a0,s0,88 # 40020058 <_eusrstack+0x20010058>
    82c8:	0b3000ef          	jal	ra,8b7a <DMA_SetCurrDataCounter>
    82cc:	4585                	li	a1,1
    82ce:	05840513          	addi	a0,s0,88
    82d2:	095000ef          	jal	ra,8b66 <DMA_Cmd>
    82d6:	00020537          	lui	a0,0x20
    82da:	0a5000ef          	jal	ra,8b7e <DMA_GetFlagStatus>
    82de:	dd65                	beqz	a0,82d6 <ws2812_update+0xc0>
    82e0:	00020537          	lui	a0,0x20
    82e4:	0cd000ef          	jal	ra,8bb0 <DMA_ClearFlag>
    82e8:	40020537          	lui	a0,0x40020
    82ec:	4581                	li	a1,0
    82ee:	05850513          	addi	a0,a0,88 # 40020058 <_eusrstack+0x20010058>
    82f2:	075000ef          	jal	ra,8b66 <DMA_Cmd>
    82f6:	4505                	li	a0,1
    82f8:	e2df90ef          	jal	ra,2124 <rt_thread_mdelay>
    82fc:	8caf806f          	j	3c6 <__riscv_restore_0>

00008300 <ws2812_init>:
    8300:	8a2f82ef          	jal	t0,3a2 <__riscv_save_0>
    8304:	711d                	addi	sp,sp,-96
    8306:	4585                	li	a1,1
    8308:	4511                	li	a0,4
    830a:	4c5000ef          	jal	ra,8fce <RCC_APB2PeriphClockCmd>
    830e:	4585                	li	a1,1
    8310:	4505                	li	a0,1
    8312:	4db000ef          	jal	ra,8fec <RCC_APB1PeriphClockCmd>
    8316:	4785                	li	a5,1
    8318:	02f11423          	sh	a5,40(sp)
    831c:	40011537          	lui	a0,0x40011
    8320:	47e1                	li	a5,24
    8322:	d83e                	sw	a5,48(sp)
    8324:	102c                	addi	a1,sp,40
    8326:	478d                	li	a5,3
    8328:	80050513          	addi	a0,a0,-2048 # 40010800 <_eusrstack+0x20000800>
    832c:	d63e                	sw	a5,44(sp)
    832e:	209000ef          	jal	ra,8d36 <GPIO_Init>
    8332:	200007b7          	lui	a5,0x20000
    8336:	1c47a603          	lw	a2,452(a5) # 200001c4 <SystemCoreClock>
    833a:	000c3437          	lui	s0,0xc3
    833e:	50040413          	addi	s0,s0,1280 # c3500 <__rt_init_end+0xb2248>
    8342:	02865633          	divu	a2,a2,s0
    8346:	086c                	addi	a1,sp,28
    8348:	40000537          	lui	a0,0x40000
    834c:	02011123          	sh	zero,34(sp)
    8350:	ce02                	sw	zero,28(sp)
    8352:	167d                	addi	a2,a2,-1
    8354:	0642                	slli	a2,a2,0x10
    8356:	8241                	srli	a2,a2,0x10
    8358:	02c11023          	sh	a2,32(sp)
    835c:	c632                	sw	a2,12(sp)
    835e:	4e5000ef          	jal	ra,9042 <TIM_TimeBaseInit>
    8362:	67c1                	lui	a5,0x10
    8364:	06078793          	addi	a5,a5,96 # 10060 <asc2_3216+0x1454>
    8368:	184c                	addi	a1,sp,52
    836a:	40000537          	lui	a0,0x40000
    836e:	da3e                	sw	a5,52(sp)
    8370:	02011d23          	sh	zero,58(sp)
    8374:	02011e23          	sh	zero,60(sp)
    8378:	575000ef          	jal	ra,90ec <TIM_OC1Init>
    837c:	45a1                	li	a1,8
    837e:	40000537          	lui	a0,0x40000
    8382:	63d000ef          	jal	ra,91be <TIM_OC1PreloadConfig>
    8386:	4585                	li	a1,1
    8388:	40000537          	lui	a0,0x40000
    838c:	619000ef          	jal	ra,91a4 <TIM_ARRPreloadConfig>
    8390:	4585                	li	a1,1
    8392:	40000537          	lui	a0,0x40000
    8396:	5d9000ef          	jal	ra,916e <TIM_Cmd>
    839a:	4632                	lw	a2,12(sp)
    839c:	00011537          	lui	a0,0x11
    83a0:	85a2                	mv	a1,s0
    83a2:	c6850513          	addi	a0,a0,-920 # 10c68 <ch32_uart_ops+0x11c>
    83a6:	f47f80ef          	jal	ra,12ec <rt_kprintf>
    83aa:	4585                	li	a1,1
    83ac:	4505                	li	a0,1
    83ae:	403000ef          	jal	ra,8fb0 <RCC_AHBPeriphClockCmd>
    83b2:	40020437          	lui	s0,0x40020
    83b6:	05840513          	addi	a0,s0,88 # 40020058 <_eusrstack+0x20010058>
    83ba:	2521                	jal	89c2 <DMA_DeInit>
    83bc:	400007b7          	lui	a5,0x40000
    83c0:	03478793          	addi	a5,a5,52 # 40000034 <_eusrstack+0x1fff0034>
    83c4:	da3e                	sw	a5,52(sp)
    83c6:	200097b7          	lui	a5,0x20009
    83ca:	87c78793          	addi	a5,a5,-1924 # 2000887c <pwm_data>
    83ce:	dc3e                	sw	a5,56(sp)
    83d0:	47c1                	li	a5,16
    83d2:	de3e                	sw	a5,60(sp)
    83d4:	30200793          	li	a5,770
    83d8:	c0be                	sw	a5,64(sp)
    83da:	08000793          	li	a5,128
    83de:	c4be                	sw	a5,72(sp)
    83e0:	10000793          	li	a5,256
    83e4:	c6be                	sw	a5,76(sp)
    83e6:	40000793          	li	a5,1024
    83ea:	c8be                	sw	a5,80(sp)
    83ec:	184c                	addi	a1,sp,52
    83ee:	6789                	lui	a5,0x2
    83f0:	05840513          	addi	a0,s0,88
    83f4:	ccbe                	sw	a5,88(sp)
    83f6:	c282                	sw	zero,68(sp)
    83f8:	ca82                	sw	zero,84(sp)
    83fa:	ce82                	sw	zero,92(sp)
    83fc:	732000ef          	jal	ra,8b2e <DMA_Init>
    8400:	4605                	li	a2,1
    8402:	20000593          	li	a1,512
    8406:	40000537          	lui	a0,0x40000
    840a:	58f000ef          	jal	ra,9198 <TIM_DMACmd>
    840e:	00011537          	lui	a0,0x11
    8412:	c9c50513          	addi	a0,a0,-868 # 10c9c <ch32_uart_ops+0x150>
    8416:	ed7f80ef          	jal	ra,12ec <rt_kprintf>
    841a:	20009537          	lui	a0,0x20009
    841e:	4781                	li	a5,0
    8420:	82050613          	addi	a2,a0,-2016 # 20008820 <led_rgb_data>
    8424:	05a00713          	li	a4,90
    8428:	00f606b3          	add	a3,a2,a5
    842c:	00068023          	sb	zero,0(a3) # e000e000 <_eusrstack+0xbfffe000>
    8430:	0785                	addi	a5,a5,1
    8432:	fee79be3          	bne	a5,a4,8428 <ws2812_init+0x128>
    8436:	82050513          	addi	a0,a0,-2016
    843a:	dddff0ef          	jal	ra,8216 <ws2812_update>
    843e:	6125                	addi	sp,sp,96
    8440:	f87f706f          	j	3c6 <__riscv_restore_0>

00008444 <lcd_open>:
    8444:	4501                	li	a0,0
    8446:	8082                	ret

00008448 <lcd_close>:
    8448:	4501                	li	a0,0
    844a:	8082                	ret

0000844c <lcd_read>:
    844c:	4501                	li	a0,0
    844e:	8082                	ret

00008450 <lcd_rt_init>:
    8450:	f53f72ef          	jal	t0,3a2 <__riscv_save_0>
    8454:	f1ffb0ef          	jal	ra,4372 <lcd_init>
    8458:	4501                	li	a0,0
    845a:	f6df706f          	j	3c6 <__riscv_restore_0>

0000845e <lcd_drv_init>:
    845e:	f45f72ef          	jal	t0,3a2 <__riscv_save_0>
    8462:	20009537          	lui	a0,0x20009
    8466:	e8050793          	addi	a5,a0,-384 # 20008e80 <lcd_device>
    846a:	471d                	li	a4,7
    846c:	cbd8                	sw	a4,20(a5)
    846e:	00008737          	lui	a4,0x8
    8472:	45070713          	addi	a4,a4,1104 # 8450 <lcd_rt_init>
    8476:	d798                	sw	a4,40(a5)
    8478:	00008737          	lui	a4,0x8
    847c:	44470713          	addi	a4,a4,1092 # 8444 <lcd_open>
    8480:	d7d8                	sw	a4,44(a5)
    8482:	00008737          	lui	a4,0x8
    8486:	44870713          	addi	a4,a4,1096 # 8448 <lcd_close>
    848a:	db98                	sw	a4,48(a5)
    848c:	00008737          	lui	a4,0x8
    8490:	44c70713          	addi	a4,a4,1100 # 844c <lcd_read>
    8494:	dbd8                	sw	a4,52(a5)
    8496:	00008737          	lui	a4,0x8
    849a:	4c670713          	addi	a4,a4,1222 # 84c6 <lcd_write>
    849e:	df98                	sw	a4,56(a5)
    84a0:	000115b7          	lui	a1,0x11
    84a4:	00008737          	lui	a4,0x8
    84a8:	50c70713          	addi	a4,a4,1292 # 850c <lcd_control>
    84ac:	460d                	li	a2,3
    84ae:	cd858593          	addi	a1,a1,-808 # 10cd8 <__rti_lcd_drv_init_name+0x10>
    84b2:	e8050513          	addi	a0,a0,-384
    84b6:	dfd8                	sw	a4,60(a5)
    84b8:	0407a023          	sw	zero,64(a5) # 2040 <rt_thread_suspend+0x1a>
    84bc:	98cf80ef          	jal	ra,648 <rt_device_register>
    84c0:	4501                	li	a0,0
    84c2:	f05f706f          	j	3c6 <__riscv_restore_0>

000084c6 <lcd_write>:
    84c6:	4501                	li	a0,0
    84c8:	8082                	ret

000084ca <lcd_hw_init>:
    84ca:	ed9f72ef          	jal	t0,3a2 <__riscv_save_0>
    84ce:	ea5fb0ef          	jal	ra,4372 <lcd_init>
    84d2:	ef5f706f          	j	3c6 <__riscv_restore_0>

000084d6 <lcd_hw_show_string>:
    84d6:	ecdf72ef          	jal	t0,3a2 <__riscv_save_0>
    84da:	200087b7          	lui	a5,0x20008
    84de:	73478713          	addi	a4,a5,1844 # 20008734 <lcddev>
    84e2:	00275303          	lhu	t1,2(a4)
    84e6:	7347d883          	lhu	a7,1844(a5)
    84ea:	8836                	mv	a6,a3
    84ec:	40b30333          	sub	t1,t1,a1
    84f0:	40a888b3          	sub	a7,a7,a0
    84f4:	87b2                	mv	a5,a2
    84f6:	01031693          	slli	a3,t1,0x10
    84fa:	01089613          	slli	a2,a7,0x10
    84fe:	4741                	li	a4,16
    8500:	82c1                	srli	a3,a3,0x10
    8502:	8241                	srli	a2,a2,0x10
    8504:	b30fc0ef          	jal	ra,4834 <lcd_show_string>
    8508:	ebff706f          	j	3c6 <__riscv_restore_0>

0000850c <lcd_control>:
    850c:	e97f72ef          	jal	t0,3a2 <__riscv_save_0>
    8510:	4705                	li	a4,1
    8512:	87b2                	mv	a5,a2
    8514:	00e58c63          	beq	a1,a4,852c <lcd_control+0x20>
    8518:	4709                	li	a4,2
    851a:	00e58f63          	beq	a1,a4,8538 <lcd_control+0x2c>
    851e:	e581                	bnez	a1,8526 <lcd_control+0x1a>
    8520:	220a                	lhu	a0,0(a2)
    8522:	e1bfb0ef          	jal	ra,433c <lcd_clear>
    8526:	4501                	li	a0,0
    8528:	e9ff706f          	j	3c6 <__riscv_restore_0>
    852c:	2252                	lhu	a2,4(a2)
    852e:	23ae                	lhu	a1,2(a5)
    8530:	238a                	lhu	a0,0(a5)
    8532:	c5bfb0ef          	jal	ra,418c <lcd_draw_point>
    8536:	bfc5                	j	8526 <lcd_control+0x1a>
    8538:	2616                	lhu	a3,8(a2)
    853a:	23ae                	lhu	a1,2(a5)
    853c:	4250                	lw	a2,4(a2)
    853e:	238a                	lhu	a0,0(a5)
    8540:	f97ff0ef          	jal	ra,84d6 <lcd_hw_show_string>
    8544:	b7cd                	j	8526 <lcd_control+0x1a>

00008546 <NMI_Handler>:
    8546:	34011173          	csrrw	sp,mscratch,sp
    854a:	ee4f80ef          	jal	ra,c2e <rt_interrupt_enter>
    854e:	00011537          	lui	a0,0x11
    8552:	ce850513          	addi	a0,a0,-792 # 10ce8 <__rti_lcd_drv_init_name+0x20>
    8556:	d97f80ef          	jal	ra,12ec <rt_kprintf>
    855a:	f02f80ef          	jal	ra,c5c <rt_interrupt_leave>
    855e:	34011173          	csrrw	sp,mscratch,sp
    8562:	30200073          	mret

00008566 <HardFault_Handler>:
    8566:	34011173          	csrrw	sp,mscratch,sp
    856a:	ec4f80ef          	jal	ra,c2e <rt_interrupt_enter>
    856e:	00011537          	lui	a0,0x11
    8572:	cdc50513          	addi	a0,a0,-804 # 10cdc <__rti_lcd_drv_init_name+0x14>
    8576:	d77f80ef          	jal	ra,12ec <rt_kprintf>
    857a:	ee2f80ef          	jal	ra,c5c <rt_interrupt_leave>
    857e:	34011173          	csrrw	sp,mscratch,sp
    8582:	30200073          	mret

00008586 <str_to_int>:
    8586:	00050783          	lb	a5,0(a0)
    858a:	02d00713          	li	a4,45
    858e:	00e79863          	bne	a5,a4,859e <str_to_int+0x18>
    8592:	0505                	addi	a0,a0,1
    8594:	56fd                	li	a3,-1
    8596:	4781                	li	a5,0
    8598:	4625                	li	a2,9
    859a:	4829                	li	a6,10
    859c:	a821                	j	85b4 <str_to_int+0x2e>
    859e:	02b00713          	li	a4,43
    85a2:	4685                	li	a3,1
    85a4:	fee799e3          	bne	a5,a4,8596 <str_to_int+0x10>
    85a8:	0505                	addi	a0,a0,1
    85aa:	b7f5                	j	8596 <str_to_int+0x10>
    85ac:	030787b3          	mul	a5,a5,a6
    85b0:	0505                	addi	a0,a0,1
    85b2:	97ba                	add	a5,a5,a4
    85b4:	00050703          	lb	a4,0(a0)
    85b8:	fd070713          	addi	a4,a4,-48
    85bc:	0ff77593          	andi	a1,a4,255
    85c0:	feb676e3          	bgeu	a2,a1,85ac <str_to_int+0x26>
    85c4:	02d78533          	mul	a0,a5,a3
    85c8:	8082                	ret

000085ca <cmd_rainbow>:
    85ca:	dd9f72ef          	jal	t0,3a2 <__riscv_save_0>
    85ce:	4785                	li	a5,1
    85d0:	00a7dc63          	bge	a5,a0,85e8 <cmd_rainbow+0x1e>
    85d4:	41c8                	lw	a0,4(a1)
    85d6:	fb1ff0ef          	jal	ra,8586 <str_to_int>
    85da:	0ff57513          	andi	a0,a0,255
    85de:	a2bff0ef          	jal	ra,8008 <rainbow_start>
    85e2:	4501                	li	a0,0
    85e4:	de3f706f          	j	3c6 <__riscv_restore_0>
    85e8:	450d                	li	a0,3
    85ea:	bfc5                	j	85da <cmd_rainbow+0x10>

000085ec <cmd_rainbow_stop>:
    85ec:	db7f72ef          	jal	t0,3a2 <__riscv_save_0>
    85f0:	a63ff0ef          	jal	ra,8052 <rainbow_stop>
    85f4:	4501                	li	a0,0
    85f6:	dd1f706f          	j	3c6 <__riscv_restore_0>

000085fa <cmd_brightness>:
    85fa:	da9f72ef          	jal	t0,3a2 <__riscv_save_0>
    85fe:	4785                	li	a5,1
    8600:	02a7d663          	bge	a5,a0,862c <cmd_brightness+0x32>
    8604:	41c8                	lw	a0,4(a1)
    8606:	f81ff0ef          	jal	ra,8586 <str_to_int>
    860a:	06400793          	li	a5,100
    860e:	00a7db63          	bge	a5,a0,8624 <cmd_brightness+0x2a>
    8612:	06400513          	li	a0,100
    8616:	0ff57513          	andi	a0,a0,255
    861a:	a55ff0ef          	jal	ra,806e <rainbow_set_brightness>
    861e:	4501                	li	a0,0
    8620:	da7f706f          	j	3c6 <__riscv_restore_0>
    8624:	fe0559e3          	bgez	a0,8616 <cmd_brightness+0x1c>
    8628:	4501                	li	a0,0
    862a:	b7f5                	j	8616 <cmd_brightness+0x1c>
    862c:	4579                	li	a0,30
    862e:	b7e5                	j	8616 <cmd_brightness+0x1c>

00008630 <lcd_show_entry>:
    8630:	d73f72ef          	jal	t0,3a2 <__riscv_save_0>
    8634:	e97ff0ef          	jal	ra,84ca <lcd_hw_init>
    8638:	94ff90ef          	jal	ra,1f86 <rt_thread_self>
    863c:	9ebf90ef          	jal	ra,2026 <rt_thread_suspend>
    8640:	d7ef90ef          	jal	ra,1bbe <rt_schedule>
    8644:	d83f706f          	j	3c6 <__riscv_restore_0>

00008648 <main>:
    8648:	d5bf72ef          	jal	t0,3a2 <__riscv_save_0>
    864c:	00011537          	lui	a0,0x11
    8650:	cf450513          	addi	a0,a0,-780 # 10cf4 <__rti_lcd_drv_init_name+0x2c>
    8654:	c99f80ef          	jal	ra,12ec <rt_kprintf>
    8658:	00011437          	lui	s0,0x11
    865c:	cf840513          	addi	a0,s0,-776 # 10cf8 <__rti_lcd_drv_init_name+0x30>
    8660:	c8df80ef          	jal	ra,12ec <rt_kprintf>
    8664:	00011537          	lui	a0,0x11
    8668:	d3450513          	addi	a0,a0,-716 # 10d34 <__rti_lcd_drv_init_name+0x6c>
    866c:	c81f80ef          	jal	ra,12ec <rt_kprintf>
    8670:	00011537          	lui	a0,0x11
    8674:	d7050513          	addi	a0,a0,-656 # 10d70 <__rti_lcd_drv_init_name+0xa8>
    8678:	c75f80ef          	jal	ra,12ec <rt_kprintf>
    867c:	00011537          	lui	a0,0x11
    8680:	dac50513          	addi	a0,a0,-596 # 10dac <__rti_lcd_drv_init_name+0xe4>
    8684:	c69f80ef          	jal	ra,12ec <rt_kprintf>
    8688:	cf840513          	addi	a0,s0,-776
    868c:	c61f80ef          	jal	ra,12ec <rt_kprintf>
    8690:	22ad                	jal	87fa <SystemCoreClockUpdate>
    8692:	200007b7          	lui	a5,0x20000
    8696:	1c47a583          	lw	a1,452(a5) # 200001c4 <SystemCoreClock>
    869a:	00011537          	lui	a0,0x11
    869e:	de850513          	addi	a0,a0,-536 # 10de8 <__rti_lcd_drv_init_name+0x120>
    86a2:	c4bf80ef          	jal	ra,12ec <rt_kprintf>
    86a6:	2e09                	jal	89b8 <DBGMCU_GetCHIPID>
    86a8:	85aa                	mv	a1,a0
    86aa:	00011537          	lui	a0,0x11
    86ae:	df850513          	addi	a0,a0,-520 # 10df8 <__rti_lcd_drv_init_name+0x130>
    86b2:	c3bf80ef          	jal	ra,12ec <rt_kprintf>
    86b6:	000085b7          	lui	a1,0x8
    86ba:	00011537          	lui	a0,0x11
    86be:	47a9                	li	a5,10
    86c0:	4729                	li	a4,10
    86c2:	40000693          	li	a3,1024
    86c6:	4601                	li	a2,0
    86c8:	63058593          	addi	a1,a1,1584 # 8630 <lcd_show_entry>
    86cc:	e0850513          	addi	a0,a0,-504 # 10e08 <__rti_lcd_drv_init_name+0x140>
    86d0:	8bdf90ef          	jal	ra,1f8c <rt_thread_create>
    86d4:	cd19                	beqz	a0,86f2 <main+0xaa>
    86d6:	ae3f90ef          	jal	ra,21b8 <rt_thread_startup>
    86da:	c27ff0ef          	jal	ra,8300 <ws2812_init>
    86de:	8c5ff0ef          	jal	ra,7fa2 <rainbow_init>
    86e2:	450d                	li	a0,3
    86e4:	925ff0ef          	jal	ra,8008 <rainbow_start>
    86e8:	3e800513          	li	a0,1000
    86ec:	a39f90ef          	jal	ra,2124 <rt_thread_mdelay>
    86f0:	bfe5                	j	86e8 <main+0xa0>
    86f2:	00011537          	lui	a0,0x11
    86f6:	e1450513          	addi	a0,a0,-492 # 10e14 <__rti_lcd_drv_init_name+0x14c>
    86fa:	bf3f80ef          	jal	ra,12ec <rt_kprintf>
    86fe:	bff1                	j	86da <main+0x92>

00008700 <SystemInit>:
    8700:	400217b7          	lui	a5,0x40021
    8704:	4398                	lw	a4,0(a5)
    8706:	f0ff06b7          	lui	a3,0xf0ff0
    870a:	1141                	addi	sp,sp,-16
    870c:	00176713          	ori	a4,a4,1
    8710:	c398                	sw	a4,0(a5)
    8712:	43d8                	lw	a4,4(a5)
    8714:	00020637          	lui	a2,0x20
    8718:	8f75                	and	a4,a4,a3
    871a:	c3d8                	sw	a4,4(a5)
    871c:	4398                	lw	a4,0(a5)
    871e:	fef706b7          	lui	a3,0xfef70
    8722:	16fd                	addi	a3,a3,-1
    8724:	8f75                	and	a4,a4,a3
    8726:	c398                	sw	a4,0(a5)
    8728:	4398                	lw	a4,0(a5)
    872a:	fffc06b7          	lui	a3,0xfffc0
    872e:	16fd                	addi	a3,a3,-1
    8730:	8f75                	and	a4,a4,a3
    8732:	c398                	sw	a4,0(a5)
    8734:	43d8                	lw	a4,4(a5)
    8736:	ff0106b7          	lui	a3,0xff010
    873a:	16fd                	addi	a3,a3,-1
    873c:	8f75                	and	a4,a4,a3
    873e:	c3d8                	sw	a4,4(a5)
    8740:	4398                	lw	a4,0(a5)
    8742:	ec0006b7          	lui	a3,0xec000
    8746:	16fd                	addi	a3,a3,-1
    8748:	8f75                	and	a4,a4,a3
    874a:	c398                	sw	a4,0(a5)
    874c:	00ff0737          	lui	a4,0xff0
    8750:	c798                	sw	a4,8(a5)
    8752:	0207a623          	sw	zero,44(a5) # 4002102c <_eusrstack+0x2001102c>
    8756:	c402                	sw	zero,8(sp)
    8758:	c602                	sw	zero,12(sp)
    875a:	4398                	lw	a4,0(a5)
    875c:	66c1                	lui	a3,0x10
    875e:	8f55                	or	a4,a4,a3
    8760:	c398                	sw	a4,0(a5)
    8762:	400216b7          	lui	a3,0x40021
    8766:	6705                	lui	a4,0x1
    8768:	429c                	lw	a5,0(a3)
    876a:	8ff1                	and	a5,a5,a2
    876c:	c63e                	sw	a5,12(sp)
    876e:	47a2                	lw	a5,8(sp)
    8770:	0785                	addi	a5,a5,1
    8772:	c43e                	sw	a5,8(sp)
    8774:	47b2                	lw	a5,12(sp)
    8776:	e781                	bnez	a5,877e <SystemInit+0x7e>
    8778:	47a2                	lw	a5,8(sp)
    877a:	fee797e3          	bne	a5,a4,8768 <SystemInit+0x68>
    877e:	400217b7          	lui	a5,0x40021
    8782:	439c                	lw	a5,0(a5)
    8784:	00e79713          	slli	a4,a5,0xe
    8788:	06075763          	bgez	a4,87f6 <SystemInit+0xf6>
    878c:	4785                	li	a5,1
    878e:	c63e                	sw	a5,12(sp)
    8790:	4732                	lw	a4,12(sp)
    8792:	4785                	li	a5,1
    8794:	04f71f63          	bne	a4,a5,87f2 <SystemInit+0xf2>
    8798:	400217b7          	lui	a5,0x40021
    879c:	43d8                	lw	a4,4(a5)
    879e:	ffc106b7          	lui	a3,0xffc10
    87a2:	16fd                	addi	a3,a3,-1
    87a4:	c3d8                	sw	a4,4(a5)
    87a6:	43d8                	lw	a4,4(a5)
    87a8:	c3d8                	sw	a4,4(a5)
    87aa:	43d8                	lw	a4,4(a5)
    87ac:	40076713          	ori	a4,a4,1024
    87b0:	c3d8                	sw	a4,4(a5)
    87b2:	43d8                	lw	a4,4(a5)
    87b4:	8f75                	and	a4,a4,a3
    87b6:	c3d8                	sw	a4,4(a5)
    87b8:	43d8                	lw	a4,4(a5)
    87ba:	002906b7          	lui	a3,0x290
    87be:	8f55                	or	a4,a4,a3
    87c0:	c3d8                	sw	a4,4(a5)
    87c2:	4398                	lw	a4,0(a5)
    87c4:	010006b7          	lui	a3,0x1000
    87c8:	8f55                	or	a4,a4,a3
    87ca:	c398                	sw	a4,0(a5)
    87cc:	4398                	lw	a4,0(a5)
    87ce:	00671693          	slli	a3,a4,0x6
    87d2:	fe06dde3          	bgez	a3,87cc <SystemInit+0xcc>
    87d6:	43d8                	lw	a4,4(a5)
    87d8:	400216b7          	lui	a3,0x40021
    87dc:	9b71                	andi	a4,a4,-4
    87de:	c3d8                	sw	a4,4(a5)
    87e0:	43d8                	lw	a4,4(a5)
    87e2:	00276713          	ori	a4,a4,2
    87e6:	c3d8                	sw	a4,4(a5)
    87e8:	4721                	li	a4,8
    87ea:	42dc                	lw	a5,4(a3)
    87ec:	8bb1                	andi	a5,a5,12
    87ee:	fee79ee3          	bne	a5,a4,87ea <SystemInit+0xea>
    87f2:	0141                	addi	sp,sp,16
    87f4:	8082                	ret
    87f6:	c602                	sw	zero,12(sp)
    87f8:	bf61                	j	8790 <SystemInit+0x90>

000087fa <SystemCoreClockUpdate>:
    87fa:	400216b7          	lui	a3,0x40021
    87fe:	42d8                	lw	a4,4(a3)
    8800:	4611                	li	a2,4
    8802:	8b31                	andi	a4,a4,12
    8804:	80418793          	addi	a5,gp,-2044 # 200001c4 <SystemCoreClock>
    8808:	00c70563          	beq	a4,a2,8812 <SystemCoreClockUpdate+0x18>
    880c:	4621                	li	a2,8
    880e:	02c70863          	beq	a4,a2,883e <SystemCoreClockUpdate+0x44>
    8812:	007a1737          	lui	a4,0x7a1
    8816:	20070713          	addi	a4,a4,512 # 7a1200 <__rt_init_end+0x78ff48>
    881a:	c398                	sw	a4,0(a5)
    881c:	40021737          	lui	a4,0x40021
    8820:	4358                	lw	a4,4(a4)
    8822:	8311                	srli	a4,a4,0x4
    8824:	00f77693          	andi	a3,a4,15
    8828:	20000737          	lui	a4,0x20000
    882c:	14070713          	addi	a4,a4,320 # 20000140 <AHBPrescTable>
    8830:	9736                	add	a4,a4,a3
    8832:	2314                	lbu	a3,0(a4)
    8834:	4398                	lw	a4,0(a5)
    8836:	00d75733          	srl	a4,a4,a3
    883a:	c398                	sw	a4,0(a5)
    883c:	8082                	ret
    883e:	42d8                	lw	a4,4(a3)
    8840:	42d4                	lw	a3,4(a3)
    8842:	6641                	lui	a2,0x10
    8844:	8349                	srli	a4,a4,0x12
    8846:	8b3d                	andi	a4,a4,15
    8848:	8ef1                	and	a3,a3,a2
    884a:	00270613          	addi	a2,a4,2
    884e:	cf15                	beqz	a4,888a <SystemCoreClockUpdate+0x90>
    8850:	473d                	li	a4,15
    8852:	02e60f63          	beq	a2,a4,8890 <SystemCoreClockUpdate+0x96>
    8856:	4741                	li	a4,16
    8858:	02e60f63          	beq	a2,a4,8896 <SystemCoreClockUpdate+0x9c>
    885c:	4745                	li	a4,17
    885e:	4581                	li	a1,0
    8860:	00e61363          	bne	a2,a4,8866 <SystemCoreClockUpdate+0x6c>
    8864:	4641                	li	a2,16
    8866:	e2a1                	bnez	a3,88a6 <SystemCoreClockUpdate+0xac>
    8868:	40024737          	lui	a4,0x40024
    886c:	80072703          	lw	a4,-2048(a4) # 40023800 <_eusrstack+0x20013800>
    8870:	8b41                	andi	a4,a4,16
    8872:	c70d                	beqz	a4,889c <SystemCoreClockUpdate+0xa2>
    8874:	007a1737          	lui	a4,0x7a1
    8878:	20070713          	addi	a4,a4,512 # 7a1200 <__rt_init_end+0x78ff48>
    887c:	02c70633          	mul	a2,a4,a2
    8880:	c390                	sw	a2,0(a5)
    8882:	ddc9                	beqz	a1,881c <SystemCoreClockUpdate+0x22>
    8884:	4398                	lw	a4,0(a5)
    8886:	8305                	srli	a4,a4,0x1
    8888:	bf49                	j	881a <SystemCoreClockUpdate+0x20>
    888a:	4581                	li	a1,0
    888c:	4649                	li	a2,18
    888e:	bfe1                	j	8866 <SystemCoreClockUpdate+0x6c>
    8890:	4585                	li	a1,1
    8892:	4635                	li	a2,13
    8894:	bfc9                	j	8866 <SystemCoreClockUpdate+0x6c>
    8896:	4581                	li	a1,0
    8898:	463d                	li	a2,15
    889a:	b7f1                	j	8866 <SystemCoreClockUpdate+0x6c>
    889c:	003d1737          	lui	a4,0x3d1
    88a0:	90070713          	addi	a4,a4,-1792 # 3d0900 <__rt_init_end+0x3bf648>
    88a4:	bfe1                	j	887c <SystemCoreClockUpdate+0x82>
    88a6:	40021537          	lui	a0,0x40021
    88aa:	5558                	lw	a4,44(a0)
    88ac:	00f71693          	slli	a3,a4,0xf
    88b0:	5558                	lw	a4,44(a0)
    88b2:	0406df63          	bgez	a3,8910 <SystemCoreClockUpdate+0x116>
    88b6:	8311                	srli	a4,a4,0x4
    88b8:	8b3d                	andi	a4,a4,15
    88ba:	00170693          	addi	a3,a4,1
    88be:	007a1737          	lui	a4,0x7a1
    88c2:	20070713          	addi	a4,a4,512 # 7a1200 <__rt_init_end+0x78ff48>
    88c6:	02d75733          	divu	a4,a4,a3
    88ca:	c398                	sw	a4,0(a5)
    88cc:	5554                	lw	a3,44(a0)
    88ce:	82a1                	srli	a3,a3,0x8
    88d0:	8abd                	andi	a3,a3,15
    88d2:	e28d                	bnez	a3,88f4 <SystemCoreClockUpdate+0xfa>
    88d4:	4695                	li	a3,5
    88d6:	02d70733          	mul	a4,a4,a3
    88da:	8305                	srli	a4,a4,0x1
    88dc:	c398                	sw	a4,0(a5)
    88de:	40021737          	lui	a4,0x40021
    88e2:	5758                	lw	a4,44(a4)
    88e4:	4394                	lw	a3,0(a5)
    88e6:	8b3d                	andi	a4,a4,15
    88e8:	0705                	addi	a4,a4,1
    88ea:	02e6d733          	divu	a4,a3,a4
    88ee:	c398                	sw	a4,0(a5)
    88f0:	4398                	lw	a4,0(a5)
    88f2:	b769                	j	887c <SystemCoreClockUpdate+0x82>
    88f4:	4505                	li	a0,1
    88f6:	00a69463          	bne	a3,a0,88fe <SystemCoreClockUpdate+0x104>
    88fa:	46e5                	li	a3,25
    88fc:	bfe9                	j	88d6 <SystemCoreClockUpdate+0xdc>
    88fe:	453d                	li	a0,15
    8900:	00a69663          	bne	a3,a0,890c <SystemCoreClockUpdate+0x112>
    8904:	46d1                	li	a3,20
    8906:	02e68733          	mul	a4,a3,a4
    890a:	bfc9                	j	88dc <SystemCoreClockUpdate+0xe2>
    890c:	0689                	addi	a3,a3,2
    890e:	bfe5                	j	8906 <SystemCoreClockUpdate+0x10c>
    8910:	8b3d                	andi	a4,a4,15
    8912:	00170693          	addi	a3,a4,1 # 40021001 <_eusrstack+0x20011001>
    8916:	007a1737          	lui	a4,0x7a1
    891a:	20070713          	addi	a4,a4,512 # 7a1200 <__rt_init_end+0x78ff48>
    891e:	02d75733          	divu	a4,a4,a3
    8922:	b7f1                	j	88ee <SystemCoreClockUpdate+0xf4>

00008924 <ADC1_2_IRQHandler>:
    8924:	a001                	j	8924 <ADC1_2_IRQHandler>

00008926 <handle_reset>:
    8926:	34129073          	csrw	mepc,t0
    892a:	1fff8197          	auipc	gp,0x1fff8
    892e:	09618193          	addi	gp,gp,150 # 200009c0 <__global_pointer$>
    8932:	20007117          	auipc	sp,0x20007
    8936:	6ce10113          	addi	sp,sp,1742 # 20010000 <_eusrstack>
    893a:	00009517          	auipc	a0,0x9
    893e:	97e50513          	addi	a0,a0,-1666 # 112b8 <__rt_init_end>
    8942:	1fff7597          	auipc	a1,0x1fff7
    8946:	6be58593          	addi	a1,a1,1726 # 20000000 <_data_vma>
    894a:	83018613          	addi	a2,gp,-2000 # 200001f0 <_edata>
    894e:	00c5fa63          	bgeu	a1,a2,8962 <handle_reset+0x3c>
    8952:	00052283          	lw	t0,0(a0)
    8956:	0055a023          	sw	t0,0(a1)
    895a:	0511                	addi	a0,a0,4
    895c:	0591                	addi	a1,a1,4
    895e:	fec5eae3          	bltu	a1,a2,8952 <handle_reset+0x2c>
    8962:	83018513          	addi	a0,gp,-2000 # 200001f0 <_edata>
    8966:	20000597          	auipc	a1,0x20000
    896a:	55e58593          	addi	a1,a1,1374 # 20008ec4 <_ebss>
    896e:	00b57763          	bgeu	a0,a1,897c <handle_reset+0x56>
    8972:	00052023          	sw	zero,0(a0)
    8976:	0511                	addi	a0,a0,4
    8978:	feb56de3          	bltu	a0,a1,8972 <handle_reset+0x4c>
    897c:	42fd                	li	t0,31
    897e:	bc029073          	csrw	0xbc0,t0
    8982:	42fd                	li	t0,31
    8984:	80429073          	csrw	0x804,t0
    8988:	000082b7          	lui	t0,0x8
    898c:	80028293          	addi	t0,t0,-2048 # 7800 <ch32_pin_attach_irq+0x7a>
    8990:	30029073          	csrw	mstatus,t0
    8994:	ffff7297          	auipc	t0,0xffff7
    8998:	67028293          	addi	t0,t0,1648 # 4 <_einit>
    899c:	0032e293          	ori	t0,t0,3
    89a0:	30529073          	csrw	mtvec,t0
    89a4:	d5dff0ef          	jal	ra,8700 <SystemInit>
    89a8:	ffff8297          	auipc	t0,0xffff8
    89ac:	c3428293          	addi	t0,t0,-972 # 5dc <entry>
    89b0:	34129073          	csrw	mepc,t0
    89b4:	30200073          	mret

000089b8 <DBGMCU_GetCHIPID>:
    89b8:	1ffff7b7          	lui	a5,0x1ffff
    89bc:	7047a503          	lw	a0,1796(a5) # 1ffff704 <__rt_init_end+0x1ffee44c>
    89c0:	8082                	ret

000089c2 <DMA_DeInit>:
    89c2:	411c                	lw	a5,0(a0)
    89c4:	6741                	lui	a4,0x10
    89c6:	1779                	addi	a4,a4,-2
    89c8:	8ff9                	and	a5,a5,a4
    89ca:	c11c                	sw	a5,0(a0)
    89cc:	00052023          	sw	zero,0(a0)
    89d0:	00052223          	sw	zero,4(a0)
    89d4:	00052423          	sw	zero,8(a0)
    89d8:	400207b7          	lui	a5,0x40020
    89dc:	00052623          	sw	zero,12(a0)
    89e0:	00878713          	addi	a4,a5,8 # 40020008 <_eusrstack+0x20010008>
    89e4:	00e51763          	bne	a0,a4,89f2 <DMA_DeInit+0x30>
    89e8:	43d8                	lw	a4,4(a5)
    89ea:	00f76713          	ori	a4,a4,15
    89ee:	c3d8                	sw	a4,4(a5)
    89f0:	8082                	ret
    89f2:	01c78713          	addi	a4,a5,28
    89f6:	00e51663          	bne	a0,a4,8a02 <DMA_DeInit+0x40>
    89fa:	43d8                	lw	a4,4(a5)
    89fc:	0f076713          	ori	a4,a4,240
    8a00:	b7fd                	j	89ee <DMA_DeInit+0x2c>
    8a02:	03078713          	addi	a4,a5,48
    8a06:	00e51863          	bne	a0,a4,8a16 <DMA_DeInit+0x54>
    8a0a:	43d8                	lw	a4,4(a5)
    8a0c:	6685                	lui	a3,0x1
    8a0e:	f0068693          	addi	a3,a3,-256 # f00 <rt_strncpy+0x6>
    8a12:	8f55                	or	a4,a4,a3
    8a14:	bfe9                	j	89ee <DMA_DeInit+0x2c>
    8a16:	04478713          	addi	a4,a5,68
    8a1a:	00e51563          	bne	a0,a4,8a24 <DMA_DeInit+0x62>
    8a1e:	43d8                	lw	a4,4(a5)
    8a20:	66bd                	lui	a3,0xf
    8a22:	bfc5                	j	8a12 <DMA_DeInit+0x50>
    8a24:	05878713          	addi	a4,a5,88
    8a28:	00e51663          	bne	a0,a4,8a34 <DMA_DeInit+0x72>
    8a2c:	43d8                	lw	a4,4(a5)
    8a2e:	000f06b7          	lui	a3,0xf0
    8a32:	b7c5                	j	8a12 <DMA_DeInit+0x50>
    8a34:	06c78713          	addi	a4,a5,108
    8a38:	00e51663          	bne	a0,a4,8a44 <DMA_DeInit+0x82>
    8a3c:	43d8                	lw	a4,4(a5)
    8a3e:	00f006b7          	lui	a3,0xf00
    8a42:	bfc1                	j	8a12 <DMA_DeInit+0x50>
    8a44:	08078713          	addi	a4,a5,128
    8a48:	00e51663          	bne	a0,a4,8a54 <DMA_DeInit+0x92>
    8a4c:	43d8                	lw	a4,4(a5)
    8a4e:	0f0006b7          	lui	a3,0xf000
    8a52:	b7c1                	j	8a12 <DMA_DeInit+0x50>
    8a54:	40878713          	addi	a4,a5,1032
    8a58:	00e51963          	bne	a0,a4,8a6a <DMA_DeInit+0xa8>
    8a5c:	4047a703          	lw	a4,1028(a5)
    8a60:	00f76713          	ori	a4,a4,15
    8a64:	40e7a223          	sw	a4,1028(a5)
    8a68:	8082                	ret
    8a6a:	41c78713          	addi	a4,a5,1052
    8a6e:	00e51763          	bne	a0,a4,8a7c <DMA_DeInit+0xba>
    8a72:	4047a703          	lw	a4,1028(a5)
    8a76:	0f076713          	ori	a4,a4,240
    8a7a:	b7ed                	j	8a64 <DMA_DeInit+0xa2>
    8a7c:	43078793          	addi	a5,a5,1072
    8a80:	00f51b63          	bne	a0,a5,8a96 <DMA_DeInit+0xd4>
    8a84:	400207b7          	lui	a5,0x40020
    8a88:	4047a703          	lw	a4,1028(a5) # 40020404 <_eusrstack+0x20010404>
    8a8c:	6685                	lui	a3,0x1
    8a8e:	f0068693          	addi	a3,a3,-256 # f00 <rt_strncpy+0x6>
    8a92:	8f55                	or	a4,a4,a3
    8a94:	bfc1                	j	8a64 <DMA_DeInit+0xa2>
    8a96:	400207b7          	lui	a5,0x40020
    8a9a:	44478713          	addi	a4,a5,1092 # 40020444 <_eusrstack+0x20010444>
    8a9e:	00e51663          	bne	a0,a4,8aaa <DMA_DeInit+0xe8>
    8aa2:	4047a703          	lw	a4,1028(a5)
    8aa6:	66bd                	lui	a3,0xf
    8aa8:	b7ed                	j	8a92 <DMA_DeInit+0xd0>
    8aaa:	45878713          	addi	a4,a5,1112
    8aae:	00e51763          	bne	a0,a4,8abc <DMA_DeInit+0xfa>
    8ab2:	4047a703          	lw	a4,1028(a5)
    8ab6:	000f06b7          	lui	a3,0xf0
    8aba:	bfe1                	j	8a92 <DMA_DeInit+0xd0>
    8abc:	46c78713          	addi	a4,a5,1132
    8ac0:	00e51763          	bne	a0,a4,8ace <DMA_DeInit+0x10c>
    8ac4:	4047a703          	lw	a4,1028(a5)
    8ac8:	00f006b7          	lui	a3,0xf00
    8acc:	b7d9                	j	8a92 <DMA_DeInit+0xd0>
    8ace:	48078713          	addi	a4,a5,1152
    8ad2:	00e51763          	bne	a0,a4,8ae0 <DMA_DeInit+0x11e>
    8ad6:	4047a703          	lw	a4,1028(a5)
    8ada:	0f0006b7          	lui	a3,0xf000
    8ade:	bf55                	j	8a92 <DMA_DeInit+0xd0>
    8ae0:	49078713          	addi	a4,a5,1168
    8ae4:	00e51963          	bne	a0,a4,8af6 <DMA_DeInit+0x134>
    8ae8:	4d47a703          	lw	a4,1236(a5)
    8aec:	00f76713          	ori	a4,a4,15
    8af0:	4ce7aa23          	sw	a4,1236(a5)
    8af4:	8082                	ret
    8af6:	4a078713          	addi	a4,a5,1184
    8afa:	00e51763          	bne	a0,a4,8b08 <DMA_DeInit+0x146>
    8afe:	4d47a703          	lw	a4,1236(a5)
    8b02:	0f076713          	ori	a4,a4,240
    8b06:	b7ed                	j	8af0 <DMA_DeInit+0x12e>
    8b08:	4b078713          	addi	a4,a5,1200
    8b0c:	00e51963          	bne	a0,a4,8b1e <DMA_DeInit+0x15c>
    8b10:	4d47a703          	lw	a4,1236(a5)
    8b14:	6685                	lui	a3,0x1
    8b16:	f0068693          	addi	a3,a3,-256 # f00 <rt_strncpy+0x6>
    8b1a:	8f55                	or	a4,a4,a3
    8b1c:	bfd1                	j	8af0 <DMA_DeInit+0x12e>
    8b1e:	4c078713          	addi	a4,a5,1216
    8b22:	fce519e3          	bne	a0,a4,8af4 <DMA_DeInit+0x132>
    8b26:	4d47a703          	lw	a4,1236(a5)
    8b2a:	66bd                	lui	a3,0xf
    8b2c:	b7fd                	j	8b1a <DMA_DeInit+0x158>

00008b2e <DMA_Init>:
    8b2e:	411c                	lw	a5,0(a0)
    8b30:	7761                	lui	a4,0xffff8
    8b32:	073d                	addi	a4,a4,15
    8b34:	5194                	lw	a3,32(a1)
    8b36:	8f7d                	and	a4,a4,a5
    8b38:	459c                	lw	a5,8(a1)
    8b3a:	8fd5                	or	a5,a5,a3
    8b3c:	4994                	lw	a3,16(a1)
    8b3e:	8fd5                	or	a5,a5,a3
    8b40:	49d4                	lw	a3,20(a1)
    8b42:	8fd5                	or	a5,a5,a3
    8b44:	4d94                	lw	a3,24(a1)
    8b46:	8fd5                	or	a5,a5,a3
    8b48:	4dd4                	lw	a3,28(a1)
    8b4a:	8fd5                	or	a5,a5,a3
    8b4c:	51d4                	lw	a3,36(a1)
    8b4e:	8fd5                	or	a5,a5,a3
    8b50:	5594                	lw	a3,40(a1)
    8b52:	8fd5                	or	a5,a5,a3
    8b54:	8fd9                	or	a5,a5,a4
    8b56:	c11c                	sw	a5,0(a0)
    8b58:	45dc                	lw	a5,12(a1)
    8b5a:	c15c                	sw	a5,4(a0)
    8b5c:	419c                	lw	a5,0(a1)
    8b5e:	c51c                	sw	a5,8(a0)
    8b60:	41dc                	lw	a5,4(a1)
    8b62:	c55c                	sw	a5,12(a0)
    8b64:	8082                	ret

00008b66 <DMA_Cmd>:
    8b66:	411c                	lw	a5,0(a0)
    8b68:	c589                	beqz	a1,8b72 <DMA_Cmd+0xc>
    8b6a:	0017e793          	ori	a5,a5,1
    8b6e:	c11c                	sw	a5,0(a0)
    8b70:	8082                	ret
    8b72:	6741                	lui	a4,0x10
    8b74:	1779                	addi	a4,a4,-2
    8b76:	8ff9                	and	a5,a5,a4
    8b78:	bfdd                	j	8b6e <DMA_Cmd+0x8>

00008b7a <DMA_SetCurrDataCounter>:
    8b7a:	c14c                	sw	a1,4(a0)
    8b7c:	8082                	ret

00008b7e <DMA_GetFlagStatus>:
    8b7e:	00351793          	slli	a5,a0,0x3
    8b82:	0007da63          	bgez	a5,8b96 <DMA_GetFlagStatus+0x18>
    8b86:	400207b7          	lui	a5,0x40020
    8b8a:	4007a783          	lw	a5,1024(a5) # 40020400 <_eusrstack+0x20010400>
    8b8e:	8d7d                	and	a0,a0,a5
    8b90:	00a03533          	snez	a0,a0
    8b94:	8082                	ret
    8b96:	00251793          	slli	a5,a0,0x2
    8b9a:	0007d763          	bgez	a5,8ba8 <DMA_GetFlagStatus+0x2a>
    8b9e:	400207b7          	lui	a5,0x40020
    8ba2:	4d07a783          	lw	a5,1232(a5) # 400204d0 <_eusrstack+0x200104d0>
    8ba6:	b7e5                	j	8b8e <DMA_GetFlagStatus+0x10>
    8ba8:	400207b7          	lui	a5,0x40020
    8bac:	439c                	lw	a5,0(a5)
    8bae:	b7c5                	j	8b8e <DMA_GetFlagStatus+0x10>

00008bb0 <DMA_ClearFlag>:
    8bb0:	00351793          	slli	a5,a0,0x3
    8bb4:	0007d763          	bgez	a5,8bc2 <DMA_ClearFlag+0x12>
    8bb8:	400207b7          	lui	a5,0x40020
    8bbc:	40a7a223          	sw	a0,1028(a5) # 40020404 <_eusrstack+0x20010404>
    8bc0:	8082                	ret
    8bc2:	00251793          	slli	a5,a0,0x2
    8bc6:	0007d763          	bgez	a5,8bd4 <DMA_ClearFlag+0x24>
    8bca:	400207b7          	lui	a5,0x40020
    8bce:	4ca7aa23          	sw	a0,1236(a5) # 400204d4 <_eusrstack+0x200104d4>
    8bd2:	8082                	ret
    8bd4:	400207b7          	lui	a5,0x40020
    8bd8:	c3c8                	sw	a0,4(a5)
    8bda:	8082                	ret

00008bdc <EXTI_Init>:
    8bdc:	4158                	lw	a4,4(a0)
    8bde:	00052803          	lw	a6,0(a0)
    8be2:	454c                	lw	a1,12(a0)
    8be4:	40010637          	lui	a2,0x40010
    8be8:	40060793          	addi	a5,a2,1024 # 40010400 <_eusrstack+0x20000400>
    8bec:	973e                	add	a4,a4,a5
    8bee:	fff84693          	not	a3,a6
    8bf2:	c5b1                	beqz	a1,8c3e <EXTI_Init+0x62>
    8bf4:	40062583          	lw	a1,1024(a2)
    8bf8:	8df5                	and	a1,a1,a3
    8bfa:	40b62023          	sw	a1,1024(a2)
    8bfe:	43d0                	lw	a2,4(a5)
    8c00:	8ef1                	and	a3,a3,a2
    8c02:	c3d4                	sw	a3,4(a5)
    8c04:	4314                	lw	a3,0(a4)
    8c06:	0106e6b3          	or	a3,a3,a6
    8c0a:	c314                	sw	a3,0(a4)
    8c0c:	4118                	lw	a4,0(a0)
    8c0e:	4790                	lw	a2,8(a5)
    8c10:	fff74693          	not	a3,a4
    8c14:	8e75                	and	a2,a2,a3
    8c16:	c790                	sw	a2,8(a5)
    8c18:	47d0                	lw	a2,12(a5)
    8c1a:	8ef1                	and	a3,a3,a2
    8c1c:	c7d4                	sw	a3,12(a5)
    8c1e:	4514                	lw	a3,8(a0)
    8c20:	4641                	li	a2,16
    8c22:	00c69963          	bne	a3,a2,8c34 <EXTI_Init+0x58>
    8c26:	4794                	lw	a3,8(a5)
    8c28:	8ed9                	or	a3,a3,a4
    8c2a:	c794                	sw	a3,8(a5)
    8c2c:	47d4                	lw	a3,12(a5)
    8c2e:	8f55                	or	a4,a4,a3
    8c30:	c7d8                	sw	a4,12(a5)
    8c32:	8082                	ret
    8c34:	97b6                	add	a5,a5,a3
    8c36:	4394                	lw	a3,0(a5)
    8c38:	8f55                	or	a4,a4,a3
    8c3a:	c398                	sw	a4,0(a5)
    8c3c:	8082                	ret
    8c3e:	431c                	lw	a5,0(a4)
    8c40:	8ff5                	and	a5,a5,a3
    8c42:	c31c                	sw	a5,0(a4)
    8c44:	8082                	ret

00008c46 <EXTI_GetITStatus>:
    8c46:	400107b7          	lui	a5,0x40010
    8c4a:	40078713          	addi	a4,a5,1024 # 40010400 <_eusrstack+0x20000400>
    8c4e:	4007a783          	lw	a5,1024(a5)
    8c52:	4b58                	lw	a4,20(a4)
    8c54:	8f69                	and	a4,a4,a0
    8c56:	c709                	beqz	a4,8c60 <EXTI_GetITStatus+0x1a>
    8c58:	8d7d                	and	a0,a0,a5
    8c5a:	00a03533          	snez	a0,a0
    8c5e:	8082                	ret
    8c60:	4501                	li	a0,0
    8c62:	8082                	ret

00008c64 <EXTI_ClearITPendingBit>:
    8c64:	400107b7          	lui	a5,0x40010
    8c68:	40a7aa23          	sw	a0,1044(a5) # 40010414 <_eusrstack+0x20000414>
    8c6c:	8082                	ret

00008c6e <FSMC_NORSRAMInit>:
    8c6e:	4514                	lw	a3,8(a0)
    8c70:	415c                	lw	a5,4(a0)
    8c72:	4558                	lw	a4,12(a0)
    8c74:	02852803          	lw	a6,40(a0)
    8c78:	8fd5                	or	a5,a5,a3
    8c7a:	8fd9                	or	a5,a5,a4
    8c7c:	4918                	lw	a4,16(a0)
    8c7e:	a0000637          	lui	a2,0xa0000
    8c82:	8fd9                	or	a5,a5,a4
    8c84:	4958                	lw	a4,20(a0)
    8c86:	8fd9                	or	a5,a5,a4
    8c88:	4d18                	lw	a4,24(a0)
    8c8a:	8fd9                	or	a5,a5,a4
    8c8c:	4d58                	lw	a4,28(a0)
    8c8e:	8fd9                	or	a5,a5,a4
    8c90:	5118                	lw	a4,32(a0)
    8c92:	8fd9                	or	a5,a5,a4
    8c94:	5158                	lw	a4,36(a0)
    8c96:	8fd9                	or	a5,a5,a4
    8c98:	5558                	lw	a4,44(a0)
    8c9a:	0107e7b3          	or	a5,a5,a6
    8c9e:	8fd9                	or	a5,a5,a4
    8ca0:	4118                	lw	a4,0(a0)
    8ca2:	070a                	slli	a4,a4,0x2
    8ca4:	963a                	add	a2,a2,a4
    8ca6:	c21c                	sw	a5,0(a2)
    8ca8:	47a1                	li	a5,8
    8caa:	00f69663          	bne	a3,a5,8cb6 <FSMC_NORSRAMInit+0x48>
    8cae:	421c                	lw	a5,0(a2)
    8cb0:	0407e793          	ori	a5,a5,64
    8cb4:	c21c                	sw	a5,0(a2)
    8cb6:	5914                	lw	a3,48(a0)
    8cb8:	4e8c                	lw	a1,24(a3)
    8cba:	429c                	lw	a5,0(a3)
    8cbc:	8fcd                	or	a5,a5,a1
    8cbe:	42cc                	lw	a1,4(a3)
    8cc0:	0592                	slli	a1,a1,0x4
    8cc2:	8fcd                	or	a5,a5,a1
    8cc4:	468c                	lw	a1,8(a3)
    8cc6:	05a2                	slli	a1,a1,0x8
    8cc8:	8fcd                	or	a5,a5,a1
    8cca:	46cc                	lw	a1,12(a3)
    8ccc:	05c2                	slli	a1,a1,0x10
    8cce:	8fcd                	or	a5,a5,a1
    8cd0:	4a8c                	lw	a1,16(a3)
    8cd2:	4ad4                	lw	a3,20(a3)
    8cd4:	05d2                	slli	a1,a1,0x14
    8cd6:	8fcd                	or	a5,a5,a1
    8cd8:	06e2                	slli	a3,a3,0x18
    8cda:	8fd5                	or	a5,a5,a3
    8cdc:	c25c                	sw	a5,4(a2)
    8cde:	6791                	lui	a5,0x4
    8ce0:	02f81363          	bne	a6,a5,8d06 <FSMC_NORSRAMInit+0x98>
    8ce4:	5954                	lw	a3,52(a0)
    8ce6:	4e90                	lw	a2,24(a3)
    8ce8:	429c                	lw	a5,0(a3)
    8cea:	8fd1                	or	a5,a5,a2
    8cec:	42d0                	lw	a2,4(a3)
    8cee:	4694                	lw	a3,8(a3)
    8cf0:	0612                	slli	a2,a2,0x4
    8cf2:	06a2                	slli	a3,a3,0x8
    8cf4:	8fd1                	or	a5,a5,a2
    8cf6:	8fd5                	or	a5,a5,a3
    8cf8:	a00006b7          	lui	a3,0xa0000
    8cfc:	10468693          	addi	a3,a3,260 # a0000104 <_eusrstack+0x7fff0104>
    8d00:	9736                	add	a4,a4,a3
    8d02:	c31c                	sw	a5,0(a4)
    8d04:	8082                	ret
    8d06:	a00007b7          	lui	a5,0xa0000
    8d0a:	10478793          	addi	a5,a5,260 # a0000104 <_eusrstack+0x7fff0104>
    8d0e:	973e                	add	a4,a4,a5
    8d10:	100007b7          	lui	a5,0x10000
    8d14:	17fd                	addi	a5,a5,-1
    8d16:	b7f5                	j	8d02 <FSMC_NORSRAMInit+0x94>

00008d18 <FSMC_NORSRAMCmd>:
    8d18:	a00007b7          	lui	a5,0xa0000
    8d1c:	050a                	slli	a0,a0,0x2
    8d1e:	953e                	add	a0,a0,a5
    8d20:	411c                	lw	a5,0(a0)
    8d22:	c589                	beqz	a1,8d2c <FSMC_NORSRAMCmd+0x14>
    8d24:	0017e793          	ori	a5,a5,1
    8d28:	c11c                	sw	a5,0(a0)
    8d2a:	8082                	ret
    8d2c:	00100737          	lui	a4,0x100
    8d30:	1779                	addi	a4,a4,-2
    8d32:	8ff9                	and	a5,a5,a4
    8d34:	bfd5                	j	8d28 <FSMC_NORSRAMCmd+0x10>

00008d36 <GPIO_Init>:
    8d36:	459c                	lw	a5,8(a1)
    8d38:	0107f713          	andi	a4,a5,16
    8d3c:	00f7f813          	andi	a6,a5,15
    8d40:	c701                	beqz	a4,8d48 <GPIO_Init+0x12>
    8d42:	41d8                	lw	a4,4(a1)
    8d44:	00e86833          	or	a6,a6,a4
    8d48:	218e                	lhu	a1,0(a1)
    8d4a:	0ff5f713          	andi	a4,a1,255
    8d4e:	c339                	beqz	a4,8d94 <GPIO_Init+0x5e>
    8d50:	4118                	lw	a4,0(a0)
    8d52:	4681                	li	a3,0
    8d54:	4e85                	li	t4,1
    8d56:	4f3d                	li	t5,15
    8d58:	02800f93          	li	t6,40
    8d5c:	04800293          	li	t0,72
    8d60:	4e21                	li	t3,8
    8d62:	00de9633          	sll	a2,t4,a3
    8d66:	00c5f8b3          	and	a7,a1,a2
    8d6a:	03161163          	bne	a2,a7,8d8c <GPIO_Init+0x56>
    8d6e:	00269893          	slli	a7,a3,0x2
    8d72:	011f1333          	sll	t1,t5,a7
    8d76:	fff34313          	not	t1,t1
    8d7a:	00e37733          	and	a4,t1,a4
    8d7e:	011818b3          	sll	a7,a6,a7
    8d82:	00e8e733          	or	a4,a7,a4
    8d86:	05f79f63          	bne	a5,t6,8de4 <GPIO_Init+0xae>
    8d8a:	c950                	sw	a2,20(a0)
    8d8c:	0685                	addi	a3,a3,1
    8d8e:	fdc69ae3          	bne	a3,t3,8d62 <GPIO_Init+0x2c>
    8d92:	c118                	sw	a4,0(a0)
    8d94:	0ff00713          	li	a4,255
    8d98:	04b77563          	bgeu	a4,a1,8de2 <GPIO_Init+0xac>
    8d9c:	4154                	lw	a3,4(a0)
    8d9e:	4621                	li	a2,8
    8da0:	4e85                	li	t4,1
    8da2:	4f3d                	li	t5,15
    8da4:	02800f93          	li	t6,40
    8da8:	04800293          	li	t0,72
    8dac:	4e41                	li	t3,16
    8dae:	00ce98b3          	sll	a7,t4,a2
    8db2:	0115f733          	and	a4,a1,a7
    8db6:	02e89263          	bne	a7,a4,8dda <GPIO_Init+0xa4>
    8dba:	00261713          	slli	a4,a2,0x2
    8dbe:	1701                	addi	a4,a4,-32
    8dc0:	00ef1333          	sll	t1,t5,a4
    8dc4:	fff34313          	not	t1,t1
    8dc8:	00d376b3          	and	a3,t1,a3
    8dcc:	00e81733          	sll	a4,a6,a4
    8dd0:	8ed9                	or	a3,a3,a4
    8dd2:	01f79d63          	bne	a5,t6,8dec <GPIO_Init+0xb6>
    8dd6:	01152a23          	sw	a7,20(a0)
    8dda:	0605                	addi	a2,a2,1
    8ddc:	fdc619e3          	bne	a2,t3,8dae <GPIO_Init+0x78>
    8de0:	c154                	sw	a3,4(a0)
    8de2:	8082                	ret
    8de4:	fa5794e3          	bne	a5,t0,8d8c <GPIO_Init+0x56>
    8de8:	c910                	sw	a2,16(a0)
    8dea:	b74d                	j	8d8c <GPIO_Init+0x56>
    8dec:	fe5797e3          	bne	a5,t0,8dda <GPIO_Init+0xa4>
    8df0:	01152823          	sw	a7,16(a0)
    8df4:	b7dd                	j	8dda <GPIO_Init+0xa4>

00008df6 <GPIO_ReadInputDataBit>:
    8df6:	4508                	lw	a0,8(a0)
    8df8:	8d6d                	and	a0,a0,a1
    8dfa:	00a03533          	snez	a0,a0
    8dfe:	8082                	ret

00008e00 <GPIO_SetBits>:
    8e00:	c90c                	sw	a1,16(a0)
    8e02:	8082                	ret

00008e04 <GPIO_WriteBit>:
    8e04:	c219                	beqz	a2,8e0a <GPIO_WriteBit+0x6>
    8e06:	c90c                	sw	a1,16(a0)
    8e08:	8082                	ret
    8e0a:	c94c                	sw	a1,20(a0)
    8e0c:	8082                	ret

00008e0e <GPIO_EXTILineConfig>:
    8e0e:	0fc5f713          	andi	a4,a1,252
    8e12:	0035f793          	andi	a5,a1,3
    8e16:	400105b7          	lui	a1,0x40010
    8e1a:	95ba                	add	a1,a1,a4
    8e1c:	4594                	lw	a3,8(a1)
    8e1e:	078a                	slli	a5,a5,0x2
    8e20:	473d                	li	a4,15
    8e22:	00f71733          	sll	a4,a4,a5
    8e26:	fff74713          	not	a4,a4
    8e2a:	8f75                	and	a4,a4,a3
    8e2c:	c598                	sw	a4,8(a1)
    8e2e:	4598                	lw	a4,8(a1)
    8e30:	00f51533          	sll	a0,a0,a5
    8e34:	8d59                	or	a0,a0,a4
    8e36:	c588                	sw	a0,8(a1)
    8e38:	8082                	ret

00008e3a <RCC_GetClocksFreq>:
    8e3a:	40021737          	lui	a4,0x40021
    8e3e:	435c                	lw	a5,4(a4)
    8e40:	4691                	li	a3,4
    8e42:	8bb1                	andi	a5,a5,12
    8e44:	00d78563          	beq	a5,a3,8e4e <RCC_GetClocksFreq+0x14>
    8e48:	46a1                	li	a3,8
    8e4a:	06d78263          	beq	a5,a3,8eae <RCC_GetClocksFreq+0x74>
    8e4e:	007a17b7          	lui	a5,0x7a1
    8e52:	20078793          	addi	a5,a5,512 # 7a1200 <__rt_init_end+0x78ff48>
    8e56:	c11c                	sw	a5,0(a0)
    8e58:	40021637          	lui	a2,0x40021
    8e5c:	425c                	lw	a5,4(a2)
    8e5e:	20000737          	lui	a4,0x20000
    8e62:	15070713          	addi	a4,a4,336 # 20000150 <APBAHBPrescTable>
    8e66:	8391                	srli	a5,a5,0x4
    8e68:	8bbd                	andi	a5,a5,15
    8e6a:	97ba                	add	a5,a5,a4
    8e6c:	2394                	lbu	a3,0(a5)
    8e6e:	411c                	lw	a5,0(a0)
    8e70:	00d7d7b3          	srl	a5,a5,a3
    8e74:	c15c                	sw	a5,4(a0)
    8e76:	4254                	lw	a3,4(a2)
    8e78:	82a1                	srli	a3,a3,0x8
    8e7a:	8a9d                	andi	a3,a3,7
    8e7c:	96ba                	add	a3,a3,a4
    8e7e:	2294                	lbu	a3,0(a3)
    8e80:	00d7d6b3          	srl	a3,a5,a3
    8e84:	c514                	sw	a3,8(a0)
    8e86:	4254                	lw	a3,4(a2)
    8e88:	82ad                	srli	a3,a3,0xb
    8e8a:	8a9d                	andi	a3,a3,7
    8e8c:	9736                	add	a4,a4,a3
    8e8e:	2318                	lbu	a4,0(a4)
    8e90:	00e7d7b3          	srl	a5,a5,a4
    8e94:	c55c                	sw	a5,12(a0)
    8e96:	4258                	lw	a4,4(a2)
    8e98:	8339                	srli	a4,a4,0xe
    8e9a:	00377693          	andi	a3,a4,3
    8e9e:	80818713          	addi	a4,gp,-2040 # 200001c8 <ADCPrescTable>
    8ea2:	9736                	add	a4,a4,a3
    8ea4:	2318                	lbu	a4,0(a4)
    8ea6:	02e7d7b3          	divu	a5,a5,a4
    8eaa:	c91c                	sw	a5,16(a0)
    8eac:	8082                	ret
    8eae:	435c                	lw	a5,4(a4)
    8eb0:	4358                	lw	a4,4(a4)
    8eb2:	66c1                	lui	a3,0x10
    8eb4:	83c9                	srli	a5,a5,0x12
    8eb6:	8f75                	and	a4,a4,a3
    8eb8:	1ffff6b7          	lui	a3,0x1ffff
    8ebc:	70c6a683          	lw	a3,1804(a3) # 1ffff70c <__rt_init_end+0x1ffee454>
    8ec0:	8bbd                	andi	a5,a5,15
    8ec2:	0789                	addi	a5,a5,2
    8ec4:	01169613          	slli	a2,a3,0x11
    8ec8:	00064863          	bltz	a2,8ed8 <RCC_GetClocksFreq+0x9e>
    8ecc:	46c5                	li	a3,17
    8ece:	4601                	li	a2,0
    8ed0:	02d79263          	bne	a5,a3,8ef4 <RCC_GetClocksFreq+0xba>
    8ed4:	47c9                	li	a5,18
    8ed6:	a839                	j	8ef4 <RCC_GetClocksFreq+0xba>
    8ed8:	4689                	li	a3,2
    8eda:	02d78f63          	beq	a5,a3,8f18 <RCC_GetClocksFreq+0xde>
    8ede:	46bd                	li	a3,15
    8ee0:	02d78e63          	beq	a5,a3,8f1c <RCC_GetClocksFreq+0xe2>
    8ee4:	46c1                	li	a3,16
    8ee6:	02d78e63          	beq	a5,a3,8f22 <RCC_GetClocksFreq+0xe8>
    8eea:	46c5                	li	a3,17
    8eec:	4601                	li	a2,0
    8eee:	00d79363          	bne	a5,a3,8ef4 <RCC_GetClocksFreq+0xba>
    8ef2:	47c1                	li	a5,16
    8ef4:	ef1d                	bnez	a4,8f32 <RCC_GetClocksFreq+0xf8>
    8ef6:	40024737          	lui	a4,0x40024
    8efa:	80072703          	lw	a4,-2048(a4) # 40023800 <_eusrstack+0x20013800>
    8efe:	8b41                	andi	a4,a4,16
    8f00:	c705                	beqz	a4,8f28 <RCC_GetClocksFreq+0xee>
    8f02:	007a1737          	lui	a4,0x7a1
    8f06:	20070713          	addi	a4,a4,512 # 7a1200 <__rt_init_end+0x78ff48>
    8f0a:	02f707b3          	mul	a5,a4,a5
    8f0e:	c11c                	sw	a5,0(a0)
    8f10:	d621                	beqz	a2,8e58 <RCC_GetClocksFreq+0x1e>
    8f12:	411c                	lw	a5,0(a0)
    8f14:	8385                	srli	a5,a5,0x1
    8f16:	b781                	j	8e56 <RCC_GetClocksFreq+0x1c>
    8f18:	4601                	li	a2,0
    8f1a:	bf6d                	j	8ed4 <RCC_GetClocksFreq+0x9a>
    8f1c:	4605                	li	a2,1
    8f1e:	47b5                	li	a5,13
    8f20:	bfd1                	j	8ef4 <RCC_GetClocksFreq+0xba>
    8f22:	4601                	li	a2,0
    8f24:	47bd                	li	a5,15
    8f26:	b7f9                	j	8ef4 <RCC_GetClocksFreq+0xba>
    8f28:	003d1737          	lui	a4,0x3d1
    8f2c:	90070713          	addi	a4,a4,-1792 # 3d0900 <__rt_init_end+0x3bf648>
    8f30:	bfe9                	j	8f0a <RCC_GetClocksFreq+0xd0>
    8f32:	400215b7          	lui	a1,0x40021
    8f36:	55d8                	lw	a4,44(a1)
    8f38:	00f71693          	slli	a3,a4,0xf
    8f3c:	55d8                	lw	a4,44(a1)
    8f3e:	0406df63          	bgez	a3,8f9c <RCC_GetClocksFreq+0x162>
    8f42:	8311                	srli	a4,a4,0x4
    8f44:	8b3d                	andi	a4,a4,15
    8f46:	00170693          	addi	a3,a4,1
    8f4a:	007a1737          	lui	a4,0x7a1
    8f4e:	20070713          	addi	a4,a4,512 # 7a1200 <__rt_init_end+0x78ff48>
    8f52:	02d75733          	divu	a4,a4,a3
    8f56:	c118                	sw	a4,0(a0)
    8f58:	55d4                	lw	a3,44(a1)
    8f5a:	82a1                	srli	a3,a3,0x8
    8f5c:	8abd                	andi	a3,a3,15
    8f5e:	e28d                	bnez	a3,8f80 <RCC_GetClocksFreq+0x146>
    8f60:	4695                	li	a3,5
    8f62:	02d70733          	mul	a4,a4,a3
    8f66:	8305                	srli	a4,a4,0x1
    8f68:	c118                	sw	a4,0(a0)
    8f6a:	40021737          	lui	a4,0x40021
    8f6e:	5758                	lw	a4,44(a4)
    8f70:	4114                	lw	a3,0(a0)
    8f72:	8b3d                	andi	a4,a4,15
    8f74:	0705                	addi	a4,a4,1
    8f76:	02e6d733          	divu	a4,a3,a4
    8f7a:	c118                	sw	a4,0(a0)
    8f7c:	4118                	lw	a4,0(a0)
    8f7e:	b771                	j	8f0a <RCC_GetClocksFreq+0xd0>
    8f80:	4585                	li	a1,1
    8f82:	00b69463          	bne	a3,a1,8f8a <RCC_GetClocksFreq+0x150>
    8f86:	46e5                	li	a3,25
    8f88:	bfe9                	j	8f62 <RCC_GetClocksFreq+0x128>
    8f8a:	45bd                	li	a1,15
    8f8c:	00b69663          	bne	a3,a1,8f98 <RCC_GetClocksFreq+0x15e>
    8f90:	46d1                	li	a3,20
    8f92:	02e68733          	mul	a4,a3,a4
    8f96:	bfc9                	j	8f68 <RCC_GetClocksFreq+0x12e>
    8f98:	0689                	addi	a3,a3,2
    8f9a:	bfe5                	j	8f92 <RCC_GetClocksFreq+0x158>
    8f9c:	8b3d                	andi	a4,a4,15
    8f9e:	00170693          	addi	a3,a4,1 # 40021001 <_eusrstack+0x20011001>
    8fa2:	007a1737          	lui	a4,0x7a1
    8fa6:	20070713          	addi	a4,a4,512 # 7a1200 <__rt_init_end+0x78ff48>
    8faa:	02d75733          	divu	a4,a4,a3
    8fae:	b7f1                	j	8f7a <RCC_GetClocksFreq+0x140>

00008fb0 <RCC_AHBPeriphClockCmd>:
    8fb0:	c599                	beqz	a1,8fbe <RCC_AHBPeriphClockCmd+0xe>
    8fb2:	40021737          	lui	a4,0x40021
    8fb6:	4b5c                	lw	a5,20(a4)
    8fb8:	8d5d                	or	a0,a0,a5
    8fba:	cb48                	sw	a0,20(a4)
    8fbc:	8082                	ret
    8fbe:	400217b7          	lui	a5,0x40021
    8fc2:	4bd8                	lw	a4,20(a5)
    8fc4:	fff54513          	not	a0,a0
    8fc8:	8d79                	and	a0,a0,a4
    8fca:	cbc8                	sw	a0,20(a5)
    8fcc:	8082                	ret

00008fce <RCC_APB2PeriphClockCmd>:
    8fce:	c599                	beqz	a1,8fdc <RCC_APB2PeriphClockCmd+0xe>
    8fd0:	40021737          	lui	a4,0x40021
    8fd4:	4f1c                	lw	a5,24(a4)
    8fd6:	8d5d                	or	a0,a0,a5
    8fd8:	cf08                	sw	a0,24(a4)
    8fda:	8082                	ret
    8fdc:	400217b7          	lui	a5,0x40021
    8fe0:	4f98                	lw	a4,24(a5)
    8fe2:	fff54513          	not	a0,a0
    8fe6:	8d79                	and	a0,a0,a4
    8fe8:	cf88                	sw	a0,24(a5)
    8fea:	8082                	ret

00008fec <RCC_APB1PeriphClockCmd>:
    8fec:	c599                	beqz	a1,8ffa <RCC_APB1PeriphClockCmd+0xe>
    8fee:	40021737          	lui	a4,0x40021
    8ff2:	4f5c                	lw	a5,28(a4)
    8ff4:	8d5d                	or	a0,a0,a5
    8ff6:	cf48                	sw	a0,28(a4)
    8ff8:	8082                	ret
    8ffa:	400217b7          	lui	a5,0x40021
    8ffe:	4fd8                	lw	a4,28(a5)
    9000:	fff54513          	not	a0,a0
    9004:	8d79                	and	a0,a0,a4
    9006:	cfc8                	sw	a0,28(a5)
    9008:	8082                	ret

0000900a <SDIO_SendCommand>:
    900a:	411c                	lw	a5,0(a0)
    900c:	40018737          	lui	a4,0x40018
    9010:	c71c                	sw	a5,8(a4)
    9012:	4754                	lw	a3,12(a4)
    9014:	415c                	lw	a5,4(a0)
    9016:	4510                	lw	a2,8(a0)
    9018:	8006f693          	andi	a3,a3,-2048
    901c:	8fd1                	or	a5,a5,a2
    901e:	8fd5                	or	a5,a5,a3
    9020:	4554                	lw	a3,12(a0)
    9022:	8fd5                	or	a5,a5,a3
    9024:	4914                	lw	a3,16(a0)
    9026:	8fd5                	or	a5,a5,a3
    9028:	c75c                	sw	a5,12(a4)
    902a:	8082                	ret

0000902c <SDIO_GetFlagStatus>:
    902c:	400187b7          	lui	a5,0x40018
    9030:	5bdc                	lw	a5,52(a5)
    9032:	8d7d                	and	a0,a0,a5
    9034:	00a03533          	snez	a0,a0
    9038:	8082                	ret

0000903a <SDIO_ClearFlag>:
    903a:	400187b7          	lui	a5,0x40018
    903e:	df88                	sw	a0,56(a5)
    9040:	8082                	ret

00009042 <TIM_TimeBaseInit>:
    9042:	211e                	lhu	a5,0(a0)
    9044:	40013737          	lui	a4,0x40013
    9048:	c0070693          	addi	a3,a4,-1024 # 40012c00 <_eusrstack+0x20002c00>
    904c:	07c2                	slli	a5,a5,0x10
    904e:	83c1                	srli	a5,a5,0x10
    9050:	04d50063          	beq	a0,a3,9090 <TIM_TimeBaseInit+0x4e>
    9054:	400006b7          	lui	a3,0x40000
    9058:	02d50c63          	beq	a0,a3,9090 <TIM_TimeBaseInit+0x4e>
    905c:	40068693          	addi	a3,a3,1024 # 40000400 <_eusrstack+0x1fff0400>
    9060:	02d50863          	beq	a0,a3,9090 <TIM_TimeBaseInit+0x4e>
    9064:	400016b7          	lui	a3,0x40001
    9068:	80068613          	addi	a2,a3,-2048 # 40000800 <_eusrstack+0x1fff0800>
    906c:	02c50263          	beq	a0,a2,9090 <TIM_TimeBaseInit+0x4e>
    9070:	c0068693          	addi	a3,a3,-1024
    9074:	00d50e63          	beq	a0,a3,9090 <TIM_TimeBaseInit+0x4e>
    9078:	40070713          	addi	a4,a4,1024
    907c:	00e50a63          	beq	a0,a4,9090 <TIM_TimeBaseInit+0x4e>
    9080:	40015737          	lui	a4,0x40015
    9084:	c0070693          	addi	a3,a4,-1024 # 40014c00 <_eusrstack+0x20004c00>
    9088:	00d50463          	beq	a0,a3,9090 <TIM_TimeBaseInit+0x4e>
    908c:	00e51663          	bne	a0,a4,9098 <TIM_TimeBaseInit+0x56>
    9090:	21ba                	lhu	a4,2(a1)
    9092:	f8f7f793          	andi	a5,a5,-113
    9096:	8fd9                	or	a5,a5,a4
    9098:	40001737          	lui	a4,0x40001
    909c:	00e50c63          	beq	a0,a4,90b4 <TIM_TimeBaseInit+0x72>
    90a0:	40070713          	addi	a4,a4,1024 # 40001400 <_eusrstack+0x1fff1400>
    90a4:	00e50863          	beq	a0,a4,90b4 <TIM_TimeBaseInit+0x72>
    90a8:	cff7f793          	andi	a5,a5,-769
    90ac:	21fa                	lhu	a4,6(a1)
    90ae:	07c2                	slli	a5,a5,0x10
    90b0:	83c1                	srli	a5,a5,0x10
    90b2:	8fd9                	or	a5,a5,a4
    90b4:	a11e                	sh	a5,0(a0)
    90b6:	21de                	lhu	a5,4(a1)
    90b8:	b55e                	sh	a5,44(a0)
    90ba:	219e                	lhu	a5,0(a1)
    90bc:	b51e                	sh	a5,40(a0)
    90be:	400137b7          	lui	a5,0x40013
    90c2:	c0078713          	addi	a4,a5,-1024 # 40012c00 <_eusrstack+0x20002c00>
    90c6:	00e50e63          	beq	a0,a4,90e2 <TIM_TimeBaseInit+0xa0>
    90ca:	40078793          	addi	a5,a5,1024
    90ce:	00f50a63          	beq	a0,a5,90e2 <TIM_TimeBaseInit+0xa0>
    90d2:	400157b7          	lui	a5,0x40015
    90d6:	c0078713          	addi	a4,a5,-1024 # 40014c00 <_eusrstack+0x20004c00>
    90da:	00e50463          	beq	a0,a4,90e2 <TIM_TimeBaseInit+0xa0>
    90de:	00f51463          	bne	a0,a5,90e6 <TIM_TimeBaseInit+0xa4>
    90e2:	259c                	lbu	a5,8(a1)
    90e4:	b91e                	sh	a5,48(a0)
    90e6:	4785                	li	a5,1
    90e8:	a95e                	sh	a5,20(a0)
    90ea:	8082                	ret

000090ec <TIM_OC1Init>:
    90ec:	311e                	lhu	a5,32(a0)
    90ee:	2192                	lhu	a2,0(a1)
    90f0:	0025d803          	lhu	a6,2(a1) # 40021002 <_eusrstack+0x20011002>
    90f4:	07c2                	slli	a5,a5,0x10
    90f6:	83c1                	srli	a5,a5,0x10
    90f8:	9bf9                	andi	a5,a5,-2
    90fa:	07c2                	slli	a5,a5,0x10
    90fc:	83c1                	srli	a5,a5,0x10
    90fe:	b11e                	sh	a5,32(a0)
    9100:	311e                	lhu	a5,32(a0)
    9102:	2156                	lhu	a3,4(a0)
    9104:	2d1a                	lhu	a4,24(a0)
    9106:	07c2                	slli	a5,a5,0x10
    9108:	83c1                	srli	a5,a5,0x10
    910a:	0742                	slli	a4,a4,0x10
    910c:	8341                	srli	a4,a4,0x10
    910e:	f8c77713          	andi	a4,a4,-116
    9112:	8f51                	or	a4,a4,a2
    9114:	2592                	lhu	a2,8(a1)
    9116:	9bf5                	andi	a5,a5,-3
    9118:	06c2                	slli	a3,a3,0x10
    911a:	01066633          	or	a2,a2,a6
    911e:	8fd1                	or	a5,a5,a2
    9120:	40013637          	lui	a2,0x40013
    9124:	c0060813          	addi	a6,a2,-1024 # 40012c00 <_eusrstack+0x20002c00>
    9128:	82c1                	srli	a3,a3,0x10
    912a:	01050e63          	beq	a0,a6,9146 <TIM_OC1Init+0x5a>
    912e:	40060613          	addi	a2,a2,1024
    9132:	00c50a63          	beq	a0,a2,9146 <TIM_OC1Init+0x5a>
    9136:	40015637          	lui	a2,0x40015
    913a:	c0060813          	addi	a6,a2,-1024 # 40014c00 <_eusrstack+0x20004c00>
    913e:	01050463          	beq	a0,a6,9146 <TIM_OC1Init+0x5a>
    9142:	02c51063          	bne	a0,a2,9162 <TIM_OC1Init+0x76>
    9146:	25b2                	lhu	a2,10(a1)
    9148:	9bdd                	andi	a5,a5,-9
    914a:	00e5d803          	lhu	a6,14(a1)
    914e:	8fd1                	or	a5,a5,a2
    9150:	21d2                	lhu	a2,4(a1)
    9152:	9bed                	andi	a5,a5,-5
    9154:	cff6f693          	andi	a3,a3,-769
    9158:	8fd1                	or	a5,a5,a2
    915a:	25d2                	lhu	a2,12(a1)
    915c:	01066633          	or	a2,a2,a6
    9160:	8ed1                	or	a3,a3,a2
    9162:	a156                	sh	a3,4(a0)
    9164:	ad1a                	sh	a4,24(a0)
    9166:	21fa                	lhu	a4,6(a1)
    9168:	b95a                	sh	a4,52(a0)
    916a:	b11e                	sh	a5,32(a0)
    916c:	8082                	ret

0000916e <TIM_Cmd>:
    916e:	211e                	lhu	a5,0(a0)
    9170:	c589                	beqz	a1,917a <TIM_Cmd+0xc>
    9172:	0017e793          	ori	a5,a5,1
    9176:	a11e                	sh	a5,0(a0)
    9178:	8082                	ret
    917a:	07c2                	slli	a5,a5,0x10
    917c:	83c1                	srli	a5,a5,0x10
    917e:	9bf9                	andi	a5,a5,-2
    9180:	07c2                	slli	a5,a5,0x10
    9182:	83c1                	srli	a5,a5,0x10
    9184:	bfcd                	j	9176 <TIM_Cmd+0x8>

00009186 <TIM_ITConfig>:
    9186:	255e                	lhu	a5,12(a0)
    9188:	c601                	beqz	a2,9190 <TIM_ITConfig+0xa>
    918a:	8ddd                	or	a1,a1,a5
    918c:	a54e                	sh	a1,12(a0)
    918e:	8082                	ret
    9190:	fff5c593          	not	a1,a1
    9194:	8dfd                	and	a1,a1,a5
    9196:	bfdd                	j	918c <TIM_ITConfig+0x6>

00009198 <TIM_DMACmd>:
    9198:	a0af72ef          	jal	t0,3a2 <__riscv_save_0>
    919c:	febff0ef          	jal	ra,9186 <TIM_ITConfig>
    91a0:	a26f706f          	j	3c6 <__riscv_restore_0>

000091a4 <TIM_ARRPreloadConfig>:
    91a4:	211e                	lhu	a5,0(a0)
    91a6:	c589                	beqz	a1,91b0 <TIM_ARRPreloadConfig+0xc>
    91a8:	0807e793          	ori	a5,a5,128
    91ac:	a11e                	sh	a5,0(a0)
    91ae:	8082                	ret
    91b0:	07c2                	slli	a5,a5,0x10
    91b2:	83c1                	srli	a5,a5,0x10
    91b4:	f7f7f793          	andi	a5,a5,-129
    91b8:	07c2                	slli	a5,a5,0x10
    91ba:	83c1                	srli	a5,a5,0x10
    91bc:	bfc5                	j	91ac <TIM_ARRPreloadConfig+0x8>

000091be <TIM_OC1PreloadConfig>:
    91be:	2d1e                	lhu	a5,24(a0)
    91c0:	07c2                	slli	a5,a5,0x10
    91c2:	83c1                	srli	a5,a5,0x10
    91c4:	9bdd                	andi	a5,a5,-9
    91c6:	8ddd                	or	a1,a1,a5
    91c8:	ad0e                	sh	a1,24(a0)
    91ca:	8082                	ret

000091cc <USART_Init>:
    91cc:	9d6f72ef          	jal	t0,3a2 <__riscv_save_0>
    91d0:	2916                	lhu	a3,16(a0)
    91d2:	77f5                	lui	a5,0xffffd
    91d4:	17fd                	addi	a5,a5,-1
    91d6:	8ff5                	and	a5,a5,a3
    91d8:	21f6                	lhu	a3,6(a1)
    91da:	25da                	lhu	a4,12(a1)
    91dc:	7179                	addi	sp,sp,-48
    91de:	8fd5                	or	a5,a5,a3
    91e0:	a91e                	sh	a5,16(a0)
    91e2:	2556                	lhu	a3,12(a0)
    91e4:	77fd                	lui	a5,0xfffff
    91e6:	9f378793          	addi	a5,a5,-1549 # ffffe9f3 <_eusrstack+0xdffee9f3>
    91ea:	8ff5                	and	a5,a5,a3
    91ec:	21d6                	lhu	a3,4(a1)
    91ee:	842a                	mv	s0,a0
    91f0:	c62e                	sw	a1,12(sp)
    91f2:	8fd5                	or	a5,a5,a3
    91f4:	2596                	lhu	a3,8(a1)
    91f6:	8fd5                	or	a5,a5,a3
    91f8:	25b6                	lhu	a3,10(a1)
    91fa:	8fd5                	or	a5,a5,a3
    91fc:	a55e                	sh	a5,12(a0)
    91fe:	295e                	lhu	a5,20(a0)
    9200:	07c2                	slli	a5,a5,0x10
    9202:	83c1                	srli	a5,a5,0x10
    9204:	cff7f793          	andi	a5,a5,-769
    9208:	8fd9                	or	a5,a5,a4
    920a:	a95e                	sh	a5,20(a0)
    920c:	0868                	addi	a0,sp,28
    920e:	c2dff0ef          	jal	ra,8e3a <RCC_GetClocksFreq>
    9212:	400147b7          	lui	a5,0x40014
    9216:	80078793          	addi	a5,a5,-2048 # 40013800 <_eusrstack+0x20003800>
    921a:	45b2                	lw	a1,12(sp)
    921c:	02f41e63          	bne	s0,a5,9258 <USART_Init+0x8c>
    9220:	57a2                	lw	a5,40(sp)
    9222:	4765                	li	a4,25
    9224:	02e787b3          	mul	a5,a5,a4
    9228:	4198                	lw	a4,0(a1)
    922a:	06400693          	li	a3,100
    922e:	070a                	slli	a4,a4,0x2
    9230:	02e7d7b3          	divu	a5,a5,a4
    9234:	02d7d733          	divu	a4,a5,a3
    9238:	02d7f7b3          	remu	a5,a5,a3
    923c:	0712                	slli	a4,a4,0x4
    923e:	0792                	slli	a5,a5,0x4
    9240:	03278793          	addi	a5,a5,50
    9244:	02d7d7b3          	divu	a5,a5,a3
    9248:	8bbd                	andi	a5,a5,15
    924a:	8fd9                	or	a5,a5,a4
    924c:	07c2                	slli	a5,a5,0x10
    924e:	83c1                	srli	a5,a5,0x10
    9250:	a41e                	sh	a5,8(s0)
    9252:	6145                	addi	sp,sp,48
    9254:	972f706f          	j	3c6 <__riscv_restore_0>
    9258:	5792                	lw	a5,36(sp)
    925a:	b7e1                	j	9222 <USART_Init+0x56>

0000925c <USART_Cmd>:
    925c:	c591                	beqz	a1,9268 <USART_Cmd+0xc>
    925e:	255e                	lhu	a5,12(a0)
    9260:	6709                	lui	a4,0x2
    9262:	8fd9                	or	a5,a5,a4
    9264:	a55e                	sh	a5,12(a0)
    9266:	8082                	ret
    9268:	255a                	lhu	a4,12(a0)
    926a:	77f9                	lui	a5,0xffffe
    926c:	17fd                	addi	a5,a5,-1
    926e:	8ff9                	and	a5,a5,a4
    9270:	bfd5                	j	9264 <USART_Cmd+0x8>

00009272 <USART_ITConfig>:
    9272:	0ff5f713          	andi	a4,a1,255
    9276:	4785                	li	a5,1
    9278:	8315                	srli	a4,a4,0x5
    927a:	00b795b3          	sll	a1,a5,a1
    927e:	00f71963          	bne	a4,a5,9290 <USART_ITConfig+0x1e>
    9282:	00c50793          	addi	a5,a0,12
    9286:	4398                	lw	a4,0(a5)
    9288:	ce01                	beqz	a2,92a0 <USART_ITConfig+0x2e>
    928a:	8dd9                	or	a1,a1,a4
    928c:	c38c                	sw	a1,0(a5)
    928e:	8082                	ret
    9290:	4689                	li	a3,2
    9292:	01450793          	addi	a5,a0,20
    9296:	fed718e3          	bne	a4,a3,9286 <USART_ITConfig+0x14>
    929a:	01050793          	addi	a5,a0,16
    929e:	b7e5                	j	9286 <USART_ITConfig+0x14>
    92a0:	fff5c593          	not	a1,a1
    92a4:	8df9                	and	a1,a1,a4
    92a6:	b7dd                	j	928c <USART_ITConfig+0x1a>

000092a8 <USART_GetFlagStatus>:
    92a8:	210a                	lhu	a0,0(a0)
    92aa:	8d6d                	and	a0,a0,a1
    92ac:	00a03533          	snez	a0,a0
    92b0:	8082                	ret

000092b2 <USART_GetITStatus>:
    92b2:	0ff5f713          	andi	a4,a1,255
    92b6:	4685                	li	a3,1
    92b8:	8315                	srli	a4,a4,0x5
    92ba:	00b697b3          	sll	a5,a3,a1
    92be:	02d71163          	bne	a4,a3,92e0 <USART_GetITStatus+0x2e>
    92c2:	255a                	lhu	a4,12(a0)
    92c4:	8ff9                	and	a5,a5,a4
    92c6:	211a                	lhu	a4,0(a0)
    92c8:	4501                	li	a0,0
    92ca:	0742                	slli	a4,a4,0x10
    92cc:	8341                	srli	a4,a4,0x10
    92ce:	cb81                	beqz	a5,92de <USART_GetITStatus+0x2c>
    92d0:	4505                	li	a0,1
    92d2:	81a1                	srli	a1,a1,0x8
    92d4:	00b515b3          	sll	a1,a0,a1
    92d8:	8f6d                	and	a4,a4,a1
    92da:	00e03533          	snez	a0,a4
    92de:	8082                	ret
    92e0:	4689                	li	a3,2
    92e2:	00d71463          	bne	a4,a3,92ea <USART_GetITStatus+0x38>
    92e6:	291a                	lhu	a4,16(a0)
    92e8:	bff1                	j	92c4 <USART_GetITStatus+0x12>
    92ea:	295a                	lhu	a4,20(a0)
    92ec:	bfe1                	j	92c4 <USART_GetITStatus+0x12>

000092ee <USART_ClearITPendingBit>:
    92ee:	81a1                	srli	a1,a1,0x8
    92f0:	4785                	li	a5,1
    92f2:	00b797b3          	sll	a5,a5,a1
    92f6:	fff7c793          	not	a5,a5
    92fa:	07c2                	slli	a5,a5,0x10
    92fc:	83c1                	srli	a5,a5,0x10
    92fe:	a11e                	sh	a5,0(a0)
    9300:	8082                	ret

00009302 <fmodf>:
    9302:	715d                	addi	sp,sp,-80
    9304:	c4a2                	sw	s0,72(sp)
    9306:	c2a6                	sw	s1,68(sp)
    9308:	c0ca                	sw	s2,64(sp)
    930a:	de4e                	sw	s3,60(sp)
    930c:	c686                	sw	ra,76(sp)
    930e:	dc52                	sw	s4,56(sp)
    9310:	da56                	sw	s5,52(sp)
    9312:	84aa                	mv	s1,a0
    9314:	842e                	mv	s0,a1
    9316:	285d                	jal	93cc <__ieee754_fmodf>
    9318:	80c18793          	addi	a5,gp,-2036 # 200001cc <__fdlib_version>
    931c:	0007a903          	lw	s2,0(a5) # ffffe000 <_eusrstack+0xdffee000>
    9320:	57fd                	li	a5,-1
    9322:	89aa                	mv	s3,a0
    9324:	06f90e63          	beq	s2,a5,93a0 <fmodf+0x9e>
    9328:	85a2                	mv	a1,s0
    932a:	8522                	mv	a0,s0
    932c:	1fc020ef          	jal	ra,b528 <__unordsf2>
    9330:	e925                	bnez	a0,93a0 <fmodf+0x9e>
    9332:	85a6                	mv	a1,s1
    9334:	8526                	mv	a0,s1
    9336:	1f2020ef          	jal	ra,b528 <__unordsf2>
    933a:	e13d                	bnez	a0,93a0 <fmodf+0x9e>
    933c:	00000593          	li	a1,0
    9340:	8522                	mv	a0,s0
    9342:	25d010ef          	jal	ra,ad9e <__eqsf2>
    9346:	ed29                	bnez	a0,93a0 <fmodf+0x9e>
    9348:	4785                	li	a5,1
    934a:	c43e                	sw	a5,8(sp)
    934c:	8526                	mv	a0,s1
    934e:	00008797          	auipc	a5,0x8
    9352:	b6e78793          	addi	a5,a5,-1170 # 10ebc <__fsym___cmd_cmd_rainbow_name+0x14>
    9356:	c63e                	sw	a5,12(sp)
    9358:	d402                	sw	zero,40(sp)
    935a:	456020ef          	jal	ra,b7b0 <__extendsfdf2>
    935e:	8a2a                	mv	s4,a0
    9360:	8522                	mv	a0,s0
    9362:	8aae                	mv	s5,a1
    9364:	c852                	sw	s4,16(sp)
    9366:	ca2e                	sw	a1,20(sp)
    9368:	448020ef          	jal	ra,b7b0 <__extendsfdf2>
    936c:	cc2a                	sw	a0,24(sp)
    936e:	ce2e                	sw	a1,28(sp)
    9370:	04090263          	beqz	s2,93b4 <fmodf+0xb2>
    9374:	4601                	li	a2,0
    9376:	4681                	li	a3,0
    9378:	8532                	mv	a0,a2
    937a:	85b6                	mv	a1,a3
    937c:	2279                	jal	950a <__divdf3>
    937e:	d02a                	sw	a0,32(sp)
    9380:	d22e                	sw	a1,36(sp)
    9382:	4789                	li	a5,2
    9384:	02f91a63          	bne	s2,a5,93b8 <fmodf+0xb6>
    9388:	6ac020ef          	jal	ra,ba34 <__errno>
    938c:	02100793          	li	a5,33
    9390:	c11c                	sw	a5,0(a0)
    9392:	57a2                	lw	a5,40(sp)
    9394:	e79d                	bnez	a5,93c2 <fmodf+0xc0>
    9396:	5502                	lw	a0,32(sp)
    9398:	5592                	lw	a1,36(sp)
    939a:	4c2020ef          	jal	ra,b85c <__truncdfsf2>
    939e:	89aa                	mv	s3,a0
    93a0:	40b6                	lw	ra,76(sp)
    93a2:	4426                	lw	s0,72(sp)
    93a4:	854e                	mv	a0,s3
    93a6:	4496                	lw	s1,68(sp)
    93a8:	4906                	lw	s2,64(sp)
    93aa:	59f2                	lw	s3,60(sp)
    93ac:	5a62                	lw	s4,56(sp)
    93ae:	5ad2                	lw	s5,52(sp)
    93b0:	6161                	addi	sp,sp,80
    93b2:	8082                	ret
    93b4:	d052                	sw	s4,32(sp)
    93b6:	d256                	sw	s5,36(sp)
    93b8:	0028                	addi	a0,sp,8
    93ba:	22b1                	jal	9506 <matherr>
    93bc:	d571                	beqz	a0,9388 <fmodf+0x86>
    93be:	57a2                	lw	a5,40(sp)
    93c0:	dbf9                	beqz	a5,9396 <fmodf+0x94>
    93c2:	672020ef          	jal	ra,ba34 <__errno>
    93c6:	57a2                	lw	a5,40(sp)
    93c8:	c11c                	sw	a5,0(a0)
    93ca:	b7f1                	j	9396 <fmodf+0x94>

000093cc <__ieee754_fmodf>:
    93cc:	800008b7          	lui	a7,0x80000
    93d0:	fff8c793          	not	a5,a7
    93d4:	00b7f633          	and	a2,a5,a1
    93d8:	882a                	mv	a6,a0
    93da:	ca51                	beqz	a2,946e <__ieee754_fmodf+0xa2>
    93dc:	8fe9                	and	a5,a5,a0
    93de:	7f800737          	lui	a4,0x7f800
    93e2:	08e7d663          	bge	a5,a4,946e <__ieee754_fmodf+0xa2>
    93e6:	08c74463          	blt	a4,a2,946e <__ieee754_fmodf+0xa2>
    93ea:	08c7cd63          	blt	a5,a2,9484 <__ieee754_fmodf+0xb8>
    93ee:	00a8f333          	and	t1,a7,a0
    93f2:	08c78a63          	beq	a5,a2,9486 <__ieee754_fmodf+0xba>
    93f6:	8f69                	and	a4,a4,a0
    93f8:	ef69                	bnez	a4,94d2 <__ieee754_fmodf+0x106>
    93fa:	00879713          	slli	a4,a5,0x8
    93fe:	f8200693          	li	a3,-126
    9402:	00e05663          	blez	a4,940e <__ieee754_fmodf+0x42>
    9406:	0706                	slli	a4,a4,0x1
    9408:	16fd                	addi	a3,a3,-1
    940a:	fee04ee3          	bgtz	a4,9406 <__ieee754_fmodf+0x3a>
    940e:	7f800737          	lui	a4,0x7f800
    9412:	8f6d                	and	a4,a4,a1
    9414:	ef69                	bnez	a4,94ee <__ieee754_fmodf+0x122>
    9416:	00861713          	slli	a4,a2,0x8
    941a:	f8200893          	li	a7,-126
    941e:	00074663          	bltz	a4,942a <__ieee754_fmodf+0x5e>
    9422:	0706                	slli	a4,a4,0x1
    9424:	18fd                	addi	a7,a7,-1
    9426:	fe075ee3          	bgez	a4,9422 <__ieee754_fmodf+0x56>
    942a:	f8200713          	li	a4,-126
    942e:	0ae6cc63          	blt	a3,a4,94e6 <__ieee754_fmodf+0x11a>
    9432:	008007b7          	lui	a5,0x800
    9436:	fff78713          	addi	a4,a5,-1 # 7fffff <__rt_init_end+0x7eed47>
    943a:	01077533          	and	a0,a4,a6
    943e:	8fc9                	or	a5,a5,a0
    9440:	f8200713          	li	a4,-126
    9444:	08e8cc63          	blt	a7,a4,94dc <__ieee754_fmodf+0x110>
    9448:	00800637          	lui	a2,0x800
    944c:	fff60713          	addi	a4,a2,-1 # 7fffff <__rt_init_end+0x7eed47>
    9450:	8df9                	and	a1,a1,a4
    9452:	8e4d                	or	a2,a2,a1
    9454:	41168733          	sub	a4,a3,a7
    9458:	40c786b3          	sub	a3,a5,a2
    945c:	cf15                	beqz	a4,9498 <__ieee754_fmodf+0xcc>
    945e:	0786                	slli	a5,a5,0x1
    9460:	0006c563          	bltz	a3,946a <__ieee754_fmodf+0x9e>
    9464:	c28d                	beqz	a3,9486 <__ieee754_fmodf+0xba>
    9466:	00169793          	slli	a5,a3,0x1
    946a:	177d                	addi	a4,a4,-1
    946c:	b7f5                	j	9458 <__ieee754_fmodf+0x8c>
    946e:	1141                	addi	sp,sp,-16
    9470:	8542                	mv	a0,a6
    9472:	c606                	sw	ra,12(sp)
    9474:	299010ef          	jal	ra,af0c <__mulsf3>
    9478:	85aa                	mv	a1,a0
    947a:	672010ef          	jal	ra,aaec <__divsf3>
    947e:	40b2                	lw	ra,12(sp)
    9480:	0141                	addi	sp,sp,16
    9482:	8082                	ret
    9484:	8082                	ret
    9486:	01f35793          	srli	a5,t1,0x1f
    948a:	00279893          	slli	a7,a5,0x2
    948e:	82418793          	addi	a5,gp,-2012 # 200001e4 <Zero>
    9492:	97c6                	add	a5,a5,a7
    9494:	4388                	lw	a0,0(a5)
    9496:	8082                	ret
    9498:	0006c363          	bltz	a3,949e <__ieee754_fmodf+0xd2>
    949c:	87b6                	mv	a5,a3
    949e:	d7e5                	beqz	a5,9486 <__ieee754_fmodf+0xba>
    94a0:	008006b7          	lui	a3,0x800
    94a4:	00800737          	lui	a4,0x800
    94a8:	00d7d663          	bge	a5,a3,94b4 <__ieee754_fmodf+0xe8>
    94ac:	0786                	slli	a5,a5,0x1
    94ae:	18fd                	addi	a7,a7,-1
    94b0:	fee7cee3          	blt	a5,a4,94ac <__ieee754_fmodf+0xe0>
    94b4:	f8200713          	li	a4,-126
    94b8:	04e8c063          	blt	a7,a4,94f8 <__ieee754_fmodf+0x12c>
    94bc:	ff800737          	lui	a4,0xff800
    94c0:	973e                	add	a4,a4,a5
    94c2:	07f88893          	addi	a7,a7,127 # 8000007f <_eusrstack+0x5fff007f>
    94c6:	08de                	slli	a7,a7,0x17
    94c8:	006767b3          	or	a5,a4,t1
    94cc:	00f8e533          	or	a0,a7,a5
    94d0:	8082                	ret
    94d2:	4177d693          	srai	a3,a5,0x17
    94d6:	f8168693          	addi	a3,a3,-127 # 7fff81 <__rt_init_end+0x7eecc9>
    94da:	bf15                	j	940e <__ieee754_fmodf+0x42>
    94dc:	41170733          	sub	a4,a4,a7
    94e0:	00e61633          	sll	a2,a2,a4
    94e4:	bf85                	j	9454 <__ieee754_fmodf+0x88>
    94e6:	8f15                	sub	a4,a4,a3
    94e8:	00e797b3          	sll	a5,a5,a4
    94ec:	bf91                	j	9440 <__ieee754_fmodf+0x74>
    94ee:	41765893          	srai	a7,a2,0x17
    94f2:	f8188893          	addi	a7,a7,-127
    94f6:	bf15                	j	942a <__ieee754_fmodf+0x5e>
    94f8:	411708b3          	sub	a7,a4,a7
    94fc:	4117d7b3          	sra	a5,a5,a7
    9500:	0067e533          	or	a0,a5,t1
    9504:	8082                	ret

00009506 <matherr>:
    9506:	4501                	li	a0,0
    9508:	8082                	ret

0000950a <__divdf3>:
    950a:	7139                	addi	sp,sp,-64
    950c:	0145d793          	srli	a5,a1,0x14
    9510:	dc22                	sw	s0,56(sp)
    9512:	d84a                	sw	s2,48(sp)
    9514:	d256                	sw	s5,36(sp)
    9516:	892a                	mv	s2,a0
    9518:	00c59413          	slli	s0,a1,0xc
    951c:	de06                	sw	ra,60(sp)
    951e:	da26                	sw	s1,52(sp)
    9520:	d64e                	sw	s3,44(sp)
    9522:	d452                	sw	s4,40(sp)
    9524:	d05a                	sw	s6,32(sp)
    9526:	ce5e                	sw	s7,28(sp)
    9528:	7ff7f513          	andi	a0,a5,2047
    952c:	8031                	srli	s0,s0,0xc
    952e:	01f5da93          	srli	s5,a1,0x1f
    9532:	10050b63          	beqz	a0,9648 <__divdf3+0x13e>
    9536:	7ff00793          	li	a5,2047
    953a:	14f50b63          	beq	a0,a5,9690 <__divdf3+0x186>
    953e:	01d95a13          	srli	s4,s2,0x1d
    9542:	040e                	slli	s0,s0,0x3
    9544:	008a6433          	or	s0,s4,s0
    9548:	00800a37          	lui	s4,0x800
    954c:	01446a33          	or	s4,s0,s4
    9550:	00391b13          	slli	s6,s2,0x3
    9554:	c0150493          	addi	s1,a0,-1023
    9558:	4401                	li	s0,0
    955a:	4b81                	li	s7,0
    955c:	0146d813          	srli	a6,a3,0x14
    9560:	00c69913          	slli	s2,a3,0xc
    9564:	7ff87813          	andi	a6,a6,2047
    9568:	88b2                	mv	a7,a2
    956a:	00c95913          	srli	s2,s2,0xc
    956e:	01f6d993          	srli	s3,a3,0x1f
    9572:	08080e63          	beqz	a6,960e <__divdf3+0x104>
    9576:	7ff00793          	li	a5,2047
    957a:	04f80063          	beq	a6,a5,95ba <__divdf3+0xb0>
    957e:	01d65713          	srli	a4,a2,0x1d
    9582:	090e                	slli	s2,s2,0x3
    9584:	01276933          	or	s2,a4,s2
    9588:	c0180813          	addi	a6,a6,-1023
    958c:	008007b7          	lui	a5,0x800
    9590:	00f96733          	or	a4,s2,a5
    9594:	00361893          	slli	a7,a2,0x3
    9598:	410484b3          	sub	s1,s1,a6
    959c:	4581                	li	a1,0
    959e:	47bd                	li	a5,15
    95a0:	013ac833          	xor	a6,s5,s3
    95a4:	1a87e463          	bltu	a5,s0,974c <__divdf3+0x242>
    95a8:	00008797          	auipc	a5,0x8
    95ac:	91c78793          	addi	a5,a5,-1764 # 10ec4 <__fsym___cmd_cmd_rainbow_name+0x1c>
    95b0:	040a                	slli	s0,s0,0x2
    95b2:	943e                	add	s0,s0,a5
    95b4:	4010                	lw	a2,0(s0)
    95b6:	963e                	add	a2,a2,a5
    95b8:	8602                	jr	a2
    95ba:	00c96733          	or	a4,s2,a2
    95be:	80148493          	addi	s1,s1,-2047
    95c2:	10071263          	bnez	a4,96c6 <__divdf3+0x1bc>
    95c6:	00246413          	ori	s0,s0,2
    95ca:	4881                	li	a7,0
    95cc:	4589                	li	a1,2
    95ce:	bfc1                	j	959e <__divdf3+0x94>
    95d0:	7ff00613          	li	a2,2047
    95d4:	4781                	li	a5,0
    95d6:	4701                	li	a4,0
    95d8:	07b2                	slli	a5,a5,0xc
    95da:	50f2                	lw	ra,60(sp)
    95dc:	5462                	lw	s0,56(sp)
    95de:	0652                	slli	a2,a2,0x14
    95e0:	83b1                	srli	a5,a5,0xc
    95e2:	087e                	slli	a6,a6,0x1f
    95e4:	8fd1                	or	a5,a5,a2
    95e6:	0107e7b3          	or	a5,a5,a6
    95ea:	54d2                	lw	s1,52(sp)
    95ec:	5942                	lw	s2,48(sp)
    95ee:	59b2                	lw	s3,44(sp)
    95f0:	5a22                	lw	s4,40(sp)
    95f2:	5a92                	lw	s5,36(sp)
    95f4:	5b02                	lw	s6,32(sp)
    95f6:	4bf2                	lw	s7,28(sp)
    95f8:	853a                	mv	a0,a4
    95fa:	85be                	mv	a1,a5
    95fc:	6121                	addi	sp,sp,64
    95fe:	8082                	ret
    9600:	4801                	li	a6,0
    9602:	7ff00613          	li	a2,2047
    9606:	000807b7          	lui	a5,0x80
    960a:	4701                	li	a4,0
    960c:	b7f1                	j	95d8 <__divdf3+0xce>
    960e:	00c96733          	or	a4,s2,a2
    9612:	c74d                	beqz	a4,96bc <__divdf3+0x1b2>
    9614:	30090863          	beqz	s2,9924 <__divdf3+0x41a>
    9618:	854a                	mv	a0,s2
    961a:	c432                	sw	a2,8(sp)
    961c:	3aa020ef          	jal	ra,b9c6 <__clzsi2>
    9620:	4622                	lw	a2,8(sp)
    9622:	ff550713          	addi	a4,a0,-11
    9626:	47f5                	li	a5,29
    9628:	ff850693          	addi	a3,a0,-8
    962c:	8f99                	sub	a5,a5,a4
    962e:	00d91933          	sll	s2,s2,a3
    9632:	00f657b3          	srl	a5,a2,a5
    9636:	0127e733          	or	a4,a5,s2
    963a:	00d618b3          	sll	a7,a2,a3
    963e:	9526                	add	a0,a0,s1
    9640:	3f350493          	addi	s1,a0,1011
    9644:	4581                	li	a1,0
    9646:	bfa1                	j	959e <__divdf3+0x94>
    9648:	01246a33          	or	s4,s0,s2
    964c:	060a0363          	beqz	s4,96b2 <__divdf3+0x1a8>
    9650:	c636                	sw	a3,12(sp)
    9652:	c432                	sw	a2,8(sp)
    9654:	2a040663          	beqz	s0,9900 <__divdf3+0x3f6>
    9658:	8522                	mv	a0,s0
    965a:	36c020ef          	jal	ra,b9c6 <__clzsi2>
    965e:	4622                	lw	a2,8(sp)
    9660:	46b2                	lw	a3,12(sp)
    9662:	84aa                	mv	s1,a0
    9664:	ff550713          	addi	a4,a0,-11
    9668:	4a75                	li	s4,29
    966a:	ff848b13          	addi	s6,s1,-8
    966e:	40ea0a33          	sub	s4,s4,a4
    9672:	01641433          	sll	s0,s0,s6
    9676:	01495a33          	srl	s4,s2,s4
    967a:	008a6a33          	or	s4,s4,s0
    967e:	01691b33          	sll	s6,s2,s6
    9682:	c0d00513          	li	a0,-1011
    9686:	409504b3          	sub	s1,a0,s1
    968a:	4401                	li	s0,0
    968c:	4b81                	li	s7,0
    968e:	b5f9                	j	955c <__divdf3+0x52>
    9690:	01246a33          	or	s4,s0,s2
    9694:	000a1863          	bnez	s4,96a4 <__divdf3+0x19a>
    9698:	4421                	li	s0,8
    969a:	4b01                	li	s6,0
    969c:	7ff00493          	li	s1,2047
    96a0:	4b89                	li	s7,2
    96a2:	bd6d                	j	955c <__divdf3+0x52>
    96a4:	8a22                	mv	s4,s0
    96a6:	8b4a                	mv	s6,s2
    96a8:	4431                	li	s0,12
    96aa:	7ff00493          	li	s1,2047
    96ae:	4b8d                	li	s7,3
    96b0:	b575                	j	955c <__divdf3+0x52>
    96b2:	4411                	li	s0,4
    96b4:	4b01                	li	s6,0
    96b6:	4481                	li	s1,0
    96b8:	4b85                	li	s7,1
    96ba:	b54d                	j	955c <__divdf3+0x52>
    96bc:	00146413          	ori	s0,s0,1
    96c0:	4881                	li	a7,0
    96c2:	4585                	li	a1,1
    96c4:	bde9                	j	959e <__divdf3+0x94>
    96c6:	00346413          	ori	s0,s0,3
    96ca:	874a                	mv	a4,s2
    96cc:	458d                	li	a1,3
    96ce:	bdc1                	j	959e <__divdf3+0x94>
    96d0:	2e050a63          	beqz	a0,99c4 <__divdf3+0x4ba>
    96d4:	4785                	li	a5,1
    96d6:	8f89                	sub	a5,a5,a0
    96d8:	03800693          	li	a3,56
    96dc:	32f6dd63          	bge	a3,a5,9a16 <__divdf3+0x50c>
    96e0:	4601                	li	a2,0
    96e2:	4781                	li	a5,0
    96e4:	4701                	li	a4,0
    96e6:	bdcd                	j	95d8 <__divdf3+0xce>
    96e8:	86ce                	mv	a3,s3
    96ea:	4789                	li	a5,2
    96ec:	3af58d63          	beq	a1,a5,9aa6 <__divdf3+0x59c>
    96f0:	478d                	li	a5,3
    96f2:	f0f587e3          	beq	a1,a5,9600 <__divdf3+0xf6>
    96f6:	4785                	li	a5,1
    96f8:	8836                	mv	a6,a3
    96fa:	fef583e3          	beq	a1,a5,96e0 <__divdf3+0x1d6>
    96fe:	3ff48513          	addi	a0,s1,1023
    9702:	fca057e3          	blez	a0,96d0 <__divdf3+0x1c6>
    9706:	0078f793          	andi	a5,a7,7
    970a:	28079663          	bnez	a5,9996 <__divdf3+0x48c>
    970e:	0038d693          	srli	a3,a7,0x3
    9712:	00771793          	slli	a5,a4,0x7
    9716:	0007d863          	bgez	a5,9726 <__divdf3+0x21c>
    971a:	ff0007b7          	lui	a5,0xff000
    971e:	17fd                	addi	a5,a5,-1
    9720:	8f7d                	and	a4,a4,a5
    9722:	40048513          	addi	a0,s1,1024
    9726:	7fe00793          	li	a5,2046
    972a:	eaa7c3e3          	blt	a5,a0,95d0 <__divdf3+0xc6>
    972e:	01d71613          	slli	a2,a4,0x1d
    9732:	00971793          	slli	a5,a4,0x9
    9736:	83b1                	srli	a5,a5,0xc
    9738:	00d66733          	or	a4,a2,a3
    973c:	7ff57613          	andi	a2,a0,2047
    9740:	bd61                	j	95d8 <__divdf3+0xce>
    9742:	86d6                	mv	a3,s5
    9744:	8752                	mv	a4,s4
    9746:	88da                	mv	a7,s6
    9748:	85de                	mv	a1,s7
    974a:	b745                	j	96ea <__divdf3+0x1e0>
    974c:	23476163          	bltu	a4,s4,996e <__divdf3+0x464>
    9750:	20ea0d63          	beq	s4,a4,996a <__divdf3+0x460>
    9754:	86da                	mv	a3,s6
    9756:	14fd                	addi	s1,s1,-1
    9758:	8452                	mv	s0,s4
    975a:	4b01                	li	s6,0
    975c:	00871793          	slli	a5,a4,0x8
    9760:	0188d313          	srli	t1,a7,0x18
    9764:	00f36333          	or	t1,t1,a5
    9768:	01035e93          	srli	t4,t1,0x10
    976c:	03d457b3          	divu	a5,s0,t4
    9770:	01031f13          	slli	t5,t1,0x10
    9774:	010f5f13          	srli	t5,t5,0x10
    9778:	0106d593          	srli	a1,a3,0x10
    977c:	00889e13          	slli	t3,a7,0x8
    9780:	03d47433          	remu	s0,s0,t4
    9784:	02ff0733          	mul	a4,t5,a5
    9788:	0442                	slli	s0,s0,0x10
    978a:	8dc1                	or	a1,a1,s0
    978c:	00e5fb63          	bgeu	a1,a4,97a2 <__divdf3+0x298>
    9790:	959a                	add	a1,a1,t1
    9792:	fff78613          	addi	a2,a5,-1 # feffffff <_eusrstack+0xdefeffff>
    9796:	2665ee63          	bltu	a1,t1,9a12 <__divdf3+0x508>
    979a:	26e5fc63          	bgeu	a1,a4,9a12 <__divdf3+0x508>
    979e:	17f9                	addi	a5,a5,-2
    97a0:	959a                	add	a1,a1,t1
    97a2:	8d99                	sub	a1,a1,a4
    97a4:	03d5d733          	divu	a4,a1,t4
    97a8:	06c2                	slli	a3,a3,0x10
    97aa:	82c1                	srli	a3,a3,0x10
    97ac:	03d5f5b3          	remu	a1,a1,t4
    97b0:	02ef0633          	mul	a2,t5,a4
    97b4:	05c2                	slli	a1,a1,0x10
    97b6:	8dd5                	or	a1,a1,a3
    97b8:	00c5fb63          	bgeu	a1,a2,97ce <__divdf3+0x2c4>
    97bc:	959a                	add	a1,a1,t1
    97be:	fff70693          	addi	a3,a4,-1 # ff7fffff <_eusrstack+0xdf7effff>
    97c2:	2465e663          	bltu	a1,t1,9a0e <__divdf3+0x504>
    97c6:	24c5f463          	bgeu	a1,a2,9a0e <__divdf3+0x504>
    97ca:	1779                	addi	a4,a4,-2
    97cc:	959a                	add	a1,a1,t1
    97ce:	07c2                	slli	a5,a5,0x10
    97d0:	6441                	lui	s0,0x10
    97d2:	8f5d                	or	a4,a4,a5
    97d4:	fff40793          	addi	a5,s0,-1 # ffff <asc2_3216+0x13f3>
    97d8:	00f77533          	and	a0,a4,a5
    97dc:	01075893          	srli	a7,a4,0x10
    97e0:	010e5f93          	srli	t6,t3,0x10
    97e4:	00fe77b3          	and	a5,t3,a5
    97e8:	02f502b3          	mul	t0,a0,a5
    97ec:	40c586b3          	sub	a3,a1,a2
    97f0:	02f883b3          	mul	t2,a7,a5
    97f4:	0102d593          	srli	a1,t0,0x10
    97f8:	02af8633          	mul	a2,t6,a0
    97fc:	961e                	add	a2,a2,t2
    97fe:	962e                	add	a2,a2,a1
    9800:	03f88533          	mul	a0,a7,t6
    9804:	00767363          	bgeu	a2,t2,980a <__divdf3+0x300>
    9808:	9522                	add	a0,a0,s0
    980a:	68c1                	lui	a7,0x10
    980c:	18fd                	addi	a7,a7,-1
    980e:	01065593          	srli	a1,a2,0x10
    9812:	01167633          	and	a2,a2,a7
    9816:	0642                	slli	a2,a2,0x10
    9818:	0112f8b3          	and	a7,t0,a7
    981c:	95aa                	add	a1,a1,a0
    981e:	9646                	add	a2,a2,a7
    9820:	12b6e663          	bltu	a3,a1,994c <__divdf3+0x442>
    9824:	12b68263          	beq	a3,a1,9948 <__divdf3+0x43e>
    9828:	40cb0633          	sub	a2,s6,a2
    982c:	8e8d                	sub	a3,a3,a1
    982e:	00cb3b33          	sltu	s6,s6,a2
    9832:	41668b33          	sub	s6,a3,s6
    9836:	3ff48513          	addi	a0,s1,1023
    983a:	17630c63          	beq	t1,s6,99b2 <__divdf3+0x4a8>
    983e:	03db58b3          	divu	a7,s6,t4
    9842:	01065593          	srli	a1,a2,0x10
    9846:	03db7b33          	remu	s6,s6,t4
    984a:	031f06b3          	mul	a3,t5,a7
    984e:	0b42                	slli	s6,s6,0x10
    9850:	0165eb33          	or	s6,a1,s6
    9854:	00db7b63          	bgeu	s6,a3,986a <__divdf3+0x360>
    9858:	9b1a                	add	s6,s6,t1
    985a:	fff88593          	addi	a1,a7,-1 # ffff <asc2_3216+0x13f3>
    985e:	206b6d63          	bltu	s6,t1,9a78 <__divdf3+0x56e>
    9862:	20db7b63          	bgeu	s6,a3,9a78 <__divdf3+0x56e>
    9866:	18f9                	addi	a7,a7,-2
    9868:	9b1a                	add	s6,s6,t1
    986a:	40db0b33          	sub	s6,s6,a3
    986e:	03db56b3          	divu	a3,s6,t4
    9872:	0642                	slli	a2,a2,0x10
    9874:	8241                	srli	a2,a2,0x10
    9876:	03db7b33          	remu	s6,s6,t4
    987a:	02df0f33          	mul	t5,t5,a3
    987e:	0b42                	slli	s6,s6,0x10
    9880:	01666633          	or	a2,a2,s6
    9884:	01e67b63          	bgeu	a2,t5,989a <__divdf3+0x390>
    9888:	961a                	add	a2,a2,t1
    988a:	fff68593          	addi	a1,a3,-1
    988e:	1e666763          	bltu	a2,t1,9a7c <__divdf3+0x572>
    9892:	1fe67563          	bgeu	a2,t5,9a7c <__divdf3+0x572>
    9896:	16f9                	addi	a3,a3,-2
    9898:	961a                	add	a2,a2,t1
    989a:	08c2                	slli	a7,a7,0x10
    989c:	00d8e8b3          	or	a7,a7,a3
    98a0:	01089593          	slli	a1,a7,0x10
    98a4:	0108d293          	srli	t0,a7,0x10
    98a8:	81c1                	srli	a1,a1,0x10
    98aa:	02f58eb3          	mul	t4,a1,a5
    98ae:	41e60633          	sub	a2,a2,t5
    98b2:	02bf85b3          	mul	a1,t6,a1
    98b6:	010ed693          	srli	a3,t4,0x10
    98ba:	02f287b3          	mul	a5,t0,a5
    98be:	95be                	add	a1,a1,a5
    98c0:	96ae                	add	a3,a3,a1
    98c2:	025f8fb3          	mul	t6,t6,t0
    98c6:	00f6f463          	bgeu	a3,a5,98ce <__divdf3+0x3c4>
    98ca:	67c1                	lui	a5,0x10
    98cc:	9fbe                	add	t6,t6,a5
    98ce:	65c1                	lui	a1,0x10
    98d0:	15fd                	addi	a1,a1,-1
    98d2:	0106d793          	srli	a5,a3,0x10
    98d6:	8eed                	and	a3,a3,a1
    98d8:	06c2                	slli	a3,a3,0x10
    98da:	00befeb3          	and	t4,t4,a1
    98de:	9fbe                	add	t6,t6,a5
    98e0:	96f6                	add	a3,a3,t4
    98e2:	09f67f63          	bgeu	a2,t6,9980 <__divdf3+0x476>
    98e6:	961a                	add	a2,a2,t1
    98e8:	fff88793          	addi	a5,a7,-1
    98ec:	1a666963          	bltu	a2,t1,9a9e <__divdf3+0x594>
    98f0:	19f66863          	bltu	a2,t6,9a80 <__divdf3+0x576>
    98f4:	1bf60f63          	beq	a2,t6,9ab2 <__divdf3+0x5a8>
    98f8:	88be                	mv	a7,a5
    98fa:	0018e893          	ori	a7,a7,1
    98fe:	b511                	j	9702 <__divdf3+0x1f8>
    9900:	854a                	mv	a0,s2
    9902:	0c4020ef          	jal	ra,b9c6 <__clzsi2>
    9906:	01550713          	addi	a4,a0,21
    990a:	45f1                	li	a1,28
    990c:	02050493          	addi	s1,a0,32
    9910:	4622                	lw	a2,8(sp)
    9912:	46b2                	lw	a3,12(sp)
    9914:	d4e5dae3          	bge	a1,a4,9668 <__divdf3+0x15e>
    9918:	ff850413          	addi	s0,a0,-8
    991c:	00891a33          	sll	s4,s2,s0
    9920:	4b01                	li	s6,0
    9922:	b385                	j	9682 <__divdf3+0x178>
    9924:	8532                	mv	a0,a2
    9926:	c432                	sw	a2,8(sp)
    9928:	09e020ef          	jal	ra,b9c6 <__clzsi2>
    992c:	01550713          	addi	a4,a0,21
    9930:	46f1                	li	a3,28
    9932:	87aa                	mv	a5,a0
    9934:	4622                	lw	a2,8(sp)
    9936:	02050513          	addi	a0,a0,32
    993a:	cee6d6e3          	bge	a3,a4,9626 <__divdf3+0x11c>
    993e:	17e1                	addi	a5,a5,-8
    9940:	00f61733          	sll	a4,a2,a5
    9944:	4881                	li	a7,0
    9946:	b9e5                	j	963e <__divdf3+0x134>
    9948:	eecb70e3          	bgeu	s6,a2,9828 <__divdf3+0x31e>
    994c:	9b72                	add	s6,s6,t3
    994e:	01cb3533          	sltu	a0,s6,t3
    9952:	951a                	add	a0,a0,t1
    9954:	96aa                	add	a3,a3,a0
    9956:	fff70513          	addi	a0,a4,-1
    995a:	02d37863          	bgeu	t1,a3,998a <__divdf3+0x480>
    995e:	10b6e663          	bltu	a3,a1,9a6a <__divdf3+0x560>
    9962:	10d58263          	beq	a1,a3,9a66 <__divdf3+0x55c>
    9966:	872a                	mv	a4,a0
    9968:	b5c1                	j	9828 <__divdf3+0x31e>
    996a:	df1b65e3          	bltu	s6,a7,9754 <__divdf3+0x24a>
    996e:	001b5593          	srli	a1,s6,0x1
    9972:	01fa1693          	slli	a3,s4,0x1f
    9976:	001a5413          	srli	s0,s4,0x1
    997a:	8ecd                	or	a3,a3,a1
    997c:	0b7e                	slli	s6,s6,0x1f
    997e:	bbf9                	j	975c <__divdf3+0x252>
    9980:	f7f61de3          	bne	a2,t6,98fa <__divdf3+0x3f0>
    9984:	d6068fe3          	beqz	a3,9702 <__divdf3+0x1f8>
    9988:	bfb9                	j	98e6 <__divdf3+0x3dc>
    998a:	fcd31ee3          	bne	t1,a3,9966 <__divdf3+0x45c>
    998e:	fdcb78e3          	bgeu	s6,t3,995e <__divdf3+0x454>
    9992:	872a                	mv	a4,a0
    9994:	bd51                	j	9828 <__divdf3+0x31e>
    9996:	00f8f793          	andi	a5,a7,15
    999a:	4691                	li	a3,4
    999c:	d6d789e3          	beq	a5,a3,970e <__divdf3+0x204>
    99a0:	ffc8b793          	sltiu	a5,a7,-4
    99a4:	00488693          	addi	a3,a7,4
    99a8:	0017c793          	xori	a5,a5,1
    99ac:	828d                	srli	a3,a3,0x3
    99ae:	973e                	add	a4,a4,a5
    99b0:	b38d                	j	9712 <__divdf3+0x208>
    99b2:	4681                	li	a3,0
    99b4:	4785                	li	a5,1
    99b6:	fea04ce3          	bgtz	a0,99ae <__divdf3+0x4a4>
    99ba:	58fd                	li	a7,-1
    99bc:	d0051ce3          	bnez	a0,96d4 <__divdf3+0x1ca>
    99c0:	c0100493          	li	s1,-1023
    99c4:	4785                	li	a5,1
    99c6:	41e48513          	addi	a0,s1,1054
    99ca:	00a716b3          	sll	a3,a4,a0
    99ce:	00f8d633          	srl	a2,a7,a5
    99d2:	00a89533          	sll	a0,a7,a0
    99d6:	8ed1                	or	a3,a3,a2
    99d8:	00a03533          	snez	a0,a0
    99dc:	8ec9                	or	a3,a3,a0
    99de:	0076f613          	andi	a2,a3,7
    99e2:	00f75733          	srl	a4,a4,a5
    99e6:	ce01                	beqz	a2,99fe <__divdf3+0x4f4>
    99e8:	00f6f793          	andi	a5,a3,15
    99ec:	4611                	li	a2,4
    99ee:	00c78863          	beq	a5,a2,99fe <__divdf3+0x4f4>
    99f2:	00468793          	addi	a5,a3,4
    99f6:	00d7b6b3          	sltu	a3,a5,a3
    99fa:	9736                	add	a4,a4,a3
    99fc:	86be                	mv	a3,a5
    99fe:	00871793          	slli	a5,a4,0x8
    9a02:	0407d863          	bgez	a5,9a52 <__divdf3+0x548>
    9a06:	4605                	li	a2,1
    9a08:	4781                	li	a5,0
    9a0a:	4701                	li	a4,0
    9a0c:	b6f1                	j	95d8 <__divdf3+0xce>
    9a0e:	8736                	mv	a4,a3
    9a10:	bb7d                	j	97ce <__divdf3+0x2c4>
    9a12:	87b2                	mv	a5,a2
    9a14:	b379                	j	97a2 <__divdf3+0x298>
    9a16:	46fd                	li	a3,31
    9a18:	faf6d7e3          	bge	a3,a5,99c6 <__divdf3+0x4bc>
    9a1c:	5605                	li	a2,-31
    9a1e:	8e09                	sub	a2,a2,a0
    9a20:	02000693          	li	a3,32
    9a24:	00c75633          	srl	a2,a4,a2
    9a28:	00d78863          	beq	a5,a3,9a38 <__divdf3+0x52e>
    9a2c:	43e48793          	addi	a5,s1,1086
    9a30:	00f717b3          	sll	a5,a4,a5
    9a34:	00f8e8b3          	or	a7,a7,a5
    9a38:	011036b3          	snez	a3,a7
    9a3c:	8ed1                	or	a3,a3,a2
    9a3e:	0076f613          	andi	a2,a3,7
    9a42:	4781                	li	a5,0
    9a44:	ce01                	beqz	a2,9a5c <__divdf3+0x552>
    9a46:	00f6f793          	andi	a5,a3,15
    9a4a:	4611                	li	a2,4
    9a4c:	4701                	li	a4,0
    9a4e:	fac792e3          	bne	a5,a2,99f2 <__divdf3+0x4e8>
    9a52:	00971793          	slli	a5,a4,0x9
    9a56:	01d71613          	slli	a2,a4,0x1d
    9a5a:	83b1                	srli	a5,a5,0xc
    9a5c:	0036d713          	srli	a4,a3,0x3
    9a60:	8f51                	or	a4,a4,a2
    9a62:	4601                	li	a2,0
    9a64:	be95                	j	95d8 <__divdf3+0xce>
    9a66:	f0cb70e3          	bgeu	s6,a2,9966 <__divdf3+0x45c>
    9a6a:	9b72                	add	s6,s6,t3
    9a6c:	01cb3533          	sltu	a0,s6,t3
    9a70:	951a                	add	a0,a0,t1
    9a72:	1779                	addi	a4,a4,-2
    9a74:	96aa                	add	a3,a3,a0
    9a76:	bb4d                	j	9828 <__divdf3+0x31e>
    9a78:	88ae                	mv	a7,a1
    9a7a:	bbc5                	j	986a <__divdf3+0x360>
    9a7c:	86ae                	mv	a3,a1
    9a7e:	bd31                	j	989a <__divdf3+0x390>
    9a80:	001e1793          	slli	a5,t3,0x1
    9a84:	01c7be33          	sltu	t3,a5,t3
    9a88:	9372                	add	t1,t1,t3
    9a8a:	961a                	add	a2,a2,t1
    9a8c:	18f9                	addi	a7,a7,-2
    9a8e:	8e3e                	mv	t3,a5
    9a90:	e7f615e3          	bne	a2,t6,98fa <__divdf3+0x3f0>
    9a94:	c6de07e3          	beq	t3,a3,9702 <__divdf3+0x1f8>
    9a98:	0018e893          	ori	a7,a7,1
    9a9c:	b19d                	j	9702 <__divdf3+0x1f8>
    9a9e:	88be                	mv	a7,a5
    9aa0:	fff60ae3          	beq	a2,t6,9a94 <__divdf3+0x58a>
    9aa4:	bd99                	j	98fa <__divdf3+0x3f0>
    9aa6:	8836                	mv	a6,a3
    9aa8:	7ff00613          	li	a2,2047
    9aac:	4781                	li	a5,0
    9aae:	4701                	li	a4,0
    9ab0:	b625                	j	95d8 <__divdf3+0xce>
    9ab2:	fcde67e3          	bltu	t3,a3,9a80 <__divdf3+0x576>
    9ab6:	88be                	mv	a7,a5
    9ab8:	fede10e3          	bne	t3,a3,9a98 <__divdf3+0x58e>
    9abc:	b199                	j	9702 <__divdf3+0x1f8>

00009abe <__muldf3>:
    9abe:	7139                	addi	sp,sp,-64
    9ac0:	d84a                	sw	s2,48(sp)
    9ac2:	0145d913          	srli	s2,a1,0x14
    9ac6:	d64e                	sw	s3,44(sp)
    9ac8:	d452                	sw	s4,40(sp)
    9aca:	d256                	sw	s5,36(sp)
    9acc:	00c59993          	slli	s3,a1,0xc
    9ad0:	de06                	sw	ra,60(sp)
    9ad2:	dc22                	sw	s0,56(sp)
    9ad4:	da26                	sw	s1,52(sp)
    9ad6:	d05a                	sw	s6,32(sp)
    9ad8:	ce5e                	sw	s7,28(sp)
    9ada:	7ff97913          	andi	s2,s2,2047
    9ade:	8a2a                	mv	s4,a0
    9ae0:	00c9d993          	srli	s3,s3,0xc
    9ae4:	01f5da93          	srli	s5,a1,0x1f
    9ae8:	0e090d63          	beqz	s2,9be2 <__muldf3+0x124>
    9aec:	7ff00793          	li	a5,2047
    9af0:	18f90663          	beq	s2,a5,9c7c <__muldf3+0x1be>
    9af4:	01d55413          	srli	s0,a0,0x1d
    9af8:	098e                	slli	s3,s3,0x3
    9afa:	013469b3          	or	s3,s0,s3
    9afe:	00800437          	lui	s0,0x800
    9b02:	0089e433          	or	s0,s3,s0
    9b06:	00351493          	slli	s1,a0,0x3
    9b0a:	c0190913          	addi	s2,s2,-1023
    9b0e:	4981                	li	s3,0
    9b10:	4b81                	li	s7,0
    9b12:	0146d713          	srli	a4,a3,0x14
    9b16:	00c69a13          	slli	s4,a3,0xc
    9b1a:	7ff77713          	andi	a4,a4,2047
    9b1e:	85b2                	mv	a1,a2
    9b20:	00ca5a13          	srli	s4,s4,0xc
    9b24:	01f6db13          	srli	s6,a3,0x1f
    9b28:	10070b63          	beqz	a4,9c3e <__muldf3+0x180>
    9b2c:	7ff00793          	li	a5,2047
    9b30:	04f70363          	beq	a4,a5,9b76 <__muldf3+0xb8>
    9b34:	01d65793          	srli	a5,a2,0x1d
    9b38:	0a0e                	slli	s4,s4,0x3
    9b3a:	0147ea33          	or	s4,a5,s4
    9b3e:	c0170713          	addi	a4,a4,-1023
    9b42:	008007b7          	lui	a5,0x800
    9b46:	00fa67b3          	or	a5,s4,a5
    9b4a:	00361593          	slli	a1,a2,0x3
    9b4e:	993a                	add	s2,s2,a4
    9b50:	4881                	li	a7,0
    9b52:	016ac733          	xor	a4,s5,s6
    9b56:	46bd                	li	a3,15
    9b58:	853a                	mv	a0,a4
    9b5a:	00190813          	addi	a6,s2,1
    9b5e:	1736e863          	bltu	a3,s3,9cce <__muldf3+0x210>
    9b62:	00007617          	auipc	a2,0x7
    9b66:	3a260613          	addi	a2,a2,930 # 10f04 <__fsym___cmd_cmd_rainbow_name+0x5c>
    9b6a:	098a                	slli	s3,s3,0x2
    9b6c:	99b2                	add	s3,s3,a2
    9b6e:	0009a683          	lw	a3,0(s3)
    9b72:	96b2                	add	a3,a3,a2
    9b74:	8682                	jr	a3
    9b76:	00ca67b3          	or	a5,s4,a2
    9b7a:	7ff90913          	addi	s2,s2,2047
    9b7e:	12079963          	bnez	a5,9cb0 <__muldf3+0x1f2>
    9b82:	0029e993          	ori	s3,s3,2
    9b86:	4581                	li	a1,0
    9b88:	4889                	li	a7,2
    9b8a:	b7e1                	j	9b52 <__muldf3+0x94>
    9b8c:	4701                	li	a4,0
    9b8e:	7ff00793          	li	a5,2047
    9b92:	00080437          	lui	s0,0x80
    9b96:	4481                	li	s1,0
    9b98:	0432                	slli	s0,s0,0xc
    9b9a:	07d2                	slli	a5,a5,0x14
    9b9c:	8031                	srli	s0,s0,0xc
    9b9e:	077e                	slli	a4,a4,0x1f
    9ba0:	8c5d                	or	s0,s0,a5
    9ba2:	8c59                	or	s0,s0,a4
    9ba4:	85a2                	mv	a1,s0
    9ba6:	50f2                	lw	ra,60(sp)
    9ba8:	5462                	lw	s0,56(sp)
    9baa:	8526                	mv	a0,s1
    9bac:	5942                	lw	s2,48(sp)
    9bae:	54d2                	lw	s1,52(sp)
    9bb0:	59b2                	lw	s3,44(sp)
    9bb2:	5a22                	lw	s4,40(sp)
    9bb4:	5a92                	lw	s5,36(sp)
    9bb6:	5b02                	lw	s6,32(sp)
    9bb8:	4bf2                	lw	s7,28(sp)
    9bba:	6121                	addi	sp,sp,64
    9bbc:	8082                	ret
    9bbe:	855a                	mv	a0,s6
    9bc0:	843e                	mv	s0,a5
    9bc2:	84ae                	mv	s1,a1
    9bc4:	8bc6                	mv	s7,a7
    9bc6:	4789                	li	a5,2
    9bc8:	0efb8d63          	beq	s7,a5,9cc2 <__muldf3+0x204>
    9bcc:	478d                	li	a5,3
    9bce:	fafb8fe3          	beq	s7,a5,9b8c <__muldf3+0xce>
    9bd2:	4785                	li	a5,1
    9bd4:	872a                	mv	a4,a0
    9bd6:	38fb9e63          	bne	s7,a5,9f72 <__muldf3+0x4b4>
    9bda:	4781                	li	a5,0
    9bdc:	4401                	li	s0,0
    9bde:	4481                	li	s1,0
    9be0:	bf65                	j	9b98 <__muldf3+0xda>
    9be2:	00a9e433          	or	s0,s3,a0
    9be6:	c061                	beqz	s0,9ca6 <__muldf3+0x1e8>
    9be8:	c636                	sw	a3,12(sp)
    9bea:	c432                	sw	a2,8(sp)
    9bec:	2a098c63          	beqz	s3,9ea4 <__muldf3+0x3e6>
    9bf0:	854e                	mv	a0,s3
    9bf2:	5d5010ef          	jal	ra,b9c6 <__clzsi2>
    9bf6:	4622                	lw	a2,8(sp)
    9bf8:	46b2                	lw	a3,12(sp)
    9bfa:	87aa                	mv	a5,a0
    9bfc:	ff550713          	addi	a4,a0,-11
    9c00:	4475                	li	s0,29
    9c02:	ff878493          	addi	s1,a5,-8 # 7ffff8 <__rt_init_end+0x7eed40>
    9c06:	8c19                	sub	s0,s0,a4
    9c08:	009999b3          	sll	s3,s3,s1
    9c0c:	008a5433          	srl	s0,s4,s0
    9c10:	01346433          	or	s0,s0,s3
    9c14:	009a14b3          	sll	s1,s4,s1
    9c18:	0146d713          	srli	a4,a3,0x14
    9c1c:	c0d00913          	li	s2,-1011
    9c20:	00c69a13          	slli	s4,a3,0xc
    9c24:	7ff77713          	andi	a4,a4,2047
    9c28:	40f90933          	sub	s2,s2,a5
    9c2c:	4981                	li	s3,0
    9c2e:	4b81                	li	s7,0
    9c30:	85b2                	mv	a1,a2
    9c32:	00ca5a13          	srli	s4,s4,0xc
    9c36:	01f6db13          	srli	s6,a3,0x1f
    9c3a:	ee0719e3          	bnez	a4,9b2c <__muldf3+0x6e>
    9c3e:	00ca67b3          	or	a5,s4,a2
    9c42:	c7b1                	beqz	a5,9c8e <__muldf3+0x1d0>
    9c44:	220a0f63          	beqz	s4,9e82 <__muldf3+0x3c4>
    9c48:	8552                	mv	a0,s4
    9c4a:	c432                	sw	a2,8(sp)
    9c4c:	57b010ef          	jal	ra,b9c6 <__clzsi2>
    9c50:	4622                	lw	a2,8(sp)
    9c52:	872a                	mv	a4,a0
    9c54:	ff550693          	addi	a3,a0,-11
    9c58:	47f5                	li	a5,29
    9c5a:	ff870593          	addi	a1,a4,-8
    9c5e:	8f95                	sub	a5,a5,a3
    9c60:	00ba1a33          	sll	s4,s4,a1
    9c64:	00f657b3          	srl	a5,a2,a5
    9c68:	0147e7b3          	or	a5,a5,s4
    9c6c:	00b615b3          	sll	a1,a2,a1
    9c70:	40e90933          	sub	s2,s2,a4
    9c74:	c0d90913          	addi	s2,s2,-1011
    9c78:	4881                	li	a7,0
    9c7a:	bde1                	j	9b52 <__muldf3+0x94>
    9c7c:	00a9e433          	or	s0,s3,a0
    9c80:	ec01                	bnez	s0,9c98 <__muldf3+0x1da>
    9c82:	49a1                	li	s3,8
    9c84:	4481                	li	s1,0
    9c86:	7ff00913          	li	s2,2047
    9c8a:	4b89                	li	s7,2
    9c8c:	b559                	j	9b12 <__muldf3+0x54>
    9c8e:	0019e993          	ori	s3,s3,1
    9c92:	4581                	li	a1,0
    9c94:	4885                	li	a7,1
    9c96:	bd75                	j	9b52 <__muldf3+0x94>
    9c98:	844e                	mv	s0,s3
    9c9a:	84aa                	mv	s1,a0
    9c9c:	49b1                	li	s3,12
    9c9e:	7ff00913          	li	s2,2047
    9ca2:	4b8d                	li	s7,3
    9ca4:	b5bd                	j	9b12 <__muldf3+0x54>
    9ca6:	4991                	li	s3,4
    9ca8:	4481                	li	s1,0
    9caa:	4901                	li	s2,0
    9cac:	4b85                	li	s7,1
    9cae:	b595                	j	9b12 <__muldf3+0x54>
    9cb0:	0039e993          	ori	s3,s3,3
    9cb4:	87d2                	mv	a5,s4
    9cb6:	488d                	li	a7,3
    9cb8:	bd69                	j	9b52 <__muldf3+0x94>
    9cba:	4789                	li	a5,2
    9cbc:	8556                	mv	a0,s5
    9cbe:	f0fb97e3          	bne	s7,a5,9bcc <__muldf3+0x10e>
    9cc2:	872a                	mv	a4,a0
    9cc4:	7ff00793          	li	a5,2047
    9cc8:	4401                	li	s0,0
    9cca:	4481                	li	s1,0
    9ccc:	b5f1                	j	9b98 <__muldf3+0xda>
    9cce:	6ec1                	lui	t4,0x10
    9cd0:	fffe8613          	addi	a2,t4,-1 # ffff <asc2_3216+0x13f3>
    9cd4:	0104d693          	srli	a3,s1,0x10
    9cd8:	0105de13          	srli	t3,a1,0x10
    9cdc:	8cf1                	and	s1,s1,a2
    9cde:	8df1                	and	a1,a1,a2
    9ce0:	02958633          	mul	a2,a1,s1
    9ce4:	02b68333          	mul	t1,a3,a1
    9ce8:	01065893          	srli	a7,a2,0x10
    9cec:	029e0533          	mul	a0,t3,s1
    9cf0:	951a                	add	a0,a0,t1
    9cf2:	98aa                	add	a7,a7,a0
    9cf4:	03c682b3          	mul	t0,a3,t3
    9cf8:	0068f363          	bgeu	a7,t1,9cfe <__muldf3+0x240>
    9cfc:	92f6                	add	t0,t0,t4
    9cfe:	6fc1                	lui	t6,0x10
    9d00:	ffff8313          	addi	t1,t6,-1 # ffff <asc2_3216+0x13f3>
    9d04:	0067f533          	and	a0,a5,t1
    9d08:	0107d393          	srli	t2,a5,0x10
    9d0c:	0068f7b3          	and	a5,a7,t1
    9d10:	07c2                	slli	a5,a5,0x10
    9d12:	00667333          	and	t1,a2,t1
    9d16:	933e                	add	t1,t1,a5
    9d18:	02950633          	mul	a2,a0,s1
    9d1c:	0108d893          	srli	a7,a7,0x10
    9d20:	02a687b3          	mul	a5,a3,a0
    9d24:	01065f13          	srli	t5,a2,0x10
    9d28:	029384b3          	mul	s1,t2,s1
    9d2c:	94be                	add	s1,s1,a5
    9d2e:	94fa                	add	s1,s1,t5
    9d30:	02768eb3          	mul	t4,a3,t2
    9d34:	00f4f363          	bgeu	s1,a5,9d3a <__muldf3+0x27c>
    9d38:	9efe                	add	t4,t4,t6
    9d3a:	6a41                	lui	s4,0x10
    9d3c:	fffa0793          	addi	a5,s4,-1 # ffff <asc2_3216+0x13f3>
    9d40:	01045f93          	srli	t6,s0,0x10
    9d44:	00f476b3          	and	a3,s0,a5
    9d48:	00f4f9b3          	and	s3,s1,a5
    9d4c:	8e7d                	and	a2,a2,a5
    9d4e:	80c1                	srli	s1,s1,0x10
    9d50:	02d58433          	mul	s0,a1,a3
    9d54:	09c2                	slli	s3,s3,0x10
    9d56:	01d48f33          	add	t5,s1,t4
    9d5a:	99b2                	add	s3,s3,a2
    9d5c:	98ce                	add	a7,a7,s3
    9d5e:	02de07b3          	mul	a5,t3,a3
    9d62:	01045e93          	srli	t4,s0,0x10
    9d66:	02bf85b3          	mul	a1,t6,a1
    9d6a:	97ae                	add	a5,a5,a1
    9d6c:	9ebe                	add	t4,t4,a5
    9d6e:	03fe0e33          	mul	t3,t3,t6
    9d72:	00bef363          	bgeu	t4,a1,9d78 <__muldf3+0x2ba>
    9d76:	9e52                	add	t3,t3,s4
    9d78:	67c1                	lui	a5,0x10
    9d7a:	fff78593          	addi	a1,a5,-1 # ffff <asc2_3216+0x13f3>
    9d7e:	00bef633          	and	a2,t4,a1
    9d82:	8c6d                	and	s0,s0,a1
    9d84:	0642                	slli	a2,a2,0x10
    9d86:	9622                	add	a2,a2,s0
    9d88:	010ede93          	srli	t4,t4,0x10
    9d8c:	02d505b3          	mul	a1,a0,a3
    9d90:	9e76                	add	t3,t3,t4
    9d92:	02af8533          	mul	a0,t6,a0
    9d96:	0105d413          	srli	s0,a1,0x10
    9d9a:	02d386b3          	mul	a3,t2,a3
    9d9e:	96aa                	add	a3,a3,a0
    9da0:	96a2                	add	a3,a3,s0
    9da2:	03f38fb3          	mul	t6,t2,t6
    9da6:	00a6f363          	bgeu	a3,a0,9dac <__muldf3+0x2ee>
    9daa:	9fbe                	add	t6,t6,a5
    9dac:	6541                	lui	a0,0x10
    9dae:	157d                	addi	a0,a0,-1
    9db0:	00a6f7b3          	and	a5,a3,a0
    9db4:	07c2                	slli	a5,a5,0x10
    9db6:	8d6d                	and	a0,a0,a1
    9db8:	97aa                	add	a5,a5,a0
    9dba:	005885b3          	add	a1,a7,t0
    9dbe:	0135b9b3          	sltu	s3,a1,s3
    9dc2:	97fa                	add	a5,a5,t5
    9dc4:	95b2                	add	a1,a1,a2
    9dc6:	01378433          	add	s0,a5,s3
    9dca:	00c5b633          	sltu	a2,a1,a2
    9dce:	01c40eb3          	add	t4,s0,t3
    9dd2:	00ce8533          	add	a0,t4,a2
    9dd6:	01343433          	sltu	s0,s0,s3
    9dda:	01e7b7b3          	sltu	a5,a5,t5
    9dde:	8fc1                	or	a5,a5,s0
    9de0:	01cebe33          	sltu	t3,t4,t3
    9de4:	0106d413          	srli	s0,a3,0x10
    9de8:	00c53633          	sltu	a2,a0,a2
    9dec:	943e                	add	s0,s0,a5
    9dee:	00ce6633          	or	a2,t3,a2
    9df2:	00959493          	slli	s1,a1,0x9
    9df6:	9432                	add	s0,s0,a2
    9df8:	947e                	add	s0,s0,t6
    9dfa:	0064e4b3          	or	s1,s1,t1
    9dfe:	0426                	slli	s0,s0,0x9
    9e00:	01755693          	srli	a3,a0,0x17
    9e04:	009034b3          	snez	s1,s1
    9e08:	81dd                	srli	a1,a1,0x17
    9e0a:	00951793          	slli	a5,a0,0x9
    9e0e:	8ccd                	or	s1,s1,a1
    9e10:	8c55                	or	s0,s0,a3
    9e12:	8cdd                	or	s1,s1,a5
    9e14:	00741793          	slli	a5,s0,0x7
    9e18:	0007db63          	bgez	a5,9e2e <__muldf3+0x370>
    9e1c:	0014d793          	srli	a5,s1,0x1
    9e20:	8885                	andi	s1,s1,1
    9e22:	01f41693          	slli	a3,s0,0x1f
    9e26:	8cdd                	or	s1,s1,a5
    9e28:	8cd5                	or	s1,s1,a3
    9e2a:	8005                	srli	s0,s0,0x1
    9e2c:	8942                	mv	s2,a6
    9e2e:	3ff90793          	addi	a5,s2,1023
    9e32:	08f05963          	blez	a5,9ec4 <__muldf3+0x406>
    9e36:	0074f693          	andi	a3,s1,7
    9e3a:	ce81                	beqz	a3,9e52 <__muldf3+0x394>
    9e3c:	00f4f693          	andi	a3,s1,15
    9e40:	4611                	li	a2,4
    9e42:	00c68863          	beq	a3,a2,9e52 <__muldf3+0x394>
    9e46:	00448693          	addi	a3,s1,4
    9e4a:	0096b4b3          	sltu	s1,a3,s1
    9e4e:	9426                	add	s0,s0,s1
    9e50:	84b6                	mv	s1,a3
    9e52:	00741693          	slli	a3,s0,0x7
    9e56:	0006d863          	bgez	a3,9e66 <__muldf3+0x3a8>
    9e5a:	ff0007b7          	lui	a5,0xff000
    9e5e:	17fd                	addi	a5,a5,-1
    9e60:	8c7d                	and	s0,s0,a5
    9e62:	40090793          	addi	a5,s2,1024
    9e66:	7fe00693          	li	a3,2046
    9e6a:	0ef6cf63          	blt	a3,a5,9f68 <__muldf3+0x4aa>
    9e6e:	0034d693          	srli	a3,s1,0x3
    9e72:	01d41493          	slli	s1,s0,0x1d
    9e76:	0426                	slli	s0,s0,0x9
    9e78:	8cd5                	or	s1,s1,a3
    9e7a:	8031                	srli	s0,s0,0xc
    9e7c:	7ff7f793          	andi	a5,a5,2047
    9e80:	bb21                	j	9b98 <__muldf3+0xda>
    9e82:	8532                	mv	a0,a2
    9e84:	c432                	sw	a2,8(sp)
    9e86:	341010ef          	jal	ra,b9c6 <__clzsi2>
    9e8a:	01550693          	addi	a3,a0,21 # 10015 <asc2_3216+0x1409>
    9e8e:	47f1                	li	a5,28
    9e90:	02050713          	addi	a4,a0,32
    9e94:	4622                	lw	a2,8(sp)
    9e96:	dcd7d1e3          	bge	a5,a3,9c58 <__muldf3+0x19a>
    9e9a:	1561                	addi	a0,a0,-8
    9e9c:	00a617b3          	sll	a5,a2,a0
    9ea0:	4581                	li	a1,0
    9ea2:	b3f9                	j	9c70 <__muldf3+0x1b2>
    9ea4:	323010ef          	jal	ra,b9c6 <__clzsi2>
    9ea8:	01550713          	addi	a4,a0,21
    9eac:	45f1                	li	a1,28
    9eae:	02050793          	addi	a5,a0,32
    9eb2:	4622                	lw	a2,8(sp)
    9eb4:	46b2                	lw	a3,12(sp)
    9eb6:	d4e5d5e3          	bge	a1,a4,9c00 <__muldf3+0x142>
    9eba:	1561                	addi	a0,a0,-8
    9ebc:	00aa1433          	sll	s0,s4,a0
    9ec0:	4481                	li	s1,0
    9ec2:	bb99                	j	9c18 <__muldf3+0x15a>
    9ec4:	4685                	li	a3,1
    9ec6:	8e9d                	sub	a3,a3,a5
    9ec8:	e7b1                	bnez	a5,9f14 <__muldf3+0x456>
    9eca:	41e90913          	addi	s2,s2,1054
    9ece:	012497b3          	sll	a5,s1,s2
    9ed2:	00d4d4b3          	srl	s1,s1,a3
    9ed6:	01241933          	sll	s2,s0,s2
    9eda:	00f037b3          	snez	a5,a5
    9ede:	009964b3          	or	s1,s2,s1
    9ee2:	8cdd                	or	s1,s1,a5
    9ee4:	0074f793          	andi	a5,s1,7
    9ee8:	00d456b3          	srl	a3,s0,a3
    9eec:	cf81                	beqz	a5,9f04 <__muldf3+0x446>
    9eee:	00f4f793          	andi	a5,s1,15
    9ef2:	4611                	li	a2,4
    9ef4:	00c78863          	beq	a5,a2,9f04 <__muldf3+0x446>
    9ef8:	00448793          	addi	a5,s1,4
    9efc:	0097b4b3          	sltu	s1,a5,s1
    9f00:	96a6                	add	a3,a3,s1
    9f02:	84be                	mv	s1,a5
    9f04:	00869793          	slli	a5,a3,0x8
    9f08:	0407d863          	bgez	a5,9f58 <__muldf3+0x49a>
    9f0c:	4785                	li	a5,1
    9f0e:	4401                	li	s0,0
    9f10:	4481                	li	s1,0
    9f12:	b159                	j	9b98 <__muldf3+0xda>
    9f14:	03800613          	li	a2,56
    9f18:	ccd641e3          	blt	a2,a3,9bda <__muldf3+0x11c>
    9f1c:	467d                	li	a2,31
    9f1e:	fad656e3          	bge	a2,a3,9eca <__muldf3+0x40c>
    9f22:	5605                	li	a2,-31
    9f24:	40f607b3          	sub	a5,a2,a5
    9f28:	02000593          	li	a1,32
    9f2c:	00f45633          	srl	a2,s0,a5
    9f30:	00b68763          	beq	a3,a1,9f3e <__muldf3+0x480>
    9f34:	43e90913          	addi	s2,s2,1086
    9f38:	012417b3          	sll	a5,s0,s2
    9f3c:	8cdd                	or	s1,s1,a5
    9f3e:	009034b3          	snez	s1,s1
    9f42:	8cd1                	or	s1,s1,a2
    9f44:	0074f693          	andi	a3,s1,7
    9f48:	4401                	li	s0,0
    9f4a:	ca99                	beqz	a3,9f60 <__muldf3+0x4a2>
    9f4c:	00f4f793          	andi	a5,s1,15
    9f50:	4611                	li	a2,4
    9f52:	4681                	li	a3,0
    9f54:	fac792e3          	bne	a5,a2,9ef8 <__muldf3+0x43a>
    9f58:	00969413          	slli	s0,a3,0x9
    9f5c:	8031                	srli	s0,s0,0xc
    9f5e:	06f6                	slli	a3,a3,0x1d
    9f60:	808d                	srli	s1,s1,0x3
    9f62:	8cd5                	or	s1,s1,a3
    9f64:	4781                	li	a5,0
    9f66:	b90d                	j	9b98 <__muldf3+0xda>
    9f68:	7ff00793          	li	a5,2047
    9f6c:	4401                	li	s0,0
    9f6e:	4481                	li	s1,0
    9f70:	b125                	j	9b98 <__muldf3+0xda>
    9f72:	8942                	mv	s2,a6
    9f74:	bd6d                	j	9e2e <__muldf3+0x370>

00009f76 <__subdf3>:
    9f76:	00100737          	lui	a4,0x100
    9f7a:	177d                	addi	a4,a4,-1
    9f7c:	1101                	addi	sp,sp,-32
    9f7e:	00b77333          	and	t1,a4,a1
    9f82:	0146d893          	srli	a7,a3,0x14
    9f86:	8f75                	and	a4,a4,a3
    9f88:	01d65e93          	srli	t4,a2,0x1d
    9f8c:	cc22                	sw	s0,24(sp)
    9f8e:	ca26                	sw	s1,20(sp)
    9f90:	030e                	slli	t1,t1,0x3
    9f92:	0145d493          	srli	s1,a1,0x14
    9f96:	01d55793          	srli	a5,a0,0x1d
    9f9a:	070e                	slli	a4,a4,0x3
    9f9c:	ce06                	sw	ra,28(sp)
    9f9e:	c84a                	sw	s2,16(sp)
    9fa0:	c64e                	sw	s3,12(sp)
    9fa2:	7ff8f893          	andi	a7,a7,2047
    9fa6:	7ff00e13          	li	t3,2047
    9faa:	00eee733          	or	a4,t4,a4
    9fae:	7ff4f493          	andi	s1,s1,2047
    9fb2:	01f5d413          	srli	s0,a1,0x1f
    9fb6:	0067e333          	or	t1,a5,t1
    9fba:	00351f13          	slli	t5,a0,0x3
    9fbe:	82fd                	srli	a3,a3,0x1f
    9fc0:	00361e93          	slli	t4,a2,0x3
    9fc4:	19c88063          	beq	a7,t3,a144 <__subdf3+0x1ce>
    9fc8:	0016c693          	xori	a3,a3,1
    9fcc:	411485b3          	sub	a1,s1,a7
    9fd0:	12d40563          	beq	s0,a3,a0fa <__subdf3+0x184>
    9fd4:	18b05163          	blez	a1,a156 <__subdf3+0x1e0>
    9fd8:	1a088b63          	beqz	a7,a18e <__subdf3+0x218>
    9fdc:	008007b7          	lui	a5,0x800
    9fe0:	8f5d                	or	a4,a4,a5
    9fe2:	59c48163          	beq	s1,t3,a564 <__subdf3+0x5ee>
    9fe6:	03800793          	li	a5,56
    9fea:	34b7c463          	blt	a5,a1,a332 <__subdf3+0x3bc>
    9fee:	47fd                	li	a5,31
    9ff0:	48b7c563          	blt	a5,a1,a47a <__subdf3+0x504>
    9ff4:	02000793          	li	a5,32
    9ff8:	8f8d                	sub	a5,a5,a1
    9ffa:	00bed9b3          	srl	s3,t4,a1
    9ffe:	00f71833          	sll	a6,a4,a5
    a002:	00fe9eb3          	sll	t4,t4,a5
    a006:	01386833          	or	a6,a6,s3
    a00a:	00b75733          	srl	a4,a4,a1
    a00e:	01d039b3          	snez	s3,t4
    a012:	01386833          	or	a6,a6,s3
    a016:	40e30333          	sub	t1,t1,a4
    a01a:	410f09b3          	sub	s3,t5,a6
    a01e:	013f37b3          	sltu	a5,t5,s3
    a022:	40f30633          	sub	a2,t1,a5
    a026:	00861793          	slli	a5,a2,0x8
    a02a:	2407d363          	bgez	a5,a270 <__subdf3+0x2fa>
    a02e:	00800937          	lui	s2,0x800
    a032:	197d                	addi	s2,s2,-1
    a034:	01267933          	and	s2,a2,s2
    a038:	2c090f63          	beqz	s2,a316 <__subdf3+0x3a0>
    a03c:	854a                	mv	a0,s2
    a03e:	189010ef          	jal	ra,b9c6 <__clzsi2>
    a042:	ff850713          	addi	a4,a0,-8
    a046:	02000793          	li	a5,32
    a04a:	8f99                	sub	a5,a5,a4
    a04c:	00f9d7b3          	srl	a5,s3,a5
    a050:	00e91633          	sll	a2,s2,a4
    a054:	8fd1                	or	a5,a5,a2
    a056:	00e999b3          	sll	s3,s3,a4
    a05a:	2a974463          	blt	a4,s1,a302 <__subdf3+0x38c>
    a05e:	8f05                	sub	a4,a4,s1
    a060:	00170613          	addi	a2,a4,1 # 100001 <__rt_init_end+0xeed49>
    a064:	46fd                	li	a3,31
    a066:	3ac6c563          	blt	a3,a2,a410 <__subdf3+0x49a>
    a06a:	02000713          	li	a4,32
    a06e:	8f11                	sub	a4,a4,a2
    a070:	00c9d6b3          	srl	a3,s3,a2
    a074:	00e99833          	sll	a6,s3,a4
    a078:	00e79733          	sll	a4,a5,a4
    a07c:	8f55                	or	a4,a4,a3
    a07e:	01003833          	snez	a6,a6
    a082:	010769b3          	or	s3,a4,a6
    a086:	00c7d633          	srl	a2,a5,a2
    a08a:	4481                	li	s1,0
    a08c:	0079f793          	andi	a5,s3,7
    a090:	cf81                	beqz	a5,a0a8 <__subdf3+0x132>
    a092:	00f9f693          	andi	a3,s3,15
    a096:	4791                	li	a5,4
    a098:	00f68863          	beq	a3,a5,a0a8 <__subdf3+0x132>
    a09c:	00498693          	addi	a3,s3,4
    a0a0:	0136b833          	sltu	a6,a3,s3
    a0a4:	9642                	add	a2,a2,a6
    a0a6:	89b6                	mv	s3,a3
    a0a8:	00861793          	slli	a5,a2,0x8
    a0ac:	1c07d663          	bgez	a5,a278 <__subdf3+0x302>
    a0b0:	00148713          	addi	a4,s1,1
    a0b4:	7ff00793          	li	a5,2047
    a0b8:	8805                	andi	s0,s0,1
    a0ba:	20f70663          	beq	a4,a5,a2c6 <__subdf3+0x350>
    a0be:	ff8007b7          	lui	a5,0xff800
    a0c2:	17fd                	addi	a5,a5,-1
    a0c4:	8ff1                	and	a5,a5,a2
    a0c6:	01d79813          	slli	a6,a5,0x1d
    a0ca:	0039d993          	srli	s3,s3,0x3
    a0ce:	07a6                	slli	a5,a5,0x9
    a0d0:	01386833          	or	a6,a6,s3
    a0d4:	83b1                	srli	a5,a5,0xc
    a0d6:	7ff77713          	andi	a4,a4,2047
    a0da:	00c79693          	slli	a3,a5,0xc
    a0de:	0752                	slli	a4,a4,0x14
    a0e0:	82b1                	srli	a3,a3,0xc
    a0e2:	047e                	slli	s0,s0,0x1f
    a0e4:	8ed9                	or	a3,a3,a4
    a0e6:	8ec1                	or	a3,a3,s0
    a0e8:	40f2                	lw	ra,28(sp)
    a0ea:	4462                	lw	s0,24(sp)
    a0ec:	44d2                	lw	s1,20(sp)
    a0ee:	4942                	lw	s2,16(sp)
    a0f0:	49b2                	lw	s3,12(sp)
    a0f2:	8542                	mv	a0,a6
    a0f4:	85b6                	mv	a1,a3
    a0f6:	6105                	addi	sp,sp,32
    a0f8:	8082                	ret
    a0fa:	0ab05663          	blez	a1,a1a6 <__subdf3+0x230>
    a0fe:	12088a63          	beqz	a7,a232 <__subdf3+0x2bc>
    a102:	008007b7          	lui	a5,0x800
    a106:	8f5d                	or	a4,a4,a5
    a108:	2dc48763          	beq	s1,t3,a3d6 <__subdf3+0x460>
    a10c:	03800793          	li	a5,56
    a110:	18b7c763          	blt	a5,a1,a29e <__subdf3+0x328>
    a114:	47fd                	li	a5,31
    a116:	3cb7d263          	bge	a5,a1,a4da <__subdf3+0x564>
    a11a:	fe058813          	addi	a6,a1,-32 # ffe0 <asc2_3216+0x13d4>
    a11e:	02000793          	li	a5,32
    a122:	010759b3          	srl	s3,a4,a6
    a126:	00f58a63          	beq	a1,a5,a13a <__subdf3+0x1c4>
    a12a:	04000793          	li	a5,64
    a12e:	40b785b3          	sub	a1,a5,a1
    a132:	00b71733          	sll	a4,a4,a1
    a136:	00eeeeb3          	or	t4,t4,a4
    a13a:	01d03833          	snez	a6,t4
    a13e:	01386833          	or	a6,a6,s3
    a142:	a295                	j	a2a6 <__subdf3+0x330>
    a144:	01d767b3          	or	a5,a4,t4
    a148:	80148593          	addi	a1,s1,-2047
    a14c:	e399                	bnez	a5,a152 <__subdf3+0x1dc>
    a14e:	0016c693          	xori	a3,a3,1
    a152:	04d40a63          	beq	s0,a3,a1a6 <__subdf3+0x230>
    a156:	e1d1                	bnez	a1,a1da <__subdf3+0x264>
    a158:	00148793          	addi	a5,s1,1
    a15c:	7fe7f793          	andi	a5,a5,2046
    a160:	1e079963          	bnez	a5,a352 <__subdf3+0x3dc>
    a164:	01e367b3          	or	a5,t1,t5
    a168:	01d76833          	or	a6,a4,t4
    a16c:	16049263          	bnez	s1,a2d0 <__subdf3+0x35a>
    a170:	3c078263          	beqz	a5,a534 <__subdf3+0x5be>
    a174:	42081663          	bnez	a6,a5a0 <__subdf3+0x62a>
    a178:	00351813          	slli	a6,a0,0x3
    a17c:	01d31693          	slli	a3,t1,0x1d
    a180:	00385813          	srli	a6,a6,0x3
    a184:	0106e833          	or	a6,a3,a6
    a188:	00335793          	srli	a5,t1,0x3
    a18c:	a219                	j	a292 <__subdf3+0x31c>
    a18e:	01d767b3          	or	a5,a4,t4
    a192:	1a078563          	beqz	a5,a33c <__subdf3+0x3c6>
    a196:	fff58793          	addi	a5,a1,-1
    a19a:	3a078b63          	beqz	a5,a550 <__subdf3+0x5da>
    a19e:	23c58c63          	beq	a1,t3,a3d6 <__subdf3+0x460>
    a1a2:	85be                	mv	a1,a5
    a1a4:	b589                	j	9fe6 <__subdf3+0x70>
    a1a6:	1c059963          	bnez	a1,a378 <__subdf3+0x402>
    a1aa:	00148693          	addi	a3,s1,1
    a1ae:	7fe6f793          	andi	a5,a3,2046
    a1b2:	efc1                	bnez	a5,a24a <__subdf3+0x2d4>
    a1b4:	01e367b3          	or	a5,t1,t5
    a1b8:	36049063          	bnez	s1,a518 <__subdf3+0x5a2>
    a1bc:	44078d63          	beqz	a5,a616 <__subdf3+0x6a0>
    a1c0:	01d767b3          	or	a5,a4,t4
    a1c4:	46079463          	bnez	a5,a62c <__subdf3+0x6b6>
    a1c8:	050e                	slli	a0,a0,0x3
    a1ca:	01d31813          	slli	a6,t1,0x1d
    a1ce:	810d                	srli	a0,a0,0x3
    a1d0:	00a86833          	or	a6,a6,a0
    a1d4:	00335793          	srli	a5,t1,0x3
    a1d8:	a86d                	j	a292 <__subdf3+0x31c>
    a1da:	409885b3          	sub	a1,a7,s1
    a1de:	20049763          	bnez	s1,a3ec <__subdf3+0x476>
    a1e2:	01e367b3          	or	a5,t1,t5
    a1e6:	30078d63          	beqz	a5,a500 <__subdf3+0x58a>
    a1ea:	fff58793          	addi	a5,a1,-1
    a1ee:	40078963          	beqz	a5,a600 <__subdf3+0x68a>
    a1f2:	7ff00513          	li	a0,2047
    a1f6:	20a58363          	beq	a1,a0,a3fc <__subdf3+0x486>
    a1fa:	85be                	mv	a1,a5
    a1fc:	03800793          	li	a5,56
    a200:	2ab7c263          	blt	a5,a1,a4a4 <__subdf3+0x52e>
    a204:	47fd                	li	a5,31
    a206:	3cb7c863          	blt	a5,a1,a5d6 <__subdf3+0x660>
    a20a:	02000793          	li	a5,32
    a20e:	8f8d                	sub	a5,a5,a1
    a210:	00f31833          	sll	a6,t1,a5
    a214:	00bf5633          	srl	a2,t5,a1
    a218:	00ff17b3          	sll	a5,t5,a5
    a21c:	00c86833          	or	a6,a6,a2
    a220:	00f039b3          	snez	s3,a5
    a224:	00b35333          	srl	t1,t1,a1
    a228:	01386833          	or	a6,a6,s3
    a22c:	40670733          	sub	a4,a4,t1
    a230:	acb5                	j	a4ac <__subdf3+0x536>
    a232:	01d767b3          	or	a5,a4,t4
    a236:	10078363          	beqz	a5,a33c <__subdf3+0x3c6>
    a23a:	fff58793          	addi	a5,a1,-1
    a23e:	1e078f63          	beqz	a5,a43c <__subdf3+0x4c6>
    a242:	2fc58063          	beq	a1,t3,a522 <__subdf3+0x5ac>
    a246:	85be                	mv	a1,a5
    a248:	b5d1                	j	a10c <__subdf3+0x196>
    a24a:	7ff00793          	li	a5,2047
    a24e:	06f68b63          	beq	a3,a5,a2c4 <__subdf3+0x34e>
    a252:	9efa                	add	t4,t4,t5
    a254:	01eeb633          	sltu	a2,t4,t5
    a258:	00e307b3          	add	a5,t1,a4
    a25c:	97b2                	add	a5,a5,a2
    a25e:	01f79813          	slli	a6,a5,0x1f
    a262:	001ede93          	srli	t4,t4,0x1
    a266:	01d869b3          	or	s3,a6,t4
    a26a:	0017d613          	srli	a2,a5,0x1
    a26e:	84b6                	mv	s1,a3
    a270:	0079f793          	andi	a5,s3,7
    a274:	e0079fe3          	bnez	a5,a092 <__subdf3+0x11c>
    a278:	01d61793          	slli	a5,a2,0x1d
    a27c:	0039d813          	srli	a6,s3,0x3
    a280:	00f86833          	or	a6,a6,a5
    a284:	85a6                	mv	a1,s1
    a286:	00365793          	srli	a5,a2,0x3
    a28a:	7ff00713          	li	a4,2047
    a28e:	06e58063          	beq	a1,a4,a2ee <__subdf3+0x378>
    a292:	07b2                	slli	a5,a5,0xc
    a294:	83b1                	srli	a5,a5,0xc
    a296:	7ff5f713          	andi	a4,a1,2047
    a29a:	8805                	andi	s0,s0,1
    a29c:	bd3d                	j	a0da <__subdf3+0x164>
    a29e:	01d76733          	or	a4,a4,t4
    a2a2:	00e03833          	snez	a6,a4
    a2a6:	01e809b3          	add	s3,a6,t5
    a2aa:	01e9b7b3          	sltu	a5,s3,t5
    a2ae:	00678633          	add	a2,a5,t1
    a2b2:	00861793          	slli	a5,a2,0x8
    a2b6:	fa07dde3          	bgez	a5,a270 <__subdf3+0x2fa>
    a2ba:	0485                	addi	s1,s1,1
    a2bc:	7ff00793          	li	a5,2047
    a2c0:	18f49c63          	bne	s1,a5,a458 <__subdf3+0x4e2>
    a2c4:	8805                	andi	s0,s0,1
    a2c6:	7ff00713          	li	a4,2047
    a2ca:	4781                	li	a5,0
    a2cc:	4801                	li	a6,0
    a2ce:	b531                	j	a0da <__subdf3+0x164>
    a2d0:	10079163          	bnez	a5,a3d2 <__subdf3+0x45c>
    a2d4:	3c080163          	beqz	a6,a696 <__subdf3+0x720>
    a2d8:	00361813          	slli	a6,a2,0x3
    a2dc:	01d71793          	slli	a5,a4,0x1d
    a2e0:	00385813          	srli	a6,a6,0x3
    a2e4:	00f86833          	or	a6,a6,a5
    a2e8:	8436                	mv	s0,a3
    a2ea:	00375793          	srli	a5,a4,0x3
    a2ee:	00f867b3          	or	a5,a6,a5
    a2f2:	dbe9                	beqz	a5,a2c4 <__subdf3+0x34e>
    a2f4:	4401                	li	s0,0
    a2f6:	7ff00713          	li	a4,2047
    a2fa:	000807b7          	lui	a5,0x80
    a2fe:	4801                	li	a6,0
    a300:	bbe9                	j	a0da <__subdf3+0x164>
    a302:	ff800637          	lui	a2,0xff800
    a306:	167d                	addi	a2,a2,-1
    a308:	8e7d                	and	a2,a2,a5
    a30a:	0079f793          	andi	a5,s3,7
    a30e:	8c99                	sub	s1,s1,a4
    a310:	d80791e3          	bnez	a5,a092 <__subdf3+0x11c>
    a314:	b795                	j	a278 <__subdf3+0x302>
    a316:	854e                	mv	a0,s3
    a318:	6ae010ef          	jal	ra,b9c6 <__clzsi2>
    a31c:	01850713          	addi	a4,a0,24
    a320:	47fd                	li	a5,31
    a322:	d2e7d2e3          	bge	a5,a4,a046 <__subdf3+0xd0>
    a326:	ff850613          	addi	a2,a0,-8
    a32a:	00c997b3          	sll	a5,s3,a2
    a32e:	4981                	li	s3,0
    a330:	b32d                	j	a05a <__subdf3+0xe4>
    a332:	01d76833          	or	a6,a4,t4
    a336:	01003833          	snez	a6,a6
    a33a:	b1c5                	j	a01a <__subdf3+0xa4>
    a33c:	00351813          	slli	a6,a0,0x3
    a340:	01d31793          	slli	a5,t1,0x1d
    a344:	00385813          	srli	a6,a6,0x3
    a348:	00f86833          	or	a6,a6,a5
    a34c:	00335793          	srli	a5,t1,0x3
    a350:	bf2d                	j	a28a <__subdf3+0x314>
    a352:	41df09b3          	sub	s3,t5,t4
    a356:	40e30933          	sub	s2,t1,a4
    a35a:	013f3633          	sltu	a2,t5,s3
    a35e:	40c90933          	sub	s2,s2,a2
    a362:	00891793          	slli	a5,s2,0x8
    a366:	2007ca63          	bltz	a5,a57a <__subdf3+0x604>
    a36a:	0129e833          	or	a6,s3,s2
    a36e:	cc0815e3          	bnez	a6,a038 <__subdf3+0xc2>
    a372:	4781                	li	a5,0
    a374:	4401                	li	s0,0
    a376:	bf31                	j	a292 <__subdf3+0x31c>
    a378:	409885b3          	sub	a1,a7,s1
    a37c:	14048163          	beqz	s1,a4be <__subdf3+0x548>
    a380:	008006b7          	lui	a3,0x800
    a384:	7ff00793          	li	a5,2047
    a388:	00d36333          	or	t1,t1,a3
    a38c:	20f88163          	beq	a7,a5,a58e <__subdf3+0x618>
    a390:	03800793          	li	a5,56
    a394:	22b7cc63          	blt	a5,a1,a5cc <__subdf3+0x656>
    a398:	47fd                	li	a5,31
    a39a:	2cb7c963          	blt	a5,a1,a66c <__subdf3+0x6f6>
    a39e:	02000793          	li	a5,32
    a3a2:	8f8d                	sub	a5,a5,a1
    a3a4:	00f31833          	sll	a6,t1,a5
    a3a8:	00bf56b3          	srl	a3,t5,a1
    a3ac:	00ff17b3          	sll	a5,t5,a5
    a3b0:	00d86833          	or	a6,a6,a3
    a3b4:	00f039b3          	snez	s3,a5
    a3b8:	00b35333          	srl	t1,t1,a1
    a3bc:	01386833          	or	a6,a6,s3
    a3c0:	971a                	add	a4,a4,t1
    a3c2:	01d809b3          	add	s3,a6,t4
    a3c6:	01d9b7b3          	sltu	a5,s3,t4
    a3ca:	00e78633          	add	a2,a5,a4
    a3ce:	84c6                	mv	s1,a7
    a3d0:	b5cd                	j	a2b2 <__subdf3+0x33c>
    a3d2:	f20811e3          	bnez	a6,a2f4 <__subdf3+0x37e>
    a3d6:	00351813          	slli	a6,a0,0x3
    a3da:	01d31793          	slli	a5,t1,0x1d
    a3de:	00385813          	srli	a6,a6,0x3
    a3e2:	00f86833          	or	a6,a6,a5
    a3e6:	00335793          	srli	a5,t1,0x3
    a3ea:	b711                	j	a2ee <__subdf3+0x378>
    a3ec:	00800537          	lui	a0,0x800
    a3f0:	7ff00793          	li	a5,2047
    a3f4:	00a36333          	or	t1,t1,a0
    a3f8:	e0f892e3          	bne	a7,a5,a1fc <__subdf3+0x286>
    a3fc:	060e                	slli	a2,a2,0x3
    a3fe:	01d71813          	slli	a6,a4,0x1d
    a402:	820d                	srli	a2,a2,0x3
    a404:	00c86833          	or	a6,a6,a2
    a408:	00375793          	srli	a5,a4,0x3
    a40c:	8436                	mv	s0,a3
    a40e:	b5c5                	j	a2ee <__subdf3+0x378>
    a410:	1705                	addi	a4,a4,-31
    a412:	02000693          	li	a3,32
    a416:	00e7d733          	srl	a4,a5,a4
    a41a:	00d60a63          	beq	a2,a3,a42e <__subdf3+0x4b8>
    a41e:	04000693          	li	a3,64
    a422:	40c68633          	sub	a2,a3,a2
    a426:	00c79633          	sll	a2,a5,a2
    a42a:	00c9e9b3          	or	s3,s3,a2
    a42e:	01303833          	snez	a6,s3
    a432:	00e869b3          	or	s3,a6,a4
    a436:	4601                	li	a2,0
    a438:	4481                	li	s1,0
    a43a:	bd1d                	j	a270 <__subdf3+0x2fa>
    a43c:	01df09b3          	add	s3,t5,t4
    a440:	00e307b3          	add	a5,t1,a4
    a444:	01e9bf33          	sltu	t5,s3,t5
    a448:	01e78633          	add	a2,a5,t5
    a44c:	00861793          	slli	a5,a2,0x8
    a450:	4485                	li	s1,1
    a452:	e007dfe3          	bgez	a5,a270 <__subdf3+0x2fa>
    a456:	4489                	li	s1,2
    a458:	ff8007b7          	lui	a5,0xff800
    a45c:	17fd                	addi	a5,a5,-1
    a45e:	8ff1                	and	a5,a5,a2
    a460:	0019d713          	srli	a4,s3,0x1
    a464:	0019f813          	andi	a6,s3,1
    a468:	01076833          	or	a6,a4,a6
    a46c:	01f79993          	slli	s3,a5,0x1f
    a470:	0109e9b3          	or	s3,s3,a6
    a474:	0017d613          	srli	a2,a5,0x1
    a478:	b911                	j	a08c <__subdf3+0x116>
    a47a:	fe058813          	addi	a6,a1,-32
    a47e:	02000793          	li	a5,32
    a482:	010759b3          	srl	s3,a4,a6
    a486:	00f58a63          	beq	a1,a5,a49a <__subdf3+0x524>
    a48a:	04000793          	li	a5,64
    a48e:	40b785b3          	sub	a1,a5,a1
    a492:	00b71733          	sll	a4,a4,a1
    a496:	00eeeeb3          	or	t4,t4,a4
    a49a:	01d03833          	snez	a6,t4
    a49e:	01386833          	or	a6,a6,s3
    a4a2:	bea5                	j	a01a <__subdf3+0xa4>
    a4a4:	01e36333          	or	t1,t1,t5
    a4a8:	00603833          	snez	a6,t1
    a4ac:	410e89b3          	sub	s3,t4,a6
    a4b0:	013eb7b3          	sltu	a5,t4,s3
    a4b4:	40f70633          	sub	a2,a4,a5
    a4b8:	84c6                	mv	s1,a7
    a4ba:	8436                	mv	s0,a3
    a4bc:	b6ad                	j	a026 <__subdf3+0xb0>
    a4be:	01e367b3          	or	a5,t1,t5
    a4c2:	18078763          	beqz	a5,a650 <__subdf3+0x6da>
    a4c6:	fff58793          	addi	a5,a1,-1
    a4ca:	1c078c63          	beqz	a5,a6a2 <__subdf3+0x72c>
    a4ce:	7ff00693          	li	a3,2047
    a4d2:	0ad58e63          	beq	a1,a3,a58e <__subdf3+0x618>
    a4d6:	85be                	mv	a1,a5
    a4d8:	bd65                	j	a390 <__subdf3+0x41a>
    a4da:	02000793          	li	a5,32
    a4de:	8f8d                	sub	a5,a5,a1
    a4e0:	00bed9b3          	srl	s3,t4,a1
    a4e4:	00f71833          	sll	a6,a4,a5
    a4e8:	00fe9eb3          	sll	t4,t4,a5
    a4ec:	01386833          	or	a6,a6,s3
    a4f0:	00b75733          	srl	a4,a4,a1
    a4f4:	01d039b3          	snez	s3,t4
    a4f8:	01386833          	or	a6,a6,s3
    a4fc:	933a                	add	t1,t1,a4
    a4fe:	b365                	j	a2a6 <__subdf3+0x330>
    a500:	00361813          	slli	a6,a2,0x3
    a504:	01d71793          	slli	a5,a4,0x1d
    a508:	00385813          	srli	a6,a6,0x3
    a50c:	0107e833          	or	a6,a5,a6
    a510:	8436                	mv	s0,a3
    a512:	00375793          	srli	a5,a4,0x3
    a516:	bb95                	j	a28a <__subdf3+0x314>
    a518:	cbbd                	beqz	a5,a58e <__subdf3+0x618>
    a51a:	01d76733          	or	a4,a4,t4
    a51e:	dc071be3          	bnez	a4,a2f4 <__subdf3+0x37e>
    a522:	050e                	slli	a0,a0,0x3
    a524:	01d31813          	slli	a6,t1,0x1d
    a528:	810d                	srli	a0,a0,0x3
    a52a:	00a86833          	or	a6,a6,a0
    a52e:	00335793          	srli	a5,t1,0x3
    a532:	bb75                	j	a2ee <__subdf3+0x378>
    a534:	e2080fe3          	beqz	a6,a372 <__subdf3+0x3fc>
    a538:	00361813          	slli	a6,a2,0x3
    a53c:	01d71793          	slli	a5,a4,0x1d
    a540:	00385813          	srli	a6,a6,0x3
    a544:	00f86833          	or	a6,a6,a5
    a548:	8436                	mv	s0,a3
    a54a:	00375793          	srli	a5,a4,0x3
    a54e:	b391                	j	a292 <__subdf3+0x31c>
    a550:	41df09b3          	sub	s3,t5,t4
    a554:	40e307b3          	sub	a5,t1,a4
    a558:	013f3f33          	sltu	t5,t5,s3
    a55c:	41e78633          	sub	a2,a5,t5
    a560:	4485                	li	s1,1
    a562:	b4d1                	j	a026 <__subdf3+0xb0>
    a564:	00351813          	slli	a6,a0,0x3
    a568:	01d31693          	slli	a3,t1,0x1d
    a56c:	00385813          	srli	a6,a6,0x3
    a570:	0106e833          	or	a6,a3,a6
    a574:	00335793          	srli	a5,t1,0x3
    a578:	bb9d                	j	a2ee <__subdf3+0x378>
    a57a:	41ee89b3          	sub	s3,t4,t5
    a57e:	40670633          	sub	a2,a4,t1
    a582:	013eb933          	sltu	s2,t4,s3
    a586:	41260933          	sub	s2,a2,s2
    a58a:	8436                	mv	s0,a3
    a58c:	b475                	j	a038 <__subdf3+0xc2>
    a58e:	060e                	slli	a2,a2,0x3
    a590:	01d71813          	slli	a6,a4,0x1d
    a594:	820d                	srli	a2,a2,0x3
    a596:	00c86833          	or	a6,a6,a2
    a59a:	00375793          	srli	a5,a4,0x3
    a59e:	bb81                	j	a2ee <__subdf3+0x378>
    a5a0:	41df09b3          	sub	s3,t5,t4
    a5a4:	40e307b3          	sub	a5,t1,a4
    a5a8:	013f3633          	sltu	a2,t5,s3
    a5ac:	40c78633          	sub	a2,a5,a2
    a5b0:	00861793          	slli	a5,a2,0x8
    a5b4:	0a07d763          	bgez	a5,a662 <__subdf3+0x6ec>
    a5b8:	41ee89b3          	sub	s3,t4,t5
    a5bc:	406707b3          	sub	a5,a4,t1
    a5c0:	013ebeb3          	sltu	t4,t4,s3
    a5c4:	41d78633          	sub	a2,a5,t4
    a5c8:	8436                	mv	s0,a3
    a5ca:	b4c9                	j	a08c <__subdf3+0x116>
    a5cc:	01e36333          	or	t1,t1,t5
    a5d0:	00603833          	snez	a6,t1
    a5d4:	b3fd                	j	a3c2 <__subdf3+0x44c>
    a5d6:	fe058813          	addi	a6,a1,-32
    a5da:	02000793          	li	a5,32
    a5de:	010359b3          	srl	s3,t1,a6
    a5e2:	00f58a63          	beq	a1,a5,a5f6 <__subdf3+0x680>
    a5e6:	04000793          	li	a5,64
    a5ea:	40b785b3          	sub	a1,a5,a1
    a5ee:	00b31333          	sll	t1,t1,a1
    a5f2:	006f6f33          	or	t5,t5,t1
    a5f6:	01e03833          	snez	a6,t5
    a5fa:	01386833          	or	a6,a6,s3
    a5fe:	b57d                	j	a4ac <__subdf3+0x536>
    a600:	41ee89b3          	sub	s3,t4,t5
    a604:	406707b3          	sub	a5,a4,t1
    a608:	013ebeb3          	sltu	t4,t4,s3
    a60c:	41d78633          	sub	a2,a5,t4
    a610:	8436                	mv	s0,a3
    a612:	4485                	li	s1,1
    a614:	bc09                	j	a026 <__subdf3+0xb0>
    a616:	00361813          	slli	a6,a2,0x3
    a61a:	01d71793          	slli	a5,a4,0x1d
    a61e:	00385813          	srli	a6,a6,0x3
    a622:	00f86833          	or	a6,a6,a5
    a626:	00375793          	srli	a5,a4,0x3
    a62a:	b1a5                	j	a292 <__subdf3+0x31c>
    a62c:	01df09b3          	add	s3,t5,t4
    a630:	00e307b3          	add	a5,t1,a4
    a634:	01e9bf33          	sltu	t5,s3,t5
    a638:	01e78633          	add	a2,a5,t5
    a63c:	00861793          	slli	a5,a2,0x8
    a640:	c207d8e3          	bgez	a5,a270 <__subdf3+0x2fa>
    a644:	ff8007b7          	lui	a5,0xff800
    a648:	17fd                	addi	a5,a5,-1
    a64a:	8e7d                	and	a2,a2,a5
    a64c:	4485                	li	s1,1
    a64e:	b10d                	j	a270 <__subdf3+0x2fa>
    a650:	060e                	slli	a2,a2,0x3
    a652:	01d71813          	slli	a6,a4,0x1d
    a656:	820d                	srli	a2,a2,0x3
    a658:	00c86833          	or	a6,a6,a2
    a65c:	00375793          	srli	a5,a4,0x3
    a660:	b12d                	j	a28a <__subdf3+0x314>
    a662:	00c9e833          	or	a6,s3,a2
    a666:	d00806e3          	beqz	a6,a372 <__subdf3+0x3fc>
    a66a:	b119                	j	a270 <__subdf3+0x2fa>
    a66c:	fe058813          	addi	a6,a1,-32
    a670:	02000793          	li	a5,32
    a674:	010359b3          	srl	s3,t1,a6
    a678:	00f58a63          	beq	a1,a5,a68c <__subdf3+0x716>
    a67c:	04000793          	li	a5,64
    a680:	40b785b3          	sub	a1,a5,a1
    a684:	00b31333          	sll	t1,t1,a1
    a688:	006f6f33          	or	t5,t5,t1
    a68c:	01e03833          	snez	a6,t5
    a690:	01386833          	or	a6,a6,s3
    a694:	b33d                	j	a3c2 <__subdf3+0x44c>
    a696:	4401                	li	s0,0
    a698:	7ff00713          	li	a4,2047
    a69c:	000807b7          	lui	a5,0x80
    a6a0:	bc2d                	j	a0da <__subdf3+0x164>
    a6a2:	01df09b3          	add	s3,t5,t4
    a6a6:	00e307b3          	add	a5,t1,a4
    a6aa:	01d9beb3          	sltu	t4,s3,t4
    a6ae:	01d78633          	add	a2,a5,t4
    a6b2:	bb69                	j	a44c <__subdf3+0x4d6>

0000a6b4 <__fixunsdfsi>:
    a6b4:	0145d793          	srli	a5,a1,0x14
    a6b8:	001006b7          	lui	a3,0x100
    a6bc:	fff68713          	addi	a4,a3,-1 # fffff <__rt_init_end+0xeed47>
    a6c0:	7ff7f793          	andi	a5,a5,2047
    a6c4:	3fe00613          	li	a2,1022
    a6c8:	882a                	mv	a6,a0
    a6ca:	8f6d                	and	a4,a4,a1
    a6cc:	4501                	li	a0,0
    a6ce:	81fd                	srli	a1,a1,0x1f
    a6d0:	00f65463          	bge	a2,a5,a6d8 <__fixunsdfsi+0x24>
    a6d4:	c199                	beqz	a1,a6da <__fixunsdfsi+0x26>
    a6d6:	8082                	ret
    a6d8:	8082                	ret
    a6da:	41e00613          	li	a2,1054
    a6de:	557d                	li	a0,-1
    a6e0:	fef64be3          	blt	a2,a5,a6d6 <__fixunsdfsi+0x22>
    a6e4:	43300513          	li	a0,1075
    a6e8:	8d1d                	sub	a0,a0,a5
    a6ea:	467d                	li	a2,31
    a6ec:	8f55                	or	a4,a4,a3
    a6ee:	00a64a63          	blt	a2,a0,a702 <__fixunsdfsi+0x4e>
    a6f2:	bed78793          	addi	a5,a5,-1043 # 7fbed <__rt_init_end+0x6e935>
    a6f6:	00f71733          	sll	a4,a4,a5
    a6fa:	00a85533          	srl	a0,a6,a0
    a6fe:	8d59                	or	a0,a0,a4
    a700:	8082                	ret
    a702:	41300513          	li	a0,1043
    a706:	40f507b3          	sub	a5,a0,a5
    a70a:	00f75533          	srl	a0,a4,a5
    a70e:	8082                	ret

0000a710 <__floatsidf>:
    a710:	1141                	addi	sp,sp,-16
    a712:	c606                	sw	ra,12(sp)
    a714:	c422                	sw	s0,8(sp)
    a716:	c226                	sw	s1,4(sp)
    a718:	cd0d                	beqz	a0,a752 <__floatsidf+0x42>
    a71a:	41f55793          	srai	a5,a0,0x1f
    a71e:	00a7c4b3          	xor	s1,a5,a0
    a722:	8c9d                	sub	s1,s1,a5
    a724:	842a                	mv	s0,a0
    a726:	8526                	mv	a0,s1
    a728:	29e010ef          	jal	ra,b9c6 <__clzsi2>
    a72c:	41e00693          	li	a3,1054
    a730:	8e89                	sub	a3,a3,a0
    a732:	47a9                	li	a5,10
    a734:	807d                	srli	s0,s0,0x1f
    a736:	7ff6f693          	andi	a3,a3,2047
    a73a:	02a7cd63          	blt	a5,a0,a774 <__floatsidf+0x64>
    a73e:	472d                	li	a4,11
    a740:	8f09                	sub	a4,a4,a0
    a742:	00e4d7b3          	srl	a5,s1,a4
    a746:	0555                	addi	a0,a0,21
    a748:	07b2                	slli	a5,a5,0xc
    a74a:	00a494b3          	sll	s1,s1,a0
    a74e:	83b1                	srli	a5,a5,0xc
    a750:	a029                	j	a75a <__floatsidf+0x4a>
    a752:	4401                	li	s0,0
    a754:	4681                	li	a3,0
    a756:	4781                	li	a5,0
    a758:	4481                	li	s1,0
    a75a:	07b2                	slli	a5,a5,0xc
    a75c:	06d2                	slli	a3,a3,0x14
    a75e:	83b1                	srli	a5,a5,0xc
    a760:	047e                	slli	s0,s0,0x1f
    a762:	8fd5                	or	a5,a5,a3
    a764:	8fc1                	or	a5,a5,s0
    a766:	40b2                	lw	ra,12(sp)
    a768:	4422                	lw	s0,8(sp)
    a76a:	8526                	mv	a0,s1
    a76c:	85be                	mv	a1,a5
    a76e:	4492                	lw	s1,4(sp)
    a770:	0141                	addi	sp,sp,16
    a772:	8082                	ret
    a774:	1555                	addi	a0,a0,-11
    a776:	00a497b3          	sll	a5,s1,a0
    a77a:	07b2                	slli	a5,a5,0xc
    a77c:	83b1                	srli	a5,a5,0xc
    a77e:	4481                	li	s1,0
    a780:	bfe9                	j	a75a <__floatsidf+0x4a>

0000a782 <__addsf3>:
    a782:	1141                	addi	sp,sp,-16
    a784:	00800737          	lui	a4,0x800
    a788:	177d                	addi	a4,a4,-1
    a78a:	0175d813          	srli	a6,a1,0x17
    a78e:	c226                	sw	s1,4(sp)
    a790:	01755493          	srli	s1,a0,0x17
    a794:	00a77333          	and	t1,a4,a0
    a798:	0ff4f493          	andi	s1,s1,255
    a79c:	00b776b3          	and	a3,a4,a1
    a7a0:	c04a                	sw	s2,0(sp)
    a7a2:	0ff87813          	andi	a6,a6,255
    a7a6:	01f55913          	srli	s2,a0,0x1f
    a7aa:	c606                	sw	ra,12(sp)
    a7ac:	c422                	sw	s0,8(sp)
    a7ae:	81fd                	srli	a1,a1,0x1f
    a7b0:	879a                	mv	a5,t1
    a7b2:	8526                	mv	a0,s1
    a7b4:	864a                	mv	a2,s2
    a7b6:	00331e13          	slli	t3,t1,0x3
    a7ba:	00369e93          	slli	t4,a3,0x3
    a7be:	410488b3          	sub	a7,s1,a6
    a7c2:	0eb90a63          	beq	s2,a1,a8b6 <__addsf3+0x134>
    a7c6:	0d105063          	blez	a7,a886 <__addsf3+0x104>
    a7ca:	14080463          	beqz	a6,a912 <__addsf3+0x190>
    a7ce:	0ff00793          	li	a5,255
    a7d2:	14f48b63          	beq	s1,a5,a928 <__addsf3+0x1a6>
    a7d6:	040007b7          	lui	a5,0x4000
    a7da:	00feeeb3          	or	t4,t4,a5
    a7de:	47ed                	li	a5,27
    a7e0:	2917c163          	blt	a5,a7,aa62 <__addsf3+0x2e0>
    a7e4:	02000793          	li	a5,32
    a7e8:	411787b3          	sub	a5,a5,a7
    a7ec:	00fe97b3          	sll	a5,t4,a5
    a7f0:	011ed8b3          	srl	a7,t4,a7
    a7f4:	00f037b3          	snez	a5,a5
    a7f8:	00f8e7b3          	or	a5,a7,a5
    a7fc:	40fe07b3          	sub	a5,t3,a5
    a800:	00579713          	slli	a4,a5,0x5
    a804:	18075e63          	bgez	a4,a9a0 <__addsf3+0x21e>
    a808:	04000437          	lui	s0,0x4000
    a80c:	147d                	addi	s0,s0,-1
    a80e:	8c7d                	and	s0,s0,a5
    a810:	8522                	mv	a0,s0
    a812:	1b4010ef          	jal	ra,b9c6 <__clzsi2>
    a816:	156d                	addi	a0,a0,-5
    a818:	00a417b3          	sll	a5,s0,a0
    a81c:	1a954863          	blt	a0,s1,a9cc <__addsf3+0x24a>
    a820:	8d05                	sub	a0,a0,s1
    a822:	00150413          	addi	s0,a0,1 # 800001 <__rt_init_end+0x7eed49>
    a826:	02000713          	li	a4,32
    a82a:	8f01                	sub	a4,a4,s0
    a82c:	00e79733          	sll	a4,a5,a4
    a830:	00e03733          	snez	a4,a4
    a834:	0087d7b3          	srl	a5,a5,s0
    a838:	8fd9                	or	a5,a5,a4
    a83a:	4481                	li	s1,0
    a83c:	0077f713          	andi	a4,a5,7
    a840:	c719                	beqz	a4,a84e <__addsf3+0xcc>
    a842:	00f7f713          	andi	a4,a5,15
    a846:	4691                	li	a3,4
    a848:	00d70363          	beq	a4,a3,a84e <__addsf3+0xcc>
    a84c:	0791                	addi	a5,a5,4
    a84e:	00579713          	slli	a4,a5,0x5
    a852:	14075b63          	bgez	a4,a9a8 <__addsf3+0x226>
    a856:	0485                	addi	s1,s1,1
    a858:	0ff00713          	li	a4,255
    a85c:	864a                	mv	a2,s2
    a85e:	16e48363          	beq	s1,a4,a9c4 <__addsf3+0x242>
    a862:	079a                	slli	a5,a5,0x6
    a864:	83a5                	srli	a5,a5,0x9
    a866:	0ff4f513          	andi	a0,s1,255
    a86a:	40b2                	lw	ra,12(sp)
    a86c:	4422                	lw	s0,8(sp)
    a86e:	07a6                	slli	a5,a5,0x9
    a870:	01751493          	slli	s1,a0,0x17
    a874:	0097d513          	srli	a0,a5,0x9
    a878:	8d45                	or	a0,a0,s1
    a87a:	067e                	slli	a2,a2,0x1f
    a87c:	4492                	lw	s1,4(sp)
    a87e:	4902                	lw	s2,0(sp)
    a880:	8d51                	or	a0,a0,a2
    a882:	0141                	addi	sp,sp,16
    a884:	8082                	ret
    a886:	0a089963          	bnez	a7,a938 <__addsf3+0x1b6>
    a88a:	00148713          	addi	a4,s1,1
    a88e:	0fe77713          	andi	a4,a4,254
    a892:	14071763          	bnez	a4,a9e0 <__addsf3+0x25e>
    a896:	22049063          	bnez	s1,aab6 <__addsf3+0x334>
    a89a:	1e0e0d63          	beqz	t3,aa94 <__addsf3+0x312>
    a89e:	fc0e86e3          	beqz	t4,a86a <__addsf3+0xe8>
    a8a2:	41de07b3          	sub	a5,t3,t4
    a8a6:	00579713          	slli	a4,a5,0x5
    a8aa:	22075063          	bgez	a4,aaca <__addsf3+0x348>
    a8ae:	41ce87b3          	sub	a5,t4,t3
    a8b2:	892e                	mv	s2,a1
    a8b4:	b761                	j	a83c <__addsf3+0xba>
    a8b6:	0b105c63          	blez	a7,a96e <__addsf3+0x1ec>
    a8ba:	08080e63          	beqz	a6,a956 <__addsf3+0x1d4>
    a8be:	0ff00793          	li	a5,255
    a8c2:	06f48363          	beq	s1,a5,a928 <__addsf3+0x1a6>
    a8c6:	040007b7          	lui	a5,0x4000
    a8ca:	00feeeb3          	or	t4,t4,a5
    a8ce:	47ed                	li	a5,27
    a8d0:	1f17c963          	blt	a5,a7,aac2 <__addsf3+0x340>
    a8d4:	02000793          	li	a5,32
    a8d8:	411787b3          	sub	a5,a5,a7
    a8dc:	00fe97b3          	sll	a5,t4,a5
    a8e0:	011ed8b3          	srl	a7,t4,a7
    a8e4:	00f037b3          	snez	a5,a5
    a8e8:	00f8e7b3          	or	a5,a7,a5
    a8ec:	97f2                	add	a5,a5,t3
    a8ee:	00579713          	slli	a4,a5,0x5
    a8f2:	0a075763          	bgez	a4,a9a0 <__addsf3+0x21e>
    a8f6:	0485                	addi	s1,s1,1
    a8f8:	0ff00713          	li	a4,255
    a8fc:	0ce48463          	beq	s1,a4,a9c4 <__addsf3+0x242>
    a900:	7e0006b7          	lui	a3,0x7e000
    a904:	0017d713          	srli	a4,a5,0x1
    a908:	16fd                	addi	a3,a3,-1
    a90a:	8b85                	andi	a5,a5,1
    a90c:	8f75                	and	a4,a4,a3
    a90e:	8fd9                	or	a5,a5,a4
    a910:	b735                	j	a83c <__addsf3+0xba>
    a912:	080e8d63          	beqz	t4,a9ac <__addsf3+0x22a>
    a916:	18fd                	addi	a7,a7,-1
    a918:	41de07b3          	sub	a5,t3,t4
    a91c:	ee0882e3          	beqz	a7,a800 <__addsf3+0x7e>
    a920:	0ff00793          	li	a5,255
    a924:	eaf49de3          	bne	s1,a5,a7de <__addsf3+0x5c>
    a928:	08030d63          	beqz	t1,a9c2 <__addsf3+0x240>
    a92c:	4601                	li	a2,0
    a92e:	0ff00513          	li	a0,255
    a932:	004007b7          	lui	a5,0x400
    a936:	bf15                	j	a86a <__addsf3+0xe8>
    a938:	40980733          	sub	a4,a6,s1
    a93c:	e8ed                	bnez	s1,aa2e <__addsf3+0x2ac>
    a93e:	140e0263          	beqz	t3,aa82 <__addsf3+0x300>
    a942:	177d                	addi	a4,a4,-1
    a944:	18070863          	beqz	a4,aad4 <__addsf3+0x352>
    a948:	0ff00793          	li	a5,255
    a94c:	0ef81963          	bne	a6,a5,aa3e <__addsf3+0x2bc>
    a950:	892e                	mv	s2,a1
    a952:	8336                	mv	t1,a3
    a954:	bfd1                	j	a928 <__addsf3+0x1a6>
    a956:	040e8b63          	beqz	t4,a9ac <__addsf3+0x22a>
    a95a:	18fd                	addi	a7,a7,-1
    a95c:	01de07b3          	add	a5,t3,t4
    a960:	f80887e3          	beqz	a7,a8ee <__addsf3+0x16c>
    a964:	0ff00793          	li	a5,255
    a968:	f6f493e3          	bne	s1,a5,a8ce <__addsf3+0x14c>
    a96c:	bf75                	j	a928 <__addsf3+0x1a6>
    a96e:	08089563          	bnez	a7,a9f8 <__addsf3+0x276>
    a972:	0485                	addi	s1,s1,1
    a974:	0fe4f713          	andi	a4,s1,254
    a978:	12071363          	bnez	a4,aa9e <__addsf3+0x31c>
    a97c:	10051763          	bnez	a0,aa8a <__addsf3+0x308>
    a980:	140e0f63          	beqz	t3,aade <__addsf3+0x35c>
    a984:	ee0e83e3          	beqz	t4,a86a <__addsf3+0xe8>
    a988:	01de07b3          	add	a5,t3,t4
    a98c:	00579713          	slli	a4,a5,0x5
    a990:	4481                	li	s1,0
    a992:	00075763          	bgez	a4,a9a0 <__addsf3+0x21e>
    a996:	fc000737          	lui	a4,0xfc000
    a99a:	177d                	addi	a4,a4,-1
    a99c:	8ff9                	and	a5,a5,a4
    a99e:	4485                	li	s1,1
    a9a0:	0077f713          	andi	a4,a5,7
    a9a4:	e8071fe3          	bnez	a4,a842 <__addsf3+0xc0>
    a9a8:	0037d313          	srli	t1,a5,0x3
    a9ac:	0ff00793          	li	a5,255
    a9b0:	f6f48ce3          	beq	s1,a5,a928 <__addsf3+0x1a6>
    a9b4:	00931793          	slli	a5,t1,0x9
    a9b8:	83a5                	srli	a5,a5,0x9
    a9ba:	0ff4f513          	andi	a0,s1,255
    a9be:	864a                	mv	a2,s2
    a9c0:	b56d                	j	a86a <__addsf3+0xe8>
    a9c2:	864a                	mv	a2,s2
    a9c4:	0ff00513          	li	a0,255
    a9c8:	4781                	li	a5,0
    a9ca:	b545                	j	a86a <__addsf3+0xe8>
    a9cc:	fc000737          	lui	a4,0xfc000
    a9d0:	177d                	addi	a4,a4,-1
    a9d2:	8ff9                	and	a5,a5,a4
    a9d4:	0077f713          	andi	a4,a5,7
    a9d8:	8c89                	sub	s1,s1,a0
    a9da:	e60714e3          	bnez	a4,a842 <__addsf3+0xc0>
    a9de:	b7e9                	j	a9a8 <__addsf3+0x226>
    a9e0:	41de0433          	sub	s0,t3,t4
    a9e4:	00541793          	slli	a5,s0,0x5
    a9e8:	0c07c363          	bltz	a5,aaae <__addsf3+0x32c>
    a9ec:	e20412e3          	bnez	s0,a810 <__addsf3+0x8e>
    a9f0:	4601                	li	a2,0
    a9f2:	4501                	li	a0,0
    a9f4:	4781                	li	a5,0
    a9f6:	bd95                	j	a86a <__addsf3+0xe8>
    a9f8:	40980733          	sub	a4,a6,s1
    a9fc:	c4ad                	beqz	s1,aa66 <__addsf3+0x2e4>
    a9fe:	0ff00793          	li	a5,255
    aa02:	f4f808e3          	beq	a6,a5,a952 <__addsf3+0x1d0>
    aa06:	040007b7          	lui	a5,0x4000
    aa0a:	00fe6e33          	or	t3,t3,a5
    aa0e:	47ed                	li	a5,27
    aa10:	0ce7cc63          	blt	a5,a4,aae8 <__addsf3+0x366>
    aa14:	02000793          	li	a5,32
    aa18:	8f99                	sub	a5,a5,a4
    aa1a:	00fe17b3          	sll	a5,t3,a5
    aa1e:	00ee5733          	srl	a4,t3,a4
    aa22:	00f037b3          	snez	a5,a5
    aa26:	8fd9                	or	a5,a5,a4
    aa28:	97f6                	add	a5,a5,t4
    aa2a:	84c2                	mv	s1,a6
    aa2c:	b5c9                	j	a8ee <__addsf3+0x16c>
    aa2e:	0ff00793          	li	a5,255
    aa32:	f0f80fe3          	beq	a6,a5,a950 <__addsf3+0x1ce>
    aa36:	040007b7          	lui	a5,0x4000
    aa3a:	00fe6e33          	or	t3,t3,a5
    aa3e:	47ed                	li	a5,27
    aa40:	08e7c363          	blt	a5,a4,aac6 <__addsf3+0x344>
    aa44:	02000693          	li	a3,32
    aa48:	8e99                	sub	a3,a3,a4
    aa4a:	00de16b3          	sll	a3,t3,a3
    aa4e:	00ee57b3          	srl	a5,t3,a4
    aa52:	00d03733          	snez	a4,a3
    aa56:	8fd9                	or	a5,a5,a4
    aa58:	40fe87b3          	sub	a5,t4,a5
    aa5c:	84c2                	mv	s1,a6
    aa5e:	892e                	mv	s2,a1
    aa60:	b345                	j	a800 <__addsf3+0x7e>
    aa62:	4785                	li	a5,1
    aa64:	bb61                	j	a7fc <__addsf3+0x7a>
    aa66:	060e0e63          	beqz	t3,aae2 <__addsf3+0x360>
    aa6a:	177d                	addi	a4,a4,-1
    aa6c:	01de07b3          	add	a5,t3,t4
    aa70:	84c2                	mv	s1,a6
    aa72:	e6070ee3          	beqz	a4,a8ee <__addsf3+0x16c>
    aa76:	0ff00793          	li	a5,255
    aa7a:	f8f81ae3          	bne	a6,a5,aa0e <__addsf3+0x28c>
    aa7e:	8336                	mv	t1,a3
    aa80:	b565                	j	a928 <__addsf3+0x1a6>
    aa82:	8336                	mv	t1,a3
    aa84:	84c2                	mv	s1,a6
    aa86:	892e                	mv	s2,a1
    aa88:	b715                	j	a9ac <__addsf3+0x22a>
    aa8a:	ec0e04e3          	beqz	t3,a952 <__addsf3+0x1d0>
    aa8e:	e80e8de3          	beqz	t4,a928 <__addsf3+0x1a6>
    aa92:	bd69                	j	a92c <__addsf3+0x1aa>
    aa94:	020e8d63          	beqz	t4,aace <__addsf3+0x34c>
    aa98:	862e                	mv	a2,a1
    aa9a:	87b6                	mv	a5,a3
    aa9c:	b3f9                	j	a86a <__addsf3+0xe8>
    aa9e:	0ff00793          	li	a5,255
    aaa2:	f2f481e3          	beq	s1,a5,a9c4 <__addsf3+0x242>
    aaa6:	01de07b3          	add	a5,t3,t4
    aaaa:	8385                	srli	a5,a5,0x1
    aaac:	bdd5                	j	a9a0 <__addsf3+0x21e>
    aaae:	41ce8433          	sub	s0,t4,t3
    aab2:	892e                	mv	s2,a1
    aab4:	bbb1                	j	a810 <__addsf3+0x8e>
    aab6:	fc0e1ce3          	bnez	t3,aa8e <__addsf3+0x30c>
    aaba:	e60e89e3          	beqz	t4,a92c <__addsf3+0x1aa>
    aabe:	892e                	mv	s2,a1
    aac0:	bd49                	j	a952 <__addsf3+0x1d0>
    aac2:	4785                	li	a5,1
    aac4:	b525                	j	a8ec <__addsf3+0x16a>
    aac6:	4785                	li	a5,1
    aac8:	bf41                	j	aa58 <__addsf3+0x2d6>
    aaca:	ec079be3          	bnez	a5,a9a0 <__addsf3+0x21e>
    aace:	4601                	li	a2,0
    aad0:	4781                	li	a5,0
    aad2:	bb61                	j	a86a <__addsf3+0xe8>
    aad4:	41ce87b3          	sub	a5,t4,t3
    aad8:	84c2                	mv	s1,a6
    aada:	892e                	mv	s2,a1
    aadc:	b315                	j	a800 <__addsf3+0x7e>
    aade:	87b6                	mv	a5,a3
    aae0:	b369                	j	a86a <__addsf3+0xe8>
    aae2:	8336                	mv	t1,a3
    aae4:	84c2                	mv	s1,a6
    aae6:	b5d9                	j	a9ac <__addsf3+0x22a>
    aae8:	4785                	li	a5,1
    aaea:	bf3d                	j	aa28 <__addsf3+0x2a6>

0000aaec <__divsf3>:
    aaec:	7139                	addi	sp,sp,-64
    aaee:	01755793          	srli	a5,a0,0x17
    aaf2:	d84a                	sw	s2,48(sp)
    aaf4:	d256                	sw	s5,36(sp)
    aaf6:	ce5e                	sw	s7,28(sp)
    aaf8:	00951a93          	slli	s5,a0,0x9
    aafc:	01f55913          	srli	s2,a0,0x1f
    ab00:	de06                	sw	ra,60(sp)
    ab02:	dc22                	sw	s0,56(sp)
    ab04:	da26                	sw	s1,52(sp)
    ab06:	d64e                	sw	s3,44(sp)
    ab08:	d452                	sw	s4,40(sp)
    ab0a:	d05a                	sw	s6,32(sp)
    ab0c:	0ff7f793          	andi	a5,a5,255
    ab10:	009ada93          	srli	s5,s5,0x9
    ab14:	8bca                	mv	s7,s2
    ab16:	12078263          	beqz	a5,ac3a <__divsf3+0x14e>
    ab1a:	0ff00713          	li	a4,255
    ab1e:	12e78463          	beq	a5,a4,ac46 <__divsf3+0x15a>
    ab22:	0a8e                	slli	s5,s5,0x3
    ab24:	04000737          	lui	a4,0x4000
    ab28:	00eaeab3          	or	s5,s5,a4
    ab2c:	f8178a13          	addi	s4,a5,-127 # 3ffff81 <__rt_init_end+0x3feecc9>
    ab30:	4401                	li	s0,0
    ab32:	4b01                	li	s6,0
    ab34:	0175d793          	srli	a5,a1,0x17
    ab38:	00959493          	slli	s1,a1,0x9
    ab3c:	0ff7f793          	andi	a5,a5,255
    ab40:	80a5                	srli	s1,s1,0x9
    ab42:	01f5d993          	srli	s3,a1,0x1f
    ab46:	c7fd                	beqz	a5,ac34 <__divsf3+0x148>
    ab48:	0ff00713          	li	a4,255
    ab4c:	02e78763          	beq	a5,a4,ab7a <__divsf3+0x8e>
    ab50:	048e                	slli	s1,s1,0x3
    ab52:	f8178793          	addi	a5,a5,-127
    ab56:	04000737          	lui	a4,0x4000
    ab5a:	8cd9                	or	s1,s1,a4
    ab5c:	40fa0a33          	sub	s4,s4,a5
    ab60:	4681                	li	a3,0
    ab62:	8c55                	or	s0,s0,a3
    ab64:	00006717          	auipc	a4,0x6
    ab68:	3e070713          	addi	a4,a4,992 # 10f44 <__fsym___cmd_cmd_rainbow_name+0x9c>
    ab6c:	040a                	slli	s0,s0,0x2
    ab6e:	943a                	add	s0,s0,a4
    ab70:	401c                	lw	a5,0(s0)
    ab72:	01394933          	xor	s2,s2,s3
    ab76:	97ba                	add	a5,a5,a4
    ab78:	8782                	jr	a5
    ab7a:	f01a0a13          	addi	s4,s4,-255
    ab7e:	e8f9                	bnez	s1,ac54 <__divsf3+0x168>
    ab80:	4689                	li	a3,2
    ab82:	8c55                	or	s0,s0,a3
    ab84:	00006717          	auipc	a4,0x6
    ab88:	40070713          	addi	a4,a4,1024 # 10f84 <__fsym___cmd_cmd_rainbow_name+0xdc>
    ab8c:	040a                	slli	s0,s0,0x2
    ab8e:	943a                	add	s0,s0,a4
    ab90:	401c                	lw	a5,0(s0)
    ab92:	01394933          	xor	s2,s2,s3
    ab96:	97ba                	add	a5,a5,a4
    ab98:	8782                	jr	a5
    ab9a:	4901                	li	s2,0
    ab9c:	0ff00713          	li	a4,255
    aba0:	004007b7          	lui	a5,0x400
    aba4:	00979513          	slli	a0,a5,0x9
    aba8:	50f2                	lw	ra,60(sp)
    abaa:	5462                	lw	s0,56(sp)
    abac:	01771793          	slli	a5,a4,0x17
    abb0:	8125                	srli	a0,a0,0x9
    abb2:	097e                	slli	s2,s2,0x1f
    abb4:	8d5d                	or	a0,a0,a5
    abb6:	01256533          	or	a0,a0,s2
    abba:	54d2                	lw	s1,52(sp)
    abbc:	5942                	lw	s2,48(sp)
    abbe:	59b2                	lw	s3,44(sp)
    abc0:	5a22                	lw	s4,40(sp)
    abc2:	5a92                	lw	s5,36(sp)
    abc4:	5b02                	lw	s6,32(sp)
    abc6:	4bf2                	lw	s7,28(sp)
    abc8:	6121                	addi	sp,sp,64
    abca:	8082                	ret
    abcc:	0ff00713          	li	a4,255
    abd0:	4781                	li	a5,0
    abd2:	bfc9                	j	aba4 <__divsf3+0xb8>
    abd4:	8aa6                	mv	s5,s1
    abd6:	8bce                	mv	s7,s3
    abd8:	8b36                	mv	s6,a3
    abda:	4789                	li	a5,2
    abdc:	1afb0b63          	beq	s6,a5,ad92 <__divsf3+0x2a6>
    abe0:	478d                	li	a5,3
    abe2:	fafb0ce3          	beq	s6,a5,ab9a <__divsf3+0xae>
    abe6:	4785                	li	a5,1
    abe8:	0afb0a63          	beq	s6,a5,ac9c <__divsf3+0x1b0>
    abec:	07fa0713          	addi	a4,s4,127
    abf0:	001bf913          	andi	s2,s7,1
    abf4:	12e05763          	blez	a4,ad22 <__divsf3+0x236>
    abf8:	007af793          	andi	a5,s5,7
    abfc:	c799                	beqz	a5,ac0a <__divsf3+0x11e>
    abfe:	00faf793          	andi	a5,s5,15
    ac02:	4691                	li	a3,4
    ac04:	00d78363          	beq	a5,a3,ac0a <__divsf3+0x11e>
    ac08:	0a91                	addi	s5,s5,4
    ac0a:	004a9793          	slli	a5,s5,0x4
    ac0e:	0007d963          	bgez	a5,ac20 <__divsf3+0x134>
    ac12:	f80007b7          	lui	a5,0xf8000
    ac16:	17fd                	addi	a5,a5,-1
    ac18:	00fafab3          	and	s5,s5,a5
    ac1c:	080a0713          	addi	a4,s4,128
    ac20:	0fe00793          	li	a5,254
    ac24:	fae7c4e3          	blt	a5,a4,abcc <__divsf3+0xe0>
    ac28:	006a9793          	slli	a5,s5,0x6
    ac2c:	83a5                	srli	a5,a5,0x9
    ac2e:	0ff77713          	andi	a4,a4,255
    ac32:	bf8d                	j	aba4 <__divsf3+0xb8>
    ac34:	e4b9                	bnez	s1,ac82 <__divsf3+0x196>
    ac36:	4685                	li	a3,1
    ac38:	b7a9                	j	ab82 <__divsf3+0x96>
    ac3a:	020a9463          	bnez	s5,ac62 <__divsf3+0x176>
    ac3e:	4411                	li	s0,4
    ac40:	4a01                	li	s4,0
    ac42:	4b05                	li	s6,1
    ac44:	bdc5                	j	ab34 <__divsf3+0x48>
    ac46:	000a9963          	bnez	s5,ac58 <__divsf3+0x16c>
    ac4a:	4421                	li	s0,8
    ac4c:	0ff00a13          	li	s4,255
    ac50:	4b09                	li	s6,2
    ac52:	b5cd                	j	ab34 <__divsf3+0x48>
    ac54:	468d                	li	a3,3
    ac56:	b731                	j	ab62 <__divsf3+0x76>
    ac58:	4431                	li	s0,12
    ac5a:	0ff00a13          	li	s4,255
    ac5e:	4b0d                	li	s6,3
    ac60:	bdd1                	j	ab34 <__divsf3+0x48>
    ac62:	8556                	mv	a0,s5
    ac64:	c62e                	sw	a1,12(sp)
    ac66:	561000ef          	jal	ra,b9c6 <__clzsi2>
    ac6a:	ffb50793          	addi	a5,a0,-5
    ac6e:	00fa9ab3          	sll	s5,s5,a5
    ac72:	f8a00793          	li	a5,-118
    ac76:	40a78a33          	sub	s4,a5,a0
    ac7a:	4401                	li	s0,0
    ac7c:	4b01                	li	s6,0
    ac7e:	45b2                	lw	a1,12(sp)
    ac80:	bd55                	j	ab34 <__divsf3+0x48>
    ac82:	8526                	mv	a0,s1
    ac84:	543000ef          	jal	ra,b9c6 <__clzsi2>
    ac88:	ffb50713          	addi	a4,a0,-5
    ac8c:	00aa07b3          	add	a5,s4,a0
    ac90:	00e494b3          	sll	s1,s1,a4
    ac94:	07678a13          	addi	s4,a5,118 # f8000076 <_eusrstack+0xd7ff0076>
    ac98:	4681                	li	a3,0
    ac9a:	b5e1                	j	ab62 <__divsf3+0x76>
    ac9c:	001bf913          	andi	s2,s7,1
    aca0:	4701                	li	a4,0
    aca2:	4781                	li	a5,0
    aca4:	b701                	j	aba4 <__divsf3+0xb8>
    aca6:	6641                	lui	a2,0x10
    aca8:	00549513          	slli	a0,s1,0x5
    acac:	167d                	addi	a2,a2,-1
    acae:	01055793          	srli	a5,a0,0x10
    acb2:	8e69                	and	a2,a2,a0
    acb4:	0a9afa63          	bgeu	s5,s1,ad68 <__divsf3+0x27c>
    acb8:	02fad5b3          	divu	a1,s5,a5
    acbc:	1a7d                	addi	s4,s4,-1
    acbe:	86d6                	mv	a3,s5
    acc0:	4701                	li	a4,0
    acc2:	02c58833          	mul	a6,a1,a2
    acc6:	02f6f6b3          	remu	a3,a3,a5
    acca:	06c2                	slli	a3,a3,0x10
    accc:	8f55                	or	a4,a4,a3
    acce:	01077b63          	bgeu	a4,a6,ace4 <__divsf3+0x1f8>
    acd2:	972a                	add	a4,a4,a0
    acd4:	fff58693          	addi	a3,a1,-1
    acd8:	0aa76863          	bltu	a4,a0,ad88 <__divsf3+0x29c>
    acdc:	0b077663          	bgeu	a4,a6,ad88 <__divsf3+0x29c>
    ace0:	15f9                	addi	a1,a1,-2
    ace2:	972a                	add	a4,a4,a0
    ace4:	41070733          	sub	a4,a4,a6
    ace8:	02f756b3          	divu	a3,a4,a5
    acec:	02f77733          	remu	a4,a4,a5
    acf0:	02c68ab3          	mul	s5,a3,a2
    acf4:	01071793          	slli	a5,a4,0x10
    acf8:	0157fb63          	bgeu	a5,s5,ad0e <__divsf3+0x222>
    acfc:	97aa                	add	a5,a5,a0
    acfe:	fff68713          	addi	a4,a3,-1 # 7dffffff <_eusrstack+0x5dfeffff>
    ad02:	08a7e163          	bltu	a5,a0,ad84 <__divsf3+0x298>
    ad06:	0757ff63          	bgeu	a5,s5,ad84 <__divsf3+0x298>
    ad0a:	16f9                	addi	a3,a3,-2
    ad0c:	97aa                	add	a5,a5,a0
    ad0e:	05c2                	slli	a1,a1,0x10
    ad10:	41578ab3          	sub	s5,a5,s5
    ad14:	8dd5                	or	a1,a1,a3
    ad16:	01503ab3          	snez	s5,s5
    ad1a:	0155eab3          	or	s5,a1,s5
    ad1e:	8bca                	mv	s7,s2
    ad20:	b5f1                	j	abec <__divsf3+0x100>
    ad22:	4685                	li	a3,1
    ad24:	8e99                	sub	a3,a3,a4
    ad26:	c711                	beqz	a4,ad32 <__divsf3+0x246>
    ad28:	466d                	li	a2,27
    ad2a:	4701                	li	a4,0
    ad2c:	4781                	li	a5,0
    ad2e:	e6d64be3          	blt	a2,a3,aba4 <__divsf3+0xb8>
    ad32:	09ea0a13          	addi	s4,s4,158
    ad36:	014a9a33          	sll	s4,s5,s4
    ad3a:	00dad7b3          	srl	a5,s5,a3
    ad3e:	01403ab3          	snez	s5,s4
    ad42:	0157e7b3          	or	a5,a5,s5
    ad46:	0077f713          	andi	a4,a5,7
    ad4a:	c719                	beqz	a4,ad58 <__divsf3+0x26c>
    ad4c:	00f7f713          	andi	a4,a5,15
    ad50:	4691                	li	a3,4
    ad52:	00d70363          	beq	a4,a3,ad58 <__divsf3+0x26c>
    ad56:	0791                	addi	a5,a5,4
    ad58:	00579713          	slli	a4,a5,0x5
    ad5c:	02074863          	bltz	a4,ad8c <__divsf3+0x2a0>
    ad60:	079a                	slli	a5,a5,0x6
    ad62:	83a5                	srli	a5,a5,0x9
    ad64:	4701                	li	a4,0
    ad66:	bd3d                	j	aba4 <__divsf3+0xb8>
    ad68:	001ad693          	srli	a3,s5,0x1
    ad6c:	02f6d5b3          	divu	a1,a3,a5
    ad70:	01fa9713          	slli	a4,s5,0x1f
    ad74:	8341                	srli	a4,a4,0x10
    ad76:	02c58833          	mul	a6,a1,a2
    ad7a:	b7b1                	j	acc6 <__divsf3+0x1da>
    ad7c:	8bce                	mv	s7,s3
    ad7e:	8b36                	mv	s6,a3
    ad80:	4a81                	li	s5,0
    ad82:	bda1                	j	abda <__divsf3+0xee>
    ad84:	86ba                	mv	a3,a4
    ad86:	b761                	j	ad0e <__divsf3+0x222>
    ad88:	85b6                	mv	a1,a3
    ad8a:	bfa9                	j	ace4 <__divsf3+0x1f8>
    ad8c:	4705                	li	a4,1
    ad8e:	4781                	li	a5,0
    ad90:	bd11                	j	aba4 <__divsf3+0xb8>
    ad92:	001bf913          	andi	s2,s7,1
    ad96:	0ff00713          	li	a4,255
    ad9a:	4781                	li	a5,0
    ad9c:	b521                	j	aba4 <__divsf3+0xb8>

0000ad9e <__eqsf2>:
    ad9e:	01755693          	srli	a3,a0,0x17
    ada2:	008007b7          	lui	a5,0x800
    ada6:	17fd                	addi	a5,a5,-1
    ada8:	0175d613          	srli	a2,a1,0x17
    adac:	0ff6f693          	andi	a3,a3,255
    adb0:	0ff00813          	li	a6,255
    adb4:	00a7f8b3          	and	a7,a5,a0
    adb8:	01f55713          	srli	a4,a0,0x1f
    adbc:	8fed                	and	a5,a5,a1
    adbe:	0ff67613          	andi	a2,a2,255
    adc2:	81fd                	srli	a1,a1,0x1f
    adc4:	03068463          	beq	a3,a6,adec <__eqsf2+0x4e>
    adc8:	0ff00513          	li	a0,255
    adcc:	02a60463          	beq	a2,a0,adf4 <__eqsf2+0x56>
    add0:	4505                	li	a0,1
    add2:	00c68363          	beq	a3,a2,add8 <__eqsf2+0x3a>
    add6:	8082                	ret
    add8:	fef89fe3          	bne	a7,a5,add6 <__eqsf2+0x38>
    addc:	4501                	li	a0,0
    adde:	feb70ce3          	beq	a4,a1,add6 <__eqsf2+0x38>
    ade2:	4505                	li	a0,1
    ade4:	faed                	bnez	a3,add6 <__eqsf2+0x38>
    ade6:	01103533          	snez	a0,a7
    adea:	8082                	ret
    adec:	4505                	li	a0,1
    adee:	fc088de3          	beqz	a7,adc8 <__eqsf2+0x2a>
    adf2:	8082                	ret
    adf4:	4505                	li	a0,1
    adf6:	dfe9                	beqz	a5,add0 <__eqsf2+0x32>
    adf8:	8082                	ret

0000adfa <__gesf2>:
    adfa:	01755693          	srli	a3,a0,0x17
    adfe:	008007b7          	lui	a5,0x800
    ae02:	17fd                	addi	a5,a5,-1
    ae04:	0175d613          	srli	a2,a1,0x17
    ae08:	0ff6f693          	andi	a3,a3,255
    ae0c:	0ff00813          	li	a6,255
    ae10:	00a7f8b3          	and	a7,a5,a0
    ae14:	01f55713          	srli	a4,a0,0x1f
    ae18:	8fed                	and	a5,a5,a1
    ae1a:	0ff67613          	andi	a2,a2,255
    ae1e:	81fd                	srli	a1,a1,0x1f
    ae20:	03068163          	beq	a3,a6,ae42 <__gesf2+0x48>
    ae24:	01060c63          	beq	a2,a6,ae3c <__gesf2+0x42>
    ae28:	e28d                	bnez	a3,ae4a <__gesf2+0x50>
    ae2a:	e211                	bnez	a2,ae2e <__gesf2+0x34>
    ae2c:	c3b1                	beqz	a5,ae70 <__gesf2+0x76>
    ae2e:	02088e63          	beqz	a7,ae6a <__gesf2+0x70>
    ae32:	04b70563          	beq	a4,a1,ae7c <__gesf2+0x82>
    ae36:	4505                	li	a0,1
    ae38:	e71d                	bnez	a4,ae66 <__gesf2+0x6c>
    ae3a:	8082                	ret
    ae3c:	d7f5                	beqz	a5,ae28 <__gesf2+0x2e>
    ae3e:	5579                	li	a0,-2
    ae40:	8082                	ret
    ae42:	fe089ee3          	bnez	a7,ae3e <__gesf2+0x44>
    ae46:	02d60963          	beq	a2,a3,ae78 <__gesf2+0x7e>
    ae4a:	e211                	bnez	a2,ae4e <__gesf2+0x54>
    ae4c:	d7ed                	beqz	a5,ae36 <__gesf2+0x3c>
    ae4e:	feb714e3          	bne	a4,a1,ae36 <__gesf2+0x3c>
    ae52:	fed642e3          	blt	a2,a3,ae36 <__gesf2+0x3c>
    ae56:	00c6c763          	blt	a3,a2,ae64 <__gesf2+0x6a>
    ae5a:	fd17eee3          	bltu	a5,a7,ae36 <__gesf2+0x3c>
    ae5e:	4501                	li	a0,0
    ae60:	fcf8fde3          	bgeu	a7,a5,ae3a <__gesf2+0x40>
    ae64:	e701                	bnez	a4,ae6c <__gesf2+0x72>
    ae66:	557d                	li	a0,-1
    ae68:	8082                	ret
    ae6a:	ddf5                	beqz	a1,ae66 <__gesf2+0x6c>
    ae6c:	4505                	li	a0,1
    ae6e:	8082                	ret
    ae70:	4501                	li	a0,0
    ae72:	fc0892e3          	bnez	a7,ae36 <__gesf2+0x3c>
    ae76:	8082                	ret
    ae78:	dbf9                	beqz	a5,ae4e <__gesf2+0x54>
    ae7a:	b7d1                	j	ae3e <__gesf2+0x44>
    ae7c:	4681                	li	a3,0
    ae7e:	bfe1                	j	ae56 <__gesf2+0x5c>

0000ae80 <__lesf2>:
    ae80:	01755693          	srli	a3,a0,0x17
    ae84:	008007b7          	lui	a5,0x800
    ae88:	17fd                	addi	a5,a5,-1
    ae8a:	0175d613          	srli	a2,a1,0x17
    ae8e:	0ff6f693          	andi	a3,a3,255
    ae92:	0ff00813          	li	a6,255
    ae96:	00a7f8b3          	and	a7,a5,a0
    ae9a:	01f55713          	srli	a4,a0,0x1f
    ae9e:	8fed                	and	a5,a5,a1
    aea0:	0ff67613          	andi	a2,a2,255
    aea4:	81fd                	srli	a1,a1,0x1f
    aea6:	03068763          	beq	a3,a6,aed4 <__lesf2+0x54>
    aeaa:	01060963          	beq	a2,a6,aebc <__lesf2+0x3c>
    aeae:	ea85                	bnez	a3,aede <__lesf2+0x5e>
    aeb0:	ea11                	bnez	a2,aec4 <__lesf2+0x44>
    aeb2:	eb89                	bnez	a5,aec4 <__lesf2+0x44>
    aeb4:	4501                	li	a0,0
    aeb6:	00089b63          	bnez	a7,aecc <__lesf2+0x4c>
    aeba:	8082                	ret
    aebc:	4509                	li	a0,2
    aebe:	fff5                	bnez	a5,aeba <__lesf2+0x3a>
    aec0:	dae5                	beqz	a3,aeb0 <__lesf2+0x30>
    aec2:	a831                	j	aede <__lesf2+0x5e>
    aec4:	02088c63          	beqz	a7,aefc <__lesf2+0x7c>
    aec8:	04b70063          	beq	a4,a1,af08 <__lesf2+0x88>
    aecc:	4505                	li	a0,1
    aece:	d775                	beqz	a4,aeba <__lesf2+0x3a>
    aed0:	557d                	li	a0,-1
    aed2:	8082                	ret
    aed4:	4509                	li	a0,2
    aed6:	02089863          	bnez	a7,af06 <__lesf2+0x86>
    aeda:	02d60463          	beq	a2,a3,af02 <__lesf2+0x82>
    aede:	e211                	bnez	a2,aee2 <__lesf2+0x62>
    aee0:	d7f5                	beqz	a5,aecc <__lesf2+0x4c>
    aee2:	feb715e3          	bne	a4,a1,aecc <__lesf2+0x4c>
    aee6:	fed643e3          	blt	a2,a3,aecc <__lesf2+0x4c>
    aeea:	00c6c763          	blt	a3,a2,aef8 <__lesf2+0x78>
    aeee:	fd17efe3          	bltu	a5,a7,aecc <__lesf2+0x4c>
    aef2:	4501                	li	a0,0
    aef4:	fcf8f3e3          	bgeu	a7,a5,aeba <__lesf2+0x3a>
    aef8:	e319                	bnez	a4,aefe <__lesf2+0x7e>
    aefa:	bfd9                	j	aed0 <__lesf2+0x50>
    aefc:	d9f1                	beqz	a1,aed0 <__lesf2+0x50>
    aefe:	4505                	li	a0,1
    af00:	8082                	ret
    af02:	d3e5                	beqz	a5,aee2 <__lesf2+0x62>
    af04:	8082                	ret
    af06:	8082                	ret
    af08:	4681                	li	a3,0
    af0a:	b7c5                	j	aeea <__lesf2+0x6a>

0000af0c <__mulsf3>:
    af0c:	7179                	addi	sp,sp,-48
    af0e:	d422                	sw	s0,40(sp)
    af10:	01755413          	srli	s0,a0,0x17
    af14:	ce4e                	sw	s3,28(sp)
    af16:	cc52                	sw	s4,24(sp)
    af18:	00951993          	slli	s3,a0,0x9
    af1c:	d606                	sw	ra,44(sp)
    af1e:	d226                	sw	s1,36(sp)
    af20:	d04a                	sw	s2,32(sp)
    af22:	ca56                	sw	s5,20(sp)
    af24:	c85a                	sw	s6,16(sp)
    af26:	0ff47413          	andi	s0,s0,255
    af2a:	0099d993          	srli	s3,s3,0x9
    af2e:	01f55a13          	srli	s4,a0,0x1f
    af32:	c469                	beqz	s0,affc <__mulsf3+0xf0>
    af34:	0ff00793          	li	a5,255
    af38:	0ef40863          	beq	s0,a5,b028 <__mulsf3+0x11c>
    af3c:	00399793          	slli	a5,s3,0x3
    af40:	04000737          	lui	a4,0x4000
    af44:	00e7e9b3          	or	s3,a5,a4
    af48:	f8140413          	addi	s0,s0,-127 # 3ffff81 <__rt_init_end+0x3feecc9>
    af4c:	4481                	li	s1,0
    af4e:	4b01                	li	s6,0
    af50:	0175d713          	srli	a4,a1,0x17
    af54:	00959a93          	slli	s5,a1,0x9
    af58:	0ff77713          	andi	a4,a4,255
    af5c:	009ada93          	srli	s5,s5,0x9
    af60:	01f5d913          	srli	s2,a1,0x1f
    af64:	cf45                	beqz	a4,b01c <__mulsf3+0x110>
    af66:	0ff00793          	li	a5,255
    af6a:	02f70c63          	beq	a4,a5,afa2 <__mulsf3+0x96>
    af6e:	0a8e                	slli	s5,s5,0x3
    af70:	f8170713          	addi	a4,a4,-127 # 3ffff81 <__rt_init_end+0x3feecc9>
    af74:	040007b7          	lui	a5,0x4000
    af78:	00faeab3          	or	s5,s5,a5
    af7c:	943a                	add	s0,s0,a4
    af7e:	4601                	li	a2,0
    af80:	012a4533          	xor	a0,s4,s2
    af84:	47bd                	li	a5,15
    af86:	86aa                	mv	a3,a0
    af88:	00140593          	addi	a1,s0,1
    af8c:	1097e263          	bltu	a5,s1,b090 <__mulsf3+0x184>
    af90:	00006717          	auipc	a4,0x6
    af94:	03470713          	addi	a4,a4,52 # 10fc4 <__fsym___cmd_cmd_rainbow_name+0x11c>
    af98:	048a                	slli	s1,s1,0x2
    af9a:	94ba                	add	s1,s1,a4
    af9c:	409c                	lw	a5,0(s1)
    af9e:	97ba                	add	a5,a5,a4
    afa0:	8782                	jr	a5
    afa2:	0ff40413          	addi	s0,s0,255
    afa6:	0c0a9863          	bnez	s5,b076 <__mulsf3+0x16a>
    afaa:	0024e493          	ori	s1,s1,2
    afae:	4609                	li	a2,2
    afb0:	bfc1                	j	af80 <__mulsf3+0x74>
    afb2:	4501                	li	a0,0
    afb4:	0ff00713          	li	a4,255
    afb8:	004007b7          	lui	a5,0x400
    afbc:	50b2                	lw	ra,44(sp)
    afbe:	5422                	lw	s0,40(sp)
    afc0:	07a6                	slli	a5,a5,0x9
    afc2:	075e                	slli	a4,a4,0x17
    afc4:	83a5                	srli	a5,a5,0x9
    afc6:	057e                	slli	a0,a0,0x1f
    afc8:	8fd9                	or	a5,a5,a4
    afca:	5492                	lw	s1,36(sp)
    afcc:	5902                	lw	s2,32(sp)
    afce:	49f2                	lw	s3,28(sp)
    afd0:	4a62                	lw	s4,24(sp)
    afd2:	4ad2                	lw	s5,20(sp)
    afd4:	4b42                	lw	s6,16(sp)
    afd6:	8d5d                	or	a0,a0,a5
    afd8:	6145                	addi	sp,sp,48
    afda:	8082                	ret
    afdc:	86ca                	mv	a3,s2
    afde:	89d6                	mv	s3,s5
    afe0:	8b32                	mv	s6,a2
    afe2:	4789                	li	a5,2
    afe4:	0afb0163          	beq	s6,a5,b086 <__mulsf3+0x17a>
    afe8:	478d                	li	a5,3
    afea:	fcfb04e3          	beq	s6,a5,afb2 <__mulsf3+0xa6>
    afee:	4785                	li	a5,1
    aff0:	8536                	mv	a0,a3
    aff2:	1afb1263          	bne	s6,a5,b196 <__mulsf3+0x28a>
    aff6:	4701                	li	a4,0
    aff8:	4781                	li	a5,0
    affa:	b7c9                	j	afbc <__mulsf3+0xb0>
    affc:	04099e63          	bnez	s3,b058 <__mulsf3+0x14c>
    b000:	0175d713          	srli	a4,a1,0x17
    b004:	00959a93          	slli	s5,a1,0x9
    b008:	0ff77713          	andi	a4,a4,255
    b00c:	4491                	li	s1,4
    b00e:	4401                	li	s0,0
    b010:	4b05                	li	s6,1
    b012:	009ada93          	srli	s5,s5,0x9
    b016:	01f5d913          	srli	s2,a1,0x1f
    b01a:	f731                	bnez	a4,af66 <__mulsf3+0x5a>
    b01c:	000a9d63          	bnez	s5,b036 <__mulsf3+0x12a>
    b020:	0014e493          	ori	s1,s1,1
    b024:	4605                	li	a2,1
    b026:	bfa9                	j	af80 <__mulsf3+0x74>
    b028:	02099363          	bnez	s3,b04e <__mulsf3+0x142>
    b02c:	44a1                	li	s1,8
    b02e:	0ff00413          	li	s0,255
    b032:	4b09                	li	s6,2
    b034:	bf31                	j	af50 <__mulsf3+0x44>
    b036:	8556                	mv	a0,s5
    b038:	18f000ef          	jal	ra,b9c6 <__clzsi2>
    b03c:	ffb50793          	addi	a5,a0,-5
    b040:	8c09                	sub	s0,s0,a0
    b042:	00fa9ab3          	sll	s5,s5,a5
    b046:	f8a40413          	addi	s0,s0,-118
    b04a:	4601                	li	a2,0
    b04c:	bf15                	j	af80 <__mulsf3+0x74>
    b04e:	44b1                	li	s1,12
    b050:	0ff00413          	li	s0,255
    b054:	4b0d                	li	s6,3
    b056:	bded                	j	af50 <__mulsf3+0x44>
    b058:	854e                	mv	a0,s3
    b05a:	c62e                	sw	a1,12(sp)
    b05c:	16b000ef          	jal	ra,b9c6 <__clzsi2>
    b060:	ffb50793          	addi	a5,a0,-5
    b064:	f8a00413          	li	s0,-118
    b068:	00f999b3          	sll	s3,s3,a5
    b06c:	8c09                	sub	s0,s0,a0
    b06e:	4481                	li	s1,0
    b070:	4b01                	li	s6,0
    b072:	45b2                	lw	a1,12(sp)
    b074:	bdf1                	j	af50 <__mulsf3+0x44>
    b076:	0034e493          	ori	s1,s1,3
    b07a:	460d                	li	a2,3
    b07c:	b711                	j	af80 <__mulsf3+0x74>
    b07e:	4789                	li	a5,2
    b080:	86d2                	mv	a3,s4
    b082:	f6fb13e3          	bne	s6,a5,afe8 <__mulsf3+0xdc>
    b086:	8536                	mv	a0,a3
    b088:	0ff00713          	li	a4,255
    b08c:	4781                	li	a5,0
    b08e:	b73d                	j	afbc <__mulsf3+0xb0>
    b090:	6341                	lui	t1,0x10
    b092:	fff30693          	addi	a3,t1,-1 # ffff <asc2_3216+0x13f3>
    b096:	0109d613          	srli	a2,s3,0x10
    b09a:	010ad893          	srli	a7,s5,0x10
    b09e:	00d9f7b3          	and	a5,s3,a3
    b0a2:	00dafab3          	and	s5,s5,a3
    b0a6:	03578833          	mul	a6,a5,s5
    b0aa:	02f889b3          	mul	s3,a7,a5
    b0ae:	01085713          	srli	a4,a6,0x10
    b0b2:	03560ab3          	mul	s5,a2,s5
    b0b6:	99d6                	add	s3,s3,s5
    b0b8:	974e                	add	a4,a4,s3
    b0ba:	03160633          	mul	a2,a2,a7
    b0be:	01577363          	bgeu	a4,s5,b0c4 <__mulsf3+0x1b8>
    b0c2:	961a                	add	a2,a2,t1
    b0c4:	67c1                	lui	a5,0x10
    b0c6:	17fd                	addi	a5,a5,-1
    b0c8:	00f776b3          	and	a3,a4,a5
    b0cc:	00f87833          	and	a6,a6,a5
    b0d0:	06c2                	slli	a3,a3,0x10
    b0d2:	96c2                	add	a3,a3,a6
    b0d4:	00669993          	slli	s3,a3,0x6
    b0d8:	01075793          	srli	a5,a4,0x10
    b0dc:	013039b3          	snez	s3,s3
    b0e0:	82e9                	srli	a3,a3,0x1a
    b0e2:	97b2                	add	a5,a5,a2
    b0e4:	079a                	slli	a5,a5,0x6
    b0e6:	00d9e6b3          	or	a3,s3,a3
    b0ea:	00d7e9b3          	or	s3,a5,a3
    b0ee:	00499793          	slli	a5,s3,0x4
    b0f2:	0007d963          	bgez	a5,b104 <__mulsf3+0x1f8>
    b0f6:	0019d713          	srli	a4,s3,0x1
    b0fa:	0019f793          	andi	a5,s3,1
    b0fe:	00f769b3          	or	s3,a4,a5
    b102:	842e                	mv	s0,a1
    b104:	07f40713          	addi	a4,s0,127
    b108:	04e05063          	blez	a4,b148 <__mulsf3+0x23c>
    b10c:	0079f793          	andi	a5,s3,7
    b110:	c799                	beqz	a5,b11e <__mulsf3+0x212>
    b112:	00f9f793          	andi	a5,s3,15
    b116:	4691                	li	a3,4
    b118:	00d78363          	beq	a5,a3,b11e <__mulsf3+0x212>
    b11c:	0991                	addi	s3,s3,4
    b11e:	00499793          	slli	a5,s3,0x4
    b122:	0007d963          	bgez	a5,b134 <__mulsf3+0x228>
    b126:	f80007b7          	lui	a5,0xf8000
    b12a:	17fd                	addi	a5,a5,-1
    b12c:	00f9f9b3          	and	s3,s3,a5
    b130:	08040713          	addi	a4,s0,128
    b134:	0fe00793          	li	a5,254
    b138:	04e7cb63          	blt	a5,a4,b18e <__mulsf3+0x282>
    b13c:	00699793          	slli	a5,s3,0x6
    b140:	83a5                	srli	a5,a5,0x9
    b142:	0ff77713          	andi	a4,a4,255
    b146:	bd9d                	j	afbc <__mulsf3+0xb0>
    b148:	4785                	li	a5,1
    b14a:	40e786b3          	sub	a3,a5,a4
    b14e:	c711                	beqz	a4,b15a <__mulsf3+0x24e>
    b150:	466d                	li	a2,27
    b152:	4701                	li	a4,0
    b154:	4781                	li	a5,0
    b156:	e6d643e3          	blt	a2,a3,afbc <__mulsf3+0xb0>
    b15a:	09e40713          	addi	a4,s0,158
    b15e:	00e99733          	sll	a4,s3,a4
    b162:	00e03733          	snez	a4,a4
    b166:	00d9d7b3          	srl	a5,s3,a3
    b16a:	8fd9                	or	a5,a5,a4
    b16c:	0077f713          	andi	a4,a5,7
    b170:	c719                	beqz	a4,b17e <__mulsf3+0x272>
    b172:	00f7f713          	andi	a4,a5,15
    b176:	4691                	li	a3,4
    b178:	00d70363          	beq	a4,a3,b17e <__mulsf3+0x272>
    b17c:	0791                	addi	a5,a5,4
    b17e:	00579713          	slli	a4,a5,0x5
    b182:	00074c63          	bltz	a4,b19a <__mulsf3+0x28e>
    b186:	079a                	slli	a5,a5,0x6
    b188:	83a5                	srli	a5,a5,0x9
    b18a:	4701                	li	a4,0
    b18c:	bd05                	j	afbc <__mulsf3+0xb0>
    b18e:	0ff00713          	li	a4,255
    b192:	4781                	li	a5,0
    b194:	b525                	j	afbc <__mulsf3+0xb0>
    b196:	842e                	mv	s0,a1
    b198:	b7b5                	j	b104 <__mulsf3+0x1f8>
    b19a:	4705                	li	a4,1
    b19c:	4781                	li	a5,0
    b19e:	bd39                	j	afbc <__mulsf3+0xb0>

0000b1a0 <__subsf3>:
    b1a0:	00800737          	lui	a4,0x800
    b1a4:	1141                	addi	sp,sp,-16
    b1a6:	177d                	addi	a4,a4,-1
    b1a8:	01755693          	srli	a3,a0,0x17
    b1ac:	0175d813          	srli	a6,a1,0x17
    b1b0:	00a777b3          	and	a5,a4,a0
    b1b4:	0ff6f693          	andi	a3,a3,255
    b1b8:	01f55e93          	srli	t4,a0,0x1f
    b1bc:	00b77633          	and	a2,a4,a1
    b1c0:	c226                	sw	s1,4(sp)
    b1c2:	c04a                	sw	s2,0(sp)
    b1c4:	0ff87813          	andi	a6,a6,255
    b1c8:	c606                	sw	ra,12(sp)
    b1ca:	c422                	sw	s0,8(sp)
    b1cc:	0ff00313          	li	t1,255
    b1d0:	8e3e                	mv	t3,a5
    b1d2:	8936                	mv	s2,a3
    b1d4:	84f6                	mv	s1,t4
    b1d6:	00379f13          	slli	t5,a5,0x3
    b1da:	81fd                	srli	a1,a1,0x1f
    b1dc:	00361513          	slli	a0,a2,0x3
    b1e0:	410688b3          	sub	a7,a3,a6
    b1e4:	10680263          	beq	a6,t1,b2e8 <__subsf3+0x148>
    b1e8:	0015c593          	xori	a1,a1,1
    b1ec:	10be8c63          	beq	t4,a1,b304 <__subsf3+0x164>
    b1f0:	0d105463          	blez	a7,b2b8 <__subsf3+0x118>
    b1f4:	10081063          	bnez	a6,b2f4 <__subsf3+0x154>
    b1f8:	1e050463          	beqz	a0,b3e0 <__subsf3+0x240>
    b1fc:	18fd                	addi	a7,a7,-1
    b1fe:	40af07b3          	sub	a5,t5,a0
    b202:	02088663          	beqz	a7,b22e <__subsf3+0x8e>
    b206:	0ff00793          	li	a5,255
    b20a:	16f68863          	beq	a3,a5,b37a <__subsf3+0x1da>
    b20e:	47ed                	li	a5,27
    b210:	2917c763          	blt	a5,a7,b49e <__subsf3+0x2fe>
    b214:	02000713          	li	a4,32
    b218:	41170733          	sub	a4,a4,a7
    b21c:	00e51733          	sll	a4,a0,a4
    b220:	011557b3          	srl	a5,a0,a7
    b224:	00e03733          	snez	a4,a4
    b228:	8fd9                	or	a5,a5,a4
    b22a:	40ff07b3          	sub	a5,t5,a5
    b22e:	00579713          	slli	a4,a5,0x5
    b232:	1a075163          	bgez	a4,b3d4 <__subsf3+0x234>
    b236:	04000437          	lui	s0,0x4000
    b23a:	147d                	addi	s0,s0,-1
    b23c:	8c7d                	and	s0,s0,a5
    b23e:	8522                	mv	a0,s0
    b240:	2759                	jal	b9c6 <__clzsi2>
    b242:	156d                	addi	a0,a0,-5
    b244:	00a417b3          	sll	a5,s0,a0
    b248:	1b254e63          	blt	a0,s2,b404 <__subsf3+0x264>
    b24c:	41250533          	sub	a0,a0,s2
    b250:	00150413          	addi	s0,a0,1
    b254:	02000713          	li	a4,32
    b258:	8f01                	sub	a4,a4,s0
    b25a:	00e79733          	sll	a4,a5,a4
    b25e:	00e03733          	snez	a4,a4
    b262:	0087d7b3          	srl	a5,a5,s0
    b266:	8fd9                	or	a5,a5,a4
    b268:	4901                	li	s2,0
    b26a:	0077f713          	andi	a4,a5,7
    b26e:	c719                	beqz	a4,b27c <__subsf3+0xdc>
    b270:	00f7f713          	andi	a4,a5,15
    b274:	4691                	li	a3,4
    b276:	00d70363          	beq	a4,a3,b27c <__subsf3+0xdc>
    b27a:	0791                	addi	a5,a5,4
    b27c:	00579713          	slli	a4,a5,0x5
    b280:	14075e63          	bgez	a4,b3dc <__subsf3+0x23c>
    b284:	00190693          	addi	a3,s2,1 # 800001 <__rt_init_end+0x7eed49>
    b288:	0ff00713          	li	a4,255
    b28c:	0014fe93          	andi	t4,s1,1
    b290:	16e68663          	beq	a3,a4,b3fc <__subsf3+0x25c>
    b294:	079a                	slli	a5,a5,0x6
    b296:	83a5                	srli	a5,a5,0x9
    b298:	0ff6f693          	andi	a3,a3,255
    b29c:	07a6                	slli	a5,a5,0x9
    b29e:	40b2                	lw	ra,12(sp)
    b2a0:	4422                	lw	s0,8(sp)
    b2a2:	0097d513          	srli	a0,a5,0x9
    b2a6:	06de                	slli	a3,a3,0x17
    b2a8:	01fe9793          	slli	a5,t4,0x1f
    b2ac:	8d55                	or	a0,a0,a3
    b2ae:	4492                	lw	s1,4(sp)
    b2b0:	4902                	lw	s2,0(sp)
    b2b2:	8d5d                	or	a0,a0,a5
    b2b4:	0141                	addi	sp,sp,16
    b2b6:	8082                	ret
    b2b8:	0a089263          	bnez	a7,b35c <__subsf3+0x1bc>
    b2bc:	00168713          	addi	a4,a3,1
    b2c0:	0fe77713          	andi	a4,a4,254
    b2c4:	14071b63          	bnez	a4,b41a <__subsf3+0x27a>
    b2c8:	22069463          	bnez	a3,b4f0 <__subsf3+0x350>
    b2cc:	200f0263          	beqz	t5,b4d0 <__subsf3+0x330>
    b2d0:	d571                	beqz	a0,b29c <__subsf3+0xfc>
    b2d2:	40af07b3          	sub	a5,t5,a0
    b2d6:	00579713          	slli	a4,a5,0x5
    b2da:	22075563          	bgez	a4,b504 <__subsf3+0x364>
    b2de:	41e507b3          	sub	a5,a0,t5
    b2e2:	4901                	li	s2,0
    b2e4:	84ae                	mv	s1,a1
    b2e6:	b751                	j	b26a <__subsf3+0xca>
    b2e8:	f00500e3          	beqz	a0,b1e8 <__subsf3+0x48>
    b2ec:	0abe8a63          	beq	t4,a1,b3a0 <__subsf3+0x200>
    b2f0:	fd1054e3          	blez	a7,b2b8 <__subsf3+0x118>
    b2f4:	0ff00793          	li	a5,255
    b2f8:	08f68163          	beq	a3,a5,b37a <__subsf3+0x1da>
    b2fc:	040007b7          	lui	a5,0x4000
    b300:	8d5d                	or	a0,a0,a5
    b302:	b731                	j	b20e <__subsf3+0x6e>
    b304:	09105e63          	blez	a7,b3a0 <__subsf3+0x200>
    b308:	08080163          	beqz	a6,b38a <__subsf3+0x1ea>
    b30c:	0ff00793          	li	a5,255
    b310:	06f68563          	beq	a3,a5,b37a <__subsf3+0x1da>
    b314:	040007b7          	lui	a5,0x4000
    b318:	8d5d                	or	a0,a0,a5
    b31a:	47ed                	li	a5,27
    b31c:	1f17c063          	blt	a5,a7,b4fc <__subsf3+0x35c>
    b320:	02000713          	li	a4,32
    b324:	41170733          	sub	a4,a4,a7
    b328:	00e51733          	sll	a4,a0,a4
    b32c:	011557b3          	srl	a5,a0,a7
    b330:	00e03733          	snez	a4,a4
    b334:	8fd9                	or	a5,a5,a4
    b336:	97fa                	add	a5,a5,t5
    b338:	00579713          	slli	a4,a5,0x5
    b33c:	08075c63          	bgez	a4,b3d4 <__subsf3+0x234>
    b340:	0905                	addi	s2,s2,1
    b342:	0ff00713          	li	a4,255
    b346:	0ae90b63          	beq	s2,a4,b3fc <__subsf3+0x25c>
    b34a:	7e0006b7          	lui	a3,0x7e000
    b34e:	0017d713          	srli	a4,a5,0x1
    b352:	16fd                	addi	a3,a3,-1
    b354:	8b85                	andi	a5,a5,1
    b356:	8f75                	and	a4,a4,a3
    b358:	8fd9                	or	a5,a5,a4
    b35a:	bf01                	j	b26a <__subsf3+0xca>
    b35c:	40d80733          	sub	a4,a6,a3
    b360:	10069563          	bnez	a3,b46a <__subsf3+0x2ca>
    b364:	140f0d63          	beqz	t5,b4be <__subsf3+0x31e>
    b368:	177d                	addi	a4,a4,-1
    b36a:	1a070363          	beqz	a4,b510 <__subsf3+0x370>
    b36e:	0ff00793          	li	a5,255
    b372:	10f81463          	bne	a6,a5,b47a <__subsf3+0x2da>
    b376:	84ae                	mv	s1,a1
    b378:	8e32                	mv	t3,a2
    b37a:	060e0f63          	beqz	t3,b3f8 <__subsf3+0x258>
    b37e:	4e81                	li	t4,0
    b380:	0ff00693          	li	a3,255
    b384:	004007b7          	lui	a5,0x400
    b388:	bf11                	j	b29c <__subsf3+0xfc>
    b38a:	c939                	beqz	a0,b3e0 <__subsf3+0x240>
    b38c:	18fd                	addi	a7,a7,-1
    b38e:	00af07b3          	add	a5,t5,a0
    b392:	fa0883e3          	beqz	a7,b338 <__subsf3+0x198>
    b396:	0ff00793          	li	a5,255
    b39a:	f8f690e3          	bne	a3,a5,b31a <__subsf3+0x17a>
    b39e:	bff1                	j	b37a <__subsf3+0x1da>
    b3a0:	08089963          	bnez	a7,b432 <__subsf3+0x292>
    b3a4:	00168913          	addi	s2,a3,1 # 7e000001 <_eusrstack+0x5dff0001>
    b3a8:	0fe97713          	andi	a4,s2,254
    b3ac:	12071663          	bnez	a4,b4d8 <__subsf3+0x338>
    b3b0:	10069b63          	bnez	a3,b4c6 <__subsf3+0x326>
    b3b4:	160f0363          	beqz	t5,b51a <__subsf3+0x37a>
    b3b8:	ee0502e3          	beqz	a0,b29c <__subsf3+0xfc>
    b3bc:	00af07b3          	add	a5,t5,a0
    b3c0:	00579713          	slli	a4,a5,0x5
    b3c4:	4901                	li	s2,0
    b3c6:	00075763          	bgez	a4,b3d4 <__subsf3+0x234>
    b3ca:	fc000737          	lui	a4,0xfc000
    b3ce:	177d                	addi	a4,a4,-1
    b3d0:	8ff9                	and	a5,a5,a4
    b3d2:	4905                	li	s2,1
    b3d4:	0077f713          	andi	a4,a5,7
    b3d8:	e8071ce3          	bnez	a4,b270 <__subsf3+0xd0>
    b3dc:	0037de13          	srli	t3,a5,0x3
    b3e0:	0ff00793          	li	a5,255
    b3e4:	f8f90be3          	beq	s2,a5,b37a <__subsf3+0x1da>
    b3e8:	009e1793          	slli	a5,t3,0x9
    b3ec:	83a5                	srli	a5,a5,0x9
    b3ee:	0ff97693          	andi	a3,s2,255
    b3f2:	0014fe93          	andi	t4,s1,1
    b3f6:	b55d                	j	b29c <__subsf3+0xfc>
    b3f8:	0014fe93          	andi	t4,s1,1
    b3fc:	0ff00693          	li	a3,255
    b400:	4781                	li	a5,0
    b402:	bd69                	j	b29c <__subsf3+0xfc>
    b404:	fc000737          	lui	a4,0xfc000
    b408:	177d                	addi	a4,a4,-1
    b40a:	8ff9                	and	a5,a5,a4
    b40c:	0077f713          	andi	a4,a5,7
    b410:	40a90933          	sub	s2,s2,a0
    b414:	e4071ee3          	bnez	a4,b270 <__subsf3+0xd0>
    b418:	b7d1                	j	b3dc <__subsf3+0x23c>
    b41a:	40af0433          	sub	s0,t5,a0
    b41e:	00541793          	slli	a5,s0,0x5
    b422:	0c07c363          	bltz	a5,b4e8 <__subsf3+0x348>
    b426:	e0041ce3          	bnez	s0,b23e <__subsf3+0x9e>
    b42a:	4e81                	li	t4,0
    b42c:	4681                	li	a3,0
    b42e:	4781                	li	a5,0
    b430:	b5b5                	j	b29c <__subsf3+0xfc>
    b432:	40d80733          	sub	a4,a6,a3
    b436:	c6b5                	beqz	a3,b4a2 <__subsf3+0x302>
    b438:	0ff00793          	li	a5,255
    b43c:	f2f80ee3          	beq	a6,a5,b378 <__subsf3+0x1d8>
    b440:	040007b7          	lui	a5,0x4000
    b444:	00ff6f33          	or	t5,t5,a5
    b448:	47ed                	li	a5,27
    b44a:	0ce7cd63          	blt	a5,a4,b524 <__subsf3+0x384>
    b44e:	02000793          	li	a5,32
    b452:	8f99                	sub	a5,a5,a4
    b454:	00ff17b3          	sll	a5,t5,a5
    b458:	00ef5733          	srl	a4,t5,a4
    b45c:	00f037b3          	snez	a5,a5
    b460:	8f5d                	or	a4,a4,a5
    b462:	00a707b3          	add	a5,a4,a0
    b466:	8942                	mv	s2,a6
    b468:	bdc1                	j	b338 <__subsf3+0x198>
    b46a:	0ff00793          	li	a5,255
    b46e:	f0f804e3          	beq	a6,a5,b376 <__subsf3+0x1d6>
    b472:	040007b7          	lui	a5,0x4000
    b476:	00ff6f33          	or	t5,t5,a5
    b47a:	47ed                	li	a5,27
    b47c:	08e7c263          	blt	a5,a4,b500 <__subsf3+0x360>
    b480:	02000793          	li	a5,32
    b484:	8f99                	sub	a5,a5,a4
    b486:	00ff17b3          	sll	a5,t5,a5
    b48a:	00ef5733          	srl	a4,t5,a4
    b48e:	00f037b3          	snez	a5,a5
    b492:	8fd9                	or	a5,a5,a4
    b494:	40f507b3          	sub	a5,a0,a5
    b498:	8942                	mv	s2,a6
    b49a:	84ae                	mv	s1,a1
    b49c:	bb49                	j	b22e <__subsf3+0x8e>
    b49e:	4785                	li	a5,1
    b4a0:	b369                	j	b22a <__subsf3+0x8a>
    b4a2:	060f0e63          	beqz	t5,b51e <__subsf3+0x37e>
    b4a6:	177d                	addi	a4,a4,-1
    b4a8:	00af07b3          	add	a5,t5,a0
    b4ac:	8942                	mv	s2,a6
    b4ae:	e80705e3          	beqz	a4,b338 <__subsf3+0x198>
    b4b2:	0ff00793          	li	a5,255
    b4b6:	f8f819e3          	bne	a6,a5,b448 <__subsf3+0x2a8>
    b4ba:	8e32                	mv	t3,a2
    b4bc:	bd7d                	j	b37a <__subsf3+0x1da>
    b4be:	8e32                	mv	t3,a2
    b4c0:	8942                	mv	s2,a6
    b4c2:	84ae                	mv	s1,a1
    b4c4:	bf31                	j	b3e0 <__subsf3+0x240>
    b4c6:	ea0f09e3          	beqz	t5,b378 <__subsf3+0x1d8>
    b4ca:	ea0508e3          	beqz	a0,b37a <__subsf3+0x1da>
    b4ce:	bd45                	j	b37e <__subsf3+0x1de>
    b4d0:	cd0d                	beqz	a0,b50a <__subsf3+0x36a>
    b4d2:	8eae                	mv	t4,a1
    b4d4:	87b2                	mv	a5,a2
    b4d6:	b3d9                	j	b29c <__subsf3+0xfc>
    b4d8:	0ff00793          	li	a5,255
    b4dc:	f2f900e3          	beq	s2,a5,b3fc <__subsf3+0x25c>
    b4e0:	00af07b3          	add	a5,t5,a0
    b4e4:	8385                	srli	a5,a5,0x1
    b4e6:	b5fd                	j	b3d4 <__subsf3+0x234>
    b4e8:	41e50433          	sub	s0,a0,t5
    b4ec:	84ae                	mv	s1,a1
    b4ee:	bb81                	j	b23e <__subsf3+0x9e>
    b4f0:	fc0f1de3          	bnez	t5,b4ca <__subsf3+0x32a>
    b4f4:	e80505e3          	beqz	a0,b37e <__subsf3+0x1de>
    b4f8:	84ae                	mv	s1,a1
    b4fa:	bdbd                	j	b378 <__subsf3+0x1d8>
    b4fc:	4785                	li	a5,1
    b4fe:	bd25                	j	b336 <__subsf3+0x196>
    b500:	4785                	li	a5,1
    b502:	bf49                	j	b494 <__subsf3+0x2f4>
    b504:	4901                	li	s2,0
    b506:	ec0797e3          	bnez	a5,b3d4 <__subsf3+0x234>
    b50a:	4e81                	li	t4,0
    b50c:	4781                	li	a5,0
    b50e:	b379                	j	b29c <__subsf3+0xfc>
    b510:	41e507b3          	sub	a5,a0,t5
    b514:	8942                	mv	s2,a6
    b516:	84ae                	mv	s1,a1
    b518:	bb19                	j	b22e <__subsf3+0x8e>
    b51a:	87b2                	mv	a5,a2
    b51c:	b341                	j	b29c <__subsf3+0xfc>
    b51e:	8e32                	mv	t3,a2
    b520:	8942                	mv	s2,a6
    b522:	bd7d                	j	b3e0 <__subsf3+0x240>
    b524:	4705                	li	a4,1
    b526:	bf35                	j	b462 <__subsf3+0x2c2>

0000b528 <__unordsf2>:
    b528:	01755693          	srli	a3,a0,0x17
    b52c:	008007b7          	lui	a5,0x800
    b530:	17fd                	addi	a5,a5,-1
    b532:	0175d613          	srli	a2,a1,0x17
    b536:	0ff6f693          	andi	a3,a3,255
    b53a:	0ff00813          	li	a6,255
    b53e:	00a7f733          	and	a4,a5,a0
    b542:	0ff67613          	andi	a2,a2,255
    b546:	8fed                	and	a5,a5,a1
    b548:	01068b63          	beq	a3,a6,b55e <__unordsf2+0x36>
    b54c:	0ff00713          	li	a4,255
    b550:	4501                	li	a0,0
    b552:	00e60363          	beq	a2,a4,b558 <__unordsf2+0x30>
    b556:	8082                	ret
    b558:	00f03533          	snez	a0,a5
    b55c:	8082                	ret
    b55e:	4505                	li	a0,1
    b560:	d775                	beqz	a4,b54c <__unordsf2+0x24>
    b562:	8082                	ret

0000b564 <__fixsfsi>:
    b564:	00800637          	lui	a2,0x800
    b568:	01755713          	srli	a4,a0,0x17
    b56c:	fff60793          	addi	a5,a2,-1 # 7fffff <__rt_init_end+0x7eed47>
    b570:	0ff77713          	andi	a4,a4,255
    b574:	07e00593          	li	a1,126
    b578:	00a7f6b3          	and	a3,a5,a0
    b57c:	01f55793          	srli	a5,a0,0x1f
    b580:	00e5fc63          	bgeu	a1,a4,b598 <__fixsfsi+0x34>
    b584:	09d00593          	li	a1,157
    b588:	00e5fa63          	bgeu	a1,a4,b59c <__fixsfsi+0x38>
    b58c:	80000537          	lui	a0,0x80000
    b590:	fff54513          	not	a0,a0
    b594:	953e                	add	a0,a0,a5
    b596:	8082                	ret
    b598:	4501                	li	a0,0
    b59a:	8082                	ret
    b59c:	09500593          	li	a1,149
    b5a0:	8ed1                	or	a3,a3,a2
    b5a2:	00e5cd63          	blt	a1,a4,b5bc <__fixsfsi+0x58>
    b5a6:	09600613          	li	a2,150
    b5aa:	40e60733          	sub	a4,a2,a4
    b5ae:	00e6d733          	srl	a4,a3,a4
    b5b2:	40e00533          	neg	a0,a4
    b5b6:	f3f5                	bnez	a5,b59a <__fixsfsi+0x36>
    b5b8:	853a                	mv	a0,a4
    b5ba:	8082                	ret
    b5bc:	f6a70713          	addi	a4,a4,-150 # fbffff6a <_eusrstack+0xdbfeff6a>
    b5c0:	00e69733          	sll	a4,a3,a4
    b5c4:	b7fd                	j	b5b2 <__fixsfsi+0x4e>

0000b5c6 <__fixunssfsi>:
    b5c6:	01755713          	srli	a4,a0,0x17
    b5ca:	00800637          	lui	a2,0x800
    b5ce:	fff60793          	addi	a5,a2,-1 # 7fffff <__rt_init_end+0x7eed47>
    b5d2:	0ff77713          	andi	a4,a4,255
    b5d6:	07e00593          	li	a1,126
    b5da:	00a7f6b3          	and	a3,a5,a0
    b5de:	01f55793          	srli	a5,a0,0x1f
    b5e2:	4501                	li	a0,0
    b5e4:	00e5f463          	bgeu	a1,a4,b5ec <__fixunssfsi+0x26>
    b5e8:	c399                	beqz	a5,b5ee <__fixunssfsi+0x28>
    b5ea:	8082                	ret
    b5ec:	8082                	ret
    b5ee:	09e00793          	li	a5,158
    b5f2:	557d                	li	a0,-1
    b5f4:	fee7ebe3          	bltu	a5,a4,b5ea <__fixunssfsi+0x24>
    b5f8:	09500593          	li	a1,149
    b5fc:	00c6e7b3          	or	a5,a3,a2
    b600:	00e5d763          	bge	a1,a4,b60e <__fixunssfsi+0x48>
    b604:	f6a70713          	addi	a4,a4,-150
    b608:	00e79533          	sll	a0,a5,a4
    b60c:	8082                	ret
    b60e:	09600513          	li	a0,150
    b612:	40e50733          	sub	a4,a0,a4
    b616:	00e7d533          	srl	a0,a5,a4
    b61a:	8082                	ret

0000b61c <__floatsisf>:
    b61c:	1141                	addi	sp,sp,-16
    b61e:	c606                	sw	ra,12(sp)
    b620:	c422                	sw	s0,8(sp)
    b622:	c226                	sw	s1,4(sp)
    b624:	cd0d                	beqz	a0,b65e <__floatsisf+0x42>
    b626:	41f55793          	srai	a5,a0,0x1f
    b62a:	00a7c433          	xor	s0,a5,a0
    b62e:	8c1d                	sub	s0,s0,a5
    b630:	84aa                	mv	s1,a0
    b632:	8522                	mv	a0,s0
    b634:	2e49                	jal	b9c6 <__clzsi2>
    b636:	09e00793          	li	a5,158
    b63a:	40a78733          	sub	a4,a5,a0
    b63e:	09600793          	li	a5,150
    b642:	80fd                	srli	s1,s1,0x1f
    b644:	02e7cc63          	blt	a5,a4,b67c <__floatsisf+0x60>
    b648:	46a1                	li	a3,8
    b64a:	0ff77793          	andi	a5,a4,255
    b64e:	00a6d563          	bge	a3,a0,b658 <__floatsisf+0x3c>
    b652:	1561                	addi	a0,a0,-8
    b654:	00a41433          	sll	s0,s0,a0
    b658:	0426                	slli	s0,s0,0x9
    b65a:	8025                	srli	s0,s0,0x9
    b65c:	a021                	j	b664 <__floatsisf+0x48>
    b65e:	4481                	li	s1,0
    b660:	4781                	li	a5,0
    b662:	4401                	li	s0,0
    b664:	0426                	slli	s0,s0,0x9
    b666:	00945513          	srli	a0,s0,0x9
    b66a:	40b2                	lw	ra,12(sp)
    b66c:	4422                	lw	s0,8(sp)
    b66e:	07de                	slli	a5,a5,0x17
    b670:	04fe                	slli	s1,s1,0x1f
    b672:	8d5d                	or	a0,a0,a5
    b674:	8d45                	or	a0,a0,s1
    b676:	4492                	lw	s1,4(sp)
    b678:	0141                	addi	sp,sp,16
    b67a:	8082                	ret
    b67c:	09900793          	li	a5,153
    b680:	00e7dd63          	bge	a5,a4,b69a <__floatsisf+0x7e>
    b684:	01b50793          	addi	a5,a0,27 # 8000001b <_eusrstack+0x5fff001b>
    b688:	4695                	li	a3,5
    b68a:	00f417b3          	sll	a5,s0,a5
    b68e:	8e89                	sub	a3,a3,a0
    b690:	00d45433          	srl	s0,s0,a3
    b694:	00f037b3          	snez	a5,a5
    b698:	8c5d                	or	s0,s0,a5
    b69a:	4795                	li	a5,5
    b69c:	00a7d663          	bge	a5,a0,b6a8 <__floatsisf+0x8c>
    b6a0:	ffb50793          	addi	a5,a0,-5
    b6a4:	00f41433          	sll	s0,s0,a5
    b6a8:	fc0006b7          	lui	a3,0xfc000
    b6ac:	16fd                	addi	a3,a3,-1
    b6ae:	00747793          	andi	a5,s0,7
    b6b2:	00d47633          	and	a2,s0,a3
    b6b6:	c385                	beqz	a5,b6d6 <__floatsisf+0xba>
    b6b8:	00f47793          	andi	a5,s0,15
    b6bc:	4591                	li	a1,4
    b6be:	00b78c63          	beq	a5,a1,b6d6 <__floatsisf+0xba>
    b6c2:	0611                	addi	a2,a2,4
    b6c4:	00561793          	slli	a5,a2,0x5
    b6c8:	0007d763          	bgez	a5,b6d6 <__floatsisf+0xba>
    b6cc:	09f00793          	li	a5,159
    b6d0:	8e75                	and	a2,a2,a3
    b6d2:	40a78733          	sub	a4,a5,a0
    b6d6:	00661413          	slli	s0,a2,0x6
    b6da:	8025                	srli	s0,s0,0x9
    b6dc:	0ff77793          	andi	a5,a4,255
    b6e0:	b751                	j	b664 <__floatsisf+0x48>

0000b6e2 <__floatunsisf>:
    b6e2:	1141                	addi	sp,sp,-16
    b6e4:	c606                	sw	ra,12(sp)
    b6e6:	c422                	sw	s0,8(sp)
    b6e8:	cd15                	beqz	a0,b724 <__floatunsisf+0x42>
    b6ea:	842a                	mv	s0,a0
    b6ec:	2ce9                	jal	b9c6 <__clzsi2>
    b6ee:	09e00793          	li	a5,158
    b6f2:	40a78733          	sub	a4,a5,a0
    b6f6:	09600793          	li	a5,150
    b6fa:	04e7c063          	blt	a5,a4,b73a <__floatunsisf+0x58>
    b6fe:	46a1                	li	a3,8
    b700:	0ff77793          	andi	a5,a4,255
    b704:	00a6d563          	bge	a3,a0,b70e <__floatunsisf+0x2c>
    b708:	1561                	addi	a0,a0,-8
    b70a:	00a41433          	sll	s0,s0,a0
    b70e:	0426                	slli	s0,s0,0x9
    b710:	8025                	srli	s0,s0,0x9
    b712:	0426                	slli	s0,s0,0x9
    b714:	00945513          	srli	a0,s0,0x9
    b718:	40b2                	lw	ra,12(sp)
    b71a:	4422                	lw	s0,8(sp)
    b71c:	07de                	slli	a5,a5,0x17
    b71e:	8d5d                	or	a0,a0,a5
    b720:	0141                	addi	sp,sp,16
    b722:	8082                	ret
    b724:	4401                	li	s0,0
    b726:	0426                	slli	s0,s0,0x9
    b728:	00945513          	srli	a0,s0,0x9
    b72c:	40b2                	lw	ra,12(sp)
    b72e:	4422                	lw	s0,8(sp)
    b730:	4781                	li	a5,0
    b732:	07de                	slli	a5,a5,0x17
    b734:	8d5d                	or	a0,a0,a5
    b736:	0141                	addi	sp,sp,16
    b738:	8082                	ret
    b73a:	09900793          	li	a5,153
    b73e:	00e7dd63          	bge	a5,a4,b758 <__floatunsisf+0x76>
    b742:	01b50793          	addi	a5,a0,27
    b746:	4695                	li	a3,5
    b748:	00f417b3          	sll	a5,s0,a5
    b74c:	8e89                	sub	a3,a3,a0
    b74e:	00f037b3          	snez	a5,a5
    b752:	00d45433          	srl	s0,s0,a3
    b756:	8c5d                	or	s0,s0,a5
    b758:	4795                	li	a5,5
    b75a:	00a7d663          	bge	a5,a0,b766 <__floatunsisf+0x84>
    b75e:	ffb50793          	addi	a5,a0,-5
    b762:	00f41433          	sll	s0,s0,a5
    b766:	fc0006b7          	lui	a3,0xfc000
    b76a:	16fd                	addi	a3,a3,-1
    b76c:	00747793          	andi	a5,s0,7
    b770:	00d47633          	and	a2,s0,a3
    b774:	c385                	beqz	a5,b794 <__floatunsisf+0xb2>
    b776:	00f47793          	andi	a5,s0,15
    b77a:	4591                	li	a1,4
    b77c:	00b78c63          	beq	a5,a1,b794 <__floatunsisf+0xb2>
    b780:	0611                	addi	a2,a2,4
    b782:	00561793          	slli	a5,a2,0x5
    b786:	0007d763          	bgez	a5,b794 <__floatunsisf+0xb2>
    b78a:	09f00793          	li	a5,159
    b78e:	8e75                	and	a2,a2,a3
    b790:	40a78733          	sub	a4,a5,a0
    b794:	00661413          	slli	s0,a2,0x6
    b798:	8025                	srli	s0,s0,0x9
    b79a:	0426                	slli	s0,s0,0x9
    b79c:	00945513          	srli	a0,s0,0x9
    b7a0:	40b2                	lw	ra,12(sp)
    b7a2:	4422                	lw	s0,8(sp)
    b7a4:	0ff77793          	andi	a5,a4,255
    b7a8:	07de                	slli	a5,a5,0x17
    b7aa:	8d5d                	or	a0,a0,a5
    b7ac:	0141                	addi	sp,sp,16
    b7ae:	8082                	ret

0000b7b0 <__extendsfdf2>:
    b7b0:	01755713          	srli	a4,a0,0x17
    b7b4:	0ff77713          	andi	a4,a4,255
    b7b8:	1141                	addi	sp,sp,-16
    b7ba:	00170793          	addi	a5,a4,1
    b7be:	c422                	sw	s0,8(sp)
    b7c0:	c226                	sw	s1,4(sp)
    b7c2:	00951413          	slli	s0,a0,0x9
    b7c6:	c606                	sw	ra,12(sp)
    b7c8:	0fe7f793          	andi	a5,a5,254
    b7cc:	8025                	srli	s0,s0,0x9
    b7ce:	01f55493          	srli	s1,a0,0x1f
    b7d2:	c785                	beqz	a5,b7fa <__extendsfdf2+0x4a>
    b7d4:	00345793          	srli	a5,s0,0x3
    b7d8:	38070713          	addi	a4,a4,896
    b7dc:	0476                	slli	s0,s0,0x1d
    b7de:	07b2                	slli	a5,a5,0xc
    b7e0:	0752                	slli	a4,a4,0x14
    b7e2:	83b1                	srli	a5,a5,0xc
    b7e4:	01f49513          	slli	a0,s1,0x1f
    b7e8:	8fd9                	or	a5,a5,a4
    b7ea:	8fc9                	or	a5,a5,a0
    b7ec:	40b2                	lw	ra,12(sp)
    b7ee:	8522                	mv	a0,s0
    b7f0:	4422                	lw	s0,8(sp)
    b7f2:	4492                	lw	s1,4(sp)
    b7f4:	85be                	mv	a1,a5
    b7f6:	0141                	addi	sp,sp,16
    b7f8:	8082                	ret
    b7fa:	eb05                	bnez	a4,b82a <__extendsfdf2+0x7a>
    b7fc:	c439                	beqz	s0,b84a <__extendsfdf2+0x9a>
    b7fe:	8522                	mv	a0,s0
    b800:	22d9                	jal	b9c6 <__clzsi2>
    b802:	47a9                	li	a5,10
    b804:	04a7c663          	blt	a5,a0,b850 <__extendsfdf2+0xa0>
    b808:	472d                	li	a4,11
    b80a:	8f09                	sub	a4,a4,a0
    b80c:	01550793          	addi	a5,a0,21
    b810:	00e45733          	srl	a4,s0,a4
    b814:	00f41433          	sll	s0,s0,a5
    b818:	00c71793          	slli	a5,a4,0xc
    b81c:	38900713          	li	a4,905
    b820:	8f09                	sub	a4,a4,a0
    b822:	83b1                	srli	a5,a5,0xc
    b824:	7ff77713          	andi	a4,a4,2047
    b828:	bf5d                	j	b7de <__extendsfdf2+0x2e>
    b82a:	cc01                	beqz	s0,b842 <__extendsfdf2+0x92>
    b82c:	00345713          	srli	a4,s0,0x3
    b830:	000807b7          	lui	a5,0x80
    b834:	8fd9                	or	a5,a5,a4
    b836:	07b2                	slli	a5,a5,0xc
    b838:	0476                	slli	s0,s0,0x1d
    b83a:	83b1                	srli	a5,a5,0xc
    b83c:	7ff00713          	li	a4,2047
    b840:	bf79                	j	b7de <__extendsfdf2+0x2e>
    b842:	7ff00713          	li	a4,2047
    b846:	4781                	li	a5,0
    b848:	bf59                	j	b7de <__extendsfdf2+0x2e>
    b84a:	4701                	li	a4,0
    b84c:	4781                	li	a5,0
    b84e:	bf41                	j	b7de <__extendsfdf2+0x2e>
    b850:	ff550713          	addi	a4,a0,-11
    b854:	00e41733          	sll	a4,s0,a4
    b858:	4401                	li	s0,0
    b85a:	bf7d                	j	b818 <__extendsfdf2+0x68>

0000b85c <__truncdfsf2>:
    b85c:	0145d693          	srli	a3,a1,0x14
    b860:	00c59793          	slli	a5,a1,0xc
    b864:	7ff6f693          	andi	a3,a3,2047
    b868:	83b1                	srli	a5,a5,0xc
    b86a:	00168613          	addi	a2,a3,1 # fc000001 <_eusrstack+0xdbff0001>
    b86e:	078e                	slli	a5,a5,0x3
    b870:	01d55713          	srli	a4,a0,0x1d
    b874:	7fe67613          	andi	a2,a2,2046
    b878:	81fd                	srli	a1,a1,0x1f
    b87a:	8f5d                	or	a4,a4,a5
    b87c:	00351893          	slli	a7,a0,0x3
    b880:	ce35                	beqz	a2,b8fc <__truncdfsf2+0xa0>
    b882:	c8068813          	addi	a6,a3,-896
    b886:	0fe00793          	li	a5,254
    b88a:	0107dd63          	bge	a5,a6,b8a4 <__truncdfsf2+0x48>
    b88e:	4781                	li	a5,0
    b890:	00979513          	slli	a0,a5,0x9
    b894:	0ff00693          	li	a3,255
    b898:	06de                	slli	a3,a3,0x17
    b89a:	8125                	srli	a0,a0,0x9
    b89c:	05fe                	slli	a1,a1,0x1f
    b89e:	8d55                	or	a0,a0,a3
    b8a0:	8d4d                	or	a0,a0,a1
    b8a2:	8082                	ret
    b8a4:	0b005563          	blez	a6,b94e <__truncdfsf2+0xf2>
    b8a8:	00651793          	slli	a5,a0,0x6
    b8ac:	070e                	slli	a4,a4,0x3
    b8ae:	00f037b3          	snez	a5,a5
    b8b2:	8fd9                	or	a5,a5,a4
    b8b4:	01d8d893          	srli	a7,a7,0x1d
    b8b8:	0117e7b3          	or	a5,a5,a7
    b8bc:	0077f713          	andi	a4,a5,7
    b8c0:	10070163          	beqz	a4,b9c2 <__truncdfsf2+0x166>
    b8c4:	00f7f713          	andi	a4,a5,15
    b8c8:	4691                	li	a3,4
    b8ca:	00d70363          	beq	a4,a3,b8d0 <__truncdfsf2+0x74>
    b8ce:	0791                	addi	a5,a5,4
    b8d0:	04000737          	lui	a4,0x4000
    b8d4:	8f7d                	and	a4,a4,a5
    b8d6:	c775                	beqz	a4,b9c2 <__truncdfsf2+0x166>
    b8d8:	00180713          	addi	a4,a6,1
    b8dc:	0ff00613          	li	a2,255
    b8e0:	0ff77693          	andi	a3,a4,255
    b8e4:	fac705e3          	beq	a4,a2,b88e <__truncdfsf2+0x32>
    b8e8:	079a                	slli	a5,a5,0x6
    b8ea:	83a5                	srli	a5,a5,0x9
    b8ec:	00979513          	slli	a0,a5,0x9
    b8f0:	06de                	slli	a3,a3,0x17
    b8f2:	8125                	srli	a0,a0,0x9
    b8f4:	05fe                	slli	a1,a1,0x1f
    b8f6:	8d55                	or	a0,a0,a3
    b8f8:	8d4d                	or	a0,a0,a1
    b8fa:	8082                	ret
    b8fc:	011767b3          	or	a5,a4,a7
    b900:	ee99                	bnez	a3,b91e <__truncdfsf2+0xc2>
    b902:	cf85                	beqz	a5,b93a <__truncdfsf2+0xde>
    b904:	4795                	li	a5,5
    b906:	079a                	slli	a5,a5,0x6
    b908:	83a5                	srli	a5,a5,0x9
    b90a:	00979513          	slli	a0,a5,0x9
    b90e:	0ff6f693          	andi	a3,a3,255
    b912:	06de                	slli	a3,a3,0x17
    b914:	8125                	srli	a0,a0,0x9
    b916:	05fe                	slli	a1,a1,0x1f
    b918:	8d55                	or	a0,a0,a3
    b91a:	8d4d                	or	a0,a0,a1
    b91c:	8082                	ret
    b91e:	dba5                	beqz	a5,b88e <__truncdfsf2+0x32>
    b920:	004007b7          	lui	a5,0x400
    b924:	00979513          	slli	a0,a5,0x9
    b928:	0ff00693          	li	a3,255
    b92c:	06de                	slli	a3,a3,0x17
    b92e:	4581                	li	a1,0
    b930:	8125                	srli	a0,a0,0x9
    b932:	05fe                	slli	a1,a1,0x1f
    b934:	8d55                	or	a0,a0,a3
    b936:	8d4d                	or	a0,a0,a1
    b938:	8082                	ret
    b93a:	4781                	li	a5,0
    b93c:	00979513          	slli	a0,a5,0x9
    b940:	4681                	li	a3,0
    b942:	06de                	slli	a3,a3,0x17
    b944:	8125                	srli	a0,a0,0x9
    b946:	05fe                	slli	a1,a1,0x1f
    b948:	8d55                	or	a0,a0,a3
    b94a:	8d4d                	or	a0,a0,a1
    b94c:	8082                	ret
    b94e:	57a5                	li	a5,-23
    b950:	04f84863          	blt	a6,a5,b9a0 <__truncdfsf2+0x144>
    b954:	47f9                	li	a5,30
    b956:	00800637          	lui	a2,0x800
    b95a:	410787b3          	sub	a5,a5,a6
    b95e:	457d                	li	a0,31
    b960:	8e59                	or	a2,a2,a4
    b962:	04f55163          	bge	a0,a5,b9a4 <__truncdfsf2+0x148>
    b966:	5779                	li	a4,-2
    b968:	41070733          	sub	a4,a4,a6
    b96c:	02000513          	li	a0,32
    b970:	00e65733          	srl	a4,a2,a4
    b974:	00a78863          	beq	a5,a0,b984 <__truncdfsf2+0x128>
    b978:	ca268693          	addi	a3,a3,-862
    b97c:	00d616b3          	sll	a3,a2,a3
    b980:	00d8e8b3          	or	a7,a7,a3
    b984:	011037b3          	snez	a5,a7
    b988:	8fd9                	or	a5,a5,a4
    b98a:	0077f713          	andi	a4,a5,7
    b98e:	4801                	li	a6,0
    b990:	fb15                	bnez	a4,b8c4 <__truncdfsf2+0x68>
    b992:	00579713          	slli	a4,a5,0x5
    b996:	4685                	li	a3,1
    b998:	f40748e3          	bltz	a4,b8e8 <__truncdfsf2+0x8c>
    b99c:	4681                	li	a3,0
    b99e:	b7a5                	j	b906 <__truncdfsf2+0xaa>
    b9a0:	4681                	li	a3,0
    b9a2:	b78d                	j	b904 <__truncdfsf2+0xa8>
    b9a4:	c8268693          	addi	a3,a3,-894
    b9a8:	00d89733          	sll	a4,a7,a3
    b9ac:	00e03733          	snez	a4,a4
    b9b0:	00d616b3          	sll	a3,a2,a3
    b9b4:	00f8d8b3          	srl	a7,a7,a5
    b9b8:	00d767b3          	or	a5,a4,a3
    b9bc:	00f8e7b3          	or	a5,a7,a5
    b9c0:	b7e9                	j	b98a <__truncdfsf2+0x12e>
    b9c2:	86c2                	mv	a3,a6
    b9c4:	b789                	j	b906 <__truncdfsf2+0xaa>

0000b9c6 <__clzsi2>:
    b9c6:	67c1                	lui	a5,0x10
    b9c8:	02f57c63          	bgeu	a0,a5,ba00 <__clzsi2+0x3a>
    b9cc:	0ff00793          	li	a5,255
    b9d0:	02000713          	li	a4,32
    b9d4:	00a7eb63          	bltu	a5,a0,b9ea <__clzsi2+0x24>
    b9d8:	00005797          	auipc	a5,0x5
    b9dc:	62c78793          	addi	a5,a5,1580 # 11004 <__clz_tab>
    b9e0:	97aa                	add	a5,a5,a0
    b9e2:	2388                	lbu	a0,0(a5)
    b9e4:	40a70533          	sub	a0,a4,a0
    b9e8:	8082                	ret
    b9ea:	8121                	srli	a0,a0,0x8
    b9ec:	00005797          	auipc	a5,0x5
    b9f0:	61878793          	addi	a5,a5,1560 # 11004 <__clz_tab>
    b9f4:	97aa                	add	a5,a5,a0
    b9f6:	2388                	lbu	a0,0(a5)
    b9f8:	4761                	li	a4,24
    b9fa:	40a70533          	sub	a0,a4,a0
    b9fe:	8082                	ret
    ba00:	010007b7          	lui	a5,0x1000
    ba04:	00f56d63          	bltu	a0,a5,ba1e <__clzsi2+0x58>
    ba08:	8161                	srli	a0,a0,0x18
    ba0a:	00005797          	auipc	a5,0x5
    ba0e:	5fa78793          	addi	a5,a5,1530 # 11004 <__clz_tab>
    ba12:	97aa                	add	a5,a5,a0
    ba14:	2388                	lbu	a0,0(a5)
    ba16:	4721                	li	a4,8
    ba18:	40a70533          	sub	a0,a4,a0
    ba1c:	8082                	ret
    ba1e:	8141                	srli	a0,a0,0x10
    ba20:	00005797          	auipc	a5,0x5
    ba24:	5e478793          	addi	a5,a5,1508 # 11004 <__clz_tab>
    ba28:	97aa                	add	a5,a5,a0
    ba2a:	2388                	lbu	a0,0(a5)
    ba2c:	4741                	li	a4,16
    ba2e:	40a70533          	sub	a0,a4,a0
    ba32:	8082                	ret

0000ba34 <__errno>:
    ba34:	81018793          	addi	a5,gp,-2032 # 200001d0 <_impure_ptr>
    ba38:	4388                	lw	a0,0(a5)
    ba3a:	8082                	ret

0000ba3c <memcmp>:
    ba3c:	4701                	li	a4,0
    ba3e:	00e61463          	bne	a2,a4,ba46 <memcmp+0xa>
    ba42:	4501                	li	a0,0
    ba44:	8082                	ret
    ba46:	00e507b3          	add	a5,a0,a4
    ba4a:	0705                	addi	a4,a4,1
    ba4c:	00e586b3          	add	a3,a1,a4
    ba50:	239c                	lbu	a5,0(a5)
    ba52:	fff6c683          	lbu	a3,-1(a3)
    ba56:	fed784e3          	beq	a5,a3,ba3e <memcmp+0x2>
    ba5a:	40d78533          	sub	a0,a5,a3
    ba5e:	8082                	ret

0000ba60 <memcpy>:
    ba60:	00a5c7b3          	xor	a5,a1,a0
    ba64:	8b8d                	andi	a5,a5,3
    ba66:	00c50733          	add	a4,a0,a2
    ba6a:	e781                	bnez	a5,ba72 <memcpy+0x12>
    ba6c:	478d                	li	a5,3
    ba6e:	00c7ed63          	bltu	a5,a2,ba88 <memcpy+0x28>
    ba72:	87aa                	mv	a5,a0
    ba74:	08e57e63          	bgeu	a0,a4,bb10 <memcpy+0xb0>
    ba78:	2194                	lbu	a3,0(a1)
    ba7a:	0785                	addi	a5,a5,1
    ba7c:	0585                	addi	a1,a1,1
    ba7e:	fed78fa3          	sb	a3,-1(a5)
    ba82:	fee7ebe3          	bltu	a5,a4,ba78 <memcpy+0x18>
    ba86:	8082                	ret
    ba88:	00357693          	andi	a3,a0,3
    ba8c:	87aa                	mv	a5,a0
    ba8e:	ca89                	beqz	a3,baa0 <memcpy+0x40>
    ba90:	2194                	lbu	a3,0(a1)
    ba92:	0785                	addi	a5,a5,1
    ba94:	0585                	addi	a1,a1,1
    ba96:	fed78fa3          	sb	a3,-1(a5)
    ba9a:	0037f693          	andi	a3,a5,3
    ba9e:	bfc5                	j	ba8e <memcpy+0x2e>
    baa0:	ffc77693          	andi	a3,a4,-4
    baa4:	fe068613          	addi	a2,a3,-32
    baa8:	06c7f063          	bgeu	a5,a2,bb08 <memcpy+0xa8>
    baac:	0005a383          	lw	t2,0(a1)
    bab0:	0045a283          	lw	t0,4(a1)
    bab4:	0085af83          	lw	t6,8(a1)
    bab8:	00c5af03          	lw	t5,12(a1)
    babc:	0105ae83          	lw	t4,16(a1)
    bac0:	0145ae03          	lw	t3,20(a1)
    bac4:	0185a303          	lw	t1,24(a1)
    bac8:	01c5a883          	lw	a7,28(a1)
    bacc:	02458593          	addi	a1,a1,36
    bad0:	0077a023          	sw	t2,0(a5)
    bad4:	ffc5a803          	lw	a6,-4(a1)
    bad8:	0057a223          	sw	t0,4(a5)
    badc:	01f7a423          	sw	t6,8(a5)
    bae0:	01e7a623          	sw	t5,12(a5)
    bae4:	01d7a823          	sw	t4,16(a5)
    bae8:	01c7aa23          	sw	t3,20(a5)
    baec:	0067ac23          	sw	t1,24(a5)
    baf0:	0117ae23          	sw	a7,28(a5)
    baf4:	02478793          	addi	a5,a5,36
    baf8:	ff07ae23          	sw	a6,-4(a5)
    bafc:	b775                	j	baa8 <memcpy+0x48>
    bafe:	4190                	lw	a2,0(a1)
    bb00:	0791                	addi	a5,a5,4
    bb02:	0591                	addi	a1,a1,4
    bb04:	fec7ae23          	sw	a2,-4(a5)
    bb08:	fed7ebe3          	bltu	a5,a3,bafe <memcpy+0x9e>
    bb0c:	f6e7e6e3          	bltu	a5,a4,ba78 <memcpy+0x18>
    bb10:	8082                	ret

0000bb12 <strcat>:
    bb12:	87aa                	mv	a5,a0
    bb14:	2398                	lbu	a4,0(a5)
    bb16:	00178693          	addi	a3,a5,1
    bb1a:	eb09                	bnez	a4,bb2c <strcat+0x1a>
    bb1c:	0585                	addi	a1,a1,1
    bb1e:	fff5c703          	lbu	a4,-1(a1)
    bb22:	0785                	addi	a5,a5,1
    bb24:	fee78fa3          	sb	a4,-1(a5)
    bb28:	fb75                	bnez	a4,bb1c <strcat+0xa>
    bb2a:	8082                	ret
    bb2c:	87b6                	mv	a5,a3
    bb2e:	b7dd                	j	bb14 <strcat+0x2>

0000bb30 <strcpy>:
    bb30:	87aa                	mv	a5,a0
    bb32:	2198                	lbu	a4,0(a1)
    bb34:	0785                	addi	a5,a5,1
    bb36:	0585                	addi	a1,a1,1
    bb38:	fee78fa3          	sb	a4,-1(a5)
    bb3c:	fb7d                	bnez	a4,bb32 <strcpy+0x2>
    bb3e:	8082                	ret

0000bb40 <strlen>:
    bb40:	87aa                	mv	a5,a0
    bb42:	0785                	addi	a5,a5,1
    bb44:	fff7c703          	lbu	a4,-1(a5)
    bb48:	ff6d                	bnez	a4,bb42 <strlen+0x2>
    bb4a:	40a78533          	sub	a0,a5,a0
    bb4e:	157d                	addi	a0,a0,-1
    bb50:	8082                	ret

0000bb52 <strncmp>:
    bb52:	c215                	beqz	a2,bb76 <strncmp+0x24>
    bb54:	167d                	addi	a2,a2,-1
    bb56:	4701                	li	a4,0
    bb58:	00e507b3          	add	a5,a0,a4
    bb5c:	00e586b3          	add	a3,a1,a4
    bb60:	239c                	lbu	a5,0(a5)
    bb62:	2294                	lbu	a3,0(a3)
    bb64:	00d79663          	bne	a5,a3,bb70 <strncmp+0x1e>
    bb68:	00c70463          	beq	a4,a2,bb70 <strncmp+0x1e>
    bb6c:	0705                	addi	a4,a4,1
    bb6e:	f7ed                	bnez	a5,bb58 <strncmp+0x6>
    bb70:	40d78533          	sub	a0,a5,a3
    bb74:	8082                	ret
    bb76:	4501                	li	a0,0
    bb78:	8082                	ret
    bb7a:	0000                	unimp
    bb7c:	cf48                	sw	a0,28(a4)
    bb7e:	0000                	unimp
    bb80:	cf5c                	sw	a5,28(a4)
    bb82:	0000                	unimp
    bb84:	cf6c                	sw	a1,92(a4)
    bb86:	0000                	unimp
    bb88:	cf80                	sw	s0,24(a5)
    bb8a:	0000                	unimp
    bb8c:	cf8c                	sw	a1,24(a5)
    bb8e:	0000                	unimp
    bb90:	cf98                	sw	a4,24(a5)
    bb92:	0000                	unimp
    bb94:	cf9c                	sw	a5,24(a5)
    bb96:	0000                	unimp
    bb98:	cfac                	sw	a1,88(a5)
    bb9a:	0000                	unimp
    bb9c:	cfbc                	sw	a5,88(a5)
    bb9e:	0000                	unimp
    bba0:	cfc4                	sw	s1,28(a5)
    bba2:	0000                	unimp
    bba4:	cfd8                	sw	a4,28(a5)
    bba6:	0000                	unimp
    bba8:	cfe8                	sw	a0,92(a5)
    bbaa:	0000                	unimp
    bbac:	cff0                	sw	a2,92(a5)
    bbae:	0000                	unimp
    bbb0:	cffc                	sw	a5,92(a5)
    bbb2:	0000                	unimp
    bbb4:	d008                	sw	a0,32(s0)
    bbb6:	0000                	unimp
    bbb8:	d01c                	sw	a5,32(s0)
    bbba:	0000                	unimp
    bbbc:	d024                	sw	s1,96(s0)
    bbbe:	0000                	unimp
    bbc0:	d034                	sw	a3,96(s0)
    bbc2:	0000                	unimp
    bbc4:	d044                	sw	s1,36(s0)
    bbc6:	0000                	unimp
    bbc8:	d05c                	sw	a5,36(s0)
	...

0000bbcc <__FUNCTION__.2479>:
    bbcc:	7472 615f 7070 696c 6163 6974 6e6f 695f     rt_application_i
    bbdc:	696e 0074                                   nit.

0000bbe0 <__rti_rti_board_end_name>:
    bbe0:	7472 5f69 6f62 7261 5f64 6e65 0064 0000     rti_board_end...

0000bbf0 <__rti_rti_board_start_name>:
    bbf0:	7472 5f69 6f62 7261 5f64 7473 7261 0074     rti_board_start.

0000bc00 <__rti_rti_start_name>:
    bc00:	7472 5f69 7473 7261 0074 0000 616d 6e69     rti_start...main
    bc10:	0000 0000 6974 2064 3d21 5220 5f54 554e     ....tid != RT_NU
    bc20:	4c4c 0000 6e69 7469 6169 696c 657a 2520     LL..initialize %
    bc30:	0073 0000 253a 2064 6f64 656e 000a 0000     s...:%d done....
    bc40:	6f64 6320 6d6f 6f70 656e 746e 2073 6e69     do components in
    bc50:	7469 6169 696c 617a 6974 6e6f 0a2e 0000     itialization....

0000bc60 <__FUNCTION__.2369>:
    bc60:	7472 645f 7665 6369 5f65 6966 646e 0000     rt_device_find..

0000bc70 <__FUNCTION__.2393>:
    bc70:	7472 645f 7665 6369 5f65 706f 6e65 0000     rt_device_open..

0000bc80 <__FUNCTION__.2398>:
    bc80:	7472 645f 7665 6369 5f65 6c63 736f 0065     rt_device_close.

0000bc90 <__FUNCTION__.2405>:
    bc90:	7472 645f 7665 6369 5f65 6572 6461 0000     rt_device_read..

0000bca0 <__FUNCTION__.2412>:
    bca0:	7472 645f 7665 6369 5f65 7277 7469 0065     rt_device_write.

0000bcb0 <__FUNCTION__.2425>:
    bcb0:	7472 645f 7665 6369 5f65 6573 5f74 7872     rt_device_set_rx
    bcc0:	695f 646e 6369 7461 0065 0000 6e69 6f66     _indicate...info
    bcd0:	6d72 7461 6f69 206e 3d21 5220 5f54 554e     rmation != RT_NU
    bce0:	4c4c 0000 6f54 6920 696e 6974 6c61 7a69     LL..To initializ
    bcf0:	2065 6564 6976 6563 253a 2073 6166 6c69     e device:%s fail
    bd00:	6465 202e 6854 2065 7265 6f72 2072 6f63     ed. The error co
    bd10:	6564 6920 2073 6425 000a 0000 6564 2d76     de is %d....dev-
    bd20:	723e 6665 635f 756f 746e 2120 203d 0030     >ref_count != 0.
    bd30:	6564 2076 3d21 5220 5f54 554e 4c4c 0000     dev != RT_NULL..
    bd40:	7472 6f5f 6a62 6365 5f74 6567 5f74 7974     rt_object_get_ty
    bd50:	6570 2628 6564 2d76 703e 7261 6e65 2974     pe(&dev->parent)
    bd60:	3d20 203d 5452 4f5f 6a62 6365 5f74 6c43      == RT_Object_Cl
    bd70:	7361 5f73 6544 6976 6563 0000 7472 6f5f     ass_Device..rt_o
    bd80:	6a62 6365 5f74 7369 735f 7379 6574 6f6d     bject_is_systemo
    bd90:	6a62 6365 2874 6426 7665 3e2d 6170 6572     bject(&dev->pare
    bda0:	746e 0029                                   nt).

0000bda4 <__FUNCTION__.2459>:
    bda4:	7472 745f 7268 6165 5f64 6469 656c 655f     rt_thread_idle_e
    bdb4:	6378 7475 0065 0000 7546 636e 6974 6e6f     xcute...Function
    bdc4:	255b 5d73 7320 6168 6c6c 6e20 746f 6220     [%s] shall not b
    bdd4:	2065 7375 6465 6920 206e 5349 0a52 0000     e used in ISR...
    bde4:	6974 6c64 0065 0000                         tidle...

0000bdec <__FUNCTION__.2465>:
    bdec:	7472 735f 6d65 695f 696e 0074               rt_sem_init.

0000bdf8 <__FUNCTION__.2489>:
    bdf8:	7472 735f 6d65 745f 6b61 0065               rt_sem_take.

0000be04 <__FUNCTION__.2500>:
    be04:	7472 735f 6d65 725f 6c65 6165 6573 0000     rt_sem_release..
    be14:	7472 6f5f 6a62 6365 5f74 6567 5f74 7974     rt_object_get_ty
    be24:	6570 2628 6573 2d6d 703e 7261 6e65 2e74     pe(&sem->parent.
    be34:	6170 6572 746e 2029 3d3d 5220 5f54 624f     parent) == RT_Ob
    be44:	656a 7463 435f 616c 7373 535f 6d65 7061     ject_Class_Semap
    be54:	6f68 6572 0000 0000 7472 6f5f 6a62 6365     hore....rt_objec
    be64:	5f74 7369 735f 7379 6574 6f6d 6a62 6365     t_is_systemobjec
    be74:	2874 7326 6d65 3e2d 6170 6572 746e 702e     t(&sem->parent.p
    be84:	7261 6e65 2974 0000 6573 206d 3d21 5220     arent)..sem != R
    be94:	5f54 554e 4c4c 0000 6176 756c 2065 203c     T_NULL..value < 
    bea4:	7830 3031 3030 5530 0000 0000 7546 636e     0x10000U....Func
    beb4:	6974 6e6f 255b 5d73 7320 6168 6c6c 6e20     tion[%s] shall n
    bec4:	746f 6220 2065 7375 6465 6220 6665 726f     ot be used befor
    bed4:	2065 6373 6568 7564 656c 2072 7473 7261     e scheduler star
    bee4:	0a74 0000                                   t...

0000bee8 <__lowest_bit_bitmap>:
    bee8:	0000 0001 0002 0001 0003 0001 0002 0001     ................
    bef8:	0004 0001 0002 0001 0003 0001 0002 0001     ................
    bf08:	0005 0001 0002 0001 0003 0001 0002 0001     ................
    bf18:	0004 0001 0002 0001 0003 0001 0002 0001     ................
    bf28:	0006 0001 0002 0001 0003 0001 0002 0001     ................
    bf38:	0004 0001 0002 0001 0003 0001 0002 0001     ................
    bf48:	0005 0001 0002 0001 0003 0001 0002 0001     ................
    bf58:	0004 0001 0002 0001 0003 0001 0002 0001     ................
    bf68:	0007 0001 0002 0001 0003 0001 0002 0001     ................
    bf78:	0004 0001 0002 0001 0003 0001 0002 0001     ................
    bf88:	0005 0001 0002 0001 0003 0001 0002 0001     ................
    bf98:	0004 0001 0002 0001 0003 0001 0002 0001     ................
    bfa8:	0006 0001 0002 0001 0003 0001 0002 0001     ................
    bfb8:	0004 0001 0002 0001 0003 0001 0002 0001     ................
    bfc8:	0005 0001 0002 0001 0003 0001 0002 0001     ................
    bfd8:	0004 0001 0002 0001 0003 0001 0002 0001     ................

0000bfe8 <large_digits.2599>:
    bfe8:	3130 3332 3534 3736 3938 4241 4443 4645     0123456789ABCDEF
    bff8:	0000 0000 2528 2973 6120 7373 7265 6974     ....(%s) asserti
    c008:	6e6f 6620 6961 656c 2064 7461 6620 6e75     on failed at fun
    c018:	7463 6f69 3a6e 7325 202c 696c 656e 6e20     ction:%s, line n
    c028:	6d75 6562 3a72 6425 0a20 0000 200a 205c     umber:%d .... \ 
    c038:	207c 0a2f 0000 0000 202d 5452 2d20 2020     | /.....- RT -  
    c048:	2020 5420 7268 6165 2064 704f 7265 7461        Thread Operat
    c058:	6e69 2067 7953 7473 6d65 000a 754a 206e     ing System..Jun 
    c068:	3731 3220 3230 0035 2f20 7c20 5c20 2020     17 2025. / | \  
    c078:	2020 2520 2e64 6425 252e 2064 7562 6c69        %d.%d.%d buil
    c088:	2064 7325 000a 0000 3220 3030 2036 202d     d %s.... 2006 - 
    c098:	3032 3931 4320 706f 7279 6769 7468 6220     2019 Copyright b
    c0a8:	2079 7472 742d 7268 6165 2064 6574 6d61     y rt-thread team
    c0b8:	000a 0000 4e28 4c55 294c 0000               ....(NULL)..

0000c0c4 <small_digits.2598>:
    c0c4:	3130 3332 3534 3736 3938 6261 6463 6665     0123456789abcdef
    c0d4:	0000 0000                                   ....

0000c0d8 <__FUNCTION__.2456>:
    c0d8:	6c70 6775 685f 6c6f 7365 0000               plug_holes..

0000c0e4 <__FUNCTION__.2465>:
    c0e4:	7472 735f 7379 6574 5f6d 6568 7061 695f     rt_system_heap_i
    c0f4:	696e 0074                                   nit.

0000c0f8 <__FUNCTION__.2474>:
    c0f8:	7472 6d5f 6c61 6f6c 0063 0000 6f74 6174     rt_malloc...tota
    c108:	206c 656d 6f6d 7972 203a 6425 000a 0000     l memory: %d....
    c118:	7375 6465 6d20 6d65 726f 2079 203a 6425     used memory : %d
    c128:	000a 0000 616d 6978 756d 206d 6c61 6f6c     ....maximum allo
    c138:	6163 6574 2064 656d 6f6d 7972 203a 6425     cated memory: %d
    c148:	000a 0000                                   ....

0000c14c <__fsym_list_mem_desc>:
    c14c:	696c 7473 6d20 6d65 726f 2079 7375 6761     list memory usag
    c15c:	2065 6e69 6f66 6d72 7461 6f69 006e 0000     e information...

0000c16c <__fsym_list_mem_name>:
    c16c:	696c 7473 6d5f 6d65 0000 0000 7228 5f74     list_mem....(rt_
    c17c:	6975 746e 5f38 2074 292a 656d 206d 3d3e     uint8_t *)mem >=
    c18c:	6820 6165 5f70 7470 0072 0000 7228 5f74      heap_ptr...(rt_
    c19c:	6975 746e 5f38 2074 292a 656d 206d 203c     uint8_t *)mem < 
    c1ac:	7228 5f74 6975 746e 5f38 2074 292a 6568     (rt_uint8_t *)he
    c1bc:	7061 655f 646e 0000 656d 2d6d 753e 6573     ap_end..mem->use
    c1cc:	2064 3d3d 3020 0000 2828 7228 5f74 6975     d == 0..(((rt_ui
    c1dc:	746e 3233 745f 7229 656d 296d 2620 2820     nt32_t)rmem) & (
    c1ec:	5452 415f 494c 4e47 535f 5a49 2045 202d     RT_ALIGN_SIZE - 
    c1fc:	2931 2029 3d3d 3020 0000 0000 7228 5f74     1)) == 0....(rt_
    c20c:	6975 746e 5f38 2074 292a 6d72 6d65 3e20     uint8_t *)rmem >
    c21c:	203d 7228 5f74 6975 746e 5f38 2074 292a     = (rt_uint8_t *)
    c22c:	6568 7061 705f 7274 2620 2026 7228 5f74     heap_ptr && (rt_
    c23c:	6975 746e 5f38 2074 292a 6d72 6d65 3c20     uint8_t *)rmem <
    c24c:	2820 7472 755f 6e69 3874 745f 2a20 6829      (rt_uint8_t *)h
    c25c:	6165 5f70 6e65 0064 6f74 6620 6572 2065     eap_end.to free 
    c26c:	2061 6162 2064 6164 6174 6220 6f6c 6b63     a bad data block
    c27c:	0a3a 0000 656d 3a6d 3020 2578 3830 2c78     :...mem: 0x%08x,
    c28c:	7520 6573 2064 6c66 6761 203a 6425 202c      used flag: %d, 
    c29c:	616d 6967 2063 6f63 6564 203a 7830 3025     magic code: 0x%0
    c2ac:	7834 000a 656d 2d6d 753e 6573 0064 0000     4x..mem->used...
    c2bc:	656d 2d6d 6d3e 6761 6369 3d20 203d 4548     mem->magic == HE
    c2cc:	5041 4d5f 4741 4349 0000 0000 7228 5f74     AP_MAGIC....(rt_
    c2dc:	6975 746e 3233 745f 6d29 6d65 2b20 5320     uint32_t)mem + S
    c2ec:	5a49 4f45 5f46 5453 5552 5443 4d5f 4d45     IZEOF_STRUCT_MEM
    c2fc:	2b20 7320 7a69 2065 3d3c 2820 7472 755f      + size <= (rt_u
    c30c:	6e69 3374 5f32 2974 6568 7061 655f 646e     int32_t)heap_end
    c31c:	0000 0000 7228 5f74 6975 746e 3233 745f     ....(rt_uint32_t
    c32c:	2829 7228 5f74 6975 746e 5f38 2074 292a     )((rt_uint8_t *)
    c33c:	656d 206d 202b 4953 455a 464f 535f 5254     mem + SIZEOF_STR
    c34c:	4355 5f54 454d 294d 2520 5220 5f54 4c41     UCT_MEM) % RT_AL
    c35c:	4749 5f4e 4953 455a 3d20 203d 0030 0000     IGN_SIZE == 0...
    c36c:	2828 7228 5f74 6975 746e 3233 745f 6d29     (((rt_uint32_t)m
    c37c:	6d65 2029 2026 5228 5f54 4c41 4749 5f4e     em) & (RT_ALIGN_
    c38c:	4953 455a 2d20 3120 2929 3d20 203d 0030     SIZE - 1)) == 0.
    c39c:	6568 7061 0000 0000 656d 206d 6e69 7469     heap....mem init
    c3ac:	202c 7265 6f72 2072 6562 6967 206e 6461     , error begin ad
    c3bc:	7264 7365 2073 7830 7825 202c 6e61 2064     dress 0x%x, and 
    c3cc:	6e65 2064 6461 7264 7365 2073 7830 7825     end address 0x%x
    c3dc:	000a 0000                                   ....

0000c3e0 <__FUNCTION__.2484>:
    c3e0:	7472 6f5f 6a62 6365 5f74 6e69 7469 0000     rt_object_init..

0000c3f0 <__FUNCTION__.2493>:
    c3f0:	7472 6f5f 6a62 6365 5f74 6564 6174 6863     rt_object_detach
    c400:	0000 0000                                   ....

0000c404 <__FUNCTION__.2502>:
    c404:	7472 6f5f 6a62 6365 5f74 6c61 6f6c 6163     rt_object_alloca
    c414:	6574 0000                                   te..

0000c418 <__FUNCTION__.2507>:
    c418:	7472 6f5f 6a62 6365 5f74 6564 656c 6574     rt_object_delete
    c428:	0000 0000                                   ....

0000c42c <__FUNCTION__.2511>:
    c42c:	7472 6f5f 6a62 6365 5f74 7369 735f 7379     rt_object_is_sys
    c43c:	6574 6f6d 6a62 6365 0074 0000               temobject...

0000c448 <__FUNCTION__.2515>:
    c448:	7472 6f5f 6a62 6365 5f74 6567 5f74 7974     rt_object_get_ty
    c458:	6570 0000 2821 626f 656a 7463 3e2d 7974     pe..!(object->ty
    c468:	6570 2620 5220 5f54 624f 656a 7463 435f     pe & RT_Object_C
    c478:	616c 7373 535f 6174 6974 2963 0000 0000     lass_Static)....
    c488:	626f 656a 7463 2120 203d 5452 4e5f 4c55     object != RT_NUL
    c498:	004c 0000 626f 206a 3d21 6f20 6a62 6365     L...obj != objec
    c4a8:	0074 0000                                   t...

0000c4ac <__FUNCTION__.2443>:
    c4ac:	725f 5f74 6373 6568 7564 656c 5f72 7473     _rt_scheduler_st
    c4bc:	6361 5f6b 6863 6365 006b 0000               ack_check...

0000c4c8 <__FUNCTION__.2474>:
    c4c8:	7472 735f 6863 6465 6c75 5f65 6e69 6573     rt_schedule_inse
    c4d8:	7472 745f 7268 6165 0064 0000               rt_thread...

0000c4e4 <__FUNCTION__.2479>:
    c4e4:	7472 735f 6863 6465 6c75 5f65 6572 6f6d     rt_schedule_remo
    c4f4:	6576 745f 7268 6165 0064 0000 6874 6572     ve_thread...thre
    c504:	6461 2120 203d 5452 4e5f 4c55 004c 0000     ad != RT_NULL...
    c514:	6874 6572 6461 253a 2073 7473 6361 206b     thread:%s stack 
    c524:	766f 7265 6c66 776f 000a 0000 6177 6e72     overflow....warn
    c534:	6e69 3a67 2520 2073 7473 6361 206b 7369     ing: %s stack is
    c544:	6320 6f6c 6573 7420 206f 6874 2065 6f62      close to the bo
    c554:	7474 6d6f 6f20 2066 7473 6361 206b 6461     ttom of stack ad
    c564:	7264 7365 2e73 000a                         dress...

0000c56c <__FUNCTION__.2462>:
    c56c:	725f 5f74 6874 6572 6461 695f 696e 0074     _rt_thread_init.

0000c57c <__FUNCTION__.2474>:
    c57c:	7472 745f 7268 6165 5f64 6e69 7469 0000     rt_thread_init..

0000c58c <__FUNCTION__.2481>:
    c58c:	7472 745f 7268 6165 5f64 7473 7261 7574     rt_thread_startu
    c59c:	0070 0000                                   p...

0000c5a0 <__FUNCTION__.2513>:
    c5a0:	7472 745f 7268 6165 5f64 6c73 6565 0070     rt_thread_sleep.

0000c5b0 <__FUNCTION__.2537>:
    c5b0:	7472 745f 7268 6165 5f64 7573 7073 6e65     rt_thread_suspen
    c5c0:	0064 0000                                   d...

0000c5c4 <__FUNCTION__.2542>:
    c5c4:	7472 745f 7268 6165 5f64 6572 7573 656d     rt_thread_resume
    c5d4:	0000 0000                                   ....

0000c5d8 <__FUNCTION__.2547>:
    c5d8:	7472 745f 7268 6165 5f64 6974 656d 756f     rt_thread_timeou
    c5e8:	0074 0000 7270 6f69 6972 7974 3c20 5220     t...priority < R
    c5f8:	5f54 4854 4552 4441 505f 4952 524f 5449     T_THREAD_PRIORIT
    c608:	5f59 414d 0058 0000 7473 6361 5f6b 7473     Y_MAX...stack_st
    c618:	7261 2074 3d21 5220 5f54 554e 4c4c 0000     art != RT_NULL..
    c628:	7428 7268 6165 2d64 733e 6174 2074 2026     (thread->stat & 
    c638:	5452 545f 5248 4145 5f44 5453 5441 4d5f     RT_THREAD_STAT_M
    c648:	5341 294b 3d20 203d 5452 545f 5248 4145     ASK) == RT_THREA
    c658:	5f44 4e49 5449 0000 7428 7268 6165 2d64     D_INIT..(thread-
    c668:	733e 6174 2074 2026 5452 545f 5248 4145     >stat & RT_THREA
    c678:	5f44 5453 5441 4d5f 5341 294b 3d20 203d     D_STAT_MASK) == 
    c688:	5452 545f 5248 4145 5f44 5553 5053 4e45     RT_THREAD_SUSPEN
    c698:	0044 0000 7472 6f5f 6a62 6365 5f74 6567     D...rt_object_ge
    c6a8:	5f74 7974 6570 2828 7472 6f5f 6a62 6365     t_type((rt_objec
    c6b8:	5f74 2974 6874 6572 6461 2029 3d3d 5220     t_t)thread) == R
    c6c8:	5f54 624f 656a 7463 435f 616c 7373 545f     T_Object_Class_T
    c6d8:	7268 6165 0064 0000                         hread...

0000c6e0 <__FUNCTION__.2474>:
    c6e0:	7472 745f 6d69 7265 695f 696e 0074 0000     rt_timer_init...

0000c6f0 <__FUNCTION__.2479>:
    c6f0:	7472 745f 6d69 7265 645f 7465 6361 0068     rt_timer_detach.

0000c700 <__FUNCTION__.2503>:
    c700:	7472 745f 6d69 7265 735f 6174 7472 0000     rt_timer_start..

0000c710 <__FUNCTION__.2520>:
    c710:	7472 745f 6d69 7265 735f 6f74 0070 0000     rt_timer_stop...

0000c720 <__FUNCTION__.2526>:
    c720:	7472 745f 6d69 7265 635f 6e6f 7274 6c6f     rt_timer_control
    c730:	0000 0000 7472 6f5f 6a62 6365 5f74 6567     ....rt_object_ge
    c740:	5f74 7974 6570 2628 6974 656d 2d72 703e     t_type(&timer->p
    c750:	7261 6e65 2974 3d20 203d 5452 4f5f 6a62     arent) == RT_Obj
    c760:	6365 5f74 6c43 7361 5f73 6954 656d 0072     ect_Class_Timer.
    c770:	7472 6f5f 6a62 6365 5f74 7369 735f 7379     rt_object_is_sys
    c780:	6574 6f6d 6a62 6365 2874 7426 6d69 7265     temobject(&timer
    c790:	3e2d 6170 6572 746e 0029 0000 6974 656d     ->parent)...time
    c7a0:	2072 3d21 5220 5f54 554e 4c4c 0000 0000     r != RT_NULL....
    c7b0:	6974 656d 2d72 693e 696e 5f74 6974 6b63     timer->init_tick
    c7c0:	3c20 5220 5f54 4954 4b43 4d5f 5841 2f20      < RT_TICK_MAX /
    c7d0:	3220 0000 5b1b 4a32 5b1b 0048 2d2d 7546      2...[2J.[H.--Fu
    c7e0:	636e 6974 6e6f 4c20 7369 3a74 000a 0000     nction List:....
    c7f0:	5f5f 0000 2d25 3631 2073 2d2d 2520 0a73     __..%-16s -- %s.
    c800:	0000 0000 6564 6976 6563 0000 2d25 2e2a     ....device..%-*.
    c810:	2073 2020 2020 2020 2020 7974 6570 2020     s         type  
    c820:	2020 2020 2020 7220 6665 6320 756f 746e            ref count
    c830:	000a 0000 2d20 2d2d 2d2d 2d2d 2d2d 2d2d     .... -----------
    c840:	2d2d 2d2d 2d2d 2d2d 202d 2d2d 2d2d 2d2d     --------- ------
    c850:	2d2d 2d2d 000a 0000 2d25 2e2a 732a 2520     ----....%-*.*s %
    c860:	322d 7330 2520 382d 0a64 0000 7665 6e65     -20s %-8d...even
    c870:	0074 0000 2d25 2e2a 2073 2020 2020 7320     t...%-*.s      s
    c880:	7465 2020 2020 7573 7073 6e65 2064 6874     et    suspend th
    c890:	6572 6461 000a 0000 2020 2d2d 2d2d 2d2d     read....  ------
    c8a0:	2d2d 2d2d 2d20 2d2d 2d2d 2d2d 2d2d 2d2d     ---- -----------
    c8b0:	2d2d 0a2d 0000 0000 2d25 2e2a 732a 2020     ---.....%-*.*s  
    c8c0:	7830 3025 7838 2520 3330 3a64 0000 0000     0x%08x %03d:....
    c8d0:	2d25 2e2a 732a 2020 7830 3025 7838 3020     %-*.*s  0x%08x 0
    c8e0:	000a 0000 616d 6c69 6f62 0078 2d25 2e2a     ....mailbox.%-*.
    c8f0:	2073 6e65 7274 2079 6973 657a 7320 7375     s entry size sus
    c900:	6570 646e 7420 7268 6165 0a64 0000 0000     pend thread.....
    c910:	2d20 2d2d 202d 2d20 2d2d 202d 2d2d 2d2d      ----  ---- ----
    c920:	2d2d 2d2d 2d2d 2d2d 2d2d 000a 2d25 2e2a     ----------..%-*.
    c930:	732a 2520 3430 2064 2520 3430 2064 6425     *s %04d  %04d %d
    c940:	003a 0000 2d25 2e2a 732a 2520 3430 2064     :...%-*.*s %04d 
    c950:	2520 3430 2064 6425 000a 0000 736d 7167      %04d %d....msgq
    c960:	6575 6575 0000 0000 2d25 2e2a 2073 6e65     ueue....%-*.s en
    c970:	7274 2079 7573 7073 6e65 2064 6874 6572     try suspend thre
    c980:	6461 000a 2d20 2d2d 202d 2d20 2d2d 2d2d     ad.. ----  -----
    c990:	2d2d 2d2d 2d2d 2d2d 0a2d 0000 2d25 2e2a     ---------...%-*.
    c9a0:	732a 2520 3430 2064 2520 3a64 0000 0000     *s %04d  %d:....
    c9b0:	2d25 2e2a 732a 2520 3430 2064 2520 0a64     %-*.*s %04d  %d.
    c9c0:	0000 0000 756d 6574 0078 0000 2d25 2e2a     ....mutex...%-*.
    c9d0:	2073 2020 776f 656e 2072 6820 6c6f 2064     s   owner  hold 
    c9e0:	7573 7073 6e65 2064 6874 6572 6461 000a     suspend thread..
    c9f0:	2d20 2d2d 2d2d 2d2d 202d 2d2d 2d2d 2d20      -------- ---- -
    ca00:	2d2d 2d2d 2d2d 2d2d 2d2d 2d2d 0a2d 0000     -------------...
    ca10:	2d25 2e2a 732a 2520 382d 2a2e 2073 3025     %-*.*s %-8.*s %0
    ca20:	6434 2520 0a64 0000 6573 616d 6870 726f     4d %d...semaphor
    ca30:	0065 0000 2d25 2e2a 2073 2076 2020 7573     e...%-*.s v   su
    ca40:	7073 6e65 2064 6874 6572 6461 000a 0000     spend thread....
    ca50:	2d20 2d2d 2d20 2d2d 2d2d 2d2d 2d2d 2d2d      --- -----------
    ca60:	2d2d 0a2d 0000 0000 2d25 2e2a 732a 2520     ---.....%-*.*s %
    ca70:	3330 2064 6425 003a 2d25 2e2a 732a 2520     03d %d:.%-*.*s %
    ca80:	3330 2064 6425 000a 6874 6572 6461 0000     03d %d..thread..
    ca90:	2d25 2e2a 2073 7270 2069 7320 6174 7574     %-*.s pri  statu
    caa0:	2073 2020 2020 7320 2070 2020 2020 7473     s      sp     st
    cab0:	6361 206b 6973 657a 6d20 7861 7520 6573     ack size max use
    cac0:	2064 656c 7466 7420 6369 206b 6520 7272     d left tick  err
    cad0:	726f 000a 2d20 2d2d 2020 2d2d 2d2d 2d2d     or.. ---  ------
    cae0:	202d 2d2d 2d2d 2d2d 2d2d 2d2d 2d20 2d2d     - ---------- ---
    caf0:	2d2d 2d2d 2d2d 202d 2d20 2d2d 2d2d 202d     -------  ------ 
    cb00:	2d20 2d2d 2d2d 2d2d 2d2d 202d 2d2d 0a2d      ---------- ---.
    cb10:	0000 0000 2d25 2e2a 732a 2520 6433 0020     ....%-*.*s %3d .
    cb20:	7220 6165 7964 2020 0000 0000 7320 7375      ready  .... sus
    cb30:	6570 646e 0000 0000 6920 696e 2074 2020     pend.... init   
    cb40:	0000 0000 6320 6f6c 6573 2020 0000 0000     .... close  ....
    cb50:	3020 2578 3830 2078 7830 3025 7838 2020      0x%08x 0x%08x  
    cb60:	2020 3025 6432 2525 2020 3020 2578 3830       %02d%%   0x%08
    cb70:	2078 3025 6433 000a 6974 656d 0072 0000     x %03d..timer...
    cb80:	2d25 2e2a 2073 7020 7265 6f69 6964 2063     %-*.s  periodic 
    cb90:	2020 6974 656d 756f 2074 2020 2020 2020       timeout       
    cba0:	6c66 6761 000a 0000 2d20 2d2d 2d2d 2d2d     flag.... -------
    cbb0:	2d2d 202d 2d2d 2d2d 2d2d 2d2d 2d2d 2d20     --- ---------- -
    cbc0:	2d2d 2d2d 2d2d 2d2d 2d2d 000a 2d25 2e2a     ----------..%-*.
    cbd0:	732a 3020 2578 3830 2078 7830 3025 7838     *s 0x%08x 0x%08x
    cbe0:	0020 0000 6361 6974 6176 6574 0a64 0000      ...activated...
    cbf0:	6564 6361 6974 6176 6574 0a64 0000 0000     deactivated.....
    cc00:	7563 7272 6e65 2074 6974 6b63 303a 2578     current tick:0x%
    cc10:	3830 0a78 0000 0000                         08x.....

0000cc18 <__fsym_list_desc>:
    cc18:	696c 7473 6120 6c6c 7320 6d79 6f62 206c     list all symbol 
    cc28:	6e69 7320 7379 6574 006d 0000               in system...

0000cc34 <__fsym_list_name>:
    cc34:	696c 7473 0000 0000                         list....

0000cc3c <__fsym___cmd_list_device_desc>:
    cc3c:	696c 7473 6420 7665 6369 2065 6e69 7320     list device in s
    cc4c:	7379 6574 006d 0000                         ystem...

0000cc54 <__fsym___cmd_list_device_name>:
    cc54:	5f5f 6d63 5f64 696c 7473 645f 7665 6369     __cmd_list_devic
    cc64:	0065 0000                                   e...

0000cc68 <__fsym_list_device_desc>:
    cc68:	696c 7473 6420 7665 6369 2065 6e69 7320     list device in s
    cc78:	7379 6574 006d 0000                         ystem...

0000cc80 <__fsym_list_device_name>:
    cc80:	696c 7473 645f 7665 6369 0065               list_device.

0000cc8c <__fsym___cmd_list_timer_desc>:
    cc8c:	696c 7473 7420 6d69 7265 6920 206e 7973     list timer in sy
    cc9c:	7473 6d65 0000 0000                         stem....

0000cca4 <__fsym___cmd_list_timer_name>:
    cca4:	5f5f 6d63 5f64 696c 7473 745f 6d69 7265     __cmd_list_timer
    ccb4:	0000 0000                                   ....

0000ccb8 <__fsym_list_timer_desc>:
    ccb8:	696c 7473 7420 6d69 7265 6920 206e 7973     list timer in sy
    ccc8:	7473 6d65 0000 0000                         stem....

0000ccd0 <__fsym_list_timer_name>:
    ccd0:	696c 7473 745f 6d69 7265 0000               list_timer..

0000ccdc <__fsym___cmd_list_msgqueue_desc>:
    ccdc:	696c 7473 6d20 7365 6173 6567 7120 6575     list message que
    ccec:	6575 6920 206e 7973 7473 6d65 0000 0000     ue in system....

0000ccfc <__fsym___cmd_list_msgqueue_name>:
    ccfc:	5f5f 6d63 5f64 696c 7473 6d5f 6773 7571     __cmd_list_msgqu
    cd0c:	7565 0065                                   eue.

0000cd10 <__fsym_list_msgqueue_desc>:
    cd10:	696c 7473 6d20 7365 6173 6567 7120 6575     list message que
    cd20:	6575 6920 206e 7973 7473 6d65 0000 0000     ue in system....

0000cd30 <__fsym_list_msgqueue_name>:
    cd30:	696c 7473 6d5f 6773 7571 7565 0065 0000     list_msgqueue...

0000cd40 <__fsym___cmd_list_mailbox_desc>:
    cd40:	696c 7473 6d20 6961 206c 6f62 2078 6e69     list mail box in
    cd50:	7320 7379 6574 006d                          system.

0000cd58 <__fsym___cmd_list_mailbox_name>:
    cd58:	5f5f 6d63 5f64 696c 7473 6d5f 6961 626c     __cmd_list_mailb
    cd68:	786f 0000                                   ox..

0000cd6c <__fsym_list_mailbox_desc>:
    cd6c:	696c 7473 6d20 6961 206c 6f62 2078 6e69     list mail box in
    cd7c:	7320 7379 6574 006d                          system.

0000cd84 <__fsym_list_mailbox_name>:
    cd84:	696c 7473 6d5f 6961 626c 786f 0000 0000     list_mailbox....

0000cd94 <__fsym___cmd_list_mutex_desc>:
    cd94:	696c 7473 6d20 7475 7865 6920 206e 7973     list mutex in sy
    cda4:	7473 6d65 0000 0000                         stem....

0000cdac <__fsym___cmd_list_mutex_name>:
    cdac:	5f5f 6d63 5f64 696c 7473 6d5f 7475 7865     __cmd_list_mutex
    cdbc:	0000 0000                                   ....

0000cdc0 <__fsym_list_mutex_desc>:
    cdc0:	696c 7473 6d20 7475 7865 6920 206e 7973     list mutex in sy
    cdd0:	7473 6d65 0000 0000                         stem....

0000cdd8 <__fsym_list_mutex_name>:
    cdd8:	696c 7473 6d5f 7475 7865 0000               list_mutex..

0000cde4 <__fsym___cmd_list_event_desc>:
    cde4:	696c 7473 6520 6576 746e 6920 206e 7973     list event in sy
    cdf4:	7473 6d65 0000 0000                         stem....

0000cdfc <__fsym___cmd_list_event_name>:
    cdfc:	5f5f 6d63 5f64 696c 7473 655f 6576 746e     __cmd_list_event
    ce0c:	0000 0000                                   ....

0000ce10 <__fsym_list_event_desc>:
    ce10:	696c 7473 6520 6576 746e 6920 206e 7973     list event in sy
    ce20:	7473 6d65 0000 0000                         stem....

0000ce28 <__fsym_list_event_name>:
    ce28:	696c 7473 655f 6576 746e 0000               list_event..

0000ce34 <__fsym___cmd_list_sem_desc>:
    ce34:	696c 7473 7320 6d65 7061 6f68 6572 6920     list semaphore i
    ce44:	206e 7973 7473 6d65 0000 0000               n system....

0000ce50 <__fsym___cmd_list_sem_name>:
    ce50:	5f5f 6d63 5f64 696c 7473 735f 6d65 0000     __cmd_list_sem..

0000ce60 <__fsym_list_sem_desc>:
    ce60:	696c 7473 7320 6d65 7061 6f68 656e 6920     list semaphone i
    ce70:	206e 7973 7473 6d65 0000 0000               n system....

0000ce7c <__fsym_list_sem_name>:
    ce7c:	696c 7473 735f 6d65 0000 0000               list_sem....

0000ce88 <__fsym___cmd_list_thread_desc>:
    ce88:	696c 7473 7420 7268 6165 0064               list thread.

0000ce94 <__fsym___cmd_list_thread_name>:
    ce94:	5f5f 6d63 5f64 696c 7473 745f 7268 6165     __cmd_list_threa
    cea4:	0064 0000                                   d...

0000cea8 <__fsym_list_thread_desc>:
    cea8:	696c 7473 7420 7268 6165 0064               list thread.

0000ceb4 <__fsym_list_thread_name>:
    ceb4:	696c 7473 745f 7268 6165 0064               list_thread.

0000cec0 <__fsym___cmd_clear_desc>:
    cec0:	6874 2065 6574 6d72 6e69 6c61 7320 7263     the terminal scr
    ced0:	6565 006e                                   een.

0000ced4 <__fsym___cmd_clear_name>:
    ced4:	5f5f 6d63 5f64 6c63 6165 0072               __cmd_clear.

0000cee0 <__fsym_clear_desc>:
    cee0:	6874 2065 6574 6d72 6e69 6c61 7320 7263     the terminal scr
    cef0:	6565 006e                                   een.

0000cef4 <__fsym_clear_name>:
    cef4:	6c63 6165 0072 0000                         clear...

0000cefc <__fsym___cmd_reboot_desc>:
    cefc:	6572 6f62 746f 7420 6568 6220 616f 6472     reboot the board
    cf0c:	0000 0000                                   ....

0000cf10 <__fsym___cmd_reboot_name>:
    cf10:	5f5f 6d63 5f64 6572 6f62 746f 0000 0000     __cmd_reboot....

0000cf20 <__fsym_reboot_desc>:
    cf20:	6572 6f62 746f 7420 6568 6220 616f 6472     reboot the board
    cf30:	0000 0000                                   ....

0000cf34 <__fsym_reboot_name>:
    cf34:	6572 6f62 746f 0000 002d 0000 7325 0000     reboot..-...%s..
    cf44:	002f 0000 6843 7261 6361 6574 2072 6544     /...Character De
    cf54:	6976 6563 0000 0000 6c42 636f 206b 6544     vice....Block De
    cf64:	6976 6563 0000 0000 654e 7774 726f 206b     vice....Network 
    cf74:	6e49 6574 6672 6361 0065 0000 544d 2044     Interface...MTD 
    cf84:	6544 6976 6563 0000 4143 204e 6544 6976     Device..CAN Devi
    cf94:	6563 0000 5452 0043 6f53 6e75 2064 6544     ce..RTC.Sound De
    cfa4:	6976 6563 0000 0000 7247 7061 6968 2063     vice....Graphic 
    cfb4:	6544 6976 6563 0000 3249 2043 7542 0073     Device..I2C Bus.
    cfc4:	5355 2042 6c53 7661 2065 6544 6976 6563     USB Slave Device
    cfd4:	0000 0000 5355 2042 6f48 7473 4220 7375     ....USB Host Bus
    cfe4:	0000 0000 5053 2049 7542 0073 5053 2049     ....SPI Bus.SPI 
    cff4:	6544 6976 6563 0000 4453 4f49 4220 7375     Device..SDIO Bus
    d004:	0000 0000 4d50 5020 6573 6475 206f 6544     ....PM Pseudo De
    d014:	6976 6563 0000 0000 6950 6570 0000 0000     vice....Pipe....
    d024:	6f50 7472 6c61 4420 7665 6369 0065 0000     Portal Device...
    d034:	6954 656d 2072 6544 6976 6563 0000 0000     Timer Device....
    d044:	694d 6373 6c65 616c 656e 756f 2073 6544     Miscellaneous De
    d054:	6976 6563 0000 0000 6e55 6e6b 776f 006e     vice....Unknown.
    d064:	6f54 206f 616d 796e 6120 6772 2073 2021     Too many args ! 
    d074:	6557 6f20 6c6e 2079 7355 3a65 000a 0000     We only Use:....
    d084:	7325 0020 7325 203a 6f63 6d6d 6e61 2064     %s .%s: command 
    d094:	6f6e 2074 6f66 6e75 2e64 000a 5452 542d     not found...RT-T
    d0a4:	7268 6165 2064 6873 6c65 206c 6f63 6d6d     hread shell comm
    d0b4:	6e61 7364 0a3a 0000 5f5f 6d63 5f64 0000     ands:...__cmd_..
    d0c4:	2d25 3631 2073 202d 7325 000a               %-16s - %s..

0000d0d0 <__fsym___cmd_help_desc>:
    d0d0:	5452 542d 7268 6165 2064 6873 6c65 206c     RT-Thread shell 
    d0e0:	6568 706c 0000 0000                         help....

0000d0e8 <__fsym___cmd_help_name>:
    d0e8:	5f5f 6d63 5f64 6568 706c 0000               __cmd_help..

0000d0f4 <__fsym___cmd_free_desc>:
    d0f4:	6853 776f 7420 6568 6d20 6d65 726f 2079     Show the memory 
    d104:	7375 6761 2065 6e69 7420 6568 7320 7379     usage in the sys
    d114:	6574 006d                                   tem.

0000d118 <__fsym___cmd_free_name>:
    d118:	5f5f 6d63 5f64 7266 6565 0000               __cmd_free..

0000d124 <__fsym___cmd_ps_desc>:
    d124:	694c 7473 7420 7268 6165 7364 6920 206e     List threads in 
    d134:	6874 2065 7973 7473 6d65 0000               the system..

0000d140 <__fsym___cmd_ps_name>:
    d140:	5f5f 6d63 5f64 7370 0000 0000               __cmd_ps....

0000d14c <__FUNCTION__.4336>:
    d14c:	6966 736e 5f68 6567 6374 6168 0072 0000     finsh_getchar...

0000d15c <__FUNCTION__.4344>:
    d15c:	6966 736e 5f68 7872 695f 646e 0000 0000     finsh_rx_ind....

0000d16c <__FUNCTION__.4349>:
    d16c:	6966 736e 5f68 6573 5f74 6564 6976 6563     finsh_set_device
    d17c:	0000 0000                                   ....

0000d180 <__rti_finsh_system_init_name>:
    d180:	6966 736e 5f68 7973 7473 6d65 695f 696e     finsh_system_ini
    d190:	0074 0000 736d 2068 0000 0000 6966 736e     t...msh ....fins
    d1a0:	2068 0000 003e 0000 6873 6c65 206c 3d21     h ..>...shell !=
    d1b0:	5220 5f54 554e 4c4c 0000 0000 6966 736e      RT_NULL....fins
    d1c0:	3a68 6320 6e61 6e20 746f 6620 6e69 2064     h: can not find 
    d1d0:	6564 6976 6563 203a 7325 000a 6f6e 6d20     device: %s..no m
    d1e0:	6d65 726f 2079 6f66 2072 6873 6c65 0a6c     emory for shell.
    d1f0:	0000 0000 7374 6568 6c6c 0000 6873 7872     ....tshell..shrx
    d200:	0000 0000 0008 0000 6325 0000 2508 2073     ........%c...%s 
    d210:	0820 0000 2008 0008 5b1b 4b32 000d 0000      .... ...[2K....
    d220:	7325 7325 0000 0000                         %s%s....

0000d228 <__FUNCTION__.2747>:
    d228:	735f 7265 6169 5f6c 6f70 6c6c 745f 0078     _serial_poll_tx.

0000d238 <__FUNCTION__.2758>:
    d238:	735f 7265 6169 5f6c 6e69 5f74 7872 0000     _serial_int_rx..

0000d248 <__FUNCTION__.2769>:
    d248:	7472 735f 7265 6169 5f6c 6e69 7469 0000     rt_serial_init..

0000d258 <__FUNCTION__.2776>:
    d258:	7472 735f 7265 6169 5f6c 706f 6e65 0000     rt_serial_open..

0000d268 <__FUNCTION__.2788>:
    d268:	7472 735f 7265 6169 5f6c 6c63 736f 0065     rt_serial_close.

0000d278 <__FUNCTION__.2797>:
    d278:	7472 735f 7265 6169 5f6c 6572 6461 0000     rt_serial_read..

0000d288 <__FUNCTION__.2805>:
    d288:	7472 735f 7265 6169 5f6c 7277 7469 0065     rt_serial_write.

0000d298 <__FUNCTION__.2813>:
    d298:	7472 735f 7265 6169 5f6c 6f63 746e 6f72     rt_serial_contro
    d2a8:	006c 0000                                   l...

0000d2ac <__FUNCTION__.2828>:
    d2ac:	7472 685f 5f77 6573 6972 6c61 725f 6765     rt_hw_serial_reg
    d2bc:	7369 6574 0072 0000                         ister...

0000d2c4 <__FUNCTION__.2837>:
    d2c4:	7472 685f 5f77 6573 6972 6c61 695f 7273     rt_hw_serial_isr
    d2d4:	0000 0000 7872 665f 6669 206f 3d21 5220     ....rx_fifo != R
    d2e4:	5f54 554e 4c4c 0000 6573 6972 6c61 2120     T_NULL..serial !
    d2f4:	203d 5452 4e5f 4c55 004c 0000               = RT_NULL...

0000d300 <__FUNCTION__.4526>:
    d300:	705f 6e69 725f 6165 0064 0000               _pin_read...

0000d30c <__FUNCTION__.4535>:
    d30c:	705f 6e69 775f 6972 6574 0000               _pin_write..

0000d318 <__FUNCTION__.4543>:
    d318:	705f 6e69 635f 6e6f 7274 6c6f 0000 0000     _pin_control....

0000d328 <__FUNCTION__.4570>:
    d328:	7472 705f 6e69 6d5f 646f 0065               rt_pin_mode.

0000d334 <__FUNCTION__.4578>:
    d334:	7472 705f 6e69 775f 6972 6574 0000 0000     rt_pin_write....

0000d344 <__FUNCTION__.4585>:
    d344:	7472 705f 6e69 725f 6165 0064 6970 206e     rt_pin_read.pin 
    d354:	3d21 5220 5f54 554e 4c4c 0000               != RT_NULL..

0000d360 <__fsym_pinRead_desc>:
    d360:	6572 6461 7320 6174 7574 2073 7266 6d6f     read status from
    d370:	6820 7261 7764 7261 2065 6970 006e 0000      hardware pin...

0000d380 <__fsym_pinRead_name>:
    d380:	6970 526e 6165 0064                         pinRead.

0000d388 <__fsym_pinWrite_desc>:
    d388:	7277 7469 2065 6176 756c 2065 6f74 6820     write value to h
    d398:	7261 7764 7261 2065 6970 006e               ardware pin.

0000d3a4 <__fsym_pinWrite_name>:
    d3a4:	6970 576e 6972 6574 0000 0000               pinWrite....

0000d3b0 <__fsym_pinMode_desc>:
    d3b0:	6573 2074 6168 6472 6177 6572 7020 6e69     set hardware pin
    d3c0:	6d20 646f 0065 0000                          mode...

0000d3c8 <__fsym_pinMode_name>:
    d3c8:	6970 4d6e 646f 0065 685f 5f77 6970 2e6e     pinMode._hw_pin.
    d3d8:	706f 2073 3d21 5220 5f54 554e 4c4c 0000     ops != RT_NULL..
    d3e8:	6175 7472 0031 0000 4168 0000 4004 0000     uart1...hA...@..
    d3f8:	4174 0000 416e 0000 4186 0000 4164 0000     tA..nA...A..dA..
    d408:	417a 0000 406a 0000 4168 0000 4004 0000     zA..j@..hA...@..
    d418:	4174 0000 416e 0000 4186 0000 4164 0000     tA..nA...A..dA..
    d428:	417a 0000 4180 0000 4186 0000 4180 0000     zA...A...A...A..
    d438:	417a 0000 4174 0000 416e 0000 4168 0000     zA..tA..nA..hA..
    d448:	4004 0000                                   .@..

0000d44c <asc2_1206>:
	...
    d45c:	403f 0000 0000 0000 0000 0030 0040 0030     ?@........0.@.0.
    d46c:	0040 0000 0009 c00b 003d c00b 003d 0009     @.......=...=...
    d47c:	c018 4024 e07f 4022 8031 0000 0018 c024     ..$@.."@1.....$.
    d48c:	001b 800d 4032 8001 8003 401c 4027 801c     ....2@.....@'@..
    d49c:	4007 4000 0010 0060 0000 0000 0000 0000     .@.@..`.........
    d4ac:	0000 0000 0000 801f 4020 2040 0000 2040     ........ @@ ..@ 
    d4bc:	4020 801f 0000 0000 0009 0006 801f 0006      @..............
    d4cc:	0009 0000 0004 0004 803f 0004 0004 0000     ........?.......
    d4dc:	1000 6000 0000 0000 0000 0000 0004 0004     ...`............
    d4ec:	0004 0004 0004 0000 0000 4000 0000 0000     ...........@....
    d4fc:	0000 0000 2000 c001 0006 0038 0040 0000     ..... ....8.@...
    d50c:	801f 4020 4020 4020 801f 0000 0000 4010     .. @ @ @.......@
    d51c:	c03f 4000 0000 0000 c018 4021 4022 4024     ?..@......!@"@$@
    d52c:	4018 0000 8010 4020 4024 4024 801b 0000     .@.... @$@$@....
    d53c:	0002 000d 0011 c03f 4001 0000 803c 4024     ......?..@..<.$@
    d54c:	4024 4024 8023 0000 801f 4024 4024 4034     $@$@#.....$@$@4@
    d55c:	8003 0000 0030 0020 c027 0038 0020 0000     ....0. .'.8. ...
    d56c:	801b 4024 4024 4024 801b 0000 001c c022     ..$@$@$@......".
    d57c:	4022 4022 801f 0000 0000 0000 4008 0000     "@"@.........@..
	...
    d594:	6004 0000 0000 0000 0000 0004 000a 0011     .`..............
    d5a4:	8020 4040 0009 0009 0009 0009 0009 0000      .@@............
    d5b4:	0000 4040 8020 0011 000a 0004 0018 0020     ..@@ ......... .
    d5c4:	4023 0024 0018 0000 801f 4020 4027 4029     #@$....... @'@)@
    d5d4:	401f 0000 4000 c007 0039 000f c001 4000     .@...@..9......@
    d5e4:	4020 c03f 4024 4024 801b 0000 801f 4020      @?.$@$@...... @
    d5f4:	4020 4020 8030 0000 4020 c03f 4020 4020      @ @0... @?. @ @
    d604:	801f 0000 4020 c03f 4024 402e c030 0000     .... @?.$@.@0...
    d614:	4020 c03f 4024 002e 0030 0000 000f 8010      @?.$@..0.......
    d624:	4020 4022 8033 0002 4020 c03f 0004 0004      @"@3... @?.....
    d634:	c03f 4020 4020 4020 c03f 4020 4020 0000     ?. @ @ @?. @ @..
    d644:	6000 2020 2020 c03f 0020 0020 4020 c03f     .`    ?. . . @?.
    d654:	4024 000b c030 4020 4020 c03f 4020 4000     $@..0. @ @?. @.@
    d664:	4000 c000 c03f 003c c003 003c c03f 0000     .@..?.<...<.?...
    d674:	4020 c03f 400c 0023 c03f 0020 801f 4020      @?..@#.?. ... @
    d684:	4020 4020 801f 0000 4020 c03f 4024 0024      @ @.... @?.$@$.
    d694:	0018 0000 801f 4021 4021 e020 a01f 0000     ......!@!@ .....
    d6a4:	4020 c03f 4024 0026 c019 4000 c018 4024      @?.$@&....@..$@
    d6b4:	4024 4022 8031 0000 0030 4020 c03f 4020     $@"@1...0. @?. @
    d6c4:	0030 0000 0020 803f 4000 4000 803f 0020     0... .?..@.@?. .
    d6d4:	0020 003e c001 0007 0038 0020 0038 c007      .>.....8. .8...
    d6e4:	003c c007 0038 0000 4020 c039 0006 c039     <...8... @9...9.
    d6f4:	4020 0000 0020 4038 c007 4038 0020 0000      @.. .8@..8@ ...
    d704:	4030 c021 4026 4038 c020 0000 0000 0000     0@!.&@8@ .......
    d714:	e07f 2040 2040 0000 0000 0070 000c 8003     ..@ @ ....p.....
    d724:	4000 0000 0000 2040 2040 e07f 0000 0000     .@....@ @ ......
    d734:	0000 0020 0040 0020 0000 0000 1000 1000     .. .@. .........
    d744:	1000 1000 1000 1000 0000 0000 0040 0000     ............@...
    d754:	0000 0000 0000 8002 4005 4005 c003 4000     .........@.@...@
    d764:	0020 c03f 4004 4004 8003 0000 0000 8003      .?..@.@........
    d774:	4004 4004 4006 0000 0000 8003 4004 4024     .@.@.@.......@$@
    d784:	c03f 4000 0000 8003 4005 4005 4003 0000     ?..@.....@.@.@..
    d794:	0000 4004 c01f 4024 4024 0020 0000 e002     ...@..$@$@ .....
    d7a4:	5005 5005 5006 2004 4020 c03f 4004 0004     .P.P.P.  @?..@..
    d7b4:	c003 4000 0000 4004 c027 4000 0000 0000     ...@...@'..@....
    d7c4:	1000 1000 1004 e027 0000 0000 4020 c03f     ......'..... @?.
    d7d4:	4001 0007 c004 4004 4020 4020 c03f 4000     .@.....@ @ @?..@
    d7e4:	4000 0000 c007 0004 c007 0004 c003 0000     .@..............
    d7f4:	4004 c007 4004 0004 c003 4000 0000 8003     .@...@.....@....
    d804:	4004 4004 8003 0000 1004 f007 5004 4004     .@.@.........P.@
    d814:	8003 0000 0000 8003 4004 5004 f007 1000     .........@.P....
    d824:	4004 c007 4002 0004 0004 0000 0000 4006     .@...@.........@
    d834:	4005 4005 c004 0000 0000 0004 801f 4004     .@.@...........@
    d844:	4000 0000 0004 8007 4000 4004 c007 4000     .@.......@.@...@
    d854:	0004 0007 c004 8001 0006 0004 0006 c001     ................
    d864:	0007 c001 0006 0000 4004 c006 0001 c006     .........@......
    d874:	4004 0000 1004 1007 e004 8001 0006 0004     .@..............
    d884:	0000 4004 c005 4006 4004 0000 0000 0000     ...@...@.@......
    d894:	0004 e07b 2040 0000 0000 0000 0000 f0ff     ..{.@ ..........
    d8a4:	0000 0000 0000 2040 e07b 0004 0000 0000     ......@ {.......
    d8b4:	0040 0080 0040 0020 0020 0040               @...@. . .@.

0000d8c0 <asc2_1608>:
	...
    d8d4:	0000 cc1f 0c00 0000 0000 0000 0000 0008     ................
    d8e4:	0030 0060 0008 0030 0060 0000 2002 fc03     0.`...0.`.... ..
    d8f4:	201e 2002 fc03 201e 2002 0000 0000 180e     . . ... . ......
    d904:	0411 ff3f 8410 780c 0000 0000 000f 8410     ..?....x........
    d914:	380f c000 7807 8418 7800 0000 7800 840f     .8...x...x...x..
    d924:	c410 2411 980e e400 8400 0800 0008 0068     ...$..........h.
    d934:	0070 0000 0000 0000 0000 0000 0000 0000     p...............
    d944:	0000 e007 1818 0420 0240 0000 0000 0240     ...... .@.....@.
    d954:	0420 1818 e007 0000 0000 0000 4002 4002      ............@.@
    d964:	8001 f00f 8001 4002 4002 0000 8000 8000     .......@.@......
    d974:	8000 f80f 8000 8000 8000 0000 0100 0d00     ................
    d984:	0e00 0000 0000 0000 0000 0000 0000 8000     ................
    d994:	8000 8000 8000 8000 8000 8000 0000 0c00     ................
    d9a4:	0c00 0000 0000 0000 0000 0000 0000 0600     ................
    d9b4:	1800 6000 8001 0006 0018 0020 0000 f007     ...`...... .....
    d9c4:	0808 0410 0410 0808 f007 0000 0000 0408     ................
    d9d4:	0408 fc1f 0400 0400 0000 0000 0000 0c0e     ................
    d9e4:	1410 2410 4410 8411 0c0e 0000 0000 180c     ...$.D..........
    d9f4:	0410 0411 0411 8812 700c 0000 0000 e000     .........p......
    da04:	2003 2404 2408 fc1f 2400 0000 0000 981f     . .$.$...$......
    da14:	8410 0411 0411 8810 7010 0000 0000 f007     .........p......
    da24:	8808 0411 0411 8818 7000 0000 0000 001c     .........p......
    da34:	0010 fc10 0013 001c 0010 0000 0000 380e     ...............8
    da44:	4411 8410 8410 4411 380e 0000 0000 0007     .D.....D.8......
    da54:	8c08 4410 4410 8808 f007 0000 0000 0000     ...D.D..........
    da64:	0000 0c03 0c03 0000 0000 0000 0000 0000     ................
    da74:	0100 0601 0000 0000 0000 0000 0000 8000     ................
    da84:	4001 2002 1004 0808 0410 0000 2002 2002     .@. ......... . 
    da94:	2002 2002 2002 2002 2002 0000 0000 0410     . . . . . ......
    daa4:	0808 1004 2002 4001 8000 0000 0000 000e     ..... .@........
    dab4:	0012 0c10 6c10 8010 000f 0000 e003 180c     .....l..........
    dac4:	e413 2414 c417 2808 d007 0000 0400 3c00     ...$...(.......<
    dad4:	c403 401c 4007 e400 1c00 0400 0410 fc1f     ...@.@..........
    dae4:	0411 0411 0411 880e 7000 0000 e003 180c     .........p......
    daf4:	0410 0410 0410 0810 101c 0000 0410 fc1f     ................
    db04:	0410 0410 0410 0808 f007 0000 0410 fc1f     ................
    db14:	0411 0411 c417 0410 1808 0000 0410 fc1f     ................
    db24:	0411 0011 c017 0010 0008 0000 e003 180c     ................
    db34:	0410 0410 4410 781c 4000 0000 0410 fc1f     .....D.x.@......
    db44:	8410 8000 8000 8410 fc1f 0410 0000 0410     ................
    db54:	0410 fc1f 0410 0410 0000 0000 0300 0100     ................
    db64:	0110 0110 fe1f 0010 0010 0000 0410 fc1f     ................
    db74:	0411 8003 6414 1c18 0410 0000 0410 fc1f     .....d..........
    db84:	0410 0400 0400 0400 0c00 0000 0410 fc1f     ................
    db94:	001f fc00 001f fc1f 0410 0000 0410 fc1f     ................
    dba4:	040c 0003 e000 1810 fc1f 0010 f007 0808     ................
    dbb4:	0410 0410 0410 0808 f007 0000 0410 fc1f     ................
    dbc4:	8410 8010 8010 8010 000f 0000 f007 1808     ................
    dbd4:	2410 2410 1c10 0a08 f207 0000 0410 fc1f     .$.$............
    dbe4:	0411 0011 c011 3011 0c0e 0400 0000 1c0e     .......0........
    dbf4:	0411 8410 8410 4410 381c 0000 0018 0010     .......D.8......
    dc04:	0410 fc1f 0410 0010 0018 0000 0010 f81f     ................
    dc14:	0410 0400 0400 0410 f81f 0010 0010 001e     ................
    dc24:	e011 1c00 7000 8013 001c 0010 c01f 3c10     .....p.........<
    dc34:	e000 001f e000 3c10 c01f 0000 0410 0c18     .......<........
    dc44:	3416 c001 c001 3416 0c18 0410 0010 001c     .4.....4........
    dc54:	0413 fc00 0413 001c 0010 0000 0408 1c10     ................
    dc64:	6410 8410 0413 041c 1810 0000 0000 0000     .d..............
    dc74:	0000 fe7f 0240 0240 0240 0000 0000 0030     ....@.@.@.....0.
    dc84:	000c 8003 6000 1c00 0300 0000 0000 0240     .....`........@.
    dc94:	0240 0240 fe7f 0000 0000 0000 0000 0000     @.@.............
    dca4:	0020 0040 0040 0040 0020 0000 0100 0100      .@.@.@. .......
    dcb4:	0100 0100 0100 0100 0100 0100 0000 0040     ..............@.
    dcc4:	0040 0020 0000 0000 0000 0000 0000 9800     @. .............
    dcd4:	2401 4401 4401 4401 fc00 0400 0010 fc1f     .$.D.D.D........
    dce4:	8800 0401 0401 8800 7000 0000 0000 7000     .........p.....p
    dcf4:	8800 0401 0401 0401 8800 0000 0000 7000     ...............p
    dd04:	8800 0401 0401 0811 fc1f 0400 0000 f800     ................
    dd14:	4401 4401 4401 4401 c800 0000 0000 0401     .D.D.D.D........
    dd24:	0401 fc0f 0411 0411 0011 0018 0000 d600     ................
    dd34:	2901 2901 2901 c901 0601 0000 0410 fc1f     .).).)..........
    dd44:	8400 0001 0001 0401 fc00 0400 0000 0401     ................
    dd54:	0419 fc19 0400 0400 0000 0000 0000 0300     ................
    dd64:	0100 0101 0119 fe19 0000 0000 0410 fc1f     ................
    dd74:	2400 4000 b401 0c01 0401 0000 0000 0410     .$.@............
    dd84:	0410 fc1f 0400 0400 0000 0000 0401 fc01     ................
    dd94:	0401 0001 fc01 0401 0001 fc00 0401 fc01     ................
    dda4:	8400 0001 0001 0401 fc00 0400 0000 f800     ................
    ddb4:	0401 0401 0401 0401 f800 0000 0101 ff01     ................
    ddc4:	8500 0401 0401 8800 7000 0000 0000 7000     .........p.....p
    ddd4:	8800 0401 0401 0501 ff01 0100 0401 0401     ................
    dde4:	fc01 8400 0401 0001 8001 0000 0000 cc00     ................
    ddf4:	2401 2401 2401 2401 9801 0000 0000 0001     .$.$.$.$........
    de04:	0001 f807 0401 0401 0000 0000 0001 f801     ................
    de14:	0400 0400 0400 0801 fc01 0400 0001 8001     ................
    de24:	7001 0c00 1000 6001 8001 0001 f001 0c01     .p.....`........
    de34:	3000 c001 3000 0c01 f001 0001 0000 0401     .0...0..........
    de44:	8c01 7400 7001 8c01 0401 0000 0101 8101     ...t.p..........
    de54:	7101 0e00 1800 6001 8001 0001 0000 8401     .q.....`........
    de64:	0c01 3401 4401 8401 0c01 0000 0000 0000     ...4.D..........
    de74:	0000 0000 0001 fc3e 0240 0240 0000 0000     ......>.@.@.....
    de84:	0000 0000 ffff 0000 0000 0000 0000 0240     ..............@.
    de94:	0240 fc3e 0001 0000 0000 0000 0000 0060     @.>...........`.
    dea4:	0080 0080 0040 0040 0020 0020               ....@.@. . .

0000deb0 <asc2_2412>:
	...
    dee0:	0000 0f00 3880 fe0f 0f38 3880 0000 0000     .....8..8..8....
	...
    defc:	0000 0001 0600 0000 000c 3800 0000 0031     ...........8..1.
    df0c:	0600 0000 000c 3800 0000 0030 0000 0000     .......8..0.....
    df1c:	0000 0000 8061 6700 07f8 80f9 6100 0080     ....a..g.....a..
    df2c:	8061 6100 0080 8061 6700 07f8 80f9 6100     a..a..a..g.....a
    df3c:	0080 0000 0000 0000 0000 c001 03e0 f0e0     ................
    df4c:	3006 0408 0818 ff1f 04fe 080e 8707 03f0     .0..............
    df5c:	e081 0000 0000 0000 f001 0600 000c 0404     ................
    df6c:	0608 700c f901 00c0 000e 3b00 00e0 18ec     ...p.......;....
    df7c:	0807 0408 180c 0300 00e0 0000 0100 00e0     ................
    df8c:	f007 f803 0418 081c 1704 0708 d0e1 c003     ................
    df9c:	00e0 b023 3c00 0008 0820 0000 0010 0000     ..#..<.. .......
    dfac:	0000 0100 0000 0031 3200 0000 001c 0000     ......1..2......
	...
    dfe0:	007f ff01 07c0 f080 000c 1018 0400 0020     .............. .
    dff0:	0002 0000 0000 2000 0200 0010 0c04 1800     ....... ........
    e000:	8007 01f0 c0ff 7f00 0000 0000 0000 0000     ................
	...
    e01c:	0042 6600 0000 0066 3c00 0000 0018 ff03     B..f..f..<......
    e02c:	00c0 0018 3c00 0000 0066 6600 0000 0042     .....<..f..f..B.
    e03c:	0000 0000 0008 0800 0000 0008 0800 0000     ................
    e04c:	0008 ff01 00c0 0008 0800 0000 0008 0800     ................
    e05c:	0000 0008 0000 0000 0100 0000 0031 3200     ............1..2
    e06c:	0000 001c 0000 0000 0000 0000 0000 0000     ................
	...
    e088:	0008 0800 0000 0008 0800 0000 0008 0800     ................
    e098:	0000 0008 0800 0000 0008 0800 0000 0000     ................
	...
    e0b0:	0038 3800 0000 0038 0000 0000 0000 0000     8..8..8.........
	...
    e0d0:	0600 0000 001c 7000 0100 0080 000e 3800     .......p.......8
    e0e0:	0000 00c0 0007 1c00 0000 0030 0000 0000     ..........0.....
    e0f0:	0000 0000 807f ff01 03e0 7080 0006 0418     ...........p....
    e100:	0800 0004 0608 1800 8003 0170 e0ff 7f00     ..........p.....
    e110:	0080 0000 0000 0000 0000 0001 0108 0800     ................
    e120:	0001 0308 f8ff ff07 00f8 0800 0000 0008     ................
    e130:	0800 0000 0000 0000 0000 0100 38c0 c002     .............8..
    e140:	0458 9800 0104 0418 1802 0404 0618 181c     X...............
    e150:	f803 0118 f8e0 0000 0000 0000 0000 0100     ................
    e160:	e0c0 c003 04f0 0800 0804 0408 0808 1806     ................
    e170:	0308 18f4 e701 00f0 e001 0000 0000 0000     ................
    e180:	0000 0000 0003 0d00 0000 0011 6100 0000     .............a..
    e190:	0881 0103 0708 f8ff ff0f 00f8 0801 0100     ................
    e1a0:	0008 0000 0000 0000 e000 fc07 06d0 0808     ................
    e1b0:	1006 0608 0810 1006 0608 3818 0f06 06f0     ...........8....
    e1c0:	c007 0000 0000 0000 0000 0000 803f ff01     ............?...
    e1d0:	03e0 3084 0802 0418 0810 1004 0408 0810     ...0............
    e1e0:	1807 0310 f00f 0700 00c0 0000 0000 0000     ................
    e1f0:	0000 c003 0700 0000 0006 0600 f800 0706     ................
    e200:	06f8 0018 e006 0700 0000 0006 0000 0000     ................
    e210:	0000 0100 e0e1 f703 06f0 1034 1804 0408     ..........4.....
    e220:	0818 0c04 0408 080c 1606 0318 f0f3 c101     ................
    e230:	00e0 0000 0000 0000 00f8 fc03 0330 3806     ............0..8
    e240:	0204 0408 0802 0204 0408 1004 0803 01f0     ................
    e250:	c0ff 7f00 0000 0000 0000 0000 0000 0000     ................
	...
    e268:	3870 7000 0038 3870 0000 0000 0000 0000     p8.p8.p8........
	...
    e28c:	1a30 3000 001c 0000 0000 0000 0000 0000     0..0............
	...
    e2a4:	0000 0800 0000 0014 2200 0000 0041 8000     ........."..A...
    e2b4:	0180 4000 0002 0420 1000 0008 0008 0000     ...@.. .........
    e2c4:	0000 0000 0021 2100 0000 0021 2100 0000     ....!..!..!..!..
    e2d4:	0021 2100 0000 0021 2100 0000 0021 2100     !..!..!..!..!..!
	...
    e2ec:	0000 0008 0408 1000 0002 0120 4000 8000     .......... ..@..
    e2fc:	0080 0041 2200 0000 0014 0800 0000 0000     ..A.."..........
    e30c:	0000 0300 00c0 c004 0400 0000 0008 0838     ..............8.
    e31c:	380f 0808 0838 0010 300c 0700 00e0 c003     .8..8....0......
	...
    e334:	803f ff00 03e0 7080 0f02 0610 8870 c004     ?......p....p...
    e344:	0488 0883 7f04 0288 90c0 0103 0020 40fe     ............ ..@
    e354:	0000 0008 1800 0100 00f8 083e c201 0700     ..........>.....
    e364:	0002 e207 0000 00fe 1f00 00c8 f801 0000     ................
    e374:	0038 0800 0004 0708 f8ff ff07 04f8 0808     8...............
    e384:	0804 0408 0808 0804 0608 0818 f403 0118     ................
    e394:	f0e7 0100 00e0 0000 0000 0000 803f ff01     ............?...
    e3a4:	03e0 7080 0002 0418 0800 0004 0408 0800     ...p............
    e3b4:	0004 0610 2000 8007 00c0 0000 0004 0708     ..... ..........
    e3c4:	f8ff ff07 04f8 0800 0004 0408 0800 0004     ................
    e3d4:	0218 1000 8003 0170 e0ff 7f00 0080 0000     ......p.........
    e3e4:	0004 0708 f8ff ff07 04f8 0808 0804 0408     ................
    e3f4:	0808 0804 0408 083e 0004 0608 1800 0001     ......>.........
    e404:	0060 0000 0004 0708 f8ff ff07 04f8 0808     `...............
    e414:	0804 0400 0008 0804 0400 003e 0006 0600     ..........>.....
    e424:	0000 8001 0000 0000 0000 0000 803f ff01     ............?...
    e434:	03e0 7080 0006 0418 0800 0204 0408 0802     ...p............
    e444:	0302 07f0 f083 0200 0000 0002 0004 0708     ................
    e454:	f8ff ff07 04f8 0808 0800 0000 0008 0800     ................
    e464:	0000 0008 0804 0708 f8ff ff07 04f8 0800     ................
    e474:	0000 0000 0000 0004 0408 0800 0004 0708     ................
    e484:	f8ff ff07 04f8 0800 0004 0408 0800 0000     ................
	...
    e49c:	0600 0000 0007 0100 0004 0401 0100 0004     ................
    e4ac:	0703 feff ff07 04fc 0000 0004 0400 0000     ................
    e4bc:	0004 0708 f8ff ff07 04f8 080c 1800 0000     ................
    e4cc:	003e c704 0580 c803 0006 04f8 3800 0004     >............8..
    e4dc:	0018 0800 0004 0708 f8ff ff07 04f8 0800     ................
    e4ec:	0000 0008 0800 0000 0008 0800 0000 0008     ................
    e4fc:	1800 0000 0060 0000 0004 0708 f8ff 8007     ....`...........
    e50c:	0708 00fc 7f00 00c0 f803 0700 00c0 0078     ..............x.
    e51c:	8007 0708 f8ff ff07 04f8 0800 0004 0708     ................
    e52c:	f8ff 0007 0308 00c0 e000 0000 0038 1e00     ............8...
    e53c:	0000 0007 0100 04c0 f000 ff07 04f8 0000     ................
    e54c:	0000 0000 807f ff01 03e0 7080 0006 0418     ...........p....
    e55c:	0800 0004 0608 1800 0003 0130 e0ff 7f00     ..........0.....
    e56c:	0080 0000 0004 0708 f8ff ff07 04f8 0804     ................
    e57c:	0404 0400 0004 0404 0400 0004 0c06 0300     ................
    e58c:	00f8 f001 0000 0000 0000 0000 807f ff01     ................
    e59c:	03e0 7080 0006 0488 8800 0004 06c8 3c00     ...p...........<
    e5ac:	0003 013e e6ff 7f00 0084 0000 0004 0708     ..>.............
    e5bc:	f8ff ff07 04f8 0808 0804 0400 000c 0f04     ................
    e5cc:	0400 c00b 1006 03f0 38f0 e001 0008 0800     .........8......
    e5dc:	0000 0100 f8e0 f003 0630 1030 1804 0408     ........0.0.....
    e5ec:	0818 0c04 0408 080c 0602 0218 f007 8107     ................
    e5fc:	00e0 0000 8001 0600 0000 0004 0400 0000     ................
    e60c:	0004 0708 f8ff ff07 04f8 0800 0004 0400     ................
    e61c:	0000 0006 0100 0080 0004 0700 e0ff ff07     ................
    e62c:	04f0 1800 0000 0008 0800 0000 0008 0800     ................
    e63c:	0000 0408 1000 ff07 04e0 0000 0004 0600     ................
    e64c:	0000 e007 0700 00fe 1f04 00e0 f801 0000     ................
    e65c:	0038 e001 3e04 0700 00c0 0006 0400 0000     8....>..........
    e66c:	0004 0700 00e0 ff07 04c0 f81f 0700 07c0     ................
    e67c:	00f8 ff07 0480 f83f 0700 04c0 00f8 0007     ......?.........
    e68c:	0400 0000 0000 0400 0800 0006 0718 78c0     ...............x
    e69c:	f105 00c8 003e 1f00 0480 e863 8007 06f8     ....>.....c.....
    e6ac:	1800 0004 0008 0000 0004 0600 0000 8007     ................
    e6bc:	0700 08e0 7c04 0008 f81f 0700 00f8 0818     .....|..........
    e6cc:	e004 0708 0000 0006 0400 0000 0000 0100     ................
    e6dc:	0800 0006 0438 f800 0304 04e8 080f 7c04     ....8..........|
    e6ec:	0508 08f0 c007 0708 1800 0004 0060 0000     ............`...
	...
    e708:	0000 3f00 feff 0020 2002 0200 0020 2002     ...?.. .. .. .. 
    e718:	0200 0020 0002 0000 0000 0000 0000 0008     .. .............
    e728:	0700 0000 c000 0000 0038 0600 0000 c001     ........8.......
    e738:	0000 0030 0e00 0000 0001 0000 0000 0000     ..0.............
    e748:	0000 0020 2002 0200 0020 2002 0200 0020     .. .. .. .. .. .
    e758:	3f02 feff 0000 0000 0000 0000 0000 0000     .?..............
	...
    e770:	0800 0000 0010 3000 0000 0020 3000 0000     .......0.. ..0..
    e780:	0010 0800 0000 0000 0000 0000 0000 0001     ................
    e790:	0100 0000 0001 0100 0000 0001 0100 0000     ................
    e7a0:	0001 0100 0000 0001 0100 0000 0001 0100     ................
	...
    e7b8:	2000 0000 0020 1000 0000 0010 0000 0000     . .. ...........
	...
    e7d8:	f000 1900 00f8 181b 2200 0008 0826 2400     ........."..&..$
    e7e8:	0008 1024 3f00 00f8 f81f 0000 0008 1800     ..$..?..........
    e7f8:	0000 0400 0000 ff07 0ff8 f0ff 1800 0018     ................
    e808:	0810 2000 0008 0820 3000 0018 f01f 0f00     ... .. ..0......
    e818:	00c0 0000 0000 0000 c007 1f00 00f0 3018     ...............0
    e828:	2000 0008 0820 2000 0008 083c 1c00 0010     . .. .. ..<.....
    e838:	6000 0000 0000 0000 0000 0000 c007 1f00     .`..............
    e848:	00f0 1838 2000 0008 0820 2000 0408 1010     ..8.. .. .. ....
    e858:	ff07 0ff8 f0ff 0000 0010 0000 0000 0000     ................
    e868:	0000 0700 00c0 f01f 1200 0030 1822 2200     ..........0.".."
    e878:	0008 0822 3200 0008 101e 0e00 0020 0000     .."..2...... ...
    e888:	0000 0000 0020 2000 0008 0820 ff01 03f8     .... .. .. .....
    e898:	f8ff 2006 0408 0820 2004 0708 0020 0003     ... .. .. .. ...
	...
    e8b0:	0e00 0e00 006e f31f 3100 00b1 b120 2000     ....n....1.. .. 
    e8c0:	00b1 9131 1f00 0013 1e2e 2000 000e 0030     ..1........ ..0.
    e8d0:	0000 0400 0800 ff07 0ff8 f8ff 1000 0008     ................
    e8e0:	0020 2000 0000 0820 3f00 00f8 f81f 0000      .. .. ..?......
    e8f0:	0008 0000 0000 0000 0000 2000 0008 0820     ........... .. .
    e900:	2000 0608 f83f 3f06 00f8 0800 0000 0008     . ..?..?........
    e910:	0800 0000 0000 0000 0000 0000 0000 0000     ................
    e920:	0003 0300 2000 0001 0120 2000 0603 fe3f     ..... .. .. ..?.
    e930:	3f06 00fc 0000 0000 0000 0000 0000 0400     .?..............
    e940:	0800 ff07 0ff8 f8ff 0100 0088 0003 2f00     .............../
    e950:	00c0 f838 2000 0038 0820 0000 0008 0000     ..8.. 8. .......
    e960:	0000 0000 0000 0004 0408 0800 0004 0708     ................
    e970:	f8ff ff0f 00f8 0800 0000 0008 0800 0000     ................
    e980:	0000 0000 2000 0008 f83f 3f00 00f8 0810     ..... ..?..?....
    e990:	2000 0000 f83f 3f00 00f8 0810 2000 0000     . ..?..?..... ..
    e9a0:	f83f 3f00 00f8 0800 0000 0000 0820 3f00     ?..?........ ..?
    e9b0:	00f8 f83f 1000 0008 0010 2000 0000 0820     ..?........ .. .
    e9c0:	3f00 00f8 f81f 0000 0008 0000 0000 0000     .?..............
    e9d0:	c007 0f00 00f0 3018 3000 0008 0820 2000     .......0.0.. .. 
    e9e0:	0008 0830 1800 0030 f00f 0700 00c0 0000     ..0...0.........
    e9f0:	0000 0000 0120 3f00 00ff ff3f 1000 0011     .... ..?..?.....
    ea00:	0920 2000 0008 0820 3000 0038 f01f 0f00      .. .. ..08.....
    ea10:	00c0 0000 0000 0000 c007 1f00 00f0 1838     ..............8.
    ea20:	2000 0008 0820 2000 0009 1110 1f00 00ff     . .. .. ........
    ea30:	ff3f 0000 0001 0000 2000 0008 0820 2000     ?........ .. .. 
    ea40:	0008 f83f 3f00 00f8 0808 1000 0008 0820     ..?..?........ .
    ea50:	2000 0000 0030 3000 0000 0000 0000 0000     . ..0..0........
    ea60:	0000 0c00 0078 181e 3300 0008 0823 2100     ....x....3..#..!
    ea70:	0008 8821 2100 0098 f030 3800 0060 0000     ..!..!..0..8`...
    ea80:	0000 0000 0020 2000 0000 0020 ff00 03f0     .... .. .. .....
    ea90:	f8ff 2000 0008 0820 2000 0008 3000 0000     ... .. .. ...0..
	...
    eaa8:	0020 3f00 00f0 f87f 0000 0018 0800 0000      ..?............
    eab8:	0008 1020 3f00 00f8 f07f 0000 0010 0000     .. ..?..........
    eac8:	0000 0000 0020 3000 0000 003c 3f00 0080     .... ..0..<..?..
    ead8:	f023 0000 0078 7000 2300 0080 003c 3000     #...x..p.#..<..0
    eae8:	0000 0020 2000 0000 003c 3f00 00e0 f823     .. .. ..<..?..#.
    eaf8:	0000 00e0 0027 3e00 0000 e03f 2100 00f8     ....'..>..?..!..
    eb08:	e001 3e00 0000 0020 0000 0000 0820 2000     ...>.. ..... .. 
    eb18:	0008 3838 3e00 0068 8027 0300 00c8 f82c     ..88.>h.'.....,.
    eb28:	3800 0038 1820 2000 0008 0000 0000 0000     .88. .. ........
    eb38:	0020 3000 0003 013c 3f00 0083 ec23 0000      ..0..<..?..#...
    eb48:	0070 8023 3c00 0000 0020 2000 0000 0000     p.#..<.. .. ....
    eb58:	0000 0000 0000 3800 0008 3820 2000 00f8     .......8.. 8. ..
    eb68:	e823 2f00 0088 083e 3800 0008 1820 0000     #../..>..8.. ...
    eb78:	0070 0000 0000 0000 0000 0000 0000 0000     p...............
    eb88:	0000 0000 0008 1400 1f00 fcf7 0030 2006     ............0.. 
    eb98:	0200 0000 0000 0000 0000 0000 0000 0000     ................
	...
    ebb0:	0000 ffff 00ff 0000 0000 0000 0000 0000     ................
	...
    ebc8:	0000 0020 3002 0600 f71f 00fc 0014 0800     .. ..0..........
	...
    ebe8:	0000 1800 0000 0060 4000 0000 0040 2000     ......`..@..@.. 
    ebf8:	0000 0010 0800 0000 0004 0400 0000 000c     ................
    ec08:	1000 0000                                   ....

0000ec0c <asc2_3216>:
	...
    ec64:	f007 c000 ff07 e0e1 f007 e001 0000 c000     ................
	...
    ec94:	2000 0000 c001 0000 8007 0000 001f 0000     . ..............
    eca4:	001e 0000 201c 0000 c001 0000 8007 0000     ..... ..........
    ecb4:	001f 0000 001e 0000 001c 0000 0000 0000     ................
	...
    ecd0:	1800 000c 1800 000c 1800 e00f 1f00 00fc     ................
    ece0:	f803 000c 1800 000c 1800 000c 1800 000c     ................
    ecf0:	1800 000c 1800 e00f 1f00 00fc f803 000c     ................
    ed00:	1800 000c 1800 000c 0000 0000 0000 0000     ................
    ed10:	0000 0000 0000 8007 7800 c007 fc00 4006     .........x.....@
    ed20:	0e01 2000 0703 2000 0302 2080 ff0f fcff     ... ... ... ....
    ed30:	0102 20c0 0002 60e0 3001 4070 f001 803f     ... ...`.0p@..?.
    ed40:	f000 001f 0000 0000 0000 0000 fe00 0000     ................
    ed50:	ff01 0000 0103 0080 0002 6080 0103 c081     ...........`....
    ed60:	ff01 0007 fe00 0018 0000 00e0 0300 00bf     ................
    ed70:	0c00 c0ff 7100 6080 c101 2000 0103 6080     .....q.`... ...`
    ed80:	0000 c0ff 0000 003f 0000 0000 0000 001f     ......?.........
    ed90:	0000 c07f fc00 c0c0 ff01 6080 0303 20e0     ...........`... 
    eda0:	0202 2078 0602 201e fc03 4007 f001 8003     ..x ... ...@....
    edb0:	0100 c003 0100 601c 0100 20e0 0100 2000     .......`... ... 
    edc0:	0100 4000 0000 8001 0000 0000 0000 0000     ...@............
    edd0:	2000 0000 601c 0000 401c 0000 801f 0000     . ...`...@......
    ede0:	000f 0000 0000 0000 0000 0000 0000 0000     ................
	...
    ee28:	0700 00f8 3f00 00ff 7800 c007 c001 e000     .....?...x......
    ee38:	0003 3000 0004 0800 0008 0400 0010 0200     ...0............
	...
    ee50:	0010 0200 0008 0400 0004 0800 0003 3000     ...............0
    ee60:	c001 e000 7800 c007 3f00 00ff 0700 00f8     .....x...?......
	...
    ee94:	0c00 0018 0e00 0038 0e00 0038 0600 0030     ......8...8...0.
    eea4:	0300 0060 6100 8043 ff00 80ff 6100 0043     ..`..aC......aC.
    eeb4:	0300 0060 0600 0030 0e00 0038 0e00 0038     ..`...0...8...8.
    eec4:	0c00 0018 0000 0000 0000 0000 0000 0000     ................
    eed4:	0000 0080 0000 0080 0000 0080 0000 0080     ................
    eee4:	0000 0080 0000 0080 7f00 00ff 0000 0080     ................
    eef4:	0000 0080 0000 0080 0000 0080 0000 0080     ................
    ef04:	0000 0080 0000 0000 0000 0000 0000 0100     ................
    ef14:	0000 e300 0000 e200 0000 fc00 0000 7800     ...............x
	...
    ef50:	0000 0080 0000 0080 0000 0080 0000 0080     ................
    ef60:	0000 0080 0000 0080 0000 0080 0000 0080     ................
    ef70:	0000 0080 0000 0080 0000 0080 0000 0080     ................
    ef80:	0000 0080 0000 0080 0000 0000 0000 0000     ................
    ef90:	0000 0000 0000 c000 0000 e001 0000 e001     ................
    efa0:	0000 c000 0000 0000 0000 0000 0000 0000     ................
	...
    efd0:	0000 0c00 0000 3800 0000 e000 0000 8003     .......8........
    efe0:	0000 000e 0000 0038 0000 00e0 0300 0080     ......8.........
    eff0:	0e00 0000 3800 0000 e000 0000 8003 0000     .....8..........
    f000:	000e 0000 0018 0000 0000 0000 0000 0000     ................
    f010:	0000 0000 0f00 00f8 7f00 00ff f000 8007     ................
    f020:	8001 c000 0003 6000 0002 2000 0002 2000     .......`... ... 
    f030:	0002 2000 0003 6000 8001 c000 e000 8003     ... ...`........
    f040:	7f00 00ff 0f00 00f8 0000 0000 0000 0000     ................
	...
    f058:	8000 2000 8000 2000 8000 2000 8000 6000     ... ... ... ...`
    f068:	ff01 e0ff ff03 e0ff 0000 6000 0000 2000     ...........`... 
    f078:	0000 2000 0000 2000 0000 0000 0000 0000     ... ... ........
	...
    f094:	7800 e000 9800 6001 0001 6002 0002 6004     .x.....`...`...`
    f0a4:	0002 6008 0002 6010 0002 6020 0002 6040     ...`...`.. `..@`
    f0b4:	0003 6080 8301 6000 fe01 e000 7c00 8007     ...`...`.....|..
	...
    f0d4:	f000 8007 f001 c007 0001 4000 0002 2000     ...........@... 
    f0e4:	0102 2000 0102 2000 0102 2000 0303 2080     ... ... ... ... 
    f0f4:	8601 4080 fc01 c0c0 7800 807f 0000 001e     ...@.....x......
	...
    f110:	0000 0008 0000 0038 0000 0048 0100 0088     ......8...H.....
    f120:	0600 0008 0c00 1008 3000 1008 4000 1008     .........0...@..
    f130:	ff01 f0ff ff03 f0ff ff03 f0ff 0000 1008     ................
    f140:	0000 1008 0000 1008 0000 0000 0000 0000     ................
    f150:	0000 0000 0000 8007 1f00 4086 e103 2000     ...........@... 
    f160:	0203 2000 0403 2000 0403 2000 0403 2000     ... ... ... ... 
    f170:	0403 2000 0603 4000 0303 c001 0103 80ff     ... ...@........
    f180:	0003 007e 0000 0000 0000 0000 0000 0000     ..~.............
    f190:	0000 0000 0700 00fc 3f00 00ff 7000 80c3     .........?...p..
    f1a0:	8100 c080 0101 6000 0203 2000 0202 2000     .......`... ... 
    f1b0:	0202 2000 0202 2000 0302 4000 c101 c080     ... ... ...@....
    f1c0:	c000 80ff 0000 007e 0000 0000 0000 0000     ......~.........
    f1d0:	0000 0000 f000 0000 c003 0000 8003 0000     ................
    f1e0:	0003 0000 0003 e007 0003 e03f 0103 00c0     ..........?.....
    f1f0:	0603 0000 1803 0000 6003 0000 8003 0000     .........`......
    f200:	0003 0000 0000 0000 0000 0000 0000 0000     ................
    f210:	0000 001f 7800 803f fc00 c060 8e01 40c0     .....x?...`....@
    f220:	0703 2080 0302 2000 0102 2080 0102 2080     ... ... ... ... 
    f230:	0102 20c0 0103 40e0 8601 c070 fc00 803f     ... ...@..p...?.
    f240:	7800 001f 0000 0000 0000 0000 0000 0000     .x..............
    f250:	3f00 0000 ff00 c081 c001 c0c1 0001 2060     .?............` 
    f260:	0002 2020 0002 2020 0002 2020 0002 6020     ..  ..  ..  .. `
    f270:	0002 c040 0001 80c1 c100 008f 7f00 00fe     ..@.............
    f280:	1f00 00f0 0000 0000 0000 0000 0000 0000     ................
	...
    f2a4:	0300 c000 0700 e081 0700 e081 0300 c000     ................
	...
    f2e4:	0600 6600 0600 7800 0000 0000 0000 0000     ...f...x........
	...
    f314:	0000 0080 0100 00c0 0300 0060 0600 0030     ..........`...0.
    f324:	0c00 0018 1800 000c 3000 0006 6000 0003     .........0...`..
    f334:	c000 8001 0001 4000 0002 2000 0004 1000     .......@... ....
	...
    f350:	0400 0010 0400 0010 0400 0010 0400 0010     ................
    f360:	0400 0010 0400 0010 0400 0010 0400 0010     ................
    f370:	0400 0010 0400 0010 0400 0010 0400 0010     ................
    f380:	0400 0010 0400 0010 0000 0000 0000 0000     ................
    f390:	0000 0000 0004 1000 0002 2000 0001 4000     ........... ...@
    f3a0:	c000 8001 6000 0003 3000 0006 1800 000c     .....`...0......
    f3b0:	0c00 0018 0600 0030 0300 0060 0100 00c0     ......0...`.....
    f3c0:	0000 0080 0000 0000 0000 0000 0000 0000     ................
    f3d0:	0000 0000 7800 0000 f801 0000 3802 0000     .....x.......8..
    f3e0:	0002 0000 0004 c000 0004 e079 0004 e081     ..........y.....
    f3f0:	0104 c000 0304 0000 0202 0000 0603 0000     ................
    f400:	fc01 0000 f800 0000 0000 0000 0000 0000     ................
    f410:	0f00 00f8 3f00 00fe 7000 8007 c000 c000     .....?...p......
    f420:	0101 40f8 0703 20fc 1e02 2004 3002 2008     ...@... ... .0. 
    f430:	2002 2030 3f02 20fc 3f01 4004 8001 c00c     . 0 .?. .?.@....
    f440:	e000 8031 1f00 00c2 0000 0000 0000 2000     ..1............ 
    f450:	0000 6000 0000 e003 0000 203e 0300 20e0     ...`......> ... 
    f460:	3e00 0020 e003 0020 8003 0020 fc07 0020     .> ... ... ... .
    f470:	3f00 00e0 0300 20fe 0000 e03f 0000 e001     .?..... ..?.....
    f480:	0000 2000 0000 2000 0000 0000 0000 0000     ... ... ........
    f490:	0002 2000 0002 2000 ff03 e0ff ff03 e0ff     ... ... ........
    f4a0:	0102 2000 0102 2000 0102 2000 0102 2000     ... ... ... ... 
    f4b0:	0102 2000 0303 2000 8601 6080 fc01 c0c0     ... ... ...`....
    f4c0:	f800 807f 0000 001f 0000 0000 0000 0000     ................
    f4d0:	0700 00f8 3f00 00ff 7000 8007 c000 c000     .....?...p......
    f4e0:	0001 4000 0003 2000 0002 2000 0002 2000     ...@... ... ... 
    f4f0:	0002 2000 0002 2000 0001 4000 8001 c000     ... ... ...@....
    f500:	c003 8001 3000 0006 0000 0000 0000 0000     .....0..........
    f510:	0002 2000 0002 2000 ff03 e0ff ff03 e0ff     ... ... ........
    f520:	0002 2000 0002 2000 0002 2000 0002 2000     ... ... ... ... 
    f530:	0003 6000 0001 4000 8001 c000 f000 8007     ...`...@........
    f540:	7f00 00fe 0f00 00f8 0000 0000 0000 0000     ................
    f550:	0002 2000 0002 2000 ff03 e0ff ff03 e0ff     ... ... ........
    f560:	0102 2000 0102 2000 0102 2000 0102 2000     ... ... ... ... 
    f570:	0102 2000 0302 2080 0f02 20e0 0003 6000     ... ... ... ...`
    f580:	c003 e000 6000 0003 0000 0000 0000 0000     .....`..........
    f590:	0002 2000 0002 2000 ff03 e0ff ff03 e0ff     ... ... ........
    f5a0:	0102 2000 0102 2000 0102 0000 0102 0000     ... ... ........
    f5b0:	0102 0000 0102 0000 0302 0080 0f03 00e0     ................
    f5c0:	0003 0000 c003 0000 6000 0000 0000 0000     .........`......
    f5d0:	0700 00f8 3f00 00fe 7000 8007 c001 c001     .....?...p......
    f5e0:	0001 4000 0003 2000 0002 2000 0002 2000     ...@... ... ... 
    f5f0:	0002 2000 0001 2020 0001 4020 c003 803f     ... ..  .. @..?.
    f600:	3000 803f 0000 0020 0000 0020 0002 2000     .0?... ... .... 
    f610:	0002 2000 ff03 e0ff ff03 e0ff 0002 2080     ... ........... 
    f620:	0002 2080 0000 0080 0000 0080 0000 0080     ... ............
    f630:	0002 2080 0002 2080 ff03 e0ff ff03 e0ff     ... ... ........
    f640:	0002 2000 0002 2000 0000 0000 0000 0000     ... ... ........
	...
    f658:	0002 2000 0002 2000 0002 2000 0002 2000     ... ... ... ... 
    f668:	ff03 e0ff ff03 e0ff 0002 2000 0002 2000     ........... ... 
    f678:	0002 2000 0002 2000 0000 0000 0000 0000     ... ... ........
	...
    f690:	0000 0e00 0000 0f00 0000 0f00 0000 0100     ................
    f6a0:	0002 0100 0002 0100 0002 0300 0002 0600     ................
    f6b0:	ff03 fcff ff03 f8ff 0002 0000 0002 0000     ................
    f6c0:	0002 0000 0002 0000 0000 0000 0000 0000     ................
    f6d0:	0002 2000 0002 2000 ff03 e0ff ff03 e0ff     ... ... ........
    f6e0:	0002 20c0 0102 2000 0700 0080 0f00 00e0     ... ... ........
    f6f0:	3000 00f8 6002 203e 8003 200f 0003 e003     .0...`> ... ....
    f700:	0002 e000 0002 2000 0000 2000 0000 0000     ....... ... ....
    f710:	0002 2000 0002 2000 ff03 e0ff ff03 e0ff     ... ... ........
    f720:	0002 2000 0002 2000 0000 2000 0000 2000     ... ... ... ... 
    f730:	0000 2000 0000 2000 0000 2000 0000 6000     ... ... ... ...`
    f740:	0000 e000 0000 0003 0000 0000 0002 2000     ............... 
    f750:	0002 2000 ff03 e0ff e003 2000 ff03 2000     ... ....... ... 
    f760:	1f00 00f0 0100 80ff 0000 e00f 0000 001e     ................
    f770:	0300 00e0 3e00 2000 e003 2000 ff03 e0ff     .....>. ... ....
    f780:	ff03 e0ff 0002 2000 0002 2000 0002 2000     ....... ... ... 
    f790:	0002 2000 ff03 e0ff 8003 2000 f003 2000     ... ....... ... 
    f7a0:	fc00 0000 1f00 0000 0700 00c0 0100 00f0     ................
    f7b0:	0000 007c 0002 801f 0002 e007 ff03 e0ff     ..|.............
    f7c0:	0002 0000 0002 0000 0000 0000 0000 0000     ................
    f7d0:	0f00 00f8 3f00 00fe f000 8007 8001 c000     .....?..........
    f7e0:	0001 4000 0002 2000 0002 2000 0002 2000     ...@... ... ... 
    f7f0:	0002 2000 0001 4000 8001 c000 f000 8003     ... ...@........
    f800:	3f00 00fe 0f00 00f8 0000 0000 0000 0000     .?..............
    f810:	0002 2000 0002 2000 ff03 e0ff ff03 e0ff     ... ... ........
    f820:	0002 2080 0002 2080 0002 0080 0002 0080     ... ... ........
    f830:	0002 0080 0002 0080 0103 0080 8301 0000     ................
    f840:	fe00 0000 7c00 0000 0000 0000 0000 0000     .....|..........
    f850:	0f00 00f8 7f00 00ff f000 8003 8001 c001     ................
    f860:	0001 4006 0002 2004 0002 2004 0002 2006     ...@... ... ... 
    f870:	0002 e003 0001 f800 8001 5c00 e000 8c03     ...........\....
    f880:	3f00 0cff 0f00 18fc 0000 0000 0000 0000     .?..............
    f890:	0002 2000 0002 2000 ff03 e0ff ff03 e0ff     ... ... ........
    f8a0:	0102 2000 0102 2000 0102 0080 0102 00e0     ... ... ........
    f8b0:	0102 00fc 0303 803f 8601 e007 fc01 e000     ......?.........
    f8c0:	f800 2000 0000 2000 0000 0000 0000 0000     ... ... ........
    f8d0:	0000 0000 7800 0006 fe00 e001 8601 c000     .....x..........
    f8e0:	0303 4000 0302 2000 0102 2080 0102 2080     ...@... ... ... 
    f8f0:	0102 20c0 0002 20c0 0001 60e0 8001 c070     ... ... ...`..p.
    f900:	e003 803f 0000 001f 0000 0000 0000 0000     ..?.............
    f910:	6000 0000 8003 0000 0003 0000 0002 0000     .`..............
    f920:	0002 2000 0002 2000 ff03 e0ff ff03 e0ff     ... ... ........
    f930:	0002 2000 0002 2000 0002 0000 0002 0000     ... ... ........
    f940:	8003 0000 e000 0000 0000 0000 0002 0000     ................
    f950:	0002 0000 ff03 00ff ff03 c0ff 0002 4000     ...............@
    f960:	0002 6000 0000 2000 0000 2000 0000 2000     ...`... ... ... 
    f970:	0000 2000 0002 4000 0002 8000 ff03 00ff     ... ...@........
    f980:	0002 0000 0002 0000 0000 0000 0000 0000     ................
    f990:	0002 0000 0002 0000 c003 0000 fc03 0000     ................
    f9a0:	3f02 00c0 0300 00f8 0000 807f 0000 e007     .?..............
    f9b0:	0000 8007 0000 0078 0302 00c0 3c02 0000     ......x......<..
    f9c0:	c003 0000 0002 0000 0002 0000 0002 0000     ................
    f9d0:	c003 0000 ff03 0080 3f02 00fe 0002 e07f     .........?......
    f9e0:	0000 000f 0002 00f0 ef03 0000 ff03 0080     ................
    f9f0:	0f02 00fe 0000 e03f 0000 001f 0702 00e0     ......?.........
    fa00:	f803 0000 0003 0000 0002 0000 0000 0000     ................
    fa10:	0002 2000 0002 2000 8003 e000 f003 2003     ... ... ....... 
    fa20:	fc02 200c 1f02 0030 0700 00c0 0700 00f0     ... ..0.........
    fa30:	1802 007c 6002 201f 8003 e003 0002 e000     ..|..`. ........
    fa40:	0002 2000 0000 2000 0000 0000 0000 0000     ... ... ........
    fa50:	0002 0000 0003 0000 c003 0000 f803 0000     ................
    fa60:	3e02 2000 0f02 20c0 0100 e0ff 0000 e07f     .>. ... ........
    fa70:	0300 2080 1c02 2000 7002 0000 8003 0000     ... ... .p......
    fa80:	0002 0000 0002 0000 0000 0000 0000 0000     ................
    fa90:	0000 2000 6000 e000 8003 e003 0003 a00f     ... .`..........
    faa0:	0002 203e 0002 20f8 0302 20e0 0f02 2080     ..> ... ... ... 
    fab0:	3e02 2000 7802 2000 e003 6000 8003 e000     .>. .x. ...`....
    fac0:	0002 0003 0000 0000 0000 0000 0000 0000     ................
	...
    fae4:	ff1f fcff 0010 0400 0010 0400 0010 0400     ................
    faf4:	0010 0400 0010 0400 0010 0400 0010 0400     ................
	...
    fb18:	0007 0000 c003 0000 7800 0000 1e00 0000     .........x......
    fb28:	0300 00c0 0000 00f0 0000 001e 0000 8007     ................
    fb38:	0000 f000 0000 3c00 0000 0600 0000 0000     .......<........
	...
    fb54:	0010 0400 0010 0400 0010 0400 0010 0400     ................
    fb64:	0010 0400 0010 0400 0010 0400 ff1f fcff     ................
	...
    fb9c:	0002 0000 0004 0000 0008 0000 0018 0000     ................
    fbac:	0010 0000 0018 0000 0018 0000 0004 0000     ................
    fbbc:	0002 0000 0000 0000 0000 0000 0000 0000     ................
    fbcc:	0000 0100 0000 0100 0000 0100 0000 0100     ................
    fbdc:	0000 0100 0000 0100 0000 0100 0000 0100     ................
    fbec:	0000 0100 0000 0100 0000 0100 0000 0100     ................
    fbfc:	0000 0100 0000 0100 0000 0100 0000 0100     ................
	...
    fc18:	0010 0000 0010 0000 0010 0000 0018 0000     ................
    fc28:	0008 0000 0004 0000 0000 0000 0000 0000     ................
	...
    fc50:	0000 8003 0100 c08f 0300 608c 0600 2018     ...........`... 
    fc60:	0400 2010 0400 2010 0400 2020 0400 4020     ... ... ..  .. @
    fc70:	0600 4020 0300 c0ff 0100 e0ff 0000 2000     .. @........... 
    fc80:	0000 2000 0000 c000 0000 0000 0000 0000     ... ............
    fc90:	0002 0000 0002 0000 ff03 e0ff ff07 c0ff     ................
    fca0:	0100 c080 0200 6000 0200 2000 0400 2000     .......`... ... 
    fcb0:	0400 2000 0400 2000 0600 4000 0300 c000     ... ... ...@....
    fcc0:	0100 80ff 0000 00fe 0000 0000 0000 0000     ................
    fcd0:	0000 0000 0000 007e 0100 80ff 0300 c081     ......~.........
    fce0:	0200 4000 0600 2000 0400 2000 0400 2000     ...@... ... ... 
    fcf0:	0400 2000 0600 2000 0300 40c0 0100 80c0     ... ... ...@....
    fd00:	0000 0003 0000 0000 0000 0000 0000 0000     ................
    fd10:	0000 0000 0000 007e 0100 80ff 0300 c080     ......~.........
    fd20:	0600 6000 0400 2000 0400 2000 0400 2000     ...`... ... ... 
    fd30:	0402 4000 0202 8000 ff03 e0ff ff07 c0ff     ...@............
    fd40:	0000 4000 0000 4000 0000 0000 0000 0000     ...@...@........
    fd50:	0000 0000 0000 007e 0100 80ff 0300 c011     ......~.........
    fd60:	0200 4010 0400 6010 0400 2010 0400 2010     ...@...`... ... 
    fd70:	0400 2010 0600 2010 0300 4010 0100 c0f0     ... ... ...@....
    fd80:	0000 0071 0000 0000 0000 0000 0000 0000     ..q.............
    fd90:	0000 0000 0400 0000 0400 2000 0400 2000     ........... ... 
    fda0:	0400 2000 7f00 e0ff ff01 e0ff 0401 2000     ... ........... 
    fdb0:	0403 2000 0402 2000 0402 2000 0402 0000     ... ... ... ....
    fdc0:	0002 0000 c001 0000 c001 0000 0000 0000     ................
    fdd0:	0000 0000 0000 1c00 0000 3ee3 0300 c2ff     ...........>....
    fde0:	0200 c30c 0400 c104 0400 c104 0400 c104     ................
    fdf0:	0400 c104 0600 c10c 0300 c3f8 0500 62f0     ...............b
    fe00:	0600 7e00 0600 3c00 0000 0000 0000 0000     ...~...<........
    fe10:	0002 2000 0002 2000 ff03 e0ff ff07 e0ff     ... ... ........
    fe20:	0100 2000 0200 2000 0600 0000 0400 0000     ... ... ........
    fe30:	0400 0000 0400 2000 0600 2000 0300 e0ff     ....... ... ....
    fe40:	0100 e0ff 0000 2000 0000 2000 0000 0000     ....... ... ....
	...
    fe58:	0400 2000 0400 2000 0400 2000 0400 2000     ... ... ... ... 
    fe68:	8703 e0ff 8f03 e0ff 8003 2000 0000 2000     ........... ... 
    fe78:	0000 2000 0000 2000 0000 0000 0000 0000     ... ... ........
	...
    fe98:	0000 0600 0000 0700 0000 0100 0000 0100     ................
    fea8:	0400 0100 0400 0100 0400 0300 0400 0600     ................
    feb8:	8703 fcff 8f03 f8ff 8003 0000 0000 0000     ................
	...
    fed0:	0002 2000 0002 2000 ff03 e0ff ff07 e0ff     ... ... ........
    fee0:	0000 2008 0000 2010 0000 0030 0000 00fc     ... ... ..0.....
    fef0:	0500 008e 0700 a007 0600 e001 0400 e000     ................
    ff00:	0400 2000 0000 2000 0000 0000 0000 0000     ... ... ........
	...
    ff18:	0002 2000 0002 2000 0002 2000 0002 2000     ... ... ... ... 
    ff28:	ff03 e0ff ff07 e0ff 0000 2000 0000 2000     ........... ... 
    ff38:	0000 2000 0000 2000 0000 0000 0000 0000     ... ... ........
	...
    ff50:	0400 2000 0700 e0ff 0f00 e0ff 0200 2000     ... ........... 
    ff60:	0400 0000 0400 2000 0700 e0ff 0300 e0ff     ....... ........
    ff70:	0200 2000 0400 0000 0400 2000 0700 e0ff     ... ....... ....
    ff80:	0300 e0ff 0000 2000 0000 0000 0000 0000     ....... ........
    ff90:	0400 2000 0400 2000 0700 e0ff 0f00 e0ff     ... ... ........
    ffa0:	0100 2000 0200 2000 0200 0000 0400 0000     ... ... ........
    ffb0:	0400 0000 0400 2000 0600 2000 0300 e0ff     ....... ... ....
    ffc0:	0100 e0ff 0000 2000 0000 2000 0000 0000     ....... ... ....
    ffd0:	0000 0000 0000 007e 0000 80ff 0300 c081     ......~.........
    ffe0:	0200 4000 0600 2000 0400 2000 0400 2000     ...@... ... ... 
    fff0:	0400 2000 0600 2000 0200 4000 0300 c081     ... ... ...@....
   10000:	0100 80ff 0000 007e 0000 0000 0000 0000     ......~.........
   10010:	0400 0100 0400 0100 0700 ffff 0f00 ffff     ................
   10020:	0100 c100 0200 4100 0400 2000 0400 2000     .......A... ... 
   10030:	0400 2000 0400 2000 0600 4000 0300 c001     ... ... ...@....
   10040:	0100 80ff 0000 007e 0000 0000 0000 0000     ......~.........
   10050:	0000 0000 0000 007e 0100 80ff 0300 c080     ......~.........
   10060:	0200 6000 0400 2000 0400 2000 0400 2000     ...`... ... ... 
   10070:	0400 2000 0200 4100 0300 c100 0300 ffff     ... ...A........
   10080:	0700 ffff 0000 0100 0000 0100 0000 0000     ................
   10090:	0400 2000 0400 2000 0400 2000 0400 2000     ... ... ... ... 
   100a0:	0f00 e0ff 0f00 e0ff 0000 20c0 0100 2000     ........... ... 
   100b0:	0200 2000 0600 2000 0400 0000 0400 0000     ... ... ........
   100c0:	0700 0000 0300 0000 0000 0000 0000 0000     ................
   100d0:	0000 0000 0000 e003 0100 e0c0 0300 40e0     ...............@
   100e0:	0600 2030 0400 2030 0400 2018 0400 2018     ..0 ..0 ... ... 
   100f0:	0400 2018 0400 200c 0200 600c 0300 c007     ... ... ...`....
   10100:	0700 8083 0000 0000 0000 0000 0000 0000     ................
   10110:	0000 0000 0400 0000 0400 0000 0400 0000     ................
   10120:	0c00 0000 1f00 80ff ff00 c0ff 0400 6000     ...............`
   10130:	0400 2000 0400 2000 0400 2000 0400 4000     ... ... ... ...@
   10140:	0000 8001 0000 0000 0000 0000 0000 0000     ................
   10150:	0400 0000 0400 0000 0700 80ff 0f00 c0ff     ................
   10160:	0000 6000 0000 2000 0000 2000 0000 2000     ...`... ... ... 
   10170:	0000 2000 0400 4000 0400 8000 0700 e0ff     ... ...@........
   10180:	0f00 c0ff 0000 4000 0000 4000 0000 0000     .......@...@....
   10190:	0400 0000 0400 0000 0700 0080 0700 00f0     ................
   101a0:	0400 00fe 0400 c01f 0000 e003 0000 8003     ................
   101b0:	0000 001c 0400 0060 0700 0080 0600 0000     ......`.........
   101c0:	0400 0000 0000 0000 0000 0000 0400 0000     ................
   101d0:	0600 0000 0700 00c0 0700 00fc 0400 803f     ..............?.
   101e0:	0000 e003 0400 800f 0600 00f0 0700 00f0     ................
   101f0:	0700 80ff 0400 e00f 0000 8003 0400 003c     ..............<.
   10200:	0700 00c0 0600 0000 0400 0000 0000 0000     ................
   10210:	0000 2000 0400 2000 0400 6000 0700 e000     ... ... ...`....
   10220:	0700 2083 0700 00e6 0400 00f8 0000 003c     ... ..........<.
   10230:	0400 205e 0500 a087 0600 e001 0400 6000     ..^ ...........`
   10240:	0400 2000 0000 2000 0000 0000 0000 0000     ... ... ........
   10250:	0400 0000 0400 0300 0700 0300 0700 01e0     ................
   10260:	0400 01f8 0400 021f 0000 fc07 0000 e000     ................
   10270:	0000 0007 0400 0038 0700 00c0 0600 0000     ......8.........
   10280:	0400 0000 0400 0000 0000 0000 0000 0000     ................
   10290:	0000 0000 0700 6080 0600 e000 0400 e003     .......`........
   102a0:	0400 a007 0400 200e 0400 203c 0400 2070     ....... ..< ..p 
   102b0:	0500 20e0 0700 2080 0700 6000 0400 e000     ... ... ...`....
   102c0:	0000 8003 0000 0000 0000 0000 0000 0000     ................
	...
   102e8:	0000 0080 0000 0080 0100 0040 fe07 f83f     ..........@...?.
   102f8:	0008 0400 0010 0200 0010 0200 0000 0000     ................
	...
   1032c:	ffff ffff 0000 0000 0000 0000 0000 0000     ................
	...
   10354:	0010 0200 0010 0200 0008 0400 fe07 f83f     ..............?.
   10364:	0100 0040 0000 0080 0000 0080 0000 0000     ..@.............
	...
   10390:	0018 0000 0030 0000 0040 0000 0040 0000     ....0...@...@...
   103a0:	0040 0000 0020 0000 0030 0000 0008 0000     @... ...0.......
   103b0:	0004 0000 0002 0000 0002 0000 0002 0000     ................
   103c0:	000c 0000 0018 0000 0000 0000 0000 0000     ................
   103d0:	6666 6666 6666 4004                         ffffff.@

000103d8 <__rti_rt_hw_pin_init_name>:
   103d8:	7472 685f 5f77 6970 5f6e 6e69 7469 0000     rt_hw_pin_init..

000103e8 <_ch32_pin_ops>:
   103e8:	7708 0000 76c8 0000 76ea 0000 7786 0000     .w...v...v...w..
   103f8:	7818 0000 7872 0000                         .x..rx..

00010400 <pin_irq_map>:
   10400:	0001 0000 0016 0000 0002 0000 0017 0000     ................
   10410:	0004 0000 0018 0000 0008 0000 0019 0000     ................
   10420:	0010 0000 001a 0000 0020 0000 0027 0000     ........ ...'...
   10430:	0040 0000 0027 0000 0080 0000 0027 0000     @...'.......'...
   10440:	0100 0000 0027 0000 0200 0000 0027 0000     ....'.......'...
   10450:	0400 0000 0038 0000 0800 0000 0038 0000     ....8.......8...
   10460:	1000 0000 0038 0000 2000 0000 0038 0000     ....8.... ..8...
   10470:	4000 0000 0038 0000 8000 0000 0038 0000     .@..8.......8...

00010480 <pins>:
   10480:	ffff ffff 0000 0000 0000 0000 0000 0000     ................
   10490:	0001 0000 767a 0000 1800 4001 0004 0000     ....zv.....@....
   104a0:	0002 0000 767a 0000 1800 4001 0008 0000     ....zv.....@....
   104b0:	0003 0000 767a 0000 1800 4001 0010 0000     ....zv.....@....
   104c0:	0004 0000 767a 0000 1800 4001 0020 0000     ....zv.....@ ...
   104d0:	0005 0000 767a 0000 1800 4001 0040 0000     ....zv.....@@...
   104e0:	ffff ffff 0000 0000 0000 0000 0000 0000     ................
   104f0:	0007 0000 766a 0000 1000 4001 2000 0000     ....jv.....@. ..
   10500:	0008 0000 766a 0000 1000 4001 4000 0000     ....jv.....@.@..
   10510:	0009 0000 766a 0000 1000 4001 8000 0000     ....jv.....@....
   10520:	ffff ffff 0000 0000 0000 0000 0000 0000     ................
   10530:	ffff ffff 0000 0000 0000 0000 0000 0000     ................
   10540:	ffff ffff 0000 0000 0000 0000 0000 0000     ................
   10550:	ffff ffff 0000 0000 0000 0000 0000 0000     ................
   10560:	ffff ffff 0000 0000 0000 0000 0000 0000     ................
   10570:	000f 0000 766a 0000 1000 4001 0001 0000     ....jv.....@....
   10580:	0010 0000 766a 0000 1000 4001 0002 0000     ....jv.....@....
   10590:	0011 0000 766a 0000 1000 4001 0004 0000     ....jv.....@....
   105a0:	0012 0000 766a 0000 1000 4001 0008 0000     ....jv.....@....
   105b0:	ffff ffff 0000 0000 0000 0000 0000 0000     ................
   105c0:	ffff ffff 0000 0000 0000 0000 0000 0000     ................
   105d0:	ffff ffff 0000 0000 0000 0000 0000 0000     ................
   105e0:	ffff ffff 0000 0000 0000 0000 0000 0000     ................
   105f0:	0017 0000 765a 0000 0800 4001 0001 0000     ....Zv.....@....
   10600:	0018 0000 765a 0000 0800 4001 0002 0000     ....Zv.....@....
   10610:	0019 0000 765a 0000 0800 4001 0004 0000     ....Zv.....@....
   10620:	001a 0000 765a 0000 0800 4001 0008 0000     ....Zv.....@....
   10630:	ffff ffff 0000 0000 0000 0000 0000 0000     ................
   10640:	ffff ffff 0000 0000 0000 0000 0000 0000     ................
   10650:	001d 0000 765a 0000 0800 4001 0010 0000     ....Zv.....@....
   10660:	001e 0000 765a 0000 0800 4001 0020 0000     ....Zv.....@ ...
   10670:	001f 0000 765a 0000 0800 4001 0040 0000     ....Zv.....@@...
   10680:	0020 0000 765a 0000 0800 4001 0080 0000      ...Zv.....@....
   10690:	0021 0000 766a 0000 1000 4001 0010 0000     !...jv.....@....
   106a0:	0022 0000 766a 0000 1000 4001 0020 0000     "...jv.....@ ...
   106b0:	0023 0000 764a 0000 0c00 4001 0001 0000     #...Jv.....@....
   106c0:	0024 0000 764a 0000 0c00 4001 0002 0000     $...Jv.....@....
   106d0:	0025 0000 764a 0000 0c00 4001 0004 0000     %...Jv.....@....
   106e0:	0026 0000 767a 0000 1800 4001 0080 0000     &...zv.....@....
   106f0:	0027 0000 767a 0000 1800 4001 0100 0000     '...zv.....@....
   10700:	0028 0000 767a 0000 1800 4001 0200 0000     (...zv.....@....
   10710:	0029 0000 767a 0000 1800 4001 0400 0000     )...zv.....@....
   10720:	002a 0000 767a 0000 1800 4001 0800 0000     *...zv.....@....
   10730:	002b 0000 767a 0000 1800 4001 1000 0000     +...zv.....@....
   10740:	002c 0000 767a 0000 1800 4001 2000 0000     ,...zv.....@. ..
   10750:	002d 0000 767a 0000 1800 4001 4000 0000     -...zv.....@.@..
   10760:	002e 0000 767a 0000 1800 4001 8000 0000     ....zv.....@....
   10770:	002f 0000 764a 0000 0c00 4001 0400 0000     /...Jv.....@....
   10780:	0030 0000 764a 0000 0c00 4001 0800 0000     0...Jv.....@....
   10790:	ffff ffff 0000 0000 0000 0000 0000 0000     ................
   107a0:	ffff ffff 0000 0000 0000 0000 0000 0000     ................
   107b0:	0033 0000 764a 0000 0c00 4001 1000 0000     3...Jv.....@....
   107c0:	0034 0000 764a 0000 0c00 4001 2000 0000     4...Jv.....@. ..
   107d0:	0035 0000 764a 0000 0c00 4001 4000 0000     5...Jv.....@.@..
   107e0:	0036 0000 764a 0000 0c00 4001 8000 0000     6...Jv.....@....
   107f0:	0037 0000 7638 0000 1400 4001 0100 0000     7...8v.....@....
   10800:	0038 0000 7638 0000 1400 4001 0200 0000     8...8v.....@....
   10810:	0039 0000 7638 0000 1400 4001 0400 0000     9...8v.....@....
   10820:	003a 0000 7638 0000 1400 4001 0800 0000     :...8v.....@....
   10830:	003b 0000 7638 0000 1400 4001 1000 0000     ;...8v.....@....
   10840:	003c 0000 7638 0000 1400 4001 2000 0000     <...8v.....@. ..
   10850:	003d 0000 7638 0000 1400 4001 4000 0000     =...8v.....@.@..
   10860:	003e 0000 7638 0000 1400 4001 8000 0000     >...8v.....@....
   10870:	003f 0000 766a 0000 1000 4001 0040 0000     ?...jv.....@@...
   10880:	0040 0000 766a 0000 1000 4001 0080 0000     @...jv.....@....
   10890:	0041 0000 766a 0000 1000 4001 0100 0000     A...jv.....@....
   108a0:	0042 0000 766a 0000 1000 4001 0200 0000     B...jv.....@....
   108b0:	0043 0000 765a 0000 0800 4001 0100 0000     C...Zv.....@....
   108c0:	0044 0000 765a 0000 0800 4001 0200 0000     D...Zv.....@....
   108d0:	0045 0000 765a 0000 0800 4001 0400 0000     E...Zv.....@....
   108e0:	0046 0000 765a 0000 0800 4001 0800 0000     F...Zv.....@....
   108f0:	0047 0000 765a 0000 0800 4001 1000 0000     G...Zv.....@....
   10900:	0048 0000 765a 0000 0800 4001 2000 0000     H...Zv.....@. ..
   10910:	ffff ffff 0000 0000 0000 0000 0000 0000     ................
   10920:	ffff ffff 0000 0000 0000 0000 0000 0000     ................
   10930:	ffff ffff 0000 0000 0000 0000 0000 0000     ................
   10940:	004c 0000 765a 0000 0800 4001 4000 0000     L...Zv.....@.@..
   10950:	004d 0000 765a 0000 0800 4001 8000 0000     M...Zv.....@....
   10960:	004e 0000 766a 0000 1000 4001 0400 0000     N...jv.....@....
   10970:	004f 0000 766a 0000 1000 4001 0800 0000     O...jv.....@....
   10980:	0050 0000 766a 0000 1000 4001 1000 0000     P...jv.....@....
   10990:	0051 0000 7638 0000 1400 4001 0001 0000     Q...8v.....@....
   109a0:	0052 0000 7638 0000 1400 4001 0002 0000     R...8v.....@....
   109b0:	0053 0000 7638 0000 1400 4001 0004 0000     S...8v.....@....
   109c0:	0054 0000 7638 0000 1400 4001 0008 0000     T...8v.....@....
   109d0:	0055 0000 7638 0000 1400 4001 0010 0000     U...8v.....@....
   109e0:	0056 0000 7638 0000 1400 4001 0020 0000     V...8v.....@ ...
   109f0:	0057 0000 7638 0000 1400 4001 0040 0000     W...8v.....@@...
   10a00:	0058 0000 7638 0000 1400 4001 0080 0000     X...8v.....@....
   10a10:	0059 0000 764a 0000 0c00 4001 0008 0000     Y...Jv.....@....
   10a20:	005a 0000 764a 0000 0c00 4001 0010 0000     Z...Jv.....@....
   10a30:	005b 0000 764a 0000 0c00 4001 0020 0000     [...Jv.....@ ...
   10a40:	005c 0000 764a 0000 0c00 4001 0040 0000     \...Jv.....@@...
   10a50:	005d 0000 764a 0000 0c00 4001 0080 0000     ]...Jv.....@....
   10a60:	ffff ffff 0000 0000 0000 0000 0000 0000     ................
   10a70:	005f 0000 764a 0000 0c00 4001 0100 0000     _...Jv.....@....
   10a80:	0060 0000 764a 0000 0c00 4001 0200 0000     `...Jv.....@....
   10a90:	0061 0000 767a 0000 1800 4001 0001 0000     a...zv.....@....
   10aa0:	0062 0000 767a 0000 1800 4001 0002 0000     b...zv.....@....
   10ab0:	ffff ffff 0000 0000 0000 0000 0000 0000     ................
   10ac0:	ffff ffff 0000 0000 0000 0000 0000 0000     ................
   10ad0:	6970 006e 6175 7472 2120 203d 5452 4e5f     pin.uart != RT_N
   10ae0:	4c55 004c                                   ULL.

00010ae4 <__FUNCTION__.6459>:
   10ae4:	6863 3233 635f 6e6f 6966 7567 6572 0000     ch32_configure..

00010af4 <__FUNCTION__.6480>:
   10af4:	6863 3233 635f 6e6f 7274 6c6f 0000 0000     ch32_control....

00010b04 <__FUNCTION__.6489>:
   10b04:	6863 3233 705f 7475 0063 0000               ch32_putc...

00010b10 <__FUNCTION__.6498>:
   10b10:	6863 3233 675f 7465 0063 0000               ch32_getc...

00010b1c <__FUNCTION__.6509>:
   10b1c:	6175 7472 695f 7273 0000 0000               uart_isr....

00010b28 <__rti_rt_hw_usart_init_name>:
   10b28:	7472 685f 5f77 7375 7261 5f74 6e69 7469     rt_hw_usart_init
   10b38:	0000 0000 6663 2067 3d21 5220 5f54 554e     ....cfg != RT_NU
   10b48:	4c4c 0000                                   LL..

00010b4c <ch32_uart_ops>:
   10b4c:	7bba 0000 7df8 0000 7dbc 0000 7d80 0000     .{...}...}...}..
   10b5c:	7bb6 0000 0000 40a0 6172 6e69 6f62 0077     .{.....@rainbow.
   10b6c:	bde5 e8a9 b999 95e6 e688 9c9e bae7 e7bf     ................
   10b7c:	8ba8 b7e5 e5b2 9d88 a7e5 e58b 968c 000a     ................
   10b8c:	bde5 e8a9 b999 95e6 e688 9c9e bae7 e7bf     ................
   10b9c:	8ba8 88e5 e59d 8ba7 8ce5 e596 b1a4 b4e8     ................
   10bac:	efa5 81bc bcef ef81 81bc 000a bde5 e8a9     ................
   10bbc:	b999 95e6 e688 9c9e bae4 e5ae a6ba b7e5     ................
   10bcc:	e8b2 beae bde7 e4ae bab8 6425 2525 000a     ..........%d%%..
   10bdc:	bde5 e8a9 b999 95e6 e688 9c9e b7e5 e5b2     ................
   10bec:	af90 8ae5 efa8 8cbc 80e9 e59f a6ba bae7     ................
   10bfc:	e5a7 ab88 253d 0a64 0000 0000 bde5 e8a9     ....=%d.........
   10c0c:	b999 95e6 e688 9c9e b7e5 e5b2 9c81 ade6     ................
   10c1c:	0aa2 0000 0000 3f80 0000 42c8 0000 43b4     .......?...B...C
   10c2c:	0000 4140 6172 6e69 6f62 2077 6e69 7469     ..@Arainbow init
   10c3c:	000a 0000 81ae 0000 81aa 0000 81ee 0000     ................
   10c4c:	81f8 0000 8202 0000 0000 4270 0000 437f     ..........pB...C
	...
   10c64:	0000 3ff0 4954 324d 5020 4d57 88e5 e59d     ...?TIM2 PWM....
   10c74:	8ba7 8ce5 e596 8cae 88e6 ef90 8cbc a2e9     ................
   10c84:	e791 878e 253d 4864 2c7a e520 a891 9ce6     ....=%dHz, .....
   10c94:	3d9f 6425 000a 0000 4d44 e541 9d88 a7e5     .=%d....DMA.....
   10ca4:	e58b 968c aee5 e68c 9088 bcef e78c a894     ................
   10cb4:	bae4 578e 3253 3138 e632 a78e 88e5 0ab6     ...WS2812.......
   10cc4:	0000 0000                                   ....

00010cc8 <__rti_lcd_drv_init_name>:
   10cc8:	636c 5f64 7264 5f76 6e69 7469 0000 0000     lcd_drv_init....
   10cd8:	636c 0064 6820 7261 6664 6c75 0d74 000a     lcd. hardfult...
   10ce8:	4e20 494d 4820 6e61 6c64 7265 0a0d 0000      NMI Handler....
   10cf8:	2a2a 2a2a 2a2a 2a2a 2a2a 2a2a 2a2a 2a2a     ****************
   10d08:	2a2a 2a2a 2a2a 2a2a 2a2a 2a2a 2a2a 2a2a     ****************
   10d18:	2a2a 2a2a 2a2a 2a2a 2a2a 2a2a 2a2a 2a2a     ****************
   10d28:	2a2a 2a2a 2a2a 0a0d 0000 0000 202a 434d     ******......* MC
   10d38:	3a55 4320 3348 5632 3033 2037 2020 2020     U: CH32V307     
   10d48:	2020 2020 2020 2020 2020 2020 2020 2020                     
   10d58:	2020 2020 2020 2020 2020 2020 2020 2020                     
   10d68:	2a20 0a0d 0000 0000 202a 7953 7473 6d65      *......* System
   10d78:	203a 3256 302e 302e 2020 2020 2020 2020     : V2.0.0        
   10d88:	2020 2020 2020 2020 2020 2020 2020 2020                     
   10d98:	2020 2020 2020 2020 2020 2020 2a20 0a0d                  *..
   10da8:	0000 0000 202a 6144 6574 203a 3032 3532     ....* Date: 2025
   10db8:	302f 2f35 3732 2020 2020 2020 2020 2020     /05/27          
   10dc8:	2020 2020 2020 2020 2020 2020 2020 2020                     
   10dd8:	2020 2020 2020 2020 2a20 0a0d 0000 0000              *......
   10de8:	7953 4373 6b6c 203a 6425 7a48 0a0d 0000     SysClk: %dHz....
   10df8:	6843 7069 4449 203a 3025 7838 0a0d 0000     ChipID: %08x....
   10e08:	636c 5f64 6873 776f 0000 0000 5452 4e5f     lcd_show....RT_N
   10e18:	4c55 214c 0021 0000                         ULL!!...

00010e20 <__fsym___cmd_cmd_brightness_desc>:
   10e20:	6573 2074 6172 6e69 6f62 2077 7262 6769     set rainbow brig
   10e30:	7468 656e 7373 5b20 2d30 3031 5d30 0000     htness [0-100]..

00010e40 <__fsym___cmd_cmd_brightness_name>:
   10e40:	5f5f 6d63 5f64 6d63 5f64 7262 6769 7468     __cmd_cmd_bright
   10e50:	656e 7373 0000 0000                         ness....

00010e58 <__fsym___cmd_cmd_rainbow_stop_desc>:
   10e58:	7473 706f 7220 6961 626e 776f 6520 6666     stop rainbow eff
   10e68:	6365 0074                                   ect.

00010e6c <__fsym___cmd_cmd_rainbow_stop_name>:
   10e6c:	5f5f 6d63 5f64 6d63 5f64 6172 6e69 6f62     __cmd_cmd_rainbo
   10e7c:	5f77 7473 706f 0000                         w_stop..

00010e84 <__fsym___cmd_cmd_rainbow_desc>:
   10e84:	7473 7261 2074 6172 6e69 6f62 2077 6665     start rainbow ef
   10e94:	6566 7463 5b20 7073 6565 2064 2d31 5d35     fect [speed 1-5]
   10ea4:	0000 0000                                   ....

00010ea8 <__fsym___cmd_cmd_rainbow_name>:
   10ea8:	5f5f 6d63 5f64 6d63 5f64 6172 6e69 6f62     __cmd_cmd_rainbo
   10eb8:	0077 0000 6d66 646f 0066 0000 8888 ffff     w...fmodf.......
   10ec8:	870c ffff 881c ffff 8824 ffff 881c ffff     ........$.......
   10ed8:	873c ffff 881c ffff 8824 ffff 870c ffff     <.......$.......
   10ee8:	870c ffff 873c ffff 8824 ffff 887e ffff     ....<...$...~...
   10ef8:	887e ffff 887e ffff 873c ffff 8dca ffff     ~...~...<.......
   10f08:	8cbc ffff 8cbc ffff 8cba ffff 8cc2 ffff     ................
   10f18:	8cc2 ffff 8c88 ffff 8cba ffff 8cc2 ffff     ................
   10f28:	8c88 ffff 8cc2 ffff 8cba ffff 8db6 ffff     ................
   10f38:	8db6 ffff 8db6 ffff 8c88 ffff 9d62 ffff     ............b...
   10f48:	9c88 ffff 9d5c ffff 9c90 ffff 9d5c ffff     ....\.......\...
   10f58:	9c56 ffff 9d5c ffff 9c90 ffff 9c88 ffff     V...\...........
   10f68:	9c88 ffff 9c56 ffff 9c90 ffff 9c96 ffff     ....V...........
   10f78:	9c96 ffff 9c96 ffff 9c56 ffff 9c48 ffff     ........V...H...
   10f88:	9c48 ffff 9d1c ffff 9df8 ffff 9d1c ffff     H...............
   10f98:	9c16 ffff 9d1c ffff 9df8 ffff 9c48 ffff     ............H...
   10fa8:	9c48 ffff 9c16 ffff 9df8 ffff 9c56 ffff     H...........V...
   10fb8:	9c56 ffff 9c56 ffff 9c16 ffff a0cc ffff     V...V...........
   10fc8:	a01a ffff a01a ffff a018 ffff a01e ffff     ................
   10fd8:	a01e ffff 9fee ffff a018 ffff a01e ffff     ................
   10fe8:	9fee ffff a01e ffff a018 ffff a0ba ffff     ................
   10ff8:	a0ba ffff a0ba ffff 9fee ffff               ............

00011004 <__clz_tab>:
   11004:	0100 0202 0303 0303 0404 0404 0404 0404     ................
   11014:	0505 0505 0505 0505 0505 0505 0505 0505     ................
   11024:	0606 0606 0606 0606 0606 0606 0606 0606     ................
   11034:	0606 0606 0606 0606 0606 0606 0606 0606     ................
   11044:	0707 0707 0707 0707 0707 0707 0707 0707     ................
   11054:	0707 0707 0707 0707 0707 0707 0707 0707     ................
   11064:	0707 0707 0707 0707 0707 0707 0707 0707     ................
   11074:	0707 0707 0707 0707 0707 0707 0707 0707     ................
   11084:	0808 0808 0808 0808 0808 0808 0808 0808     ................
   11094:	0808 0808 0808 0808 0808 0808 0808 0808     ................
   110a4:	0808 0808 0808 0808 0808 0808 0808 0808     ................
   110b4:	0808 0808 0808 0808 0808 0808 0808 0808     ................
   110c4:	0808 0808 0808 0808 0808 0808 0808 0808     ................
   110d4:	0808 0808 0808 0808 0808 0808 0808 0808     ................
   110e4:	0808 0808 0808 0808 0808 0808 0808 0808     ................
   110f4:	0808 0808 0808 0808 0808 0808 0808 0808     ................

00011104 <__fsym_list_mem>:
   11104:	c16c 0000 c14c 0000 1412 0000               l...L.......

00011110 <__fsym_list>:
   11110:	cc34 0000 cc18 0000 2c32 0000               4.......2,..

0001111c <__fsym___cmd_list_device>:
   1111c:	cc54 0000 cc3c 0000 2b04 0000               T...<....+..

00011128 <__fsym_list_device>:
   11128:	cc80 0000 cc68 0000 2b04 0000               ....h....+..

00011134 <__fsym___cmd_list_timer>:
   11134:	cca4 0000 cc8c 0000 2b98 0000               .........+..

00011140 <__fsym_list_timer>:
   11140:	ccd0 0000 ccb8 0000 2b98 0000               .........+..

0001114c <__fsym___cmd_list_msgqueue>:
   1114c:	ccfc 0000 ccdc 0000 2a4e 0000               ........N*..

00011158 <__fsym_list_msgqueue>:
   11158:	cd30 0000 cd10 0000 2a4e 0000               0.......N*..

00011164 <__fsym___cmd_list_mailbox>:
   11164:	cd58 0000 cd40 0000 2990 0000               X...@....)..

00011170 <__fsym_list_mailbox>:
   11170:	cd84 0000 cd6c 0000 2990 0000               ....l....)..

0001117c <__fsym___cmd_list_mutex>:
   1117c:	cdac 0000 cd94 0000 290e 0000               .........)..

00011188 <__fsym_list_mutex>:
   11188:	cdd8 0000 cdc0 0000 290e 0000               .........)..

00011194 <__fsym___cmd_list_event>:
   11194:	cdfc 0000 cde4 0000 2862 0000               ........b(..

000111a0 <__fsym_list_event>:
   111a0:	ce28 0000 ce10 0000 2862 0000               (.......b(..

000111ac <__fsym___cmd_list_sem>:
   111ac:	ce50 0000 ce34 0000 27ac 0000               P...4....'..

000111b8 <__fsym_list_sem>:
   111b8:	ce7c 0000 ce60 0000 27ac 0000               |...`....'..

000111c4 <__fsym___cmd_list_thread>:
   111c4:	ce94 0000 ce88 0000 26c8 0000               .........&..

000111d0 <__fsym_list_thread>:
   111d0:	ceb4 0000 cea8 0000 26c8 0000               .........&..

000111dc <__fsym___cmd_clear>:
   111dc:	ced4 0000 cec0 0000 261e 0000               .........&..

000111e8 <__fsym_clear>:
   111e8:	cef4 0000 cee0 0000 261e 0000               .........&..

000111f4 <__fsym___cmd_reboot>:
   111f4:	cf10 0000 cefc 0000 260c 0000               .........&..

00011200 <__fsym_reboot>:
   11200:	cf34 0000 cf20 0000 260c 0000               4... ....&..

0001120c <__fsym___cmd_help>:
   1120c:	d0e8 0000 d0d0 0000 2c7c 0000               ........|,..

00011218 <__fsym___cmd_free>:
   11218:	d118 0000 d0f4 0000 2f32 0000               ........2/..

00011224 <__fsym___cmd_ps>:
   11224:	d140 0000 d124 0000 2f24 0000               @...$...$/..

00011230 <__fsym_pinRead>:
   11230:	d380 0000 d360 0000 3a7a 0000               ....`...z:..

0001123c <__fsym_pinWrite>:
   1123c:	d3a4 0000 d388 0000 3a3c 0000               ........<:..

00011248 <__fsym_pinMode>:
   11248:	d3c8 0000 d3b0 0000 39fe 0000               .........9..

00011254 <__fsym___cmd_cmd_brightness>:
   11254:	0e40 0001 0e20 0001 85fa 0000               @... .......

00011260 <__fsym___cmd_cmd_rainbow_stop>:
   11260:	0e6c 0001 0e58 0001 85ec 0000               l...X.......

0001126c <__fsym___cmd_cmd_rainbow>:
   1126c:	0ea8 0001 0e84 0001 85ca 0000               ............

00011278 <__rt_init_desc_rti_start>:
   11278:	bc00 0000 04d0 0000                         ........

00011280 <__rt_init_desc_rti_board_start>:
   11280:	bbf0 0000 04d8 0000                         ........

00011288 <__rt_init_desc_rt_hw_pin_init>:
   11288:	03d8 0001 768c 0000                         .....v..

00011290 <__rt_init_desc_rt_hw_usart_init>:
   11290:	0b28 0001 7cbc 0000                         (....|..

00011298 <__rt_init_desc_rti_board_end>:
   11298:	bbe0 0000 04dc 0000                         ........

000112a0 <__rt_init_desc_lcd_drv_init>:
   112a0:	0cc8 0001 845e 0000                         ....^...

000112a8 <__rt_init_desc_finsh_system_init>:
   112a8:	d180 0000 2f70 0000                         ....p/..

000112b0 <__rt_init_desc_rti_end>:
   112b0:	01d4 2000 04d4 0000                         ... ....
