
CH32V307-RT-Thread.elf:     file format elf32-littleriscv
CH32V307-RT-Thread.elf
architecture: riscv:rv32, flags 0x00000112:
EXEC_P, HAS_SYMS, D_PAGED
start address 0x00000000

Program Header:
    LOAD off    0x00001000 vaddr 0x00000000 paddr 0x00000000 align 2**12
         filesz 0x0000c8b0 memsz 0x0000c8b0 flags r-x
    LOAD off    0x0000e000 vaddr 0x20000000 paddr 0x0000c8b0 align 2**12
         filesz 0x00000350 memsz 0x00004a1c flags rw-
    LOAD off    0x0000e800 vaddr 0x2000f800 paddr 0x2000f800 align 2**12
         filesz 0x00000000 memsz 0x00000800 flags rw-

Sections:
Idx Name          Size      VMA       LMA       File off  Algn
  0 .init         00000004  00000000  00000000  00001000  2**1
                  CONTENTS, ALLOC, LOAD, READONLY, CODE
  1 .vector       000001bc  00000004  00000004  00001004  2**1
                  CONTENTS, ALLOC, LOAD, READONLY, CODE
  2 .text         0000c6f0  000001c0  000001c0  000011c0  2**3
                  CONTENTS, ALLOC, LOAD, READONLY, CODE
  3 .fini         00000000  0000c8b0  0000c8b0  0000e350  2**0
                  CONTENTS, ALLOC, LOAD, CODE
  4 .dalign       00000000  20000000  20000000  0000e350  2**0
                  CONTENTS
  5 .dlalign      00000000  0000c8b0  0000c8b0  0000e350  2**0
                  CONTENTS
  6 .data         00000350  20000000  0000c8b0  0000e000  2**2
                  CONTENTS, ALLOC, LOAD, DATA
  7 .bss          000046cc  20000350  0000cc00  0000e350  2**2
                  ALLOC
  8 .stack        00000800  2000f800  2000f800  0000e800  2**0
                  ALLOC
  9 .debug_info   0002af94  00000000  00000000  0000e350  2**0
                  CONTENTS, READONLY, DEBUGGING
 10 .debug_abbrev 00007ad7  00000000  00000000  000392e4  2**0
                  CONTENTS, READONLY, DEBUGGING
 11 .debug_loc    0000bd8b  00000000  00000000  00040dbb  2**0
                  CONTENTS, READONLY, DEBUGGING
 12 .debug_aranges 00001460  00000000  00000000  0004cb48  2**3
                  CONTENTS, READONLY, DEBUGGING
 13 .debug_ranges 00001b38  00000000  00000000  0004dfa8  2**3
                  CONTENTS, READONLY, DEBUGGING
 14 .debug_line   0001e479  00000000  00000000  0004fae0  2**0
                  CONTENTS, READONLY, DEBUGGING
 15 .debug_str    00005d44  00000000  00000000  0006df59  2**0
                  CONTENTS, READONLY, DEBUGGING
 16 .comment      00000033  00000000  00000000  00073c9d  2**0
                  CONTENTS, READONLY
 17 .debug_frame  00004bc0  00000000  00000000  00073cd0  2**2
                  CONTENTS, READONLY, DEBUGGING
 18 .stab         00000084  00000000  00000000  00078890  2**2
                  CONTENTS, READONLY, DEBUGGING
 19 .stabstr      00000117  00000000  00000000  00078914  2**0
                  CONTENTS, READONLY, DEBUGGING
SYMBOL TABLE:
00000000 l    d  .init	00000000 .init
00000004 l    d  .vector	00000000 .vector
000001c0 l    d  .text	00000000 .text
0000c8b0 l    d  .fini	00000000 .fini
20000000 l    d  .dalign	00000000 .dalign
0000c8b0 l    d  .dlalign	00000000 .dlalign
20000000 l    d  .data	00000000 .data
20000350 l    d  .bss	00000000 .bss
2000f800 l    d  .stack	00000000 .stack
00000000 l    d  .debug_info	00000000 .debug_info
00000000 l    d  .debug_abbrev	00000000 .debug_abbrev
00000000 l    d  .debug_loc	00000000 .debug_loc
00000000 l    d  .debug_aranges	00000000 .debug_aranges
00000000 l    d  .debug_ranges	00000000 .debug_ranges
00000000 l    d  .debug_line	00000000 .debug_line
00000000 l    d  .debug_str	00000000 .debug_str
00000000 l    d  .comment	00000000 .comment
00000000 l    d  .debug_frame	00000000 .debug_frame
00000000 l    d  .stab	00000000 .stab
00000000 l    d  .stabstr	00000000 .stabstr
00000000 l    df *ABS*	00000000 ./Startup/startup_ch32v30x_D8C.o
00000004 l       .vector	00000000 _vector_base
00000000 l    df *ABS*	00000000 clock.c
20000350 l     O .bss	00000004 rt_tick
00000000 l    df *ABS*	00000000 components.c
000005ea l     F .text	00000004 rti_start
000005ee l     F .text	00000004 rti_end
000005f2 l     F .text	00000004 rti_board_start
000005f6 l     F .text	00000004 rti_board_end
00000000 l    df *ABS*	00000000 device.c
00000000 l    df *ABS*	00000000 idle.c
0000088c l     F .text	0000001c rt_thread_idle_entry
20000410 l     O .bss	00000080 idle
20000490 l     O .bss	00000010 idle_hook_list
200004a0 l     O .bss	00000200 rt_thread_stack
00000000 l    df *ABS*	00000000 ipc.c
000008de l     F .text	0000005a rt_ipc_list_suspend
00000000 l    df *ABS*	00000000 irq.c
20000354 l     O .bss	00000004 rt_interrupt_enter_hook
20000358 l     O .bss	00000004 rt_interrupt_leave_hook
00000000 l    df *ABS*	00000000 kservice.c
00000a84 l     F .text	0000017e print_number
200006a0 l     O .bss	00000080 rt_log_buf.2693
0000aaac l     O .text	00000011 large_digits.2583
0000ab50 l     O .text	00000011 small_digits.2582
20000360 l     O .bss	00000004 __rt_errno
20000364 l     O .bss	00000004 _console_device
00000000 l    df *ABS*	00000000 mem.c
000011d2 l     F .text	00000058 plug_holes
20000720 l     O .bss	00000020 heap_sem
20000368 l     O .bss	00000004 heap_end
2000036c l     O .bss	00000004 heap_ptr
20000370 l     O .bss	00000004 lfree
20000374 l     O .bss	00000004 max_mem
20000378 l     O .bss	00000004 mem_size_aligned
2000037c l     O .bss	00000004 rt_free_hook
20000380 l     O .bss	00000004 rt_malloc_hook
20000384 l     O .bss	00000004 used_mem
00000000 l    df *ABS*	00000000 object.c
20000000 l     O .data	00000080 rt_object_container
20000388 l     O .bss	00000004 rt_object_attach_hook
2000038c l     O .bss	00000004 rt_object_detach_hook
00000000 l    df *ABS*	00000000 scheduler.c
200003a4 l     O .bss	00000004 rt_scheduler_hook
200003a8 l     O .bss	00000002 rt_scheduler_lock_nest
00000000 l    df *ABS*	00000000 thread.c
000017fa l     F .text	0000008e _rt_thread_init.isra.0
200003b8 l     O .bss	00000004 rt_thread_inited_hook
200003bc l     O .bss	00000004 rt_thread_resume_hook
200003c0 l     O .bss	00000004 rt_thread_suspend_hook
00000000 l    df *ABS*	00000000 timer.c
00001a88 l     F .text	00000012 _rt_timer_remove.part.1
200003c4 l     O .bss	00000004 random_nr.2483
200003c8 l     O .bss	00000004 rt_timer_enter_hook
200003cc l     O .bss	00000004 rt_timer_exit_hook
200003d0 l     O .bss	00000008 rt_timer_list
00000000 l    df *ABS*	00000000 cpuport.c
00000000 l    df *ABS*	00000000 cmd.c
00001ce6 l     F .text	00000012 rt_list_len
00001d20 l     F .text	00000020 object_split
00001d40 l     F .text	00000036 show_wait_queue
00001d76 l     F .text	0000003e object_name_maxlen
00000000 l    df *ABS*	00000000 msh.c
00000000 l    df *ABS*	00000000 msh_cmd.c
00000000 l    df *ABS*	00000000 shell.c
0000262a l     F .text	00000012 finsh_rx_ind
00002712 l     F .text	0000002e shell_handle_history
200007c0 l     O .bss	00000081 finsh_prompt.4315
00000000 l    df *ABS*	00000000 serial.c
00002bce l     F .text	00000020 rt_serial_init
00002bee l     F .text	00000042 rt_serial_write
00002c30 l     F .text	0000009e rt_serial_open
00002cce l     F .text	0000006e rt_serial_control
00002d3c l     F .text	0000009e rt_serial_read
00002dda l     F .text	00000040 rt_serial_close
00000000 l    df *ABS*	00000000 pin.c
00002f1e l     F .text	0000001c _pin_control
00002f86 l     F .text	0000002e _pin_read
00002fb4 l     F .text	0000002c _pin_write
20000844 l     O .bss	00000048 _hw_pin
00000000 l    df *ABS*	00000000 board.c
2000088c l     O .bss	00004000 rt_heap
00000000 l    df *ABS*	00000000 drv_gpio.c
000030da l     F .text	0000001c bit2bitno
000030f6 l     F .text	00000012 GPIOD_CLK_ENABLE
00003108 l     F .text	00000010 GPIOB_CLK_ENABLE
00003118 l     F .text	00000010 GPIOA_CLK_ENABLE
00003128 l     F .text	00000010 GPIOC_CLK_ENABLE
00003138 l     F .text	00000012 GPIOE_CLK_ENABLE
0000b6d8 l     O .text	00000018 _ch32_pin_ops
0000b6f0 l     O .text	00000080 pin_irq_map
0000b770 l     O .text	00000650 pins
00000000 l    df *ABS*	00000000 drv_pwm.c
00000000 l    df *ABS*	00000000 drv_usart.c
00003710 l     F .text	0000002a uart_isr
000038a8 l     F .text	0000012c ch32_configure
000039d4 l     F .text	00000022 ch32_getc
000039f6 l     F .text	00000022 ch32_putc
00003a18 l     F .text	00000060 ch32_control
0000bdc4 l     O .text	00000014 ch32_uart_ops
00000000 l    df *ABS*	00000000 ATK.c
00000000 l    df *ABS*	00000000 PWM.c
00003aec l     F .text	0000002c set_round_cmd
00003b18 l     F .text	0000004e servo_speed_cmd
00000000 l    df *ABS*	00000000 WIFI.c
00003b66 l     F .text	000001ea wifi_recv_thread_entry
00003d50 l     F .text	00000016 wifi_uart_rx_callback
00003e60 l     F .text	0000004e wifi_power_cmd
20004978 l     O .bss	00000080 wifi_recv_buf
200049f8 l     O .bss	00000020 wifi_rx_sem
20000400 l     O .bss	00000004 wifi_data_len
20000404 l     O .bss	00000004 wifi_uart
00000000 l    df *ABS*	00000000 ch32v30x_it.c
00000000 l    df *ABS*	00000000 dht11.c
00000000 l    df *ABS*	00000000 main.c
00000000 l    df *ABS*	00000000 system_ch32v30x.c
00000000 l    df *ABS*	00000000 ch32v30x_dbgmcu.c
00000000 l    df *ABS*	00000000 ch32v30x_exti.c
00000000 l    df *ABS*	00000000 ch32v30x_gpio.c
00000000 l    df *ABS*	00000000 ch32v30x_rcc.c
20000150 l     O .data	00000010 APBAHBPrescTable
2000033c l     O .data	00000004 ADCPrescTable
00000000 l    df *ABS*	00000000 ch32v30x_tim.c
00000000 l    df *ABS*	00000000 ch32v30x_usart.c
00000000 l    df *ABS*	00000000 debug.c
20000340 l     O .data	00000004 curbrk.5273
00000000 l    df *ABS*	00000000 core_riscv.c
00000000 l    df *ABS*	00000000 mulsf3.c
00000000 l    df *ABS*	00000000 fixsfsi.c
00000000 l    df *ABS*	00000000 truncdfsf2.c
00000000 l    df *ABS*	00000000 libgcc2.c
00000000 l    df *ABS*	00000000 atof.c
00000000 l    df *ABS*	00000000 atoi.c
00000000 l    df *ABS*	00000000 memcmp.c
00000000 l    df *ABS*	00000000 memcpy.c
00000000 l    df *ABS*	00000000 printf.c
00000000 l    df *ABS*	00000000 sscanf.c
00000000 l    df *ABS*	00000000 stdio.c
00000000 l    df *ABS*	00000000 strcat.c
00000000 l    df *ABS*	00000000 strchr.c
00000000 l    df *ABS*	00000000 strcpy.c
00000000 l    df *ABS*	00000000 strlen.c
00000000 l    df *ABS*	00000000 strncmp.c
00000000 l    df *ABS*	00000000 strstr.c
00000000 l    df *ABS*	00000000 strtod.c
00005242 l     F .text	0000004e sulp
0000c360 l     O .text	00000014 fpi.3395
0000c374 l     O .text	00000014 fpinan.3431
0000c388 l     O .text	00000028 tinytens
00000000 l    df *ABS*	00000000 strtol.c
00005f18 l     F .text	0000013a _strtol_l.isra.0
00000000 l    df *ABS*	00000000 writer.c
00000000 l    df *ABS*	00000000 closer.c
00000000 l    df *ABS*	00000000 findfp.c
000060ee l     F .text	00000066 std
00000000 l    df *ABS*	00000000 fwalk.c
00000000 l    df *ABS*	00000000 gdtoa-gethex.c
0000631c l     F .text	00000076 rshift
00000000 l    df *ABS*	00000000 gdtoa-hexnan.c
0000689c l     F .text	0000002c L_shift
00000000 l    df *ABS*	00000000 locale.c
00000000 l    df *ABS*	00000000 localeconv.c
00000000 l    df *ABS*	00000000 lseekr.c
00000000 l    df *ABS*	00000000 mbtowc_r.c
00000000 l    df *ABS*	00000000 mprec.c
0000c510 l     O .text	0000000c p05.3319
00000000 l    df *ABS*	00000000 nano-mallocr.c
00000000 l    df *ABS*	00000000 nano-mallocr.c
00000000 l    df *ABS*	00000000 nano-vfscanf.c
00000000 l    df *ABS*	00000000 nano-vfprintf.c
000079ec l     F .text	00000028 __sfputc_r
00000000 l    df *ABS*	00000000 nano-vfprintf_i.c
00000000 l    df *ABS*	00000000 nano-vfscanf_i.c
00000000 l    df *ABS*	00000000 readr.c
00000000 l    df *ABS*	00000000 sbrkr.c
00000000 l    df *ABS*	00000000 sccl.c
00000000 l    df *ABS*	00000000 strtoul.c
000084b8 l     F .text	00000130 _strtoul_l.isra.0
00000000 l    df *ABS*	00000000 ungetc.c
00000000 l    df *ABS*	00000000 wbuf.c
00000000 l    df *ABS*	00000000 wctomb_r.c
00000000 l    df *ABS*	00000000 wsetup.c
00000000 l    df *ABS*	00000000 fflush.c
00000000 l    df *ABS*	00000000 makebuf.c
00000000 l    df *ABS*	00000000 malloc.c
00000000 l    df *ABS*	00000000 memchr.c
00000000 l    df *ABS*	00000000 mlock.c
00000000 l    df *ABS*	00000000 nano-mallocr.c
00000000 l    df *ABS*	00000000 nano-mallocr.c
00000000 l    df *ABS*	00000000 fstatr.c
00000000 l    df *ABS*	00000000 isattyr.c
00000000 l    df *ABS*	00000000 nano-mallocr.c
00000000 l    df *ABS*	00000000 adddf3.c
00000000 l    df *ABS*	00000000 divdf3.c
00000000 l    df *ABS*	00000000 eqdf2.c
00000000 l    df *ABS*	00000000 gedf2.c
00000000 l    df *ABS*	00000000 ledf2.c
00000000 l    df *ABS*	00000000 muldf3.c
00000000 l    df *ABS*	00000000 subdf3.c
00000000 l    df *ABS*	00000000 fixdfsi.c
00000000 l    df *ABS*	00000000 fixunsdfsi.c
00000000 l    df *ABS*	00000000 floatsidf.c
00000000 l    df *ABS*	00000000 floatunsidf.c
00000000 l    df *ABS*	00000000 close.c
00000000 l    df *ABS*	00000000 fstat.c
00000000 l    df *ABS*	00000000 isatty.c
00000000 l    df *ABS*	00000000 lseek.c
00000000 l    df *ABS*	00000000 read.c
00000000 l    df *ABS*	00000000 libgcc2.c
00000000 l    df *ABS*	00000000 ctype_.c
00000000 l    df *ABS*	00000000 impure.c
20000160 l     O .data	00000060 impure_data
00000000 l    df *ABS*	00000000 symbol.c
00000000 l    df *ABS*	00000000 reent.c
00008c6a g     F .text	00000014 _malloc_usable_size_r
00003504 g     F .text	00000028 EXTI2_IRQHandler
00008094 g     F .text	000000e2 _scanf_chars
00004386  w      .text	00000000 TIM8_TRG_COM_IRQHandler
00001404 g     F .text	00000024 rt_calloc
00004386  w      .text	00000000 TIM8_CC_IRQHandler
0000c7c8 g     O .text	0000000c __fsym_list_thread
00000692 g     F .text	0000000a entry
00007424 g     F .text	00000046 __any_on
00008c38 g     F .text	00000032 _isatty_r
000051c4 g     F .text	00000010 strcpy
000036a2 g     F .text	0000006a pwm_tim8_init
00001db4 g     F .text	000000e2 list_thread
000027be g     F .text	00000410 finsh_thread_entry
00001610 g     F .text	00000008 rt_object_is_systemobject
00000cee g     F .text	0000002c rt_strncpy
00001c5e g     F .text	00000036 rt_hw_stack_init
00006a78 g     F .text	00000036 _lseek_r
00001a02 g     F .text	0000000e rt_thread_mdelay
00004386  w      .text	00000000 UART8_IRQHandler
000023c2 g     F .text	000001aa msh_exec
0000be2c g     O .text	00000016 __fsym___cmd_servo_speed_cmd_name
00009962 g     F .text	0000006a .hidden __eqdf2
0000b218 g     O .text	0000000d __fsym_list_mailbox_name
00001588 g     F .text	00000056 rt_object_allocate
0000c828 g     O .text	0000000c __fsym_pinRead
0000a9ac g     O .text	00000100 __lowest_bit_bitmap
00005042 g     F .text	00000042 printf
20000b30 g       .data	00000000 __global_pointer$
00001646 g     F .text	0000002c rt_system_scheduler_start
0000037a g     F .text	00000028 .hidden __riscv_save_8
00004386  w      .text	00000000 TIM1_CC_IRQHandler
200003dc g     O .bss	00000004 rt_interrupt_to_thread
00005154 g     F .text	00000032 __sseek
000061a6 g     F .text	0000006c __sinit
00008682 g     F .text	000000be __swbuf_r
00003ece g     F .text	00000020 HardFault_Handler
0000615e g     F .text	00000048 __sfmoreglue
00008b02 g     F .text	00000002 __malloc_unlock
0000b310 g     O .text	00000009 __fsym_list_sem_name
000003c6 g     F .text	0000000c .hidden __riscv_restore_3
00004386  w      .text	00000000 TIM6_IRQHandler
000048dc g     F .text	0000000e TIM_OC1PreloadConfig
00000812 g     F .text	00000006 rt_device_set_rx_indicate
000030ba g     F .text	00000020 SysTick_Handler
00006392 g     F .text	00000040 __hexdig_fun
00001428 g     F .text	000000aa rt_free
0000c168 g     O .text	00000020 __fsym___cmd_led_desc
200003d8 g     O .bss	00000004 rt_interrupt_from_thread
0000125c g     F .text	0000007c rt_system_heap_init
00004386  w      .text	00000000 PVD_IRQHandler
00000636 g     F .text	0000000c main_thread_entry
00004386  w      .text	00000000 SDIO_IRQHandler
0000be14 g     O .text	00000016 __fsym___cmd_servo_speed_cmd_desc
00004386  w      .text	00000000 TIM9_BRK_IRQHandler
0000b3c8 g     O .text	00000007 __fsym_reboot_name
00001bda g     F .text	00000078 rt_timer_check
000003b2 g     F .text	00000020 .hidden __riscv_restore_10
000016dc g     F .text	00000048 rt_schedule_insert_thread
00001e96 g     F .text	000000b6 list_sem
00000718 g     F .text	0000007a rt_device_open
00006a5a g     F .text	00000018 __locale_ctype_ptr
00004386  w      .text	00000000 DMA2_Channel8_IRQHandler
00003eae g     F .text	00000020 NMI_Handler
00006ae0 g     F .text	0000008c _Balloc
00004d24 g     F .text	00000062 .hidden __fixsfsi
00004386  w      .text	00000000 CAN2_RX1_IRQHandler
0000352c g     F .text	00000028 EXTI3_IRQHandler
0000037a g     F .text	00000028 .hidden __riscv_save_11
0000441a g     F .text	0000000a DBGMCU_GetCHIPID
0000231c g     F .text	0000004a list
000099cc g     F .text	000000ae .hidden __gtdf2
0000abcc g     O .text	00000009 __fsym_list_mem_name
200003f0 g     O .bss	00000004 _sysvar_table_begin
0000b240 g     O .text	00000011 __fsym___cmd_list_mutex_name
0000c8b0 g       .text	00000000 __rtmsymtab_start
00006a72 g     F .text	00000006 __localeconv_l
00004386  w      .text	00000000 USBHS_IRQHandler
200003fc g     O .bss	00000004 g_servo_param
000049ce g     F .text	0000000a USART_GetFlagStatus
00004386  w      .text	00000000 DMA2_Channel9_IRQHandler
00008c04 g     F .text	00000034 _fstat_r
00000818 g     F .text	00000074 rt_thread_idle_excute
00001978 g     F .text	0000004a rt_thread_suspend
000010de g     F .text	00000068 rt_kprintf
00004386  w      .text	00000000 TIM10_CC_IRQHandler
20004a18 g     O .bss	00000004 errno
00000a7e g     F .text	00000006 rt_interrupt_get_nest
00008176 g     F .text	00000258 _scanf_i
00005104 g     F .text	00000004 __seofread
20000350 g       .bss	00000000 _sbss
00000800 g       *ABS*	00000000 __stack_size
00001888 g     F .text	00000020 rt_thread_timeout
0000b368 g     O .text	0000000c __fsym___cmd_clear_name
0000261c g     F .text	0000000e cmd_free
00004386  w      .text	00000000 USBFS_IRQHandler
0000b2a4 g     O .text	00000015 __fsym_list_event_desc
0000c750 g     O .text	0000000c __fsym_list_msgqueue
0000c894 g       .text	00000000 __rt_init_start
0000207a g     F .text	000000be list_mailbox
000003c6 g     F .text	0000000c .hidden __riscv_restore_2
0000b6b0 g     O .text	00000016 __fsym_pinMode_desc
0000c894 g       .text	00000000 __fsymtab_end
00002f54 g     F .text	0000001a rt_pin_write
0000bdec g     O .text	00000011 __fsym___cmd_set_round_cmd_desc
20000334 g     O .data	00000004 servo_speed
0000c150 g     O .text	00000018 __fsym___cmd_read_dht11_sample_name
0000b354 g     O .text	00000014 __fsym___cmd_clear_desc
00003d66 g     F .text	00000034 wifi_power_ctrl
000007ca g     F .text	0000001c rt_device_read
200003e4 g     O .bss	00000004 shell
000048ac g     F .text	00000016 TIM_CtrlPWMOutputs
00004f90 g     F .text	000000b2 memcpy
000068f6 g     F .text	0000015e __hexnan
00006154 g     F .text	0000000a _cleanup_r
0000a7ea g     F .text	00000072 .hidden __floatsidf
0000263c g     F .text	0000009a finsh_system_init
00009a7a g     F .text	000000b6 .hidden __ltdf2
00000618 g     F .text	0000001e rt_components_init
000034b4 g     F .text	00000028 EXTI0_IRQHandler
00004386  w      .text	00000000 I2C2_EV_IRQHandler
00004386  w      .text	00000000 TIM10_TRG_COM_IRQHandler
00004894 g     F .text	00000018 TIM_Cmd
00001a9a g     F .text	0000003a rt_timer_init
0000c8b0 g       .text	00000000 __rt_init_end
000008a8 g     F .text	00000036 rt_thread_idle_init
20000338 g     O .data	00000004 SystemCoreClock
0000737a g     F .text	00000074 __ratio
0000c780 g     O .text	0000000c __fsym_list_mutex
200003ec g     O .bss	00000004 _syscall_table_end
2000493c g     O .bss	00000018 uart1
00008adc g     F .text	0000000c malloc
00001618 g     F .text	0000002e rt_system_scheduler_init
0000069c g     F .text	00000048 rt_device_find
000001c0 g       .text	00000000 rt_hw_context_switch_to
0000a8d4 g     F .text	00000010 _fstat
0000c89c g     O .text	00000004 __rt_init_rt_hw_pin_init
0000c448 g     O .text	000000c8 __mprec_tens
00000004 g       .init	00000000 _einit
200003e0 g     O .bss	00000004 rt_thread_switch_interrupt_flag
0000472c g     F .text	0000001e RCC_APB2PeriphClockCmd
0000a78e g     F .text	0000005c .hidden __fixunsdfsi
00000372 g     F .text	00000030 .hidden __riscv_save_12
00004386  w      .text	00000000 CAN2_SCE_IRQHandler
00004386  w      .text	00000000 ADC1_2_IRQHandler
0000c8ac g     O .text	00000004 __rt_init_rti_end
00007600 g     F .text	00000044 __ssrefill_r
000044b6 g     F .text	000000c0 GPIO_Init
0000b2e4 g     O .text	0000000f __fsym___cmd_list_sem_name
00004386  w      .text	00000000 Break_Point_Handler
0000c744 g     O .text	0000000c __fsym___cmd_list_msgqueue
00006d9c g     F .text	0000001c __i2b
0000b0ac g     O .text	0000001a __fsym_list_desc
000003b2 g     F .text	00000020 .hidden __riscv_restore_11
00004386  w      .text	00000000 SPI1_IRQHandler
00002e1a g     F .text	0000005a rt_hw_serial_register
0000497a g     F .text	00000016 USART_Cmd
0000b0c8 g     O .text	00000005 __fsym_list_name
00001cc4 g     F .text	00000022 rt_hw_context_switch_interrupt
0000b3a4 g     O .text	0000000d __fsym___cmd_reboot_name
00008404 g     F .text	00000032 _sbrk_r
00004386  w      .text	00000000 TAMPER_IRQHandler
000003a2 g     F .text	0000000c .hidden __riscv_save_1
000003c6 g     F .text	0000000c .hidden __riscv_restore_0
0000b31c g     O .text	0000000c __fsym___cmd_list_thread_desc
000083ce g     F .text	00000036 _read_r
0000b388 g     O .text	00000006 __fsym_clear_name
000018e0 g     F .text	00000046 rt_thread_create
00000388 g     F .text	0000001a .hidden __riscv_save_7
0000c8b0 g       .text	00000000 __rtmsymtab_end
0000b164 g     O .text	0000000b __fsym_list_timer_name
00004a14 g     F .text	00000014 USART_ClearITPendingBit
00004386  w      .text	00000000 CAN2_RX0_IRQHandler
0000c188 g     O .text	0000000a __fsym___cmd_led_name
00001926 g     F .text	00000052 rt_thread_yield
00007644 g     F .text	000003a8 __ssvfscanf_r
00004386  w      .text	00000000 TIM8_UP_IRQHandler
00000642 g     F .text	00000028 rt_application_init
0000402c g     F .text	00000038 read_dht11_sample
0000474a g     F .text	0000001e RCC_APB1PeriphClockCmd
00008c7e g     F .text	00000730 .hidden __adddf3
00004386  w      .text	00000000 Ecall_M_Mode_Handler
000012d8 g     F .text	0000012c rt_malloc
2000f800 g       .stack	00000000 _heap_end
000071f2 g     F .text	000000b4 __b2d
0000a8e4 g     F .text	00000010 _isatty
000009e0 g     F .text	00000042 rt_sem_release
0000c7b0 g     O .text	0000000c __fsym_list_sem
20000348 g     O .data	00000004 _global_impure_ptr
000003bc g     F .text	00000016 .hidden __riscv_restore_5
00008bac g     F .text	00000058 _realloc_r
00003034  w    F .text	0000000a rt_heap_begin_get
00004386  w      .text	00000000 DMA2_Channel2_IRQHandler
0000c708 g     O .text	0000000c __fsym_list
00004386  w      .text	00000000 DMA1_Channel4_IRQHandler
00001c94 g     F .text	00000010 sw_setpend
0000c420 g     O .text	00000028 __mprec_bigtens
00006c48 g     F .text	000000a4 __s2b
0000a85c g     F .text	00000068 .hidden __floatunsidf
00004a66 g     F .text	0000002a _sbrk
00007088 g     F .text	00000032 __mcmp
20000080 g     O .data	000000c0 pin_irq_hdr_tab
0000b328 g     O .text	00000012 __fsym___cmd_list_thread_name
0000b6c8 g     O .text	00000008 __fsym_pinMode_name
0000c7ec g     O .text	0000000c __fsym___cmd_reboot
0000b200 g     O .text	00000018 __fsym_list_mailbox_desc
00001ad4 g     F .text	0000001e rt_timer_detach
00006068 g     F .text	0000001e strtol
00004386  w      .text	00000000 TIM9_UP_IRQHandler
000023be g     F .text	00000004 msh_is_used
000003bc g     F .text	00000016 .hidden __riscv_restore_6
00004386  w      .text	00000000 USART3_IRQHandler
000044ac g     F .text	0000000a EXTI_ClearITPendingBit
000005fa g     F .text	0000001e rt_components_board_init
0000c84c g     O .text	0000000c __fsym___cmd_set_round_cmd
00004386  w      .text	00000000 RTC_IRQHandler
0000b3b4 g     O .text	00000011 __fsym_reboot_desc
00005290 g     F .text	00000c6c _strtod_l
000068c8 g     F .text	0000002e __match
00001146 g     F .text	0000003e rt_show_version
20004a1c g       .bss	00000000 _ebss
000049d8 g     F .text	0000003c USART_GetITStatus
0000c894 g     O .text	00000004 __rt_init_rti_start
00004386  w      .text	00000000 DMA1_Channel7_IRQHandler
00004812 g     F .text	00000082 TIM_OC1Init
00003048 g     F .text	00000072 rt_hw_board_init
00002fe0 g     F .text	00000054 rt_device_pin_register
0000c87c g     O .text	0000000c __fsym___cmd_read_dht11_sample
0000c7d4 g     O .text	0000000c __fsym___cmd_clear
00006cec g     F .text	00000046 __hi0bits
00000802 g     F .text	00000010 rt_device_control
00004386  w      .text	00000000 CAN1_RX1_IRQHandler
00001a10 g     F .text	0000004c rt_thread_resume
0000a726 g     F .text	00000068 .hidden __fixdfsi
0000066a g     F .text	00000028 rtthread_startup
000032d6 g     F .text	0000005a ch32_pin_dettach_irq
00004386  w      .text	00000000 DVP_IRQHandler
00004386  w      .text	00000000 UART5_IRQHandler
00005efc g     F .text	0000001c strtod
0000b1c4 g     O .text	0000000e __fsym_list_msgqueue_name
0000be00 g     O .text	00000014 __fsym___cmd_set_round_cmd_name
00004f5e g     F .text	00000006 atof
00001ba2 g     F .text	00000038 rt_timer_control
000014d2 g     F .text	0000002a rt_object_get_information
20000740 g     O .bss	00000080 rt_thread_priority_table
2000488c g     O .bss	00000058 serial1
00004386  w      .text	00000000 TIM4_IRQHandler
0000c13c g     O .text	00000012 __fsym___cmd_read_dht11_sample_desc
0000b660 g     O .text	0000001e __fsym_pinRead_desc
00001d0a g     F .text	00000016 clear
00009a7a g     F .text	000000b6 .hidden __ledf2
20000390 g     O .bss	00000004 rt_object_put_hook
000048c2 g     F .text	0000001a TIM_ARRPreloadConfig
0000037a g     F .text	00000028 .hidden __riscv_save_9
00004580 g     F .text	0000000a GPIO_WriteBit
0000518e g     F .text	0000001e strcat
000017aa g     F .text	00000050 rt_thread_exit
00004386  w      .text	00000000 DMA2_Channel1_IRQHandler
00006efc g     F .text	000000be __pow5mult
0000b278 g     O .text	00000015 __fsym___cmd_list_event_desc
00004064 g     F .text	00000068 led
000006e4 g     F .text	00000034 rt_device_register
00000ca6 g     F .text	00000048 rt_memmove
0000c3b0 g     O .text	00000020 __sf_fake_stderr
00000388 g     F .text	0000001a .hidden __riscv_save_4
00003490 g     F .text	00000024 HAL_GPIO_EXTI_Callback
00001cf8 g     F .text	00000012 reboot
0000c864 g     O .text	0000000c __fsym___cmd_wifi_power_cmd
00004386  w      .text	00000000 I2C1_EV_IRQHandler
0000c75c g     O .text	0000000c __fsym___cmd_list_mailbox
000045b6 g     F .text	00000176 RCC_GetClocksFreq
0000b6a4 g     O .text	00000009 __fsym_pinWrite_name
00004386  w      .text	00000000 DMA1_Channel6_IRQHandler
00004ef0 g     F .text	0000006e .hidden __clzsi2
00002138 g     F .text	000000b6 list_msgqueue
00007a14 g     F .text	00000042 __sfputs_r
00004386  w      .text	00000000 UART4_IRQHandler
00004386  w      .text	00000000 DMA2_Channel4_IRQHandler
00008ae8 g     F .text	00000018 memchr
000048ea g     F .text	00000090 USART_Init
00008b04 g     F .text	000000a8 _free_r
00004386  w      .text	00000000 TIM3_IRQHandler
00004386  w      .text	00000000 RCC_IRQHandler
00000d44 g     F .text	00000012 rt_strlen
000003a2 g     F .text	0000000c .hidden __riscv_save_3
00004386  w      .text	00000000 TIM1_TRG_COM_IRQHandler
0000c7f8 g     O .text	0000000c __fsym_reboot
0000c804 g     O .text	0000000c __fsym___cmd_help
00004386  w      .text	00000000 DMA1_Channel1_IRQHandler
0000756a g     F .text	00000096 _sungetc_r
2000039c g     O .bss	00000001 rt_current_priority
000031c6 g     F .text	0000007e ch32_pin_mode
0000c72c g     O .text	0000000c __fsym___cmd_list_timer
00000000 g       .init	00000000 _start
0000b1d4 g     O .text	00000018 __fsym___cmd_list_mailbox_desc
00004386  w      .text	00000000 DMA2_Channel7_IRQHandler
20000140 g     O .data	00000010 AHBPrescTable
0000520e g     F .text	00000034 strstr
20000330 g     O .data	00000004 servo_round_count
0000a8f4 g     F .text	00000010 _lseek
00006fba g     F .text	000000ce __lshift
00001f4c g     F .text	000000ac list_event
000035f4 g     F .text	00000080 EXTI15_10_IRQHandler
000051e6 g     F .text	00000028 strncmp
00002f3a g     F .text	0000001a rt_pin_mode
00004990 g     F .text	00000036 USART_ITConfig
0000c840 g     O .text	0000000c __fsym_pinMode
0000b0d0 g     O .text	00000016 __fsym___cmd_list_device_desc
00004424 g     F .text	0000006a EXTI_Init
00006db8 g     F .text	00000144 __multiply
0000c720 g     O .text	0000000c __fsym_list_device
0000c774 g     O .text	0000000c __fsym___cmd_list_mutex
000072a6 g     F .text	000000d4 __d2b
00002f6e g     F .text	00000018 rt_pin_read
0000b57c g     O .text	0000000b __fsym___cmd_help_name
0000059a g     F .text	00000028 rt_tick_increase
000085e8 g     F .text	00000016 _strtoul_r
0000122a g     F .text	00000032 list_mem
0000b5b8 g     O .text	0000001b __fsym___cmd_ps_desc
00004386  w      .text	00000000 TIM7_IRQHandler
0000b254 g     O .text	00000015 __fsym_list_mutex_desc
00001b72 g     F .text	00000030 rt_timer_stop
000060bc g     F .text	00000032 _close_r
00004386  w      .text	00000000 CAN2_TX_IRQHandler
0000b588 g     O .text	00000024 __fsym___cmd_free_desc
20000000 g       .dalign	00000000 _data_vma
00000d56 g     F .text	00000352 rt_vsnprintf
0000c7bc g     O .text	0000000c __fsym___cmd_list_thread
00004386  w      .text	00000000 TIM5_IRQHandler
00004f6c g     F .text	00000024 memcmp
00003186 g     F .text	00000022 ch32_pin_write
00005084 g     F .text	00000052 sscanf
0000875e g     F .text	000000fe __swsetup_r
0000357c g     F .text	00000078 EXTI9_5_IRQHandler
0000b374 g     O .text	00000014 __fsym_clear_desc
000093ae g     F .text	000005b4 .hidden __divdf3
00001ca4 g     F .text	0000000e sw_clearpend
00006212 g     F .text	000000a0 __sfp
000073ee g     F .text	00000036 __copybits
00003f04 g     F .text	00000128 dht11_read_data
000005c2 g     F .text	00000028 rt_tick_from_millisecond
200003e8 g     O .bss	00000004 _syscall_table_begin
0000303e  w    F .text	0000000a rt_heap_end_get
0000458a g     F .text	0000002c GPIO_EXTILineConfig
200003f8 g     O .bss	00000004 atk_uart
0000c10c g     O .text	00000019 __fsym___cmd_send_at_cmd_desc
00009b30 g     F .text	000004b8 .hidden __muldf3
0000037a g     F .text	00000028 .hidden __riscv_save_10
0000370c g     F .text	00000004 ch32dma_transmit
000050d6 g     F .text	0000002e __sread
000026d6 g     F .text	0000003c finsh_get_prompt
00004386  w      .text	00000000 ETH_WKUP_IRQHandler
00008b00 g     F .text	00000002 __malloc_lock
000003bc g     F .text	00000016 .hidden __riscv_restore_4
000003b2 g     F .text	00000020 .hidden __riscv_restore_8
0000898c g     F .text	00000068 _fflush_r
00001184 g     F .text	0000004e __rt_ffs
00000388 g     F .text	0000001a .hidden __riscv_save_6
0000746a g     F .text	00000026 _calloc_r
0000448e g     F .text	0000001e EXTI_GetITStatus
00004386  w      .text	00000000 SPI2_IRQHandler
0000c3d0 g     O .text	00000020 __sf_fake_stdin
0000256c g     F .text	000000a2 msh_auto_complete
200003f4 g     O .bss	00000004 _sysvar_table_end
00001766 g     F .text	00000016 rt_enter_critical
000019c2 g     F .text	00000040 rt_thread_sleep
000003d2 g     F .text	000000a8 memset
000003b2 g     F .text	00000020 .hidden __riscv_restore_9
000003bc g     F .text	00000016 .hidden __riscv_restore_7
000040cc g     F .text	00000096 main
0000b564 g     O .text	00000015 __fsym___cmd_help_desc
00004386  w      .text	00000000 TIM10_BRK_IRQHandler
00000a50 g     F .text	0000002e rt_interrupt_leave
00004386  w      .text	00000000 TIM9_CC_IRQHandler
00003ab8 g     F .text	00000034 send_at_cmd
0000b138 g     O .text	00000011 __fsym___cmd_list_timer_name
00005186 g     F .text	00000008 __sclose
00004386  w      .text	00000000 DMA2_Channel5_IRQHandler
00001c5c g     F .text	00000002 rt_system_timer_thread_init
00006052 g     F .text	00000016 _strtol_r
00004d86 g     F .text	0000016a .hidden __truncdfsf2
000018a8 g     F .text	00000032 rt_thread_init
00007490 g     F .text	000000da _malloc_r
0000b120 g     O .text	00000015 __fsym___cmd_list_timer_desc
00008740 g     F .text	0000001e __ascii_wctomb
000085fe g     F .text	00000084 __submore
00004a90 g     F .text	00000004 __get_SP
0000c894 g       .text	00000000 __vsymtab_start
00004386  w      .text	00000000 DMA1_Channel5_IRQHandler
00003554 g     F .text	00000028 EXTI4_IRQHandler
0000b2c8 g     O .text	00000019 __fsym___cmd_list_sem_desc
2000035c g     O .bss	00000001 rt_interrupt_nest
00004386  w      .text	00000000 USB_LP_CAN1_RX0_IRQHandler
0000b390 g     O .text	00000011 __fsym___cmd_reboot_desc
0000b228 g     O .text	00000015 __fsym___cmd_list_mutex_desc
000010dc  w    F .text	00000002 rt_hw_console_output
00004a94 g     F .text	00000290 .hidden __mulsf3
20000394 g     O .bss	00000004 rt_object_take_hook
0000047a g     F .text	0000011a strcmp
00005084 g     F .text	00000052 siscanf
00002282 g     F .text	0000009a list_timer
0000b170 g     O .text	0000001d __fsym___cmd_list_msgqueue_desc
00004162 g     F .text	000000fa SystemInit
00004386  w      .text	00000000 RNG_IRQHandler
0000b5ac g     O .text	0000000b __fsym___cmd_free_name
00001cb2 g     F .text	0000000c rt_hw_interrupt_disable
00009962 g     F .text	0000006a .hidden __nedf2
00001a5c g     F .text	0000002c rt_thread_startup
200003a0 g     O .bss	00000004 rt_current_thread
00005042 g     F .text	00000042 iprintf
000010a8 g     F .text	00000006 rt_console_get_device
00003eee g     F .text	00000016 rt_hw_us_delay
00004386  w      .text	00000000 USB_HP_CAN1_TX_IRQHandler
0000c204 g     O .text	00000100 .hidden __clz_tab
00000000 g       .init	00000000 _sinit
0000b26c g     O .text	0000000b __fsym_list_mutex_name
00006086 g     F .text	00000036 _write_r
00004386  w      .text	00000000 DMA1_Channel3_IRQHandler
200003b4 g     O .bss	00000004 rt_thread_ready_priority_group
00004386  w      .text	00000000 ETH_IRQHandler
00007ce4 g     F .text	0000010c _printf_common
0000c810 g     O .text	0000000c __fsym___cmd_free
20000344 g     O .data	00000004 _impure_ptr
00004386  w      .text	00000000 TIM1_UP_IRQHandler
0000b1ec g     O .text	00000013 __fsym___cmd_list_mailbox_name
0000885c g     F .text	00000130 __sflush_r
0000b0e8 g     O .text	00000012 __fsym___cmd_list_device_name
200003ac g     O .bss	00000008 rt_thread_defunct
0000c8a4 g     O .text	00000004 __rt_init_rti_board_end
0000bec0 g     O .text	00000015 __fsym___cmd_wifi_power_cmd_name
00004386  w      .text	00000000 WWDG_IRQHandler
0000c834 g     O .text	0000000c __fsym_pinWrite
00000938 g     F .text	00000028 rt_sem_init
00000236 g       .text	00000000 rt_hw_context_switch_exit
00004386  w      .text	00000000 USBHSWakeup_IRQHandler
00000c1e g     F .text	00000088 rt_memset
00004386  w      .text	00000000 DMA2_Channel11_IRQHandler
000021ee g     F .text	00000094 list_device
00006aae g     F .text	00000032 __ascii_mbtowc
00004386  w      .text	00000000 Ecall_U_Mode_Handler
0000c768 g     O .text	0000000c __fsym_list_mailbox
000071ac g     F .text	00000046 __ulp
00000d1a g     F .text	0000002a rt_strncmp
0000c78c g     O .text	0000000c __fsym___cmd_list_event
00004386  w      .text	00000000 DMA2_Channel6_IRQHandler
0000c894 g       .text	00000000 __vsymtab_end
0000b680 g     O .text	00000008 __fsym_pinRead_name
0000b5d4 g     O .text	00000009 __fsym___cmd_ps_name
0000c738 g     O .text	0000000c __fsym_list_timer
00004386  w      .text	00000000 TIM2_IRQHandler
20004954 g     O .bss	00000018 uart2
20010000 g       .stack	00000000 _eusrstack
0000155a g     F .text	0000002e rt_object_detach
000003a2 g     F .text	0000000c .hidden __riscv_save_2
00000290 g       .text	00000000 SW_Handler
00007644 g     F .text	000003a8 __ssvfiscanf_r
0000c8a0 g     O .text	00000004 __rt_init_rt_hw_usart_init
00000c02 g     F .text	0000001c rt_set_errno
00001c52 g     F .text	0000000a rt_system_timer_init
00004386  w      .text	00000000 TIM1_BRK_IRQHandler
00001724 g     F .text	00000042 rt_schedule_remove_thread
000089f4 g     F .text	00000056 __swhatbuf_r
000049c6 g     F .text	00000008 USART_SendData
00000a22 g     F .text	0000002e rt_interrupt_enter
00004386  w      .text	00000000 DMA2_Channel10_IRQHandler
000034dc g     F .text	00000028 EXTI1_IRQHandler
00001cbe g     F .text	00000006 rt_hw_interrupt_enable
00000388 g     F .text	0000001a .hidden __riscv_save_5
0000c6fc g     O .text	0000000c __fsym_list_mem
00004a28 g     F .text	0000003e _write
20000350 g       .data	00000000 _edata
0000c714 g     O .text	0000000c __fsym___cmd_list_device
20004a1c g       .bss	00000000 _end
0000b190 g     O .text	00000014 __fsym___cmd_list_msgqueue_name
0000177c g     F .text	0000002e rt_exit_critical
00004768 g     F .text	000000aa TIM_TimeBaseInit
00004386  w      .text	00000000 RTCAlarm_IRQHandler
00001ff8 g     F .text	00000082 list_mutex
0000260e g     F .text	0000000e cmd_ps
0000c8b0 g       .dlalign	00000000 _data_lma
00002740 g     F .text	0000007e finsh_set_device
00004386  w      .text	00000000 TIM10_UP_IRQHandler
00004386  w      .text	00000000 TIM9_TRG_COM_IRQHandler
00004386  w      .text	00000000 UART7_IRQHandler
00003166 g     F .text	00000020 get_pin
00003a98 g     F .text	00000020 USART2_IRQHandler
00004386  w      .text	00000000 UART6_IRQHandler
00005108 g     F .text	0000004c __swrite
0000bea8 g     O .text	00000015 __fsym___cmd_wifi_power_cmd_desc
0000c858 g     O .text	0000000c __fsym___cmd_servo_speed_cmd
00000792 g     F .text	00000038 rt_device_close
000018da g     F .text	00000006 rt_thread_self
00007a56 g     F .text	0000028e _vfiprintf_r
0000c8a8 g     O .text	00000004 __rt_init_finsh_system_init
0000b0fc g     O .text	00000016 __fsym_list_device_desc
000062b2 g     F .text	0000006a _fwalk_reent
0000425c g     F .text	0000012a SystemCoreClockUpdate
000070ba g     F .text	000000f2 __mdiff
0000b33c g     O .text	0000000c __fsym_list_thread_desc
00004386  w      .text	00000000 I2C2_ER_IRQHandler
00004386  w      .text	00000000 DMA1_Channel2_IRQHandler
2000496c g     O .bss	0000000c g_wifi_param
000015de g     F .text	00000032 rt_object_delete
0000373a g     F .text	0000016e rt_hw_usart_init
00000594 g     F .text	00000006 rt_tick_get
0000c3f0 g     O .text	00000020 __sf_fake_stdout
00008436 g     F .text	00000082 __sccl
00004f64 g     F .text	00000008 atoi
000003ae g     F .text	00000024 .hidden __riscv_restore_12
00004386  w      .text	00000000 TIM8_BRK_IRQHandler
0000c578 g     O .text	00000101 _ctype_
0000a904 g     F .text	00000010 _read
0000b2bc g     O .text	0000000b __fsym_list_event_name
00004388  w      .text	00000000 handle_reset
00004386  w      .text	00000000 CAN1_SCE_IRQHandler
0000c798 g     O .text	0000000c __fsym_list_event
20000398 g     O .bss	00000004 rt_object_trytake_hook
00004386  w      .text	00000000 FLASH_IRQHandler
000003a2 g     F .text	0000000c .hidden __riscv_save_0
0000b290 g     O .text	00000011 __fsym___cmd_list_event_name
00003674 g     F .text	0000002e pwm_gpio_init
0000abac g     O .text	0000001e __fsym_list_mem_desc
00000960 g     F .text	00000080 rt_sem_take
00003a78 g     F .text	00000020 USART1_IRQHandler
0000c7a4 g     O .text	0000000c __fsym___cmd_list_sem
00008a4a g     F .text	00000092 __smakebuf_r
000051d4 g     F .text	00000012 strlen
00007df0 g     F .text	000002a4 _printf_i
00004386  w      .text	00000000 SPI3_IRQHandler
0000c888 g     O .text	0000000c __fsym___cmd_led
00006a54 g     F .text	00000006 __locale_ctype_ptr_l
0000b14c g     O .text	00000015 __fsym_list_timer_desc
000099cc g     F .text	000000ae .hidden __gedf2
000063d2 g     F .text	000004ca __gethex
2000040c g     O .bss	00000004 __malloc_sbrk_start
000010ae g     F .text	0000002e rt_console_set_device
00003244 g     F .text	00000092 ch32_pin_attach_irq
00004386  w      .text	00000000 I2C1_ER_IRQHandler
000051ac g     F .text	00000018 strchr
0000c898 g     O .text	00000004 __rt_init_rti_board_start
000007e6 g     F .text	0000001c rt_device_write
20000408 g     O .bss	00000004 __malloc_free_list
0000b348 g     O .text	0000000c __fsym_list_thread_name
0000c6fc g       .text	00000000 __fsymtab_start
000003c6 g     F .text	0000000c .hidden __riscv_restore_1
0000314a g     F .text	0000001c rt_hw_pin_init
200048e4 g     O .bss	00000058 serial2
00009fe8 g     F .text	0000073e .hidden __subdf3
00007a56 g     F .text	0000028e _vfprintf_r
0000c7e0 g     O .text	0000000c __fsym_clear
0000c128 g     O .text	00000012 __fsym___cmd_send_at_cmd_name
00001672 g     F .text	0000006a rt_schedule
000014fc g     F .text	0000005e rt_object_init
000031a8 g     F .text	0000001e ch32_pin_read
00006d32 g     F .text	0000006a __lo0bits
0000c81c g     O .text	0000000c __fsym___cmd_ps
00004576 g     F .text	0000000a GPIO_ReadInputDataBit
0000b688 g     O .text	0000001c __fsym_pinWrite_desc
00001af2 g     F .text	00000080 rt_timer_start
00002366 g     F .text	00000058 msh_help
200001c0 g     O .data	0000016c __global_locale
0000c870 g     O .text	0000000c __fsym___cmd_send_at_cmd
00002e74 g     F .text	000000aa rt_hw_serial_isr
00003d9a g     F .text	000000c6 wifi_module_init
00004386  w      .text	00000000 USBWakeUp_IRQHandler
000001dc g       .text	00000000 rt_hw_context_switch
0000a8c4 g     F .text	00000010 _close
00004386  w      .text	00000000 DMA2_Channel3_IRQHandler
00006bb0 g     F .text	00000098 __multadd
00003330 g     F .text	00000160 ch32_pin_irq_enable
00006b6c g     F .text	00000044 _Bfree
0000b114 g     O .text	0000000c __fsym_list_device_name
0000b1a4 g     O .text	0000001d __fsym_list_msgqueue_desc
0000b2f4 g     O .text	00000019 __fsym_list_sem_desc



Disassembly of section .init:

00000000 <_sinit>:
   0:	3880406f          	j	4388 <handle_reset>

Disassembly of section .vector:

00000004 <_vector_base>:
	...
   c:	3eae                	lhu	a1,58(a3)
   e:	0000                	unimp
  10:	3ece                	lhu	a1,60(a3)
  12:	0000                	unimp
  14:	0000                	unimp
  16:	0000                	unimp
  18:	4386                	lw	t2,64(sp)
	...
  22:	0000                	unimp
  24:	4386                	lw	t2,64(sp)
  26:	0000                	unimp
  28:	4386                	lw	t2,64(sp)
	...
  32:	0000                	unimp
  34:	30ba                	lhu	a4,34(s1)
  36:	0000                	unimp
  38:	0000                	unimp
  3a:	0000                	unimp
  3c:	0290                	addi	a2,sp,320
  3e:	0000                	unimp
  40:	0000                	unimp
  42:	0000                	unimp
  44:	4386                	lw	t2,64(sp)
  46:	0000                	unimp
  48:	4386                	lw	t2,64(sp)
  4a:	0000                	unimp
  4c:	4386                	lw	t2,64(sp)
  4e:	0000                	unimp
  50:	4386                	lw	t2,64(sp)
  52:	0000                	unimp
  54:	4386                	lw	t2,64(sp)
  56:	0000                	unimp
  58:	4386                	lw	t2,64(sp)
  5a:	0000                	unimp
  5c:	34b4                	lbu	a3,11(s1)
  5e:	0000                	unimp
  60:	34dc                	lbu	a5,13(s1)
  62:	0000                	unimp
  64:	3504                	lbu	s1,9(a0)
  66:	0000                	unimp
  68:	352c                	lbu	a1,11(a0)
  6a:	0000                	unimp
  6c:	3554                	lbu	a3,13(a0)
  6e:	0000                	unimp
  70:	4386                	lw	t2,64(sp)
  72:	0000                	unimp
  74:	4386                	lw	t2,64(sp)
  76:	0000                	unimp
  78:	4386                	lw	t2,64(sp)
  7a:	0000                	unimp
  7c:	4386                	lw	t2,64(sp)
  7e:	0000                	unimp
  80:	4386                	lw	t2,64(sp)
  82:	0000                	unimp
  84:	4386                	lw	t2,64(sp)
  86:	0000                	unimp
  88:	4386                	lw	t2,64(sp)
  8a:	0000                	unimp
  8c:	4386                	lw	t2,64(sp)
  8e:	0000                	unimp
  90:	4386                	lw	t2,64(sp)
  92:	0000                	unimp
  94:	4386                	lw	t2,64(sp)
  96:	0000                	unimp
  98:	4386                	lw	t2,64(sp)
  9a:	0000                	unimp
  9c:	4386                	lw	t2,64(sp)
  9e:	0000                	unimp
  a0:	357c                	lbu	a5,15(a0)
  a2:	0000                	unimp
  a4:	4386                	lw	t2,64(sp)
  a6:	0000                	unimp
  a8:	4386                	lw	t2,64(sp)
  aa:	0000                	unimp
  ac:	4386                	lw	t2,64(sp)
  ae:	0000                	unimp
  b0:	4386                	lw	t2,64(sp)
  b2:	0000                	unimp
  b4:	4386                	lw	t2,64(sp)
  b6:	0000                	unimp
  b8:	4386                	lw	t2,64(sp)
  ba:	0000                	unimp
  bc:	4386                	lw	t2,64(sp)
  be:	0000                	unimp
  c0:	4386                	lw	t2,64(sp)
  c2:	0000                	unimp
  c4:	4386                	lw	t2,64(sp)
  c6:	0000                	unimp
  c8:	4386                	lw	t2,64(sp)
  ca:	0000                	unimp
  cc:	4386                	lw	t2,64(sp)
  ce:	0000                	unimp
  d0:	4386                	lw	t2,64(sp)
  d2:	0000                	unimp
  d4:	4386                	lw	t2,64(sp)
  d6:	0000                	unimp
  d8:	3a78                	lbu	a4,23(a2)
  da:	0000                	unimp
  dc:	3a98                	lbu	a4,17(a3)
  de:	0000                	unimp
  e0:	4386                	lw	t2,64(sp)
  e2:	0000                	unimp
  e4:	35f4                	lbu	a3,15(a1)
  e6:	0000                	unimp
  e8:	4386                	lw	t2,64(sp)
  ea:	0000                	unimp
  ec:	4386                	lw	t2,64(sp)
  ee:	0000                	unimp
  f0:	4386                	lw	t2,64(sp)
  f2:	0000                	unimp
  f4:	4386                	lw	t2,64(sp)
  f6:	0000                	unimp
  f8:	4386                	lw	t2,64(sp)
  fa:	0000                	unimp
  fc:	4386                	lw	t2,64(sp)
  fe:	0000                	unimp
 100:	4386                	lw	t2,64(sp)
 102:	0000                	unimp
 104:	0000                	unimp
 106:	0000                	unimp
 108:	4386                	lw	t2,64(sp)
 10a:	0000                	unimp
 10c:	4386                	lw	t2,64(sp)
 10e:	0000                	unimp
 110:	4386                	lw	t2,64(sp)
 112:	0000                	unimp
 114:	4386                	lw	t2,64(sp)
 116:	0000                	unimp
 118:	4386                	lw	t2,64(sp)
 11a:	0000                	unimp
 11c:	4386                	lw	t2,64(sp)
 11e:	0000                	unimp
 120:	4386                	lw	t2,64(sp)
 122:	0000                	unimp
 124:	4386                	lw	t2,64(sp)
 126:	0000                	unimp
 128:	4386                	lw	t2,64(sp)
 12a:	0000                	unimp
 12c:	4386                	lw	t2,64(sp)
 12e:	0000                	unimp
 130:	4386                	lw	t2,64(sp)
 132:	0000                	unimp
 134:	4386                	lw	t2,64(sp)
 136:	0000                	unimp
 138:	4386                	lw	t2,64(sp)
 13a:	0000                	unimp
 13c:	4386                	lw	t2,64(sp)
 13e:	0000                	unimp
 140:	4386                	lw	t2,64(sp)
 142:	0000                	unimp
 144:	4386                	lw	t2,64(sp)
 146:	0000                	unimp
 148:	4386                	lw	t2,64(sp)
 14a:	0000                	unimp
 14c:	4386                	lw	t2,64(sp)
 14e:	0000                	unimp
 150:	4386                	lw	t2,64(sp)
 152:	0000                	unimp
 154:	4386                	lw	t2,64(sp)
 156:	0000                	unimp
 158:	4386                	lw	t2,64(sp)
 15a:	0000                	unimp
 15c:	4386                	lw	t2,64(sp)
 15e:	0000                	unimp
 160:	4386                	lw	t2,64(sp)
 162:	0000                	unimp
 164:	4386                	lw	t2,64(sp)
 166:	0000                	unimp
 168:	4386                	lw	t2,64(sp)
 16a:	0000                	unimp
 16c:	4386                	lw	t2,64(sp)
 16e:	0000                	unimp
 170:	4386                	lw	t2,64(sp)
 172:	0000                	unimp
 174:	4386                	lw	t2,64(sp)
 176:	0000                	unimp
 178:	4386                	lw	t2,64(sp)
 17a:	0000                	unimp
 17c:	4386                	lw	t2,64(sp)
 17e:	0000                	unimp
 180:	4386                	lw	t2,64(sp)
 182:	0000                	unimp
 184:	4386                	lw	t2,64(sp)
 186:	0000                	unimp
 188:	4386                	lw	t2,64(sp)
 18a:	0000                	unimp
 18c:	4386                	lw	t2,64(sp)
 18e:	0000                	unimp
 190:	4386                	lw	t2,64(sp)
 192:	0000                	unimp
 194:	4386                	lw	t2,64(sp)
 196:	0000                	unimp
 198:	4386                	lw	t2,64(sp)
 19a:	0000                	unimp
 19c:	4386                	lw	t2,64(sp)
 19e:	0000                	unimp
 1a0:	4386                	lw	t2,64(sp)
	...

Disassembly of section .text:

000001c0 <rt_hw_context_switch_to>:
     1c0:	20010297          	auipc	t0,0x20010
     1c4:	e4028293          	addi	t0,t0,-448 # 20010000 <_eusrstack>
     1c8:	e0028293          	addi	t0,t0,-512
     1cc:	34029073          	csrw	mscratch,t0
     1d0:	00052103          	lw	sp,0(a0)
     1d4:	4522                	lw	a0,8(sp)
     1d6:	30051073          	csrw	mstatus,a0
     1da:	a8b1                	j	236 <rt_hw_context_switch_exit>

000001dc <rt_hw_context_switch>:
     1dc:	7119                	addi	sp,sp,-128
     1de:	00252023          	sw	sp,0(a0)
     1e2:	c006                	sw	ra,0(sp)
     1e4:	c206                	sw	ra,4(sp)
     1e6:	ca16                	sw	t0,20(sp)
     1e8:	300022f3          	csrr	t0,mstatus
     1ec:	0082f293          	andi	t0,t0,8
     1f0:	00028463          	beqz	t0,1f8 <rt_hw_context_switch+0x1c>
     1f4:	08000293          	li	t0,128
     1f8:	c416                	sw	t0,8(sp)
     1fa:	c812                	sw	tp,16(sp)
     1fc:	cc1a                	sw	t1,24(sp)
     1fe:	ce1e                	sw	t2,28(sp)
     200:	d022                	sw	s0,32(sp)
     202:	d226                	sw	s1,36(sp)
     204:	d42a                	sw	a0,40(sp)
     206:	d62e                	sw	a1,44(sp)
     208:	d832                	sw	a2,48(sp)
     20a:	da36                	sw	a3,52(sp)
     20c:	dc3a                	sw	a4,56(sp)
     20e:	de3e                	sw	a5,60(sp)
     210:	c0c2                	sw	a6,64(sp)
     212:	c2c6                	sw	a7,68(sp)
     214:	c4ca                	sw	s2,72(sp)
     216:	c6ce                	sw	s3,76(sp)
     218:	c8d2                	sw	s4,80(sp)
     21a:	cad6                	sw	s5,84(sp)
     21c:	ccda                	sw	s6,88(sp)
     21e:	cede                	sw	s7,92(sp)
     220:	d0e2                	sw	s8,96(sp)
     222:	d2e6                	sw	s9,100(sp)
     224:	d4ea                	sw	s10,104(sp)
     226:	d6ee                	sw	s11,108(sp)
     228:	d8f2                	sw	t3,112(sp)
     22a:	daf6                	sw	t4,116(sp)
     22c:	dcfa                	sw	t5,120(sp)
     22e:	defe                	sw	t6,124(sp)
     230:	0005a103          	lw	sp,0(a1)
     234:	a009                	j	236 <rt_hw_context_switch_exit>

00000236 <rt_hw_context_switch_exit>:
     236:	4502                	lw	a0,0(sp)
     238:	34151073          	csrw	mepc,a0
     23c:	4092                	lw	ra,4(sp)
     23e:	00008537          	lui	a0,0x8
     242:	80050513          	addi	a0,a0,-2048 # 7800 <__ssvfiscanf_r+0x1bc>
     246:	30052073          	csrs	mstatus,a0
     24a:	4522                	lw	a0,8(sp)
     24c:	30052073          	csrs	mstatus,a0
     250:	4242                	lw	tp,16(sp)
     252:	42d2                	lw	t0,20(sp)
     254:	4362                	lw	t1,24(sp)
     256:	43f2                	lw	t2,28(sp)
     258:	5402                	lw	s0,32(sp)
     25a:	5492                	lw	s1,36(sp)
     25c:	5522                	lw	a0,40(sp)
     25e:	55b2                	lw	a1,44(sp)
     260:	5642                	lw	a2,48(sp)
     262:	56d2                	lw	a3,52(sp)
     264:	5762                	lw	a4,56(sp)
     266:	57f2                	lw	a5,60(sp)
     268:	4806                	lw	a6,64(sp)
     26a:	4896                	lw	a7,68(sp)
     26c:	4926                	lw	s2,72(sp)
     26e:	49b6                	lw	s3,76(sp)
     270:	4a46                	lw	s4,80(sp)
     272:	4ad6                	lw	s5,84(sp)
     274:	4b66                	lw	s6,88(sp)
     276:	4bf6                	lw	s7,92(sp)
     278:	5c06                	lw	s8,96(sp)
     27a:	5c96                	lw	s9,100(sp)
     27c:	5d26                	lw	s10,104(sp)
     27e:	5db6                	lw	s11,108(sp)
     280:	5e46                	lw	t3,112(sp)
     282:	5ed6                	lw	t4,116(sp)
     284:	5f66                	lw	t5,120(sp)
     286:	5ff6                	lw	t6,124(sp)
     288:	6109                	addi	sp,sp,128
     28a:	30200073          	mret
	...

00000290 <SW_Handler>:
     290:	7119                	addi	sp,sp,-128
     292:	ca16                	sw	t0,20(sp)
     294:	08000293          	li	t0,128
     298:	c416                	sw	t0,8(sp)
     29a:	02000293          	li	t0,32
     29e:	8042a073          	csrs	0x804,t0
     2a2:	c206                	sw	ra,4(sp)
     2a4:	c812                	sw	tp,16(sp)
     2a6:	cc1a                	sw	t1,24(sp)
     2a8:	ce1e                	sw	t2,28(sp)
     2aa:	d022                	sw	s0,32(sp)
     2ac:	d226                	sw	s1,36(sp)
     2ae:	d42a                	sw	a0,40(sp)
     2b0:	d62e                	sw	a1,44(sp)
     2b2:	d832                	sw	a2,48(sp)
     2b4:	da36                	sw	a3,52(sp)
     2b6:	dc3a                	sw	a4,56(sp)
     2b8:	de3e                	sw	a5,60(sp)
     2ba:	c0c2                	sw	a6,64(sp)
     2bc:	c2c6                	sw	a7,68(sp)
     2be:	c4ca                	sw	s2,72(sp)
     2c0:	c6ce                	sw	s3,76(sp)
     2c2:	c8d2                	sw	s4,80(sp)
     2c4:	cad6                	sw	s5,84(sp)
     2c6:	ccda                	sw	s6,88(sp)
     2c8:	cede                	sw	s7,92(sp)
     2ca:	d0e2                	sw	s8,96(sp)
     2cc:	d2e6                	sw	s9,100(sp)
     2ce:	d4ea                	sw	s10,104(sp)
     2d0:	d6ee                	sw	s11,108(sp)
     2d2:	d8f2                	sw	t3,112(sp)
     2d4:	daf6                	sw	t4,116(sp)
     2d6:	dcfa                	sw	t5,120(sp)
     2d8:	defe                	sw	t6,124(sp)
     2da:	34011173          	csrrw	sp,mscratch,sp
     2de:	744000ef          	jal	ra,a22 <rt_interrupt_enter>
     2e2:	1c3010ef          	jal	ra,1ca4 <sw_clearpend>
     2e6:	76a000ef          	jal	ra,a50 <rt_interrupt_leave>
     2ea:	34011173          	csrrw	sp,mscratch,sp
     2ee:	8b018413          	addi	s0,gp,-1872 # 200003e0 <rt_thread_switch_interrupt_flag>
     2f2:	00042903          	lw	s2,0(s0)
     2f6:	02090463          	beqz	s2,31e <SW_Handler+0x8e>
     2fa:	00042023          	sw	zero,0(s0)
     2fe:	34102573          	csrr	a0,mepc
     302:	c02a                	sw	a0,0(sp)
     304:	8a818413          	addi	s0,gp,-1880 # 200003d8 <rt_interrupt_from_thread>
     308:	4004                	lw	s1,0(s0)
     30a:	0024a023          	sw	sp,0(s1)
     30e:	8ac18413          	addi	s0,gp,-1876 # 200003dc <rt_interrupt_to_thread>
     312:	4004                	lw	s1,0(s0)
     314:	0004a103          	lw	sp,0(s1)
     318:	4502                	lw	a0,0(sp)
     31a:	34151073          	csrw	mepc,a0
     31e:	4092                	lw	ra,4(sp)
     320:	000082b7          	lui	t0,0x8
     324:	80028293          	addi	t0,t0,-2048 # 7800 <__ssvfiscanf_r+0x1bc>
     328:	3002a073          	csrs	mstatus,t0
     32c:	42a2                	lw	t0,8(sp)
     32e:	3002a073          	csrs	mstatus,t0
     332:	4242                	lw	tp,16(sp)
     334:	42d2                	lw	t0,20(sp)
     336:	4362                	lw	t1,24(sp)
     338:	43f2                	lw	t2,28(sp)
     33a:	5402                	lw	s0,32(sp)
     33c:	5492                	lw	s1,36(sp)
     33e:	5522                	lw	a0,40(sp)
     340:	55b2                	lw	a1,44(sp)
     342:	5642                	lw	a2,48(sp)
     344:	56d2                	lw	a3,52(sp)
     346:	5762                	lw	a4,56(sp)
     348:	57f2                	lw	a5,60(sp)
     34a:	4806                	lw	a6,64(sp)
     34c:	4896                	lw	a7,68(sp)
     34e:	4926                	lw	s2,72(sp)
     350:	49b6                	lw	s3,76(sp)
     352:	4a46                	lw	s4,80(sp)
     354:	4ad6                	lw	s5,84(sp)
     356:	4b66                	lw	s6,88(sp)
     358:	4bf6                	lw	s7,92(sp)
     35a:	5c06                	lw	s8,96(sp)
     35c:	5c96                	lw	s9,100(sp)
     35e:	5d26                	lw	s10,104(sp)
     360:	5db6                	lw	s11,108(sp)
     362:	5e46                	lw	t3,112(sp)
     364:	5ed6                	lw	t4,116(sp)
     366:	5f66                	lw	t5,120(sp)
     368:	5ff6                	lw	t6,124(sp)
     36a:	6109                	addi	sp,sp,128
     36c:	30200073          	mret
	...

00000372 <__riscv_save_12>:
     372:	7139                	addi	sp,sp,-64
     374:	4301                	li	t1,0
     376:	c66e                	sw	s11,12(sp)
     378:	a019                	j	37e <__riscv_save_10+0x4>

0000037a <__riscv_save_10>:
     37a:	7139                	addi	sp,sp,-64
     37c:	5341                	li	t1,-16
     37e:	c86a                	sw	s10,16(sp)
     380:	ca66                	sw	s9,20(sp)
     382:	cc62                	sw	s8,24(sp)
     384:	ce5e                	sw	s7,28(sp)
     386:	a019                	j	38c <__riscv_save_4+0x4>

00000388 <__riscv_save_4>:
     388:	7139                	addi	sp,sp,-64
     38a:	5301                	li	t1,-32
     38c:	d05a                	sw	s6,32(sp)
     38e:	d256                	sw	s5,36(sp)
     390:	d452                	sw	s4,40(sp)
     392:	d64e                	sw	s3,44(sp)
     394:	d84a                	sw	s2,48(sp)
     396:	da26                	sw	s1,52(sp)
     398:	dc22                	sw	s0,56(sp)
     39a:	de06                	sw	ra,60(sp)
     39c:	40610133          	sub	sp,sp,t1
     3a0:	8282                	jr	t0

000003a2 <__riscv_save_0>:
     3a2:	1141                	addi	sp,sp,-16
     3a4:	c04a                	sw	s2,0(sp)
     3a6:	c226                	sw	s1,4(sp)
     3a8:	c422                	sw	s0,8(sp)
     3aa:	c606                	sw	ra,12(sp)
     3ac:	8282                	jr	t0

000003ae <__riscv_restore_12>:
     3ae:	4db2                	lw	s11,12(sp)
     3b0:	0141                	addi	sp,sp,16

000003b2 <__riscv_restore_10>:
     3b2:	4d02                	lw	s10,0(sp)
     3b4:	4c92                	lw	s9,4(sp)
     3b6:	4c22                	lw	s8,8(sp)
     3b8:	4bb2                	lw	s7,12(sp)
     3ba:	0141                	addi	sp,sp,16

000003bc <__riscv_restore_4>:
     3bc:	4b02                	lw	s6,0(sp)
     3be:	4a92                	lw	s5,4(sp)
     3c0:	4a22                	lw	s4,8(sp)
     3c2:	49b2                	lw	s3,12(sp)
     3c4:	0141                	addi	sp,sp,16

000003c6 <__riscv_restore_0>:
     3c6:	4902                	lw	s2,0(sp)
     3c8:	4492                	lw	s1,4(sp)
     3ca:	4422                	lw	s0,8(sp)
     3cc:	40b2                	lw	ra,12(sp)
     3ce:	0141                	addi	sp,sp,16
     3d0:	8082                	ret

000003d2 <memset>:
     3d2:	433d                	li	t1,15
     3d4:	872a                	mv	a4,a0
     3d6:	02c37363          	bgeu	t1,a2,3fc <memset+0x2a>
     3da:	00f77793          	andi	a5,a4,15
     3de:	efbd                	bnez	a5,45c <memset+0x8a>
     3e0:	e5ad                	bnez	a1,44a <memset+0x78>
     3e2:	ff067693          	andi	a3,a2,-16
     3e6:	8a3d                	andi	a2,a2,15
     3e8:	96ba                	add	a3,a3,a4
     3ea:	c30c                	sw	a1,0(a4)
     3ec:	c34c                	sw	a1,4(a4)
     3ee:	c70c                	sw	a1,8(a4)
     3f0:	c74c                	sw	a1,12(a4)
     3f2:	0741                	addi	a4,a4,16
     3f4:	fed76be3          	bltu	a4,a3,3ea <memset+0x18>
     3f8:	e211                	bnez	a2,3fc <memset+0x2a>
     3fa:	8082                	ret
     3fc:	40c306b3          	sub	a3,t1,a2
     400:	068a                	slli	a3,a3,0x2
     402:	00000297          	auipc	t0,0x0
     406:	9696                	add	a3,a3,t0
     408:	00a68067          	jr	10(a3)
     40c:	00b70723          	sb	a1,14(a4)
     410:	00b706a3          	sb	a1,13(a4)
     414:	00b70623          	sb	a1,12(a4)
     418:	00b705a3          	sb	a1,11(a4)
     41c:	00b70523          	sb	a1,10(a4)
     420:	00b704a3          	sb	a1,9(a4)
     424:	00b70423          	sb	a1,8(a4)
     428:	00b703a3          	sb	a1,7(a4)
     42c:	00b70323          	sb	a1,6(a4)
     430:	00b702a3          	sb	a1,5(a4)
     434:	00b70223          	sb	a1,4(a4)
     438:	00b701a3          	sb	a1,3(a4)
     43c:	00b70123          	sb	a1,2(a4)
     440:	00b700a3          	sb	a1,1(a4)
     444:	00b70023          	sb	a1,0(a4)
     448:	8082                	ret
     44a:	0ff5f593          	andi	a1,a1,255
     44e:	00859693          	slli	a3,a1,0x8
     452:	8dd5                	or	a1,a1,a3
     454:	01059693          	slli	a3,a1,0x10
     458:	8dd5                	or	a1,a1,a3
     45a:	b761                	j	3e2 <memset+0x10>
     45c:	00279693          	slli	a3,a5,0x2
     460:	00000297          	auipc	t0,0x0
     464:	9696                	add	a3,a3,t0
     466:	8286                	mv	t0,ra
     468:	fa8680e7          	jalr	-88(a3)
     46c:	8096                	mv	ra,t0
     46e:	17c1                	addi	a5,a5,-16
     470:	8f1d                	sub	a4,a4,a5
     472:	963e                	add	a2,a2,a5
     474:	f8c374e3          	bgeu	t1,a2,3fc <memset+0x2a>
     478:	b7a5                	j	3e0 <memset+0xe>

0000047a <strcmp>:
     47a:	00b56733          	or	a4,a0,a1
     47e:	53fd                	li	t2,-1
     480:	8b0d                	andi	a4,a4,3
     482:	e779                	bnez	a4,550 <strcmp+0xd6>
     484:	7f7f87b7          	lui	a5,0x7f7f8
     488:	f7f78793          	addi	a5,a5,-129 # 7f7f7f7f <_eusrstack+0x5f7e7f7f>
     48c:	4110                	lw	a2,0(a0)
     48e:	4194                	lw	a3,0(a1)
     490:	00f672b3          	and	t0,a2,a5
     494:	00f66333          	or	t1,a2,a5
     498:	92be                	add	t0,t0,a5
     49a:	0062e2b3          	or	t0,t0,t1
     49e:	0c729563          	bne	t0,t2,568 <strcmp+0xee>
     4a2:	06d61863          	bne	a2,a3,512 <strcmp+0x98>
     4a6:	4150                	lw	a2,4(a0)
     4a8:	41d4                	lw	a3,4(a1)
     4aa:	00f672b3          	and	t0,a2,a5
     4ae:	00f66333          	or	t1,a2,a5
     4b2:	92be                	add	t0,t0,a5
     4b4:	0062e2b3          	or	t0,t0,t1
     4b8:	0a729663          	bne	t0,t2,564 <strcmp+0xea>
     4bc:	04d61b63          	bne	a2,a3,512 <strcmp+0x98>
     4c0:	4510                	lw	a2,8(a0)
     4c2:	4594                	lw	a3,8(a1)
     4c4:	00f672b3          	and	t0,a2,a5
     4c8:	00f66333          	or	t1,a2,a5
     4cc:	92be                	add	t0,t0,a5
     4ce:	0062e2b3          	or	t0,t0,t1
     4d2:	08729f63          	bne	t0,t2,570 <strcmp+0xf6>
     4d6:	02d61e63          	bne	a2,a3,512 <strcmp+0x98>
     4da:	4550                	lw	a2,12(a0)
     4dc:	45d4                	lw	a3,12(a1)
     4de:	00f672b3          	and	t0,a2,a5
     4e2:	00f66333          	or	t1,a2,a5
     4e6:	92be                	add	t0,t0,a5
     4e8:	0062e2b3          	or	t0,t0,t1
     4ec:	08729863          	bne	t0,t2,57c <strcmp+0x102>
     4f0:	02d61163          	bne	a2,a3,512 <strcmp+0x98>
     4f4:	4910                	lw	a2,16(a0)
     4f6:	4994                	lw	a3,16(a1)
     4f8:	00f672b3          	and	t0,a2,a5
     4fc:	00f66333          	or	t1,a2,a5
     500:	92be                	add	t0,t0,a5
     502:	0062e2b3          	or	t0,t0,t1
     506:	08729163          	bne	t0,t2,588 <strcmp+0x10e>
     50a:	0551                	addi	a0,a0,20
     50c:	05d1                	addi	a1,a1,20
     50e:	f6d60fe3          	beq	a2,a3,48c <strcmp+0x12>
     512:	01061713          	slli	a4,a2,0x10
     516:	01069793          	slli	a5,a3,0x10
     51a:	00f71c63          	bne	a4,a5,532 <strcmp+0xb8>
     51e:	01065713          	srli	a4,a2,0x10
     522:	0106d793          	srli	a5,a3,0x10
     526:	40f70533          	sub	a0,a4,a5
     52a:	0ff57593          	andi	a1,a0,255
     52e:	e991                	bnez	a1,542 <strcmp+0xc8>
     530:	8082                	ret
     532:	8341                	srli	a4,a4,0x10
     534:	83c1                	srli	a5,a5,0x10
     536:	40f70533          	sub	a0,a4,a5
     53a:	0ff57593          	andi	a1,a0,255
     53e:	e191                	bnez	a1,542 <strcmp+0xc8>
     540:	8082                	ret
     542:	0ff77713          	andi	a4,a4,255
     546:	0ff7f793          	andi	a5,a5,255
     54a:	40f70533          	sub	a0,a4,a5
     54e:	8082                	ret
     550:	2110                	lbu	a2,0(a0)
     552:	2194                	lbu	a3,0(a1)
     554:	0505                	addi	a0,a0,1
     556:	0585                	addi	a1,a1,1
     558:	00d61363          	bne	a2,a3,55e <strcmp+0xe4>
     55c:	fa75                	bnez	a2,550 <strcmp+0xd6>
     55e:	40d60533          	sub	a0,a2,a3
     562:	8082                	ret
     564:	0511                	addi	a0,a0,4
     566:	0591                	addi	a1,a1,4
     568:	fed614e3          	bne	a2,a3,550 <strcmp+0xd6>
     56c:	4501                	li	a0,0
     56e:	8082                	ret
     570:	0521                	addi	a0,a0,8
     572:	05a1                	addi	a1,a1,8
     574:	fcd61ee3          	bne	a2,a3,550 <strcmp+0xd6>
     578:	4501                	li	a0,0
     57a:	8082                	ret
     57c:	0531                	addi	a0,a0,12
     57e:	05b1                	addi	a1,a1,12
     580:	fcd618e3          	bne	a2,a3,550 <strcmp+0xd6>
     584:	4501                	li	a0,0
     586:	8082                	ret
     588:	0541                	addi	a0,a0,16
     58a:	05c1                	addi	a1,a1,16
     58c:	fcd612e3          	bne	a2,a3,550 <strcmp+0xd6>
     590:	4501                	li	a0,0
     592:	8082                	ret

00000594 <rt_tick_get>:
     594:	8201a503          	lw	a0,-2016(gp) # 20000350 <_edata>
     598:	8082                	ret

0000059a <rt_tick_increase>:
     59a:	e09ff2ef          	jal	t0,3a2 <__riscv_save_0>
     59e:	82018793          	addi	a5,gp,-2016 # 20000350 <_edata>
     5a2:	4398                	lw	a4,0(a5)
     5a4:	0705                	addi	a4,a4,1
     5a6:	c398                	sw	a4,0(a5)
     5a8:	332010ef          	jal	ra,18da <rt_thread_self>
     5ac:	453c                	lw	a5,72(a0)
     5ae:	17fd                	addi	a5,a5,-1
     5b0:	c53c                	sw	a5,72(a0)
     5b2:	e789                	bnez	a5,5bc <rt_tick_increase+0x22>
     5b4:	417c                	lw	a5,68(a0)
     5b6:	c53c                	sw	a5,72(a0)
     5b8:	36e010ef          	jal	ra,1926 <rt_thread_yield>
     5bc:	61e010ef          	jal	ra,1bda <rt_timer_check>
     5c0:	b519                	j	3c6 <__riscv_restore_0>

000005c2 <rt_tick_from_millisecond>:
     5c2:	02054263          	bltz	a0,5e6 <rt_tick_from_millisecond+0x24>
     5c6:	3e800793          	li	a5,1000
     5ca:	02f54733          	div	a4,a0,a5
     5ce:	02f56533          	rem	a0,a0,a5
     5d2:	02f50533          	mul	a0,a0,a5
     5d6:	3e750513          	addi	a0,a0,999
     5da:	02f54533          	div	a0,a0,a5
     5de:	02f70733          	mul	a4,a4,a5
     5e2:	953a                	add	a0,a0,a4
     5e4:	8082                	ret
     5e6:	557d                	li	a0,-1
     5e8:	8082                	ret

000005ea <rti_start>:
     5ea:	4501                	li	a0,0
     5ec:	8082                	ret

000005ee <rti_end>:
     5ee:	4501                	li	a0,0
     5f0:	8082                	ret

000005f2 <rti_board_start>:
     5f2:	4501                	li	a0,0
     5f4:	8082                	ret

000005f6 <rti_board_end>:
     5f6:	4501                	li	a0,0
     5f8:	8082                	ret

000005fa <rt_components_board_init>:
     5fa:	da9ff2ef          	jal	t0,3a2 <__riscv_save_0>
     5fe:	6435                	lui	s0,0xd
     600:	64b5                	lui	s1,0xd
     602:	89840413          	addi	s0,s0,-1896 # c898 <__rt_init_rti_board_start>
     606:	8a448493          	addi	s1,s1,-1884 # c8a4 <__rt_init_rti_board_end>
     60a:	00946363          	bltu	s0,s1,610 <rt_components_board_init+0x16>
     60e:	bb65                	j	3c6 <__riscv_restore_0>
     610:	401c                	lw	a5,0(s0)
     612:	0411                	addi	s0,s0,4
     614:	9782                	jalr	a5
     616:	bfd5                	j	60a <rt_components_board_init+0x10>

00000618 <rt_components_init>:
     618:	d8bff2ef          	jal	t0,3a2 <__riscv_save_0>
     61c:	6435                	lui	s0,0xd
     61e:	64b5                	lui	s1,0xd
     620:	8a440413          	addi	s0,s0,-1884 # c8a4 <__rt_init_rti_board_end>
     624:	8ac48493          	addi	s1,s1,-1876 # c8ac <__rt_init_rti_end>
     628:	00946363          	bltu	s0,s1,62e <rt_components_init+0x16>
     62c:	bb69                	j	3c6 <__riscv_restore_0>
     62e:	401c                	lw	a5,0(s0)
     630:	0411                	addi	s0,s0,4
     632:	9782                	jalr	a5
     634:	bfd5                	j	628 <rt_components_init+0x10>

00000636 <main_thread_entry>:
     636:	d6dff2ef          	jal	t0,3a2 <__riscv_save_0>
     63a:	3ff9                	jal	618 <rt_components_init>
     63c:	291030ef          	jal	ra,40cc <main>
     640:	b359                	j	3c6 <__riscv_restore_0>

00000642 <rt_application_init>:
     642:	d61ff2ef          	jal	t0,3a2 <__riscv_save_0>
     646:	000005b7          	lui	a1,0x0
     64a:	0000b537          	lui	a0,0xb
     64e:	47d1                	li	a5,20
     650:	4715                	li	a4,5
     652:	20000693          	li	a3,512
     656:	4601                	li	a2,0
     658:	63658593          	addi	a1,a1,1590 # 636 <main_thread_entry>
     65c:	96450513          	addi	a0,a0,-1692 # a964 <_read+0x60>
     660:	280010ef          	jal	ra,18e0 <rt_thread_create>
     664:	3f8010ef          	jal	ra,1a5c <rt_thread_startup>
     668:	bbb9                	j	3c6 <__riscv_restore_0>

0000066a <rtthread_startup>:
     66a:	d39ff2ef          	jal	t0,3a2 <__riscv_save_0>
     66e:	644010ef          	jal	ra,1cb2 <rt_hw_interrupt_disable>
     672:	1d7020ef          	jal	ra,3048 <rt_hw_board_init>
     676:	2d1000ef          	jal	ra,1146 <rt_show_version>
     67a:	5d8010ef          	jal	ra,1c52 <rt_system_timer_init>
     67e:	79b000ef          	jal	ra,1618 <rt_system_scheduler_init>
     682:	37c1                	jal	642 <rt_application_init>
     684:	5d8010ef          	jal	ra,1c5c <rt_system_timer_thread_init>
     688:	2405                	jal	8a8 <rt_thread_idle_init>
     68a:	7bd000ef          	jal	ra,1646 <rt_system_scheduler_start>
     68e:	4501                	li	a0,0
     690:	bb1d                	j	3c6 <__riscv_restore_0>

00000692 <entry>:
     692:	d11ff2ef          	jal	t0,3a2 <__riscv_save_0>
     696:	3fd1                	jal	66a <rtthread_startup>
     698:	4501                	li	a0,0
     69a:	b335                	j	3c6 <__riscv_restore_0>

0000069c <rt_device_find>:
     69c:	cedff2ef          	jal	t0,388 <__riscv_save_4>
     6a0:	89aa                	mv	s3,a0
     6a2:	238010ef          	jal	ra,18da <rt_thread_self>
     6a6:	c119                	beqz	a0,6ac <rt_device_find+0x10>
     6a8:	0be010ef          	jal	ra,1766 <rt_enter_critical>
     6ac:	4525                	li	a0,9
     6ae:	625000ef          	jal	ra,14d2 <rt_object_get_information>
     6b2:	4144                	lw	s1,4(a0)
     6b4:	00450413          	addi	s0,a0,4
     6b8:	00849663          	bne	s1,s0,6c4 <rt_device_find+0x28>
     6bc:	21e010ef          	jal	ra,18da <rt_thread_self>
     6c0:	4901                	li	s2,0
     6c2:	a811                	j	6d6 <rt_device_find+0x3a>
     6c4:	ff448913          	addi	s2,s1,-12
     6c8:	4621                	li	a2,8
     6ca:	85ce                	mv	a1,s3
     6cc:	854a                	mv	a0,s2
     6ce:	25b1                	jal	d1a <rt_strncmp>
     6d0:	e901                	bnez	a0,6e0 <rt_device_find+0x44>
     6d2:	208010ef          	jal	ra,18da <rt_thread_self>
     6d6:	c119                	beqz	a0,6dc <rt_device_find+0x40>
     6d8:	0a4010ef          	jal	ra,177c <rt_exit_critical>
     6dc:	854a                	mv	a0,s2
     6de:	b9f9                	j	3bc <__riscv_restore_4>
     6e0:	4084                	lw	s1,0(s1)
     6e2:	bfd9                	j	6b8 <rt_device_find+0x1c>

000006e4 <rt_device_register>:
     6e4:	e509                	bnez	a0,6ee <rt_device_register+0xa>
     6e6:	557d                	li	a0,-1
     6e8:	8082                	ret
     6ea:	557d                	li	a0,-1
     6ec:	b9e9                	j	3c6 <__riscv_restore_0>
     6ee:	cb5ff2ef          	jal	t0,3a2 <__riscv_save_0>
     6f2:	842a                	mv	s0,a0
     6f4:	852e                	mv	a0,a1
     6f6:	8932                	mv	s2,a2
     6f8:	84ae                	mv	s1,a1
     6fa:	374d                	jal	69c <rt_device_find>
     6fc:	f57d                	bnez	a0,6ea <rt_device_register+0x6>
     6fe:	8522                	mv	a0,s0
     700:	8626                	mv	a2,s1
     702:	45a5                	li	a1,9
     704:	5f9000ef          	jal	ra,14fc <rt_object_init>
     708:	4501                	li	a0,0
     70a:	01241c23          	sh	s2,24(s0)
     70e:	00040e23          	sb	zero,28(s0)
     712:	00041d23          	sh	zero,26(s0)
     716:	bfd9                	j	6ec <rt_device_register+0x8>

00000718 <rt_device_open>:
     718:	c8bff2ef          	jal	t0,3a2 <__riscv_save_0>
     71c:	2d1e                	lhu	a5,24(a0)
     71e:	1141                	addi	sp,sp,-16
     720:	842a                	mv	s0,a0
     722:	8bc1                	andi	a5,a5,16
     724:	e79d                	bnez	a5,752 <rt_device_open+0x3a>
     726:	551c                	lw	a5,40(a0)
     728:	c38d                	beqz	a5,74a <rt_device_open+0x32>
     72a:	c62e                	sw	a1,12(sp)
     72c:	9782                	jalr	a5
     72e:	84aa                	mv	s1,a0
     730:	45b2                	lw	a1,12(sp)
     732:	cd01                	beqz	a0,74a <rt_device_open+0x32>
     734:	862a                	mv	a2,a0
     736:	0000b537          	lui	a0,0xb
     73a:	85a2                	mv	a1,s0
     73c:	96c50513          	addi	a0,a0,-1684 # a96c <_read+0x68>
     740:	19f000ef          	jal	ra,10de <rt_kprintf>
     744:	8526                	mv	a0,s1
     746:	0141                	addi	sp,sp,16
     748:	b9bd                	j	3c6 <__riscv_restore_0>
     74a:	2c1e                	lhu	a5,24(s0)
     74c:	0107e793          	ori	a5,a5,16
     750:	ac1e                	sh	a5,24(s0)
     752:	2c1e                	lhu	a5,24(s0)
     754:	8ba1                	andi	a5,a5,8
     756:	c789                	beqz	a5,760 <rt_device_open+0x48>
     758:	2c3e                	lhu	a5,26(s0)
     75a:	54e5                	li	s1,-7
     75c:	8ba1                	andi	a5,a5,8
     75e:	f3fd                	bnez	a5,744 <rt_device_open+0x2c>
     760:	545c                	lw	a5,44(s0)
     762:	cf89                	beqz	a5,77c <rt_device_open+0x64>
     764:	8522                	mv	a0,s0
     766:	9782                	jalr	a5
     768:	84aa                	mv	s1,a0
     76a:	e105                	bnez	a0,78a <rt_device_open+0x72>
     76c:	2c3e                	lhu	a5,26(s0)
     76e:	0087e793          	ori	a5,a5,8
     772:	ac3e                	sh	a5,26(s0)
     774:	2c5c                	lbu	a5,28(s0)
     776:	0785                	addi	a5,a5,1
     778:	ac5c                	sb	a5,28(s0)
     77a:	b7e9                	j	744 <rt_device_open+0x2c>
     77c:	6785                	lui	a5,0x1
     77e:	f0f78793          	addi	a5,a5,-241 # f0f <rt_vsnprintf+0x1b9>
     782:	8dfd                	and	a1,a1,a5
     784:	ac2e                	sh	a1,26(s0)
     786:	4481                	li	s1,0
     788:	b7d5                	j	76c <rt_device_open+0x54>
     78a:	57e9                	li	a5,-6
     78c:	faf51ce3          	bne	a0,a5,744 <rt_device_open+0x2c>
     790:	bff1                	j	76c <rt_device_open+0x54>

00000792 <rt_device_close>:
     792:	2d5c                	lbu	a5,28(a0)
     794:	cb85                	beqz	a5,7c4 <rt_device_close+0x32>
     796:	c0dff2ef          	jal	t0,3a2 <__riscv_save_0>
     79a:	17fd                	addi	a5,a5,-1
     79c:	0ff7f793          	andi	a5,a5,255
     7a0:	ad5c                	sb	a5,28(a0)
     7a2:	842a                	mv	s0,a0
     7a4:	4701                	li	a4,0
     7a6:	ef89                	bnez	a5,7c0 <rt_device_close+0x2e>
     7a8:	591c                	lw	a5,48(a0)
     7aa:	e789                	bnez	a5,7b4 <rt_device_close+0x22>
     7ac:	4701                	li	a4,0
     7ae:	00041d23          	sh	zero,26(s0)
     7b2:	a039                	j	7c0 <rt_device_close+0x2e>
     7b4:	9782                	jalr	a5
     7b6:	872a                	mv	a4,a0
     7b8:	d975                	beqz	a0,7ac <rt_device_close+0x1a>
     7ba:	57e9                	li	a5,-6
     7bc:	fef509e3          	beq	a0,a5,7ae <rt_device_close+0x1c>
     7c0:	853a                	mv	a0,a4
     7c2:	b111                	j	3c6 <__riscv_restore_0>
     7c4:	577d                	li	a4,-1
     7c6:	853a                	mv	a0,a4
     7c8:	8082                	ret

000007ca <rt_device_read>:
     7ca:	bd9ff2ef          	jal	t0,3a2 <__riscv_save_0>
     7ce:	2d58                	lbu	a4,28(a0)
     7d0:	e709                	bnez	a4,7da <rt_device_read+0x10>
     7d2:	557d                	li	a0,-1
     7d4:	213d                	jal	c02 <rt_set_errno>
     7d6:	4501                	li	a0,0
     7d8:	a021                	j	7e0 <rt_device_read+0x16>
     7da:	595c                	lw	a5,52(a0)
     7dc:	c399                	beqz	a5,7e2 <rt_device_read+0x18>
     7de:	9782                	jalr	a5
     7e0:	b6dd                	j	3c6 <__riscv_restore_0>
     7e2:	5569                	li	a0,-6
     7e4:	bfc5                	j	7d4 <rt_device_read+0xa>

000007e6 <rt_device_write>:
     7e6:	bbdff2ef          	jal	t0,3a2 <__riscv_save_0>
     7ea:	2d58                	lbu	a4,28(a0)
     7ec:	e709                	bnez	a4,7f6 <rt_device_write+0x10>
     7ee:	557d                	li	a0,-1
     7f0:	2909                	jal	c02 <rt_set_errno>
     7f2:	4501                	li	a0,0
     7f4:	a021                	j	7fc <rt_device_write+0x16>
     7f6:	5d1c                	lw	a5,56(a0)
     7f8:	c399                	beqz	a5,7fe <rt_device_write+0x18>
     7fa:	9782                	jalr	a5
     7fc:	b6e9                	j	3c6 <__riscv_restore_0>
     7fe:	5569                	li	a0,-6
     800:	bfc5                	j	7f0 <rt_device_write+0xa>

00000802 <rt_device_control>:
     802:	5d5c                	lw	a5,60(a0)
     804:	c789                	beqz	a5,80e <rt_device_control+0xc>
     806:	b9dff2ef          	jal	t0,3a2 <__riscv_save_0>
     80a:	9782                	jalr	a5
     80c:	be6d                	j	3c6 <__riscv_restore_0>
     80e:	5569                	li	a0,-6
     810:	8082                	ret

00000812 <rt_device_set_rx_indicate>:
     812:	d10c                	sw	a1,32(a0)
     814:	4501                	li	a0,0
     816:	8082                	ret

00000818 <rt_thread_idle_excute>:
     818:	b71ff2ef          	jal	t0,388 <__riscv_save_4>
     81c:	87c18993          	addi	s3,gp,-1924 # 200003ac <rt_thread_defunct>
     820:	4a85                	li	s5,1
     822:	87c1a783          	lw	a5,-1924(gp) # 200003ac <rt_thread_defunct>
     826:	05378663          	beq	a5,s3,872 <rt_thread_idle_excute+0x5a>
     82a:	488010ef          	jal	ra,1cb2 <rt_hw_interrupt_disable>
     82e:	87c1a783          	lw	a5,-1924(gp) # 200003ac <rt_thread_defunct>
     832:	8a2a                	mv	s4,a0
     834:	03378d63          	beq	a5,s3,86e <rt_thread_idle_excute+0x56>
     838:	87c1a403          	lw	s0,-1924(gp) # 200003ac <rt_thread_defunct>
     83c:	405c                	lw	a5,4(s0)
     83e:	4018                	lw	a4,0(s0)
     840:	fec40913          	addi	s2,s0,-20
     844:	c35c                	sw	a5,4(a4)
     846:	c398                	sw	a4,0(a5)
     848:	c040                	sw	s0,4(s0)
     84a:	c000                	sw	s0,0(s0)
     84c:	71b000ef          	jal	ra,1766 <rt_enter_critical>
     850:	507c                	lw	a5,100(s0)
     852:	c399                	beqz	a5,858 <rt_thread_idle_excute+0x40>
     854:	854a                	mv	a0,s2
     856:	9782                	jalr	a5
     858:	854a                	mv	a0,s2
     85a:	5b7000ef          	jal	ra,1610 <rt_object_is_systemobject>
     85e:	01551b63          	bne	a0,s5,874 <rt_thread_idle_excute+0x5c>
     862:	854a                	mv	a0,s2
     864:	4f7000ef          	jal	ra,155a <rt_object_detach>
     868:	715000ef          	jal	ra,177c <rt_exit_critical>
     86c:	8552                	mv	a0,s4
     86e:	450010ef          	jal	ra,1cbe <rt_hw_interrupt_enable>
     872:	b6a9                	j	3bc <__riscv_restore_4>
     874:	709000ef          	jal	ra,177c <rt_exit_critical>
     878:	8552                	mv	a0,s4
     87a:	444010ef          	jal	ra,1cbe <rt_hw_interrupt_enable>
     87e:	4848                	lw	a0,20(s0)
     880:	3a9000ef          	jal	ra,1428 <rt_free>
     884:	854a                	mv	a0,s2
     886:	559000ef          	jal	ra,15de <rt_object_delete>
     88a:	bf61                	j	822 <rt_thread_idle_excute+0xa>

0000088c <rt_thread_idle_entry>:
     88c:	b17ff2ef          	jal	t0,3a2 <__riscv_save_0>
     890:	96018413          	addi	s0,gp,-1696 # 20000490 <idle_hook_list>
     894:	01040913          	addi	s2,s0,16
     898:	401c                	lw	a5,0(s0)
     89a:	c391                	beqz	a5,89e <rt_thread_idle_entry+0x12>
     89c:	9782                	jalr	a5
     89e:	0411                	addi	s0,s0,4
     8a0:	ff241ce3          	bne	s0,s2,898 <rt_thread_idle_entry+0xc>
     8a4:	3f95                	jal	818 <rt_thread_idle_excute>
     8a6:	b7ed                	j	890 <rt_thread_idle_entry+0x4>

000008a8 <rt_thread_idle_init>:
     8a8:	afbff2ef          	jal	t0,3a2 <__riscv_save_0>
     8ac:	00001637          	lui	a2,0x1
     8b0:	0000b5b7          	lui	a1,0xb
     8b4:	02000893          	li	a7,32
     8b8:	483d                	li	a6,15
     8ba:	20000793          	li	a5,512
     8be:	97018713          	addi	a4,gp,-1680 # 200004a0 <rt_thread_stack>
     8c2:	4681                	li	a3,0
     8c4:	88c60613          	addi	a2,a2,-1908 # 88c <rt_thread_idle_entry>
     8c8:	9a458593          	addi	a1,a1,-1628 # a9a4 <_read+0xa0>
     8cc:	8e018513          	addi	a0,gp,-1824 # 20000410 <idle>
     8d0:	7d9000ef          	jal	ra,18a8 <rt_thread_init>
     8d4:	8e018513          	addi	a0,gp,-1824 # 20000410 <idle>
     8d8:	184010ef          	jal	ra,1a5c <rt_thread_startup>
     8dc:	b4ed                	j	3c6 <__riscv_restore_0>

000008de <rt_ipc_list_suspend>:
     8de:	ac5ff2ef          	jal	t0,3a2 <__riscv_save_0>
     8e2:	1141                	addi	sp,sp,-16
     8e4:	842a                	mv	s0,a0
     8e6:	852e                	mv	a0,a1
     8e8:	c632                	sw	a2,12(sp)
     8ea:	c42e                	sw	a1,8(sp)
     8ec:	08c010ef          	jal	ra,1978 <rt_thread_suspend>
     8f0:	4632                	lw	a2,12(sp)
     8f2:	45a2                	lw	a1,8(sp)
     8f4:	c619                	beqz	a2,902 <rt_ipc_list_suspend+0x24>
     8f6:	4785                	li	a5,1
     8f8:	00f60d63          	beq	a2,a5,912 <rt_ipc_list_suspend+0x34>
     8fc:	4501                	li	a0,0
     8fe:	0141                	addi	sp,sp,16
     900:	b4d9                	j	3c6 <__riscv_restore_0>
     902:	4058                	lw	a4,4(s0)
     904:	01458793          	addi	a5,a1,20
     908:	c31c                	sw	a5,0(a4)
     90a:	cd98                	sw	a4,24(a1)
     90c:	c05c                	sw	a5,4(s0)
     90e:	c9c0                	sw	s0,20(a1)
     910:	b7f5                	j	8fc <rt_ipc_list_suspend+0x1e>
     912:	401c                	lw	a5,0(s0)
     914:	00878863          	beq	a5,s0,924 <rt_ipc_list_suspend+0x46>
     918:	0355c683          	lbu	a3,53(a1)
     91c:	0217c703          	lbu	a4,33(a5)
     920:	00e6fa63          	bgeu	a3,a4,934 <rt_ipc_list_suspend+0x56>
     924:	43d4                	lw	a3,4(a5)
     926:	01458713          	addi	a4,a1,20
     92a:	c298                	sw	a4,0(a3)
     92c:	cd94                	sw	a3,24(a1)
     92e:	c3d8                	sw	a4,4(a5)
     930:	c9dc                	sw	a5,20(a1)
     932:	b7e9                	j	8fc <rt_ipc_list_suspend+0x1e>
     934:	439c                	lw	a5,0(a5)
     936:	bff9                	j	914 <rt_ipc_list_suspend+0x36>

00000938 <rt_sem_init>:
     938:	a6bff2ef          	jal	t0,3a2 <__riscv_save_0>
     93c:	1141                	addi	sp,sp,-16
     93e:	84b2                	mv	s1,a2
     940:	862e                	mv	a2,a1
     942:	4589                	li	a1,2
     944:	842a                	mv	s0,a0
     946:	c636                	sw	a3,12(sp)
     948:	3b5000ef          	jal	ra,14fc <rt_object_init>
     94c:	46b2                	lw	a3,12(sp)
     94e:	01440793          	addi	a5,s0,20
     952:	cc1c                	sw	a5,24(s0)
     954:	c85c                	sw	a5,20(s0)
     956:	ac46                	sh	s1,28(s0)
     958:	b414                	sb	a3,9(s0)
     95a:	4501                	li	a0,0
     95c:	0141                	addi	sp,sp,16
     95e:	b4a5                	j	3c6 <__riscv_restore_0>

00000960 <rt_sem_take>:
     960:	a29ff2ef          	jal	t0,388 <__riscv_save_4>
     964:	8681a783          	lw	a5,-1944(gp) # 20000398 <rt_object_trytake_hook>
     968:	1141                	addi	sp,sp,-16
     96a:	c62e                	sw	a1,12(sp)
     96c:	842a                	mv	s0,a0
     96e:	c391                	beqz	a5,972 <rt_sem_take+0x12>
     970:	9782                	jalr	a5
     972:	340010ef          	jal	ra,1cb2 <rt_hw_interrupt_disable>
     976:	2c5e                	lhu	a5,28(s0)
     978:	89aa                	mv	s3,a0
     97a:	cf89                	beqz	a5,994 <rt_sem_take+0x34>
     97c:	17fd                	addi	a5,a5,-1
     97e:	ac5e                	sh	a5,28(s0)
     980:	33e010ef          	jal	ra,1cbe <rt_hw_interrupt_enable>
     984:	8641a783          	lw	a5,-1948(gp) # 20000394 <rt_object_take_hook>
     988:	4501                	li	a0,0
     98a:	cb91                	beqz	a5,99e <rt_sem_take+0x3e>
     98c:	8522                	mv	a0,s0
     98e:	9782                	jalr	a5
     990:	4501                	li	a0,0
     992:	a031                	j	99e <rt_sem_take+0x3e>
     994:	47b2                	lw	a5,12(sp)
     996:	e791                	bnez	a5,9a2 <rt_sem_take+0x42>
     998:	326010ef          	jal	ra,1cbe <rt_hw_interrupt_enable>
     99c:	5579                	li	a0,-2
     99e:	0141                	addi	sp,sp,16
     9a0:	bc31                	j	3bc <__riscv_restore_4>
     9a2:	739000ef          	jal	ra,18da <rt_thread_self>
     9a6:	02052823          	sw	zero,48(a0)
     9aa:	3410                	lbu	a2,9(s0)
     9ac:	85aa                	mv	a1,a0
     9ae:	84aa                	mv	s1,a0
     9b0:	01440513          	addi	a0,s0,20
     9b4:	372d                	jal	8de <rt_ipc_list_suspend>
     9b6:	47b2                	lw	a5,12(sp)
     9b8:	00f05c63          	blez	a5,9d0 <rt_sem_take+0x70>
     9bc:	04c48913          	addi	s2,s1,76
     9c0:	0070                	addi	a2,sp,12
     9c2:	4581                	li	a1,0
     9c4:	854a                	mv	a0,s2
     9c6:	1dc010ef          	jal	ra,1ba2 <rt_timer_control>
     9ca:	854a                	mv	a0,s2
     9cc:	126010ef          	jal	ra,1af2 <rt_timer_start>
     9d0:	854e                	mv	a0,s3
     9d2:	2ec010ef          	jal	ra,1cbe <rt_hw_interrupt_enable>
     9d6:	49d000ef          	jal	ra,1672 <rt_schedule>
     9da:	5888                	lw	a0,48(s1)
     9dc:	d545                	beqz	a0,984 <rt_sem_take+0x24>
     9de:	b7c1                	j	99e <rt_sem_take+0x3e>

000009e0 <rt_sem_release>:
     9e0:	9c3ff2ef          	jal	t0,3a2 <__riscv_save_0>
     9e4:	8601a783          	lw	a5,-1952(gp) # 20000390 <rt_object_put_hook>
     9e8:	842a                	mv	s0,a0
     9ea:	c391                	beqz	a5,9ee <rt_sem_release+0xe>
     9ec:	9782                	jalr	a5
     9ee:	2c4010ef          	jal	ra,1cb2 <rt_hw_interrupt_disable>
     9f2:	84aa                	mv	s1,a0
     9f4:	4848                	lw	a0,20(s0)
     9f6:	01440793          	addi	a5,s0,20
     9fa:	00f50f63          	beq	a0,a5,a18 <rt_sem_release+0x38>
     9fe:	1531                	addi	a0,a0,-20
     a00:	010010ef          	jal	ra,1a10 <rt_thread_resume>
     a04:	4405                	li	s0,1
     a06:	8526                	mv	a0,s1
     a08:	2b6010ef          	jal	ra,1cbe <rt_hw_interrupt_enable>
     a0c:	c019                	beqz	s0,a12 <rt_sem_release+0x32>
     a0e:	465000ef          	jal	ra,1672 <rt_schedule>
     a12:	4501                	li	a0,0
     a14:	9b3ff06f          	j	3c6 <__riscv_restore_0>
     a18:	2c5e                	lhu	a5,28(s0)
     a1a:	0785                	addi	a5,a5,1
     a1c:	ac5e                	sh	a5,28(s0)
     a1e:	4401                	li	s0,0
     a20:	b7dd                	j	a06 <rt_sem_release+0x26>

00000a22 <rt_interrupt_enter>:
     a22:	981ff2ef          	jal	t0,3a2 <__riscv_save_0>
     a26:	1141                	addi	sp,sp,-16
     a28:	28a010ef          	jal	ra,1cb2 <rt_hw_interrupt_disable>
     a2c:	82c18713          	addi	a4,gp,-2004 # 2000035c <rt_interrupt_nest>
     a30:	231c                	lbu	a5,0(a4)
     a32:	0785                	addi	a5,a5,1
     a34:	0ff7f793          	andi	a5,a5,255
     a38:	a31c                	sb	a5,0(a4)
     a3a:	8241a783          	lw	a5,-2012(gp) # 20000354 <rt_interrupt_enter_hook>
     a3e:	c781                	beqz	a5,a46 <rt_interrupt_enter+0x24>
     a40:	c62a                	sw	a0,12(sp)
     a42:	9782                	jalr	a5
     a44:	4532                	lw	a0,12(sp)
     a46:	278010ef          	jal	ra,1cbe <rt_hw_interrupt_enable>
     a4a:	0141                	addi	sp,sp,16
     a4c:	97bff06f          	j	3c6 <__riscv_restore_0>

00000a50 <rt_interrupt_leave>:
     a50:	953ff2ef          	jal	t0,3a2 <__riscv_save_0>
     a54:	1141                	addi	sp,sp,-16
     a56:	25c010ef          	jal	ra,1cb2 <rt_hw_interrupt_disable>
     a5a:	82c18713          	addi	a4,gp,-2004 # 2000035c <rt_interrupt_nest>
     a5e:	231c                	lbu	a5,0(a4)
     a60:	17fd                	addi	a5,a5,-1
     a62:	0ff7f793          	andi	a5,a5,255
     a66:	a31c                	sb	a5,0(a4)
     a68:	8281a783          	lw	a5,-2008(gp) # 20000358 <rt_interrupt_leave_hook>
     a6c:	c781                	beqz	a5,a74 <rt_interrupt_leave+0x24>
     a6e:	c62a                	sw	a0,12(sp)
     a70:	9782                	jalr	a5
     a72:	4532                	lw	a0,12(sp)
     a74:	24a010ef          	jal	ra,1cbe <rt_hw_interrupt_enable>
     a78:	0141                	addi	sp,sp,16
     a7a:	94dff06f          	j	3c6 <__riscv_restore_0>

00000a7e <rt_interrupt_get_nest>:
     a7e:	82c1c503          	lbu	a0,-2004(gp) # 2000035c <rt_interrupt_nest>
     a82:	8082                	ret

00000a84 <print_number>:
     a84:	04087893          	andi	a7,a6,64
     a88:	1141                	addi	sp,sp,-16
     a8a:	00089e63          	bnez	a7,aa6 <print_number+0x22>
     a8e:	68ad                	lui	a7,0xb
     a90:	b5088893          	addi	a7,a7,-1200 # ab50 <small_digits.2582>
     a94:	01087393          	andi	t2,a6,16
     a98:	00038b63          	beqz	t2,aae <print_number+0x2a>
     a9c:	ffe87813          	andi	a6,a6,-2
     aa0:	02000e93          	li	t4,32
     aa4:	a819                	j	aba <print_number+0x36>
     aa6:	68ad                	lui	a7,0xb
     aa8:	aac88893          	addi	a7,a7,-1364 # aaac <large_digits.2583>
     aac:	b7e5                	j	a94 <print_number+0x10>
     aae:	00187313          	andi	t1,a6,1
     ab2:	03000e93          	li	t4,48
     ab6:	fe0305e3          	beqz	t1,aa0 <print_number+0x1c>
     aba:	00287313          	andi	t1,a6,2
     abe:	06030e63          	beqz	t1,b3a <print_number+0xb6>
     ac2:	02065863          	bgez	a2,af2 <print_number+0x6e>
     ac6:	40c00633          	neg	a2,a2
     aca:	02d00293          	li	t0,45
     ace:	8e0a                	mv	t3,sp
     ad0:	4f81                	li	t6,0
     ad2:	4f29                	li	t5,10
     ad4:	07e69563          	bne	a3,t5,b3e <print_number+0xba>
     ad8:	02d67333          	remu	t1,a2,a3
     adc:	02d65633          	divu	a2,a2,a3
     ae0:	9346                	add	t1,t1,a7
     ae2:	00034303          	lbu	t1,0(t1)
     ae6:	0f85                	addi	t6,t6,1
     ae8:	0e05                	addi	t3,t3,1
     aea:	fe6e0fa3          	sb	t1,-1(t3)
     aee:	f27d                	bnez	a2,ad4 <print_number+0x50>
     af0:	a00d                	j	b12 <print_number+0x8e>
     af2:	00487313          	andi	t1,a6,4
     af6:	02b00293          	li	t0,43
     afa:	00031763          	bnez	t1,b08 <print_number+0x84>
     afe:	00887293          	andi	t0,a6,8
     b02:	005032b3          	snez	t0,t0
     b06:	0296                	slli	t0,t0,0x5
     b08:	f279                	bnez	a2,ace <print_number+0x4a>
     b0a:	03000693          	li	a3,48
     b0e:	8054                	sb	a3,0(sp)
     b10:	4f85                	li	t6,1
     b12:	86fe                	mv	a3,t6
     b14:	00ffd363          	bge	t6,a5,b1a <print_number+0x96>
     b18:	86be                	mv	a3,a5
     b1a:	01187813          	andi	a6,a6,17
     b1e:	8f15                	sub	a4,a4,a3
     b20:	04081363          	bnez	a6,b66 <print_number+0xe2>
     b24:	00028563          	beqz	t0,b2e <print_number+0xaa>
     b28:	00e05363          	blez	a4,b2e <print_number+0xaa>
     b2c:	177d                	addi	a4,a4,-1
     b2e:	862a                	mv	a2,a0
     b30:	00e508b3          	add	a7,a0,a4
     b34:	02000313          	li	t1,32
     b38:	a821                	j	b50 <print_number+0xcc>
     b3a:	4281                	li	t0,0
     b3c:	b7f1                	j	b08 <print_number+0x84>
     b3e:	00f67313          	andi	t1,a2,15
     b42:	8211                	srli	a2,a2,0x4
     b44:	bf71                	j	ae0 <print_number+0x5c>
     b46:	00b67463          	bgeu	a2,a1,b4e <print_number+0xca>
     b4a:	00660023          	sb	t1,0(a2)
     b4e:	0605                	addi	a2,a2,1
     b50:	40c88833          	sub	a6,a7,a2
     b54:	ff0049e3          	bgtz	a6,b46 <print_number+0xc2>
     b58:	863a                	mv	a2,a4
     b5a:	00075363          	bgez	a4,b60 <print_number+0xdc>
     b5e:	4601                	li	a2,0
     b60:	177d                	addi	a4,a4,-1
     b62:	9532                	add	a0,a0,a2
     b64:	8f11                	sub	a4,a4,a2
     b66:	00028863          	beqz	t0,b76 <print_number+0xf2>
     b6a:	00b57463          	bgeu	a0,a1,b72 <print_number+0xee>
     b6e:	00550023          	sb	t0,0(a0)
     b72:	177d                	addi	a4,a4,-1
     b74:	0505                	addi	a0,a0,1
     b76:	02038763          	beqz	t2,ba4 <print_number+0x120>
     b7a:	96aa                	add	a3,a3,a0
     b7c:	03000813          	li	a6,48
     b80:	a81d                	j	bb6 <print_number+0x132>
     b82:	00b67463          	bgeu	a2,a1,b8a <print_number+0x106>
     b86:	01d60023          	sb	t4,0(a2)
     b8a:	0605                	addi	a2,a2,1
     b8c:	40c88833          	sub	a6,a7,a2
     b90:	ff0049e3          	bgtz	a6,b82 <print_number+0xfe>
     b94:	863a                	mv	a2,a4
     b96:	00075363          	bgez	a4,b9c <print_number+0x118>
     b9a:	4601                	li	a2,0
     b9c:	177d                	addi	a4,a4,-1
     b9e:	9532                	add	a0,a0,a2
     ba0:	8f11                	sub	a4,a4,a2
     ba2:	bfe1                	j	b7a <print_number+0xf6>
     ba4:	862a                	mv	a2,a0
     ba6:	00e508b3          	add	a7,a0,a4
     baa:	b7cd                	j	b8c <print_number+0x108>
     bac:	00b57463          	bgeu	a0,a1,bb4 <print_number+0x130>
     bb0:	01050023          	sb	a6,0(a0)
     bb4:	0505                	addi	a0,a0,1
     bb6:	40a68633          	sub	a2,a3,a0
     bba:	fecfc9e3          	blt	t6,a2,bac <print_number+0x128>
     bbe:	56fd                	li	a3,-1
     bc0:	1ffd                	addi	t6,t6,-1
     bc2:	00df8363          	beq	t6,a3,bc8 <print_number+0x144>
     bc6:	e799                	bnez	a5,bd4 <print_number+0x150>
     bc8:	87aa                	mv	a5,a0
     bca:	00e50633          	add	a2,a0,a4
     bce:	02000813          	li	a6,32
     bd2:	a831                	j	bee <print_number+0x16a>
     bd4:	00b57663          	bgeu	a0,a1,be0 <print_number+0x15c>
     bd8:	01f10633          	add	a2,sp,t6
     bdc:	2210                	lbu	a2,0(a2)
     bde:	a110                	sb	a2,0(a0)
     be0:	0505                	addi	a0,a0,1
     be2:	bff9                	j	bc0 <print_number+0x13c>
     be4:	00b7f463          	bgeu	a5,a1,bec <print_number+0x168>
     be8:	01078023          	sb	a6,0(a5)
     bec:	0785                	addi	a5,a5,1
     bee:	40f606b3          	sub	a3,a2,a5
     bf2:	fed049e3          	bgtz	a3,be4 <print_number+0x160>
     bf6:	00075363          	bgez	a4,bfc <print_number+0x178>
     bfa:	4701                	li	a4,0
     bfc:	953a                	add	a0,a0,a4
     bfe:	0141                	addi	sp,sp,16
     c00:	8082                	ret

00000c02 <rt_set_errno>:
     c02:	fa0ff2ef          	jal	t0,3a2 <__riscv_save_0>
     c06:	842a                	mv	s0,a0
     c08:	3d9d                	jal	a7e <rt_interrupt_get_nest>
     c0a:	c509                	beqz	a0,c14 <rt_set_errno+0x12>
     c0c:	8281a823          	sw	s0,-2000(gp) # 20000360 <__rt_errno>
     c10:	fb6ff06f          	j	3c6 <__riscv_restore_0>
     c14:	4c7000ef          	jal	ra,18da <rt_thread_self>
     c18:	d975                	beqz	a0,c0c <rt_set_errno+0xa>
     c1a:	d900                	sw	s0,48(a0)
     c1c:	bfd5                	j	c10 <rt_set_errno+0xe>

00000c1e <rt_memset>:
     c1e:	470d                	li	a4,3
     c20:	87aa                	mv	a5,a0
     c22:	00c77663          	bgeu	a4,a2,c2e <rt_memset+0x10>
     c26:	00357793          	andi	a5,a0,3
     c2a:	c791                	beqz	a5,c36 <rt_memset+0x18>
     c2c:	87aa                	mv	a5,a0
     c2e:	963e                	add	a2,a2,a5
     c30:	06c79763          	bne	a5,a2,c9e <rt_memset+0x80>
     c34:	8082                	ret
     c36:	0ff5f793          	andi	a5,a1,255
     c3a:	00879713          	slli	a4,a5,0x8
     c3e:	8fd9                	or	a5,a5,a4
     c40:	01079713          	slli	a4,a5,0x10
     c44:	8f5d                	or	a4,a4,a5
     c46:	00c508b3          	add	a7,a0,a2
     c4a:	87aa                	mv	a5,a0
     c4c:	46bd                	li	a3,15
     c4e:	40f88833          	sub	a6,a7,a5
     c52:	0306eb63          	bltu	a3,a6,c88 <rt_memset+0x6a>
     c56:	00465793          	srli	a5,a2,0x4
     c5a:	56c1                	li	a3,-16
     c5c:	02d786b3          	mul	a3,a5,a3
     c60:	0792                	slli	a5,a5,0x4
     c62:	97aa                	add	a5,a5,a0
     c64:	480d                	li	a6,3
     c66:	9636                	add	a2,a2,a3
     c68:	00c78333          	add	t1,a5,a2
     c6c:	86be                	mv	a3,a5
     c6e:	40d308b3          	sub	a7,t1,a3
     c72:	03186263          	bltu	a6,a7,c96 <rt_memset+0x78>
     c76:	00265713          	srli	a4,a2,0x2
     c7a:	56f1                	li	a3,-4
     c7c:	02d706b3          	mul	a3,a4,a3
     c80:	070a                	slli	a4,a4,0x2
     c82:	97ba                	add	a5,a5,a4
     c84:	9636                	add	a2,a2,a3
     c86:	b765                	j	c2e <rt_memset+0x10>
     c88:	c398                	sw	a4,0(a5)
     c8a:	c3d8                	sw	a4,4(a5)
     c8c:	c798                	sw	a4,8(a5)
     c8e:	07c1                	addi	a5,a5,16
     c90:	fee7ae23          	sw	a4,-4(a5)
     c94:	bf6d                	j	c4e <rt_memset+0x30>
     c96:	0691                	addi	a3,a3,4
     c98:	fee6ae23          	sw	a4,-4(a3)
     c9c:	bfc9                	j	c6e <rt_memset+0x50>
     c9e:	0785                	addi	a5,a5,1
     ca0:	feb78fa3          	sb	a1,-1(a5)
     ca4:	b771                	j	c30 <rt_memset+0x12>

00000ca6 <rt_memmove>:
     ca6:	04a5f263          	bgeu	a1,a0,cea <rt_memmove+0x44>
     caa:	00c586b3          	add	a3,a1,a2
     cae:	02d57e63          	bgeu	a0,a3,cea <rt_memmove+0x44>
     cb2:	fff64593          	not	a1,a2
     cb6:	4781                	li	a5,0
     cb8:	17fd                	addi	a5,a5,-1
     cba:	00f59363          	bne	a1,a5,cc0 <rt_memmove+0x1a>
     cbe:	8082                	ret
     cc0:	00f68733          	add	a4,a3,a5
     cc4:	00070803          	lb	a6,0(a4)
     cc8:	00c78733          	add	a4,a5,a2
     ccc:	972a                	add	a4,a4,a0
     cce:	01070023          	sb	a6,0(a4)
     cd2:	b7dd                	j	cb8 <rt_memmove+0x12>
     cd4:	00f58733          	add	a4,a1,a5
     cd8:	00070683          	lb	a3,0(a4)
     cdc:	00f50733          	add	a4,a0,a5
     ce0:	0785                	addi	a5,a5,1
     ce2:	a314                	sb	a3,0(a4)
     ce4:	fef618e3          	bne	a2,a5,cd4 <rt_memmove+0x2e>
     ce8:	8082                	ret
     cea:	4781                	li	a5,0
     cec:	bfe5                	j	ce4 <rt_memmove+0x3e>

00000cee <rt_strncpy>:
     cee:	c60d                	beqz	a2,d18 <rt_strncpy+0x2a>
     cf0:	87aa                	mv	a5,a0
     cf2:	0585                	addi	a1,a1,1
     cf4:	fff58703          	lb	a4,-1(a1)
     cf8:	0785                	addi	a5,a5,1
     cfa:	fff60693          	addi	a3,a2,-1
     cfe:	fee78fa3          	sb	a4,-1(a5)
     d02:	eb09                	bnez	a4,d14 <rt_strncpy+0x26>
     d04:	963e                	add	a2,a2,a5
     d06:	0785                	addi	a5,a5,1
     d08:	00c79363          	bne	a5,a2,d0e <rt_strncpy+0x20>
     d0c:	8082                	ret
     d0e:	fe078fa3          	sb	zero,-1(a5)
     d12:	bfd5                	j	d06 <rt_strncpy+0x18>
     d14:	8636                	mv	a2,a3
     d16:	fef1                	bnez	a3,cf2 <rt_strncpy+0x4>
     d18:	8082                	ret

00000d1a <rt_strncmp>:
     d1a:	4701                	li	a4,0
     d1c:	00e61463          	bne	a2,a4,d24 <rt_strncmp+0xa>
     d20:	4781                	li	a5,0
     d22:	a839                	j	d40 <rt_strncmp+0x26>
     d24:	00e507b3          	add	a5,a0,a4
     d28:	00078683          	lb	a3,0(a5)
     d2c:	00e587b3          	add	a5,a1,a4
     d30:	239c                	lbu	a5,0(a5)
     d32:	40f687b3          	sub	a5,a3,a5
     d36:	07e2                	slli	a5,a5,0x18
     d38:	87e1                	srai	a5,a5,0x18
     d3a:	e399                	bnez	a5,d40 <rt_strncmp+0x26>
     d3c:	0705                	addi	a4,a4,1
     d3e:	fef9                	bnez	a3,d1c <rt_strncmp+0x2>
     d40:	853e                	mv	a0,a5
     d42:	8082                	ret

00000d44 <rt_strlen>:
     d44:	87aa                	mv	a5,a0
     d46:	00078703          	lb	a4,0(a5)
     d4a:	e701                	bnez	a4,d52 <rt_strlen+0xe>
     d4c:	40a78533          	sub	a0,a5,a0
     d50:	8082                	ret
     d52:	0785                	addi	a5,a5,1
     d54:	bfcd                	j	d46 <rt_strlen+0x2>

00000d56 <rt_vsnprintf>:
     d56:	e24ff2ef          	jal	t0,37a <__riscv_save_10>
     d5a:	892e                	mv	s2,a1
     d5c:	01250bb3          	add	s7,a0,s2
     d60:	1141                	addi	sp,sp,-16
     d62:	8c2a                	mv	s8,a0
     d64:	85b6                	mv	a1,a3
     d66:	00abf563          	bgeu	s7,a0,d70 <rt_vsnprintf+0x1a>
     d6a:	fff54913          	not	s2,a0
     d6e:	5bfd                	li	s7,-1
     d70:	69c1                	lui	s3,0x10
     d72:	0000ba37          	lui	s4,0xb
     d76:	8462                	mv	s0,s8
     d78:	02b00a93          	li	s5,43
     d7c:	02000b13          	li	s6,32
     d80:	19fd                	addi	s3,s3,-1
     d82:	b48a0a13          	addi	s4,s4,-1208 # ab48 <large_digits.2583+0x9c>
     d86:	a831                	j	da2 <rt_vsnprintf+0x4c>
     d88:	02500713          	li	a4,37
     d8c:	02e78963          	beq	a5,a4,dbe <rt_vsnprintf+0x68>
     d90:	01747363          	bgeu	s0,s7,d96 <rt_vsnprintf+0x40>
     d94:	a01c                	sb	a5,0(s0)
     d96:	00140513          	addi	a0,s0,1
     d9a:	84b2                	mv	s1,a2
     d9c:	00148613          	addi	a2,s1,1
     da0:	842a                	mv	s0,a0
     da2:	00060783          	lb	a5,0(a2)
     da6:	f3ed                	bnez	a5,d88 <rt_vsnprintf+0x32>
     da8:	00090663          	beqz	s2,db4 <rt_vsnprintf+0x5e>
     dac:	2f747b63          	bgeu	s0,s7,10a2 <rt_vsnprintf+0x34c>
     db0:	00040023          	sb	zero,0(s0)
     db4:	41840533          	sub	a0,s0,s8
     db8:	0141                	addi	sp,sp,16
     dba:	df8ff06f          	j	3b2 <__riscv_restore_10>
     dbe:	4801                	li	a6,0
     dc0:	02d00713          	li	a4,45
     dc4:	02300693          	li	a3,35
     dc8:	03000513          	li	a0,48
     dcc:	a031                	j	dd8 <rt_vsnprintf+0x82>
     dce:	01579e63          	bne	a5,s5,dea <rt_vsnprintf+0x94>
     dd2:	00486813          	ori	a6,a6,4
     dd6:	8626                	mv	a2,s1
     dd8:	00160783          	lb	a5,1(a2)
     ddc:	00160493          	addi	s1,a2,1
     de0:	fee797e3          	bne	a5,a4,dce <rt_vsnprintf+0x78>
     de4:	01086813          	ori	a6,a6,16
     de8:	b7fd                	j	dd6 <rt_vsnprintf+0x80>
     dea:	01679563          	bne	a5,s6,df4 <rt_vsnprintf+0x9e>
     dee:	00886813          	ori	a6,a6,8
     df2:	b7d5                	j	dd6 <rt_vsnprintf+0x80>
     df4:	00d79563          	bne	a5,a3,dfe <rt_vsnprintf+0xa8>
     df8:	02086813          	ori	a6,a6,32
     dfc:	bfe9                	j	dd6 <rt_vsnprintf+0x80>
     dfe:	00a79563          	bne	a5,a0,e08 <rt_vsnprintf+0xb2>
     e02:	00186813          	ori	a6,a6,1
     e06:	bfc1                	j	dd6 <rt_vsnprintf+0x80>
     e08:	fd078713          	addi	a4,a5,-48
     e0c:	46a5                	li	a3,9
     e0e:	04e6e663          	bltu	a3,a4,e5a <rt_vsnprintf+0x104>
     e12:	4701                	li	a4,0
     e14:	46a5                	li	a3,9
     e16:	4529                	li	a0,10
     e18:	a039                	j	e26 <rt_vsnprintf+0xd0>
     e1a:	02a70733          	mul	a4,a4,a0
     e1e:	0485                	addi	s1,s1,1
     e20:	973e                	add	a4,a4,a5
     e22:	fd070713          	addi	a4,a4,-48
     e26:	00048783          	lb	a5,0(s1)
     e2a:	fd078613          	addi	a2,a5,-48
     e2e:	fec6f6e3          	bgeu	a3,a2,e1a <rt_vsnprintf+0xc4>
     e32:	00048603          	lb	a2,0(s1)
     e36:	02e00693          	li	a3,46
     e3a:	57fd                	li	a5,-1
     e3c:	04d61f63          	bne	a2,a3,e9a <rt_vsnprintf+0x144>
     e40:	00148783          	lb	a5,1(s1)
     e44:	4625                	li	a2,9
     e46:	00148693          	addi	a3,s1,1
     e4a:	fd078513          	addi	a0,a5,-48
     e4e:	0aa66563          	bltu	a2,a0,ef8 <rt_vsnprintf+0x1a2>
     e52:	4781                	li	a5,0
     e54:	4525                	li	a0,9
     e56:	4329                	li	t1,10
     e58:	a03d                	j	e86 <rt_vsnprintf+0x130>
     e5a:	02a00693          	li	a3,42
     e5e:	577d                	li	a4,-1
     e60:	fcd799e3          	bne	a5,a3,e32 <rt_vsnprintf+0xdc>
     e64:	4198                	lw	a4,0(a1)
     e66:	00260493          	addi	s1,a2,2
     e6a:	0591                	addi	a1,a1,4
     e6c:	fc0753e3          	bgez	a4,e32 <rt_vsnprintf+0xdc>
     e70:	40e00733          	neg	a4,a4
     e74:	01086813          	ori	a6,a6,16
     e78:	bf6d                	j	e32 <rt_vsnprintf+0xdc>
     e7a:	026787b3          	mul	a5,a5,t1
     e7e:	0685                	addi	a3,a3,1
     e80:	97b2                	add	a5,a5,a2
     e82:	fd078793          	addi	a5,a5,-48
     e86:	00068603          	lb	a2,0(a3)
     e8a:	fd060893          	addi	a7,a2,-48
     e8e:	ff1576e3          	bgeu	a0,a7,e7a <rt_vsnprintf+0x124>
     e92:	0007d363          	bgez	a5,e98 <rt_vsnprintf+0x142>
     e96:	4781                	li	a5,0
     e98:	84b6                	mv	s1,a3
     e9a:	00048683          	lb	a3,0(s1)
     e9e:	06800613          	li	a2,104
     ea2:	4501                	li	a0,0
     ea4:	ffb6f893          	andi	a7,a3,-5
     ea8:	00c89563          	bne	a7,a2,eb2 <rt_vsnprintf+0x15c>
     eac:	0ff6f513          	andi	a0,a3,255
     eb0:	0485                	addi	s1,s1,1
     eb2:	00048603          	lb	a2,0(s1)
     eb6:	06900693          	li	a3,105
     eba:	06d60363          	beq	a2,a3,f20 <rt_vsnprintf+0x1ca>
     ebe:	06c6c563          	blt	a3,a2,f28 <rt_vsnprintf+0x1d2>
     ec2:	05800693          	li	a3,88
     ec6:	1cd60363          	beq	a2,a3,108c <rt_vsnprintf+0x336>
     eca:	04c6c363          	blt	a3,a2,f10 <rt_vsnprintf+0x1ba>
     ece:	02500793          	li	a5,37
     ed2:	1af60763          	beq	a2,a5,1080 <rt_vsnprintf+0x32a>
     ed6:	01747563          	bgeu	s0,s7,ee0 <rt_vsnprintf+0x18a>
     eda:	02500793          	li	a5,37
     ede:	a01c                	sb	a5,0(s0)
     ee0:	00048783          	lb	a5,0(s1)
     ee4:	00140513          	addi	a0,s0,1
     ee8:	1a078663          	beqz	a5,1094 <rt_vsnprintf+0x33e>
     eec:	01757363          	bgeu	a0,s7,ef2 <rt_vsnprintf+0x19c>
     ef0:	b01c                	sb	a5,1(s0)
     ef2:	00240513          	addi	a0,s0,2
     ef6:	b55d                	j	d9c <rt_vsnprintf+0x46>
     ef8:	02a00613          	li	a2,42
     efc:	00c79763          	bne	a5,a2,f0a <rt_vsnprintf+0x1b4>
     f00:	419c                	lw	a5,0(a1)
     f02:	00248693          	addi	a3,s1,2
     f06:	0591                	addi	a1,a1,4
     f08:	b769                	j	e92 <rt_vsnprintf+0x13c>
     f0a:	84b6                	mv	s1,a3
     f0c:	4781                	li	a5,0
     f0e:	b771                	j	e9a <rt_vsnprintf+0x144>
     f10:	06300693          	li	a3,99
     f14:	08d60263          	beq	a2,a3,f98 <rt_vsnprintf+0x242>
     f18:	06400693          	li	a3,100
     f1c:	fad61de3          	bne	a2,a3,ed6 <rt_vsnprintf+0x180>
     f20:	00286813          	ori	a6,a6,2
     f24:	46a9                	li	a3,10
     f26:	a099                	j	f6c <rt_vsnprintf+0x216>
     f28:	07300693          	li	a3,115
     f2c:	0cd60363          	beq	a2,a3,ff2 <rt_vsnprintf+0x29c>
     f30:	02c6c563          	blt	a3,a2,f5a <rt_vsnprintf+0x204>
     f34:	06f00693          	li	a3,111
     f38:	16d60063          	beq	a2,a3,1098 <rt_vsnprintf+0x342>
     f3c:	07000693          	li	a3,112
     f40:	f8d61be3          	bne	a2,a3,ed6 <rt_vsnprintf+0x180>
     f44:	56fd                	li	a3,-1
     f46:	00d71563          	bne	a4,a3,f50 <rt_vsnprintf+0x1fa>
     f4a:	00186813          	ori	a6,a6,1
     f4e:	4721                	li	a4,8
     f50:	00458c93          	addi	s9,a1,4
     f54:	46c1                	li	a3,16
     f56:	4190                	lw	a2,0(a1)
     f58:	a81d                	j	f8e <rt_vsnprintf+0x238>
     f5a:	07500693          	li	a3,117
     f5e:	fcd603e3          	beq	a2,a3,f24 <rt_vsnprintf+0x1ce>
     f62:	07800893          	li	a7,120
     f66:	46c1                	li	a3,16
     f68:	f71617e3          	bne	a2,a7,ed6 <rt_vsnprintf+0x180>
     f6c:	06c00613          	li	a2,108
     f70:	00458c93          	addi	s9,a1,4
     f74:	fec501e3          	beq	a0,a2,f56 <rt_vsnprintf+0x200>
     f78:	06800613          	li	a2,104
     f7c:	fcc51de3          	bne	a0,a2,f56 <rt_vsnprintf+0x200>
     f80:	4190                	lw	a2,0(a1)
     f82:	00287593          	andi	a1,a6,2
     f86:	10059b63          	bnez	a1,109c <rt_vsnprintf+0x346>
     f8a:	01367633          	and	a2,a2,s3
     f8e:	85de                	mv	a1,s7
     f90:	8522                	mv	a0,s0
     f92:	3ccd                	jal	a84 <print_number>
     f94:	85e6                	mv	a1,s9
     f96:	b519                	j	d9c <rt_vsnprintf+0x46>
     f98:	01087813          	andi	a6,a6,16
     f9c:	02081563          	bnez	a6,fc6 <rt_vsnprintf+0x270>
     fa0:	87ba                	mv	a5,a4
     fa2:	02000693          	li	a3,32
     fa6:	a029                	j	fb0 <rt_vsnprintf+0x25a>
     fa8:	01747363          	bgeu	s0,s7,fae <rt_vsnprintf+0x258>
     fac:	a014                	sb	a3,0(s0)
     fae:	0405                	addi	s0,s0,1
     fb0:	17fd                	addi	a5,a5,-1
     fb2:	fef04be3          	bgtz	a5,fa8 <rt_vsnprintf+0x252>
     fb6:	fff70793          	addi	a5,a4,-1
     fba:	00e04363          	bgtz	a4,fc0 <rt_vsnprintf+0x26a>
     fbe:	4705                	li	a4,1
     fc0:	40e78733          	sub	a4,a5,a4
     fc4:	0705                	addi	a4,a4,1
     fc6:	00458793          	addi	a5,a1,4
     fca:	01747463          	bgeu	s0,s7,fd2 <rt_vsnprintf+0x27c>
     fce:	4194                	lw	a3,0(a1)
     fd0:	a014                	sb	a3,0(s0)
     fd2:	00140513          	addi	a0,s0,1
     fd6:	9722                	add	a4,a4,s0
     fd8:	02000613          	li	a2,32
     fdc:	40a706b3          	sub	a3,a4,a0
     fe0:	00d04463          	bgtz	a3,fe8 <rt_vsnprintf+0x292>
     fe4:	85be                	mv	a1,a5
     fe6:	bb5d                	j	d9c <rt_vsnprintf+0x46>
     fe8:	01757363          	bgeu	a0,s7,fee <rt_vsnprintf+0x298>
     fec:	a110                	sb	a2,0(a0)
     fee:	0505                	addi	a0,a0,1
     ff0:	b7f5                	j	fdc <rt_vsnprintf+0x286>
     ff2:	0005ac83          	lw	s9,0(a1)
     ff6:	00458d13          	addi	s10,a1,4
     ffa:	000c9363          	bnez	s9,1000 <rt_vsnprintf+0x2aa>
     ffe:	8cd2                	mv	s9,s4
    1000:	8566                	mv	a0,s9
    1002:	c63e                	sw	a5,12(sp)
    1004:	c43a                	sw	a4,8(sp)
    1006:	c242                	sw	a6,4(sp)
    1008:	3b35                	jal	d44 <rt_strlen>
    100a:	47b2                	lw	a5,12(sp)
    100c:	86aa                	mv	a3,a0
    100e:	4812                	lw	a6,4(sp)
    1010:	4722                	lw	a4,8(sp)
    1012:	00f05563          	blez	a5,101c <rt_vsnprintf+0x2c6>
    1016:	00a7d363          	bge	a5,a0,101c <rt_vsnprintf+0x2c6>
    101a:	86be                	mv	a3,a5
    101c:	01087813          	andi	a6,a6,16
    1020:	00081e63          	bnez	a6,103c <rt_vsnprintf+0x2e6>
    1024:	87ba                	mv	a5,a4
    1026:	02000613          	li	a2,32
    102a:	a031                	j	1036 <rt_vsnprintf+0x2e0>
    102c:	01747363          	bgeu	s0,s7,1032 <rt_vsnprintf+0x2dc>
    1030:	a010                	sb	a2,0(s0)
    1032:	0405                	addi	s0,s0,1
    1034:	87ba                	mv	a5,a4
    1036:	177d                	addi	a4,a4,-1
    1038:	fef6cae3          	blt	a3,a5,102c <rt_vsnprintf+0x2d6>
    103c:	4781                	li	a5,0
    103e:	02d7c163          	blt	a5,a3,1060 <rt_vsnprintf+0x30a>
    1042:	87b6                	mv	a5,a3
    1044:	0006d363          	bgez	a3,104a <rt_vsnprintf+0x2f4>
    1048:	4781                	li	a5,0
    104a:	00f40533          	add	a0,s0,a5
    104e:	972a                	add	a4,a4,a0
    1050:	02000613          	li	a2,32
    1054:	40a707b3          	sub	a5,a4,a0
    1058:	00f6cf63          	blt	a3,a5,1076 <rt_vsnprintf+0x320>
    105c:	85ea                	mv	a1,s10
    105e:	bb3d                	j	d9c <rt_vsnprintf+0x46>
    1060:	00f40633          	add	a2,s0,a5
    1064:	01767763          	bgeu	a2,s7,1072 <rt_vsnprintf+0x31c>
    1068:	00fc85b3          	add	a1,s9,a5
    106c:	00058583          	lb	a1,0(a1)
    1070:	a20c                	sb	a1,0(a2)
    1072:	0785                	addi	a5,a5,1
    1074:	b7e9                	j	103e <rt_vsnprintf+0x2e8>
    1076:	01757363          	bgeu	a0,s7,107c <rt_vsnprintf+0x326>
    107a:	a110                	sb	a2,0(a0)
    107c:	0505                	addi	a0,a0,1
    107e:	bfd9                	j	1054 <rt_vsnprintf+0x2fe>
    1080:	01747363          	bgeu	s0,s7,1086 <rt_vsnprintf+0x330>
    1084:	a010                	sb	a2,0(s0)
    1086:	00140513          	addi	a0,s0,1
    108a:	bb09                	j	d9c <rt_vsnprintf+0x46>
    108c:	04086813          	ori	a6,a6,64
    1090:	46c1                	li	a3,16
    1092:	bde9                	j	f6c <rt_vsnprintf+0x216>
    1094:	14fd                	addi	s1,s1,-1
    1096:	b319                	j	d9c <rt_vsnprintf+0x46>
    1098:	46a1                	li	a3,8
    109a:	bdc9                	j	f6c <rt_vsnprintf+0x216>
    109c:	0642                	slli	a2,a2,0x10
    109e:	8641                	srai	a2,a2,0x10
    10a0:	b5fd                	j	f8e <rt_vsnprintf+0x238>
    10a2:	fe0b8fa3          	sb	zero,-1(s7)
    10a6:	b339                	j	db4 <rt_vsnprintf+0x5e>

000010a8 <rt_console_get_device>:
    10a8:	8341a503          	lw	a0,-1996(gp) # 20000364 <_console_device>
    10ac:	8082                	ret

000010ae <rt_console_set_device>:
    10ae:	af4ff2ef          	jal	t0,3a2 <__riscv_save_0>
    10b2:	8341a903          	lw	s2,-1996(gp) # 20000364 <_console_device>
    10b6:	de6ff0ef          	jal	ra,69c <rt_device_find>
    10ba:	cd11                	beqz	a0,10d6 <rt_console_set_device+0x28>
    10bc:	83418413          	addi	s0,gp,-1996 # 20000364 <_console_device>
    10c0:	84aa                	mv	s1,a0
    10c2:	4008                	lw	a0,0(s0)
    10c4:	c119                	beqz	a0,10ca <rt_console_set_device+0x1c>
    10c6:	eccff0ef          	jal	ra,792 <rt_device_close>
    10ca:	04300593          	li	a1,67
    10ce:	8526                	mv	a0,s1
    10d0:	e48ff0ef          	jal	ra,718 <rt_device_open>
    10d4:	c004                	sw	s1,0(s0)
    10d6:	854a                	mv	a0,s2
    10d8:	aeeff06f          	j	3c6 <__riscv_restore_0>

000010dc <rt_hw_console_output>:
    10dc:	8082                	ret

000010de <rt_kprintf>:
    10de:	7139                	addi	sp,sp,-64
    10e0:	ca26                	sw	s1,20(sp)
    10e2:	d22e                	sw	a1,36(sp)
    10e4:	d432                	sw	a2,40(sp)
    10e6:	d636                	sw	a3,44(sp)
    10e8:	862a                	mv	a2,a0
    10ea:	1054                	addi	a3,sp,36
    10ec:	07f00593          	li	a1,127
    10f0:	b7018513          	addi	a0,gp,-1168 # 200006a0 <rt_log_buf.2693>
    10f4:	da3e                	sw	a5,52(sp)
    10f6:	c636                	sw	a3,12(sp)
    10f8:	ce06                	sw	ra,28(sp)
    10fa:	cc22                	sw	s0,24(sp)
    10fc:	d83a                	sw	a4,48(sp)
    10fe:	dc42                	sw	a6,56(sp)
    1100:	de46                	sw	a7,60(sp)
    1102:	3991                	jal	d56 <rt_vsnprintf>
    1104:	86aa                	mv	a3,a0
    1106:	8341a503          	lw	a0,-1996(gp) # 20000364 <_console_device>
    110a:	e909                	bnez	a0,111c <rt_kprintf+0x3e>
    110c:	b7018513          	addi	a0,gp,-1168 # 200006a0 <rt_log_buf.2693>
    1110:	37f1                	jal	10dc <rt_hw_console_output>
    1112:	40f2                	lw	ra,28(sp)
    1114:	4462                	lw	s0,24(sp)
    1116:	44d2                	lw	s1,20(sp)
    1118:	6121                	addi	sp,sp,64
    111a:	8082                	ret
    111c:	8626                	mv	a2,s1
    111e:	2d26                	lhu	s1,26(a0)
    1120:	83418413          	addi	s0,gp,-1996 # 20000364 <_console_device>
    1124:	0404e793          	ori	a5,s1,64
    1128:	ad3e                	sh	a5,26(a0)
    112a:	07f00793          	li	a5,127
    112e:	00d7f463          	bgeu	a5,a3,1136 <rt_kprintf+0x58>
    1132:	07f00693          	li	a3,127
    1136:	b7018613          	addi	a2,gp,-1168 # 200006a0 <rt_log_buf.2693>
    113a:	4581                	li	a1,0
    113c:	eaaff0ef          	jal	ra,7e6 <rt_device_write>
    1140:	401c                	lw	a5,0(s0)
    1142:	afa6                	sh	s1,26(a5)
    1144:	b7f9                	j	1112 <rt_kprintf+0x34>

00001146 <rt_show_version>:
    1146:	a5cff2ef          	jal	t0,3a2 <__riscv_save_0>
    114a:	0000b537          	lui	a0,0xb
    114e:	ac050513          	addi	a0,a0,-1344 # aac0 <large_digits.2583+0x14>
    1152:	3771                	jal	10de <rt_kprintf>
    1154:	0000b537          	lui	a0,0xb
    1158:	acc50513          	addi	a0,a0,-1332 # aacc <large_digits.2583+0x20>
    115c:	3749                	jal	10de <rt_kprintf>
    115e:	0000b737          	lui	a4,0xb
    1162:	0000b537          	lui	a0,0xb
    1166:	af070713          	addi	a4,a4,-1296 # aaf0 <large_digits.2583+0x44>
    116a:	468d                	li	a3,3
    116c:	4605                	li	a2,1
    116e:	458d                	li	a1,3
    1170:	afc50513          	addi	a0,a0,-1284 # aafc <large_digits.2583+0x50>
    1174:	37ad                	jal	10de <rt_kprintf>
    1176:	0000b537          	lui	a0,0xb
    117a:	b1c50513          	addi	a0,a0,-1252 # ab1c <large_digits.2583+0x70>
    117e:	3785                	jal	10de <rt_kprintf>
    1180:	a46ff06f          	j	3c6 <__riscv_restore_0>

00001184 <__rt_ffs>:
    1184:	c531                	beqz	a0,11d0 <__rt_ffs+0x4c>
    1186:	66ad                	lui	a3,0xb
    1188:	0ff57713          	andi	a4,a0,255
    118c:	9ac68693          	addi	a3,a3,-1620 # a9ac <__lowest_bit_bitmap>
    1190:	c709                	beqz	a4,119a <__rt_ffs+0x16>
    1192:	96ba                	add	a3,a3,a4
    1194:	2288                	lbu	a0,0(a3)
    1196:	0505                	addi	a0,a0,1
    1198:	8082                	ret
    119a:	67c1                	lui	a5,0x10
    119c:	f0078793          	addi	a5,a5,-256 # ff00 <__rt_init_end+0x3650>
    11a0:	8fe9                	and	a5,a5,a0
    11a2:	cb81                	beqz	a5,11b2 <__rt_ffs+0x2e>
    11a4:	8521                	srai	a0,a0,0x8
    11a6:	0ff57713          	andi	a4,a0,255
    11aa:	9736                	add	a4,a4,a3
    11ac:	2308                	lbu	a0,0(a4)
    11ae:	0525                	addi	a0,a0,9
    11b0:	8082                	ret
    11b2:	00ff07b7          	lui	a5,0xff0
    11b6:	8fe9                	and	a5,a5,a0
    11b8:	cb81                	beqz	a5,11c8 <__rt_ffs+0x44>
    11ba:	8541                	srai	a0,a0,0x10
    11bc:	0ff57793          	andi	a5,a0,255
    11c0:	97b6                	add	a5,a5,a3
    11c2:	2388                	lbu	a0,0(a5)
    11c4:	0545                	addi	a0,a0,17
    11c6:	8082                	ret
    11c8:	8161                	srli	a0,a0,0x18
    11ca:	9536                	add	a0,a0,a3
    11cc:	2108                	lbu	a0,0(a0)
    11ce:	0565                	addi	a0,a0,25
    11d0:	8082                	ret

000011d2 <plug_holes>:
    11d2:	83c1a703          	lw	a4,-1988(gp) # 2000036c <heap_ptr>
    11d6:	415c                	lw	a5,4(a0)
    11d8:	97ba                	add	a5,a5,a4
    11da:	02f50563          	beq	a0,a5,1204 <plug_holes+0x32>
    11de:	23b6                	lhu	a3,2(a5)
    11e0:	e295                	bnez	a3,1204 <plug_holes+0x32>
    11e2:	8381a683          	lw	a3,-1992(gp) # 20000368 <heap_end>
    11e6:	00f68f63          	beq	a3,a5,1204 <plug_holes+0x32>
    11ea:	84018693          	addi	a3,gp,-1984 # 20000370 <lfree>
    11ee:	4290                	lw	a2,0(a3)
    11f0:	00f61363          	bne	a2,a5,11f6 <plug_holes+0x24>
    11f4:	c288                	sw	a0,0(a3)
    11f6:	43d4                	lw	a3,4(a5)
    11f8:	c154                	sw	a3,4(a0)
    11fa:	43dc                	lw	a5,4(a5)
    11fc:	40e506b3          	sub	a3,a0,a4
    1200:	97ba                	add	a5,a5,a4
    1202:	c794                	sw	a3,8(a5)
    1204:	4510                	lw	a2,8(a0)
    1206:	00c707b3          	add	a5,a4,a2
    120a:	00f50f63          	beq	a0,a5,1228 <plug_holes+0x56>
    120e:	23b6                	lhu	a3,2(a5)
    1210:	ee81                	bnez	a3,1228 <plug_holes+0x56>
    1212:	84018693          	addi	a3,gp,-1984 # 20000370 <lfree>
    1216:	428c                	lw	a1,0(a3)
    1218:	00a59363          	bne	a1,a0,121e <plug_holes+0x4c>
    121c:	c29c                	sw	a5,0(a3)
    121e:	4154                	lw	a3,4(a0)
    1220:	c3d4                	sw	a3,4(a5)
    1222:	415c                	lw	a5,4(a0)
    1224:	973e                	add	a4,a4,a5
    1226:	c710                	sw	a2,8(a4)
    1228:	8082                	ret

0000122a <list_mem>:
    122a:	978ff2ef          	jal	t0,3a2 <__riscv_save_0>
    122e:	8481a583          	lw	a1,-1976(gp) # 20000378 <mem_size_aligned>
    1232:	0000b537          	lui	a0,0xb
    1236:	b6450513          	addi	a0,a0,-1180 # ab64 <small_digits.2582+0x14>
    123a:	3555                	jal	10de <rt_kprintf>
    123c:	8541a583          	lw	a1,-1964(gp) # 20000384 <used_mem>
    1240:	0000b537          	lui	a0,0xb
    1244:	b7850513          	addi	a0,a0,-1160 # ab78 <small_digits.2582+0x28>
    1248:	3d59                	jal	10de <rt_kprintf>
    124a:	8441a583          	lw	a1,-1980(gp) # 20000374 <max_mem>
    124e:	0000b537          	lui	a0,0xb
    1252:	b8c50513          	addi	a0,a0,-1140 # ab8c <small_digits.2582+0x3c>
    1256:	3561                	jal	10de <rt_kprintf>
    1258:	96eff06f          	j	3c6 <__riscv_restore_0>

0000125c <rt_system_heap_init>:
    125c:	946ff2ef          	jal	t0,3a2 <__riscv_save_0>
    1260:	ffc5f713          	andi	a4,a1,-4
    1264:	46e1                	li	a3,24
    1266:	862e                	mv	a2,a1
    1268:	06e6f163          	bgeu	a3,a4,12ca <rt_system_heap_init+0x6e>
    126c:	00350793          	addi	a5,a0,3
    1270:	9bf1                	andi	a5,a5,-4
    1272:	fe870693          	addi	a3,a4,-24
    1276:	04f6ea63          	bltu	a3,a5,12ca <rt_system_heap_init+0x6e>
    127a:	8f1d                	sub	a4,a4,a5
    127c:	fe870613          	addi	a2,a4,-24
    1280:	84c1a423          	sw	a2,-1976(gp) # 20000378 <mem_size_aligned>
    1284:	6689                	lui	a3,0x2
    1286:	1751                	addi	a4,a4,-12
    1288:	83c18413          	addi	s0,gp,-1988 # 2000036c <heap_ptr>
    128c:	ea068693          	addi	a3,a3,-352 # 1ea0 <list_sem+0xa>
    1290:	c3d8                	sw	a4,4(a5)
    1292:	c394                	sw	a3,0(a5)
    1294:	0007a423          	sw	zero,8(a5) # ff0008 <__rt_init_end+0xfe3758>
    1298:	c01c                	sw	a5,0(s0)
    129a:	97ba                	add	a5,a5,a4
    129c:	82f1ac23          	sw	a5,-1992(gp) # 20000368 <heap_end>
    12a0:	66c9                	lui	a3,0x12
    12a2:	ea068693          	addi	a3,a3,-352 # 11ea0 <__rt_init_end+0x55f0>
    12a6:	0000b5b7          	lui	a1,0xb
    12aa:	c394                	sw	a3,0(a5)
    12ac:	c3d8                	sw	a4,4(a5)
    12ae:	c798                	sw	a4,8(a5)
    12b0:	4681                	li	a3,0
    12b2:	4605                	li	a2,1
    12b4:	c2458593          	addi	a1,a1,-988 # ac24 <__fsym_list_mem_name+0x58>
    12b8:	bf018513          	addi	a0,gp,-1040 # 20000720 <heap_sem>
    12bc:	e7cff0ef          	jal	ra,938 <rt_sem_init>
    12c0:	4018                	lw	a4,0(s0)
    12c2:	84e1a023          	sw	a4,-1984(gp) # 20000370 <lfree>
    12c6:	900ff06f          	j	3c6 <__riscv_restore_0>
    12ca:	85aa                	mv	a1,a0
    12cc:	0000b537          	lui	a0,0xb
    12d0:	c2c50513          	addi	a0,a0,-980 # ac2c <__fsym_list_mem_name+0x60>
    12d4:	3529                	jal	10de <rt_kprintf>
    12d6:	bfc5                	j	12c6 <rt_system_heap_init+0x6a>

000012d8 <rt_malloc>:
    12d8:	8caff2ef          	jal	t0,3a2 <__riscv_save_0>
    12dc:	c539                	beqz	a0,132a <rt_malloc+0x52>
    12de:	8481a703          	lw	a4,-1976(gp) # 20000378 <mem_size_aligned>
    12e2:	00350413          	addi	s0,a0,3
    12e6:	9871                	andi	s0,s0,-4
    12e8:	84818913          	addi	s2,gp,-1976 # 20000378 <mem_size_aligned>
    12ec:	4481                	li	s1,0
    12ee:	0e876663          	bltu	a4,s0,13da <rt_malloc+0x102>
    12f2:	47b1                	li	a5,12
    12f4:	00f47363          	bgeu	s0,a5,12fa <rt_malloc+0x22>
    12f8:	4431                	li	s0,12
    12fa:	55fd                	li	a1,-1
    12fc:	bf018513          	addi	a0,gp,-1040 # 20000720 <heap_sem>
    1300:	e60ff0ef          	jal	ra,960 <rt_sem_take>
    1304:	8401a783          	lw	a5,-1984(gp) # 20000370 <lfree>
    1308:	83c1a583          	lw	a1,-1988(gp) # 2000036c <heap_ptr>
    130c:	00092883          	lw	a7,0(s2)
    1310:	8526                	mv	a0,s1
    1312:	40b78633          	sub	a2,a5,a1
    1316:	408886b3          	sub	a3,a7,s0
    131a:	84018813          	addi	a6,gp,-1984 # 20000370 <lfree>
    131e:	00d66863          	bltu	a2,a3,132e <rt_malloc+0x56>
    1322:	bf018513          	addi	a0,gp,-1040 # 20000720 <heap_sem>
    1326:	ebaff0ef          	jal	ra,9e0 <rt_sem_release>
    132a:	4481                	li	s1,0
    132c:	a07d                	j	13da <rt_malloc+0x102>
    132e:	00c584b3          	add	s1,a1,a2
    1332:	20ba                	lhu	a4,2(s1)
    1334:	0044ae03          	lw	t3,4(s1)
    1338:	e761                	bnez	a4,1400 <rt_malloc+0x128>
    133a:	40ce0733          	sub	a4,t3,a2
    133e:	ff470f93          	addi	t6,a4,-12
    1342:	0a8fef63          	bltu	t6,s0,1400 <rt_malloc+0x128>
    1346:	85418f13          	addi	t5,gp,-1964 # 20000384 <used_mem>
    134a:	84418e93          	addi	t4,gp,-1980 # 20000374 <max_mem>
    134e:	01840313          	addi	t1,s0,24
    1352:	000f2683          	lw	a3,0(t5)
    1356:	000ea383          	lw	t2,0(t4)
    135a:	85418913          	addi	s2,gp,-1964 # 20000384 <used_mem>
    135e:	84418293          	addi	t0,gp,-1980 # 20000374 <max_mem>
    1362:	066fef63          	bltu	t6,t1,13e0 <rt_malloc+0x108>
    1366:	00c40713          	addi	a4,s0,12
    136a:	9732                	add	a4,a4,a2
    136c:	6e89                	lui	t4,0x2
    136e:	00e58333          	add	t1,a1,a4
    1372:	ea0e8e93          	addi	t4,t4,-352 # 1ea0 <list_sem+0xa>
    1376:	01c32223          	sw	t3,4(t1)
    137a:	00c32423          	sw	a2,8(t1)
    137e:	01d32023          	sw	t4,0(t1)
    1382:	4605                	li	a2,1
    1384:	c0d8                	sw	a4,4(s1)
    1386:	a0b2                	sh	a2,2(s1)
    1388:	00432603          	lw	a2,4(t1)
    138c:	08b1                	addi	a7,a7,12
    138e:	01160463          	beq	a2,a7,1396 <rt_malloc+0xbe>
    1392:	962e                	add	a2,a2,a1
    1394:	c618                	sw	a4,8(a2)
    1396:	00c68713          	addi	a4,a3,12
    139a:	9722                	add	a4,a4,s0
    139c:	00e92023          	sw	a4,0(s2)
    13a0:	00e3f463          	bgeu	t2,a4,13a8 <rt_malloc+0xd0>
    13a4:	00e2a023          	sw	a4,0(t0) # 460 <memset+0x8e>
    13a8:	6709                	lui	a4,0x2
    13aa:	ea070713          	addi	a4,a4,-352 # 1ea0 <list_sem+0xa>
    13ae:	a09a                	sh	a4,0(s1)
    13b0:	00979a63          	bne	a5,s1,13c4 <rt_malloc+0xec>
    13b4:	8381a683          	lw	a3,-1992(gp) # 20000368 <heap_end>
    13b8:	4701                	li	a4,0
    13ba:	23b2                	lhu	a2,2(a5)
    13bc:	ee05                	bnez	a2,13f4 <rt_malloc+0x11c>
    13be:	c319                	beqz	a4,13c4 <rt_malloc+0xec>
    13c0:	00f82023          	sw	a5,0(a6)
    13c4:	bf018513          	addi	a0,gp,-1040 # 20000720 <heap_sem>
    13c8:	e18ff0ef          	jal	ra,9e0 <rt_sem_release>
    13cc:	8501a783          	lw	a5,-1968(gp) # 20000380 <rt_malloc_hook>
    13d0:	04b1                	addi	s1,s1,12
    13d2:	c781                	beqz	a5,13da <rt_malloc+0x102>
    13d4:	85a2                	mv	a1,s0
    13d6:	8526                	mv	a0,s1
    13d8:	9782                	jalr	a5
    13da:	8526                	mv	a0,s1
    13dc:	febfe06f          	j	3c6 <__riscv_restore_0>
    13e0:	4605                	li	a2,1
    13e2:	9736                	add	a4,a4,a3
    13e4:	a0b2                	sh	a2,2(s1)
    13e6:	00ef2023          	sw	a4,0(t5)
    13ea:	fae3ffe3          	bgeu	t2,a4,13a8 <rt_malloc+0xd0>
    13ee:	00eea023          	sw	a4,0(t4)
    13f2:	bf5d                	j	13a8 <rt_malloc+0xd0>
    13f4:	fcd785e3          	beq	a5,a3,13be <rt_malloc+0xe6>
    13f8:	43dc                	lw	a5,4(a5)
    13fa:	4705                	li	a4,1
    13fc:	97ae                	add	a5,a5,a1
    13fe:	bf75                	j	13ba <rt_malloc+0xe2>
    1400:	8672                	mv	a2,t3
    1402:	bf31                	j	131e <rt_malloc+0x46>

00001404 <rt_calloc>:
    1404:	f9ffe2ef          	jal	t0,3a2 <__riscv_save_0>
    1408:	02b50633          	mul	a2,a0,a1
    140c:	1141                	addi	sp,sp,-16
    140e:	8532                	mv	a0,a2
    1410:	c632                	sw	a2,12(sp)
    1412:	35d9                	jal	12d8 <rt_malloc>
    1414:	842a                	mv	s0,a0
    1416:	c509                	beqz	a0,1420 <rt_calloc+0x1c>
    1418:	4632                	lw	a2,12(sp)
    141a:	4581                	li	a1,0
    141c:	803ff0ef          	jal	ra,c1e <rt_memset>
    1420:	8522                	mv	a0,s0
    1422:	0141                	addi	sp,sp,16
    1424:	fa3fe06f          	j	3c6 <__riscv_restore_0>

00001428 <rt_free>:
    1428:	c545                	beqz	a0,14d0 <rt_free+0xa8>
    142a:	f5ffe2ef          	jal	t0,388 <__riscv_save_4>
    142e:	84c1a783          	lw	a5,-1972(gp) # 2000037c <rt_free_hook>
    1432:	842a                	mv	s0,a0
    1434:	c391                	beqz	a5,1438 <rt_free+0x10>
    1436:	9782                	jalr	a5
    1438:	83c1a783          	lw	a5,-1988(gp) # 2000036c <heap_ptr>
    143c:	83c18913          	addi	s2,gp,-1988 # 2000036c <heap_ptr>
    1440:	08f46663          	bltu	s0,a5,14cc <rt_free+0xa4>
    1444:	8381a783          	lw	a5,-1992(gp) # 20000368 <heap_end>
    1448:	08f47263          	bgeu	s0,a5,14cc <rt_free+0xa4>
    144c:	55fd                	li	a1,-1
    144e:	bf018513          	addi	a0,gp,-1040 # 20000720 <heap_sem>
    1452:	d0eff0ef          	jal	ra,960 <rt_sem_take>
    1456:	ff645783          	lhu	a5,-10(s0)
    145a:	ff440993          	addi	s3,s0,-12
    145e:	cb81                	beqz	a5,146e <rt_free+0x46>
    1460:	ff445703          	lhu	a4,-12(s0)
    1464:	6789                	lui	a5,0x2
    1466:	ea078793          	addi	a5,a5,-352 # 1ea0 <list_sem+0xa>
    146a:	02f70163          	beq	a4,a5,148c <rt_free+0x64>
    146e:	0000b537          	lui	a0,0xb
    1472:	bd850513          	addi	a0,a0,-1064 # abd8 <__fsym_list_mem_name+0xc>
    1476:	31a5                	jal	10de <rt_kprintf>
    1478:	ff445683          	lhu	a3,-12(s0)
    147c:	ff645603          	lhu	a2,-10(s0)
    1480:	0000b537          	lui	a0,0xb
    1484:	85ce                	mv	a1,s3
    1486:	bf450513          	addi	a0,a0,-1036 # abf4 <__fsym_list_mem_name+0x28>
    148a:	3991                	jal	10de <rt_kprintf>
    148c:	6789                	lui	a5,0x2
    148e:	ea078793          	addi	a5,a5,-352 # 1ea0 <list_sem+0xa>
    1492:	fef41a23          	sh	a5,-12(s0)
    1496:	84018793          	addi	a5,gp,-1984 # 20000370 <lfree>
    149a:	4398                	lw	a4,0(a5)
    149c:	fe041b23          	sh	zero,-10(s0)
    14a0:	00e9f463          	bgeu	s3,a4,14a8 <rt_free+0x80>
    14a4:	0137a023          	sw	s3,0(a5)
    14a8:	85418713          	addi	a4,gp,-1964 # 20000384 <used_mem>
    14ac:	431c                	lw	a5,0(a4)
    14ae:	ff842683          	lw	a3,-8(s0)
    14b2:	854e                	mv	a0,s3
    14b4:	8f95                	sub	a5,a5,a3
    14b6:	00092683          	lw	a3,0(s2)
    14ba:	40d986b3          	sub	a3,s3,a3
    14be:	97b6                	add	a5,a5,a3
    14c0:	c31c                	sw	a5,0(a4)
    14c2:	3b01                	jal	11d2 <plug_holes>
    14c4:	bf018513          	addi	a0,gp,-1040 # 20000720 <heap_sem>
    14c8:	d18ff0ef          	jal	ra,9e0 <rt_sem_release>
    14cc:	ef1fe06f          	j	3bc <__riscv_restore_4>
    14d0:	8082                	ret

000014d2 <rt_object_get_information>:
    14d2:	200007b7          	lui	a5,0x20000
    14d6:	00078693          	mv	a3,a5
    14da:	4701                	li	a4,0
    14dc:	00078793          	mv	a5,a5
    14e0:	4621                	li	a2,8
    14e2:	428c                	lw	a1,0(a3)
    14e4:	00a59663          	bne	a1,a0,14f0 <rt_object_get_information+0x1e>
    14e8:	00471513          	slli	a0,a4,0x4
    14ec:	953e                	add	a0,a0,a5
    14ee:	8082                	ret
    14f0:	0705                	addi	a4,a4,1
    14f2:	06c1                	addi	a3,a3,16
    14f4:	fec717e3          	bne	a4,a2,14e2 <rt_object_get_information+0x10>
    14f8:	4501                	li	a0,0
    14fa:	8082                	ret

000014fc <rt_object_init>:
    14fc:	e8dfe2ef          	jal	t0,388 <__riscv_save_4>
    1500:	842a                	mv	s0,a0
    1502:	852e                	mv	a0,a1
    1504:	89ae                	mv	s3,a1
    1506:	8a32                	mv	s4,a2
    1508:	37e9                	jal	14d2 <rt_object_get_information>
    150a:	892a                	mv	s2,a0
    150c:	2ca9                	jal	1766 <rt_enter_critical>
    150e:	00492483          	lw	s1,4(s2)
    1512:	00490793          	addi	a5,s2,4
    1516:	04f49063          	bne	s1,a5,1556 <rt_object_init+0x5a>
    151a:	248d                	jal	177c <rt_exit_critical>
    151c:	f809e993          	ori	s3,s3,-128
    1520:	01340423          	sb	s3,8(s0)
    1524:	4621                	li	a2,8
    1526:	85d2                	mv	a1,s4
    1528:	8522                	mv	a0,s0
    152a:	fc4ff0ef          	jal	ra,cee <rt_strncpy>
    152e:	8581a783          	lw	a5,-1960(gp) # 20000388 <rt_object_attach_hook>
    1532:	c399                	beqz	a5,1538 <rt_object_init+0x3c>
    1534:	8522                	mv	a0,s0
    1536:	9782                	jalr	a5
    1538:	77a000ef          	jal	ra,1cb2 <rt_hw_interrupt_disable>
    153c:	00492703          	lw	a4,4(s2)
    1540:	00c40793          	addi	a5,s0,12
    1544:	c35c                	sw	a5,4(a4)
    1546:	c458                	sw	a4,12(s0)
    1548:	00f92223          	sw	a5,4(s2)
    154c:	c804                	sw	s1,16(s0)
    154e:	770000ef          	jal	ra,1cbe <rt_hw_interrupt_enable>
    1552:	e6bfe06f          	j	3bc <__riscv_restore_4>
    1556:	4084                	lw	s1,0(s1)
    1558:	bf7d                	j	1516 <rt_object_init+0x1a>

0000155a <rt_object_detach>:
    155a:	e49fe2ef          	jal	t0,3a2 <__riscv_save_0>
    155e:	85c1a783          	lw	a5,-1956(gp) # 2000038c <rt_object_detach_hook>
    1562:	842a                	mv	s0,a0
    1564:	c391                	beqz	a5,1568 <rt_object_detach+0xe>
    1566:	9782                	jalr	a5
    1568:	00040423          	sb	zero,8(s0)
    156c:	746000ef          	jal	ra,1cb2 <rt_hw_interrupt_disable>
    1570:	4454                	lw	a3,12(s0)
    1572:	4818                	lw	a4,16(s0)
    1574:	00c40793          	addi	a5,s0,12
    1578:	c2d8                	sw	a4,4(a3)
    157a:	c314                	sw	a3,0(a4)
    157c:	c81c                	sw	a5,16(s0)
    157e:	c45c                	sw	a5,12(s0)
    1580:	73e000ef          	jal	ra,1cbe <rt_hw_interrupt_enable>
    1584:	e43fe06f          	j	3c6 <__riscv_restore_0>

00001588 <rt_object_allocate>:
    1588:	e01fe2ef          	jal	t0,388 <__riscv_save_4>
    158c:	892e                	mv	s2,a1
    158e:	89aa                	mv	s3,a0
    1590:	3789                	jal	14d2 <rt_object_get_information>
    1592:	84aa                	mv	s1,a0
    1594:	4548                	lw	a0,12(a0)
    1596:	3389                	jal	12d8 <rt_malloc>
    1598:	842a                	mv	s0,a0
    159a:	cd1d                	beqz	a0,15d8 <rt_object_allocate+0x50>
    159c:	44d0                	lw	a2,12(s1)
    159e:	4581                	li	a1,0
    15a0:	e7eff0ef          	jal	ra,c1e <rt_memset>
    15a4:	4621                	li	a2,8
    15a6:	01340423          	sb	s3,8(s0)
    15aa:	000404a3          	sb	zero,9(s0)
    15ae:	85ca                	mv	a1,s2
    15b0:	8522                	mv	a0,s0
    15b2:	f3cff0ef          	jal	ra,cee <rt_strncpy>
    15b6:	8581a783          	lw	a5,-1960(gp) # 20000388 <rt_object_attach_hook>
    15ba:	c399                	beqz	a5,15c0 <rt_object_allocate+0x38>
    15bc:	8522                	mv	a0,s0
    15be:	9782                	jalr	a5
    15c0:	6f2000ef          	jal	ra,1cb2 <rt_hw_interrupt_disable>
    15c4:	40d8                	lw	a4,4(s1)
    15c6:	00c40793          	addi	a5,s0,12
    15ca:	0491                	addi	s1,s1,4
    15cc:	c35c                	sw	a5,4(a4)
    15ce:	c458                	sw	a4,12(s0)
    15d0:	c09c                	sw	a5,0(s1)
    15d2:	c804                	sw	s1,16(s0)
    15d4:	6ea000ef          	jal	ra,1cbe <rt_hw_interrupt_enable>
    15d8:	8522                	mv	a0,s0
    15da:	de3fe06f          	j	3bc <__riscv_restore_4>

000015de <rt_object_delete>:
    15de:	dc5fe2ef          	jal	t0,3a2 <__riscv_save_0>
    15e2:	85c1a783          	lw	a5,-1956(gp) # 2000038c <rt_object_detach_hook>
    15e6:	842a                	mv	s0,a0
    15e8:	c391                	beqz	a5,15ec <rt_object_delete+0xe>
    15ea:	9782                	jalr	a5
    15ec:	00040423          	sb	zero,8(s0)
    15f0:	6c2000ef          	jal	ra,1cb2 <rt_hw_interrupt_disable>
    15f4:	4454                	lw	a3,12(s0)
    15f6:	4818                	lw	a4,16(s0)
    15f8:	00c40793          	addi	a5,s0,12
    15fc:	c2d8                	sw	a4,4(a3)
    15fe:	c314                	sw	a3,0(a4)
    1600:	c81c                	sw	a5,16(s0)
    1602:	c45c                	sw	a5,12(s0)
    1604:	6ba000ef          	jal	ra,1cbe <rt_hw_interrupt_enable>
    1608:	8522                	mv	a0,s0
    160a:	3d39                	jal	1428 <rt_free>
    160c:	dbbfe06f          	j	3c6 <__riscv_restore_0>

00001610 <rt_object_is_systemobject>:
    1610:	00850503          	lb	a0,8(a0)
    1614:	817d                	srli	a0,a0,0x1f
    1616:	8082                	ret

00001618 <rt_system_scheduler_init>:
    1618:	86019c23          	sh	zero,-1928(gp) # 200003a8 <rt_scheduler_lock_nest>
    161c:	c1018793          	addi	a5,gp,-1008 # 20000740 <rt_thread_priority_table>
    1620:	08078713          	addi	a4,a5,128 # 20000080 <pin_irq_hdr_tab>
    1624:	c3dc                	sw	a5,4(a5)
    1626:	c39c                	sw	a5,0(a5)
    1628:	07a1                	addi	a5,a5,8
    162a:	fee79de3          	bne	a5,a4,1624 <rt_system_scheduler_init+0xc>
    162e:	473d                	li	a4,15
    1630:	86e18623          	sb	a4,-1940(gp) # 2000039c <rt_current_priority>
    1634:	8601a823          	sw	zero,-1936(gp) # 200003a0 <rt_current_thread>
    1638:	8801a223          	sw	zero,-1916(gp) # 200003b4 <rt_thread_ready_priority_group>
    163c:	87c18793          	addi	a5,gp,-1924 # 200003ac <rt_thread_defunct>
    1640:	c3dc                	sw	a5,4(a5)
    1642:	c39c                	sw	a5,0(a5)
    1644:	8082                	ret

00001646 <rt_system_scheduler_start>:
    1646:	d5dfe2ef          	jal	t0,3a2 <__riscv_save_0>
    164a:	8841a503          	lw	a0,-1916(gp) # 200003b4 <rt_thread_ready_priority_group>
    164e:	b37ff0ef          	jal	ra,1184 <__rt_ffs>
    1652:	157d                	addi	a0,a0,-1
    1654:	00351793          	slli	a5,a0,0x3
    1658:	c1018513          	addi	a0,gp,-1008 # 20000740 <rt_thread_priority_table>
    165c:	953e                	add	a0,a0,a5
    165e:	4108                	lw	a0,0(a0)
    1660:	fec50713          	addi	a4,a0,-20
    1664:	0521                	addi	a0,a0,8
    1666:	86e1a823          	sw	a4,-1936(gp) # 200003a0 <rt_current_thread>
    166a:	b57fe0ef          	jal	ra,1c0 <rt_hw_context_switch_to>
    166e:	d59fe06f          	j	3c6 <__riscv_restore_0>

00001672 <rt_schedule>:
    1672:	d31fe2ef          	jal	t0,3a2 <__riscv_save_0>
    1676:	63c000ef          	jal	ra,1cb2 <rt_hw_interrupt_disable>
    167a:	87819783          	lh	a5,-1928(gp) # 200003a8 <rt_scheduler_lock_nest>
    167e:	892a                	mv	s2,a0
    1680:	e7b1                	bnez	a5,16cc <rt_schedule+0x5a>
    1682:	8841a503          	lw	a0,-1916(gp) # 200003b4 <rt_thread_ready_priority_group>
    1686:	affff0ef          	jal	ra,1184 <__rt_ffs>
    168a:	157d                	addi	a0,a0,-1
    168c:	00351713          	slli	a4,a0,0x3
    1690:	c1018793          	addi	a5,gp,-1008 # 20000740 <rt_thread_priority_table>
    1694:	97ba                	add	a5,a5,a4
    1696:	4384                	lw	s1,0(a5)
    1698:	87018793          	addi	a5,gp,-1936 # 200003a0 <rt_current_thread>
    169c:	4380                	lw	s0,0(a5)
    169e:	fec48593          	addi	a1,s1,-20
    16a2:	02b40563          	beq	s0,a1,16cc <rt_schedule+0x5a>
    16a6:	c38c                	sw	a1,0(a5)
    16a8:	8741a783          	lw	a5,-1932(gp) # 200003a4 <rt_scheduler_hook>
    16ac:	86a18623          	sb	a0,-1940(gp) # 2000039c <rt_current_priority>
    16b0:	c399                	beqz	a5,16b6 <rt_schedule+0x44>
    16b2:	8522                	mv	a0,s0
    16b4:	9782                	jalr	a5
    16b6:	82c1c783          	lbu	a5,-2004(gp) # 2000035c <rt_interrupt_nest>
    16ba:	01c40513          	addi	a0,s0,28
    16be:	00848593          	addi	a1,s1,8
    16c2:	0ff7f793          	andi	a5,a5,255
    16c6:	eb81                	bnez	a5,16d6 <rt_schedule+0x64>
    16c8:	b15fe0ef          	jal	ra,1dc <rt_hw_context_switch>
    16cc:	854a                	mv	a0,s2
    16ce:	5f0000ef          	jal	ra,1cbe <rt_hw_interrupt_enable>
    16d2:	cf5fe06f          	j	3c6 <__riscv_restore_0>
    16d6:	5ee000ef          	jal	ra,1cc4 <rt_hw_context_switch_interrupt>
    16da:	bfcd                	j	16cc <rt_schedule+0x5a>

000016dc <rt_schedule_insert_thread>:
    16dc:	cc7fe2ef          	jal	t0,3a2 <__riscv_save_0>
    16e0:	842a                	mv	s0,a0
    16e2:	5d0000ef          	jal	ra,1cb2 <rt_hw_interrupt_disable>
    16e6:	03444783          	lbu	a5,52(s0)
    16ea:	01440693          	addi	a3,s0,20
    16ee:	9bc1                	andi	a5,a5,-16
    16f0:	0017e793          	ori	a5,a5,1
    16f4:	02f40a23          	sb	a5,52(s0)
    16f8:	03544783          	lbu	a5,53(s0)
    16fc:	00379713          	slli	a4,a5,0x3
    1700:	c1018793          	addi	a5,gp,-1008 # 20000740 <rt_thread_priority_table>
    1704:	97ba                	add	a5,a5,a4
    1706:	43d8                	lw	a4,4(a5)
    1708:	c314                	sw	a3,0(a4)
    170a:	cc18                	sw	a4,24(s0)
    170c:	c3d4                	sw	a3,4(a5)
    170e:	c85c                	sw	a5,20(s0)
    1710:	88418793          	addi	a5,gp,-1916 # 200003b4 <rt_thread_ready_priority_group>
    1714:	4394                	lw	a3,0(a5)
    1716:	5c18                	lw	a4,56(s0)
    1718:	8f55                	or	a4,a4,a3
    171a:	c398                	sw	a4,0(a5)
    171c:	5a2000ef          	jal	ra,1cbe <rt_hw_interrupt_enable>
    1720:	ca7fe06f          	j	3c6 <__riscv_restore_0>

00001724 <rt_schedule_remove_thread>:
    1724:	c7ffe2ef          	jal	t0,3a2 <__riscv_save_0>
    1728:	842a                	mv	s0,a0
    172a:	2361                	jal	1cb2 <rt_hw_interrupt_disable>
    172c:	4c18                	lw	a4,24(s0)
    172e:	4854                	lw	a3,20(s0)
    1730:	01440793          	addi	a5,s0,20
    1734:	c2d8                	sw	a4,4(a3)
    1736:	c314                	sw	a3,0(a4)
    1738:	c85c                	sw	a5,20(s0)
    173a:	cc1c                	sw	a5,24(s0)
    173c:	03544783          	lbu	a5,53(s0)
    1740:	00379713          	slli	a4,a5,0x3
    1744:	c1018793          	addi	a5,gp,-1008 # 20000740 <rt_thread_priority_table>
    1748:	97ba                	add	a5,a5,a4
    174a:	4398                	lw	a4,0(a5)
    174c:	00f71a63          	bne	a4,a5,1760 <rt_schedule_remove_thread+0x3c>
    1750:	88418713          	addi	a4,gp,-1916 # 200003b4 <rt_thread_ready_priority_group>
    1754:	5c1c                	lw	a5,56(s0)
    1756:	4314                	lw	a3,0(a4)
    1758:	fff7c793          	not	a5,a5
    175c:	8ff5                	and	a5,a5,a3
    175e:	c31c                	sw	a5,0(a4)
    1760:	2bb9                	jal	1cbe <rt_hw_interrupt_enable>
    1762:	c65fe06f          	j	3c6 <__riscv_restore_0>

00001766 <rt_enter_critical>:
    1766:	c3dfe2ef          	jal	t0,3a2 <__riscv_save_0>
    176a:	23a1                	jal	1cb2 <rt_hw_interrupt_disable>
    176c:	87818793          	addi	a5,gp,-1928 # 200003a8 <rt_scheduler_lock_nest>
    1770:	239a                	lhu	a4,0(a5)
    1772:	0705                	addi	a4,a4,1
    1774:	a39a                	sh	a4,0(a5)
    1776:	23a1                	jal	1cbe <rt_hw_interrupt_enable>
    1778:	c4ffe06f          	j	3c6 <__riscv_restore_0>

0000177c <rt_exit_critical>:
    177c:	c27fe2ef          	jal	t0,3a2 <__riscv_save_0>
    1780:	2b0d                	jal	1cb2 <rt_hw_interrupt_disable>
    1782:	87818713          	addi	a4,gp,-1928 # 200003a8 <rt_scheduler_lock_nest>
    1786:	231e                	lhu	a5,0(a4)
    1788:	17fd                	addi	a5,a5,-1
    178a:	07c2                	slli	a5,a5,0x10
    178c:	87c1                	srai	a5,a5,0x10
    178e:	a31e                	sh	a5,0(a4)
    1790:	00f04b63          	bgtz	a5,17a6 <rt_exit_critical+0x2a>
    1794:	00071023          	sh	zero,0(a4)
    1798:	231d                	jal	1cbe <rt_hw_interrupt_enable>
    179a:	8701a783          	lw	a5,-1936(gp) # 200003a0 <rt_current_thread>
    179e:	c391                	beqz	a5,17a2 <rt_exit_critical+0x26>
    17a0:	3dc9                	jal	1672 <rt_schedule>
    17a2:	c25fe06f          	j	3c6 <__riscv_restore_0>
    17a6:	2b21                	jal	1cbe <rt_hw_interrupt_enable>
    17a8:	bfed                	j	17a2 <rt_exit_critical+0x26>

000017aa <rt_thread_exit>:
    17aa:	bf9fe2ef          	jal	t0,3a2 <__riscv_save_0>
    17ae:	8701a403          	lw	s0,-1936(gp) # 200003a0 <rt_current_thread>
    17b2:	2301                	jal	1cb2 <rt_hw_interrupt_disable>
    17b4:	84aa                	mv	s1,a0
    17b6:	8522                	mv	a0,s0
    17b8:	37b5                	jal	1724 <rt_schedule_remove_thread>
    17ba:	4791                	li	a5,4
    17bc:	02f40a23          	sb	a5,52(s0)
    17c0:	04c40513          	addi	a0,s0,76
    17c4:	2e01                	jal	1ad4 <rt_timer_detach>
    17c6:	8522                	mv	a0,s0
    17c8:	35a1                	jal	1610 <rt_object_is_systemobject>
    17ca:	4785                	li	a5,1
    17cc:	00f51b63          	bne	a0,a5,17e2 <rt_thread_exit+0x38>
    17d0:	5c3c                	lw	a5,120(s0)
    17d2:	eb81                	bnez	a5,17e2 <rt_thread_exit+0x38>
    17d4:	8522                	mv	a0,s0
    17d6:	3351                	jal	155a <rt_object_detach>
    17d8:	8526                	mv	a0,s1
    17da:	21d5                	jal	1cbe <rt_hw_interrupt_enable>
    17dc:	3d59                	jal	1672 <rt_schedule>
    17de:	be9fe06f          	j	3c6 <__riscv_restore_0>
    17e2:	87c1a683          	lw	a3,-1924(gp) # 200003ac <rt_thread_defunct>
    17e6:	01440713          	addi	a4,s0,20
    17ea:	86e1ae23          	sw	a4,-1924(gp) # 200003ac <rt_thread_defunct>
    17ee:	c2d8                	sw	a4,4(a3)
    17f0:	87c18793          	addi	a5,gp,-1924 # 200003ac <rt_thread_defunct>
    17f4:	c854                	sw	a3,20(s0)
    17f6:	cc1c                	sw	a5,24(s0)
    17f8:	b7c5                	j	17d8 <rt_thread_exit+0x2e>

000017fa <_rt_thread_init.isra.0>:
    17fa:	ba9fe2ef          	jal	t0,3a2 <__riscv_save_0>
    17fe:	842a                	mv	s0,a0
    1800:	0551                	addi	a0,a0,20
    1802:	1141                	addi	sp,sp,-16
    1804:	cc08                	sw	a0,24(s0)
    1806:	c848                	sw	a0,20(s0)
    1808:	d00c                	sw	a1,32(s0)
    180a:	d050                	sw	a2,36(s0)
    180c:	d414                	sw	a3,40(s0)
    180e:	863a                	mv	a2,a4
    1810:	d458                	sw	a4,44(s0)
    1812:	02300593          	li	a1,35
    1816:	8536                	mv	a0,a3
    1818:	c63e                	sw	a5,12(sp)
    181a:	c442                	sw	a6,8(sp)
    181c:	c02ff0ef          	jal	ra,c1e <rt_memset>
    1820:	5458                	lw	a4,44(s0)
    1822:	5410                	lw	a2,40(s0)
    1824:	504c                	lw	a1,36(s0)
    1826:	5008                	lw	a0,32(s0)
    1828:	1771                	addi	a4,a4,-4
    182a:	000016b7          	lui	a3,0x1
    182e:	963a                	add	a2,a2,a4
    1830:	7aa68693          	addi	a3,a3,1962 # 17aa <rt_thread_exit>
    1834:	212d                	jal	1c5e <rt_hw_stack_init>
    1836:	47b2                	lw	a5,12(sp)
    1838:	4822                	lw	a6,8(sp)
    183a:	00002637          	lui	a2,0x2
    183e:	cc48                	sw	a0,28(s0)
    1840:	02f40b23          	sb	a5,54(s0)
    1844:	02f40aa3          	sb	a5,53(s0)
    1848:	02042c23          	sw	zero,56(s0)
    184c:	4781                	li	a5,0
    184e:	05042223          	sw	a6,68(s0)
    1852:	05042423          	sw	a6,72(s0)
    1856:	02042823          	sw	zero,48(s0)
    185a:	02040a23          	sb	zero,52(s0)
    185e:	06042c23          	sw	zero,120(s0)
    1862:	06042e23          	sw	zero,124(s0)
    1866:	4701                	li	a4,0
    1868:	86a2                	mv	a3,s0
    186a:	88860613          	addi	a2,a2,-1912 # 1888 <rt_thread_timeout>
    186e:	85a2                	mv	a1,s0
    1870:	04c40513          	addi	a0,s0,76
    1874:	241d                	jal	1a9a <rt_timer_init>
    1876:	8881a783          	lw	a5,-1912(gp) # 200003b8 <rt_thread_inited_hook>
    187a:	c399                	beqz	a5,1880 <_rt_thread_init.isra.0+0x86>
    187c:	8522                	mv	a0,s0
    187e:	9782                	jalr	a5
    1880:	4501                	li	a0,0
    1882:	0141                	addi	sp,sp,16
    1884:	b43fe06f          	j	3c6 <__riscv_restore_0>

00001888 <rt_thread_timeout>:
    1888:	b1bfe2ef          	jal	t0,3a2 <__riscv_save_0>
    188c:	4950                	lw	a2,20(a0)
    188e:	4d14                	lw	a3,24(a0)
    1890:	5779                	li	a4,-2
    1892:	d918                	sw	a4,48(a0)
    1894:	c254                	sw	a3,4(a2)
    1896:	01450713          	addi	a4,a0,20
    189a:	c290                	sw	a2,0(a3)
    189c:	cd18                	sw	a4,24(a0)
    189e:	c958                	sw	a4,20(a0)
    18a0:	3d35                	jal	16dc <rt_schedule_insert_thread>
    18a2:	3bc1                	jal	1672 <rt_schedule>
    18a4:	b23fe06f          	j	3c6 <__riscv_restore_0>

000018a8 <rt_thread_init>:
    18a8:	afbfe2ef          	jal	t0,3a2 <__riscv_save_0>
    18ac:	1141                	addi	sp,sp,-16
    18ae:	84b2                	mv	s1,a2
    18b0:	862e                	mv	a2,a1
    18b2:	4585                	li	a1,1
    18b4:	842a                	mv	s0,a0
    18b6:	8936                	mv	s2,a3
    18b8:	c046                	sw	a7,0(sp)
    18ba:	c63a                	sw	a4,12(sp)
    18bc:	c43e                	sw	a5,8(sp)
    18be:	c242                	sw	a6,4(sp)
    18c0:	c3dff0ef          	jal	ra,14fc <rt_object_init>
    18c4:	4802                	lw	a6,0(sp)
    18c6:	4792                	lw	a5,4(sp)
    18c8:	4722                	lw	a4,8(sp)
    18ca:	46b2                	lw	a3,12(sp)
    18cc:	864a                	mv	a2,s2
    18ce:	85a6                	mv	a1,s1
    18d0:	8522                	mv	a0,s0
    18d2:	3725                	jal	17fa <_rt_thread_init.isra.0>
    18d4:	0141                	addi	sp,sp,16
    18d6:	af1fe06f          	j	3c6 <__riscv_restore_0>

000018da <rt_thread_self>:
    18da:	8701a503          	lw	a0,-1936(gp) # 200003a0 <rt_current_thread>
    18de:	8082                	ret

000018e0 <rt_thread_create>:
    18e0:	aa9fe2ef          	jal	t0,388 <__riscv_save_4>
    18e4:	1141                	addi	sp,sp,-16
    18e6:	892e                	mv	s2,a1
    18e8:	85aa                	mv	a1,a0
    18ea:	4505                	li	a0,1
    18ec:	c632                	sw	a2,12(sp)
    18ee:	84b6                	mv	s1,a3
    18f0:	89ba                	mv	s3,a4
    18f2:	8a3e                	mv	s4,a5
    18f4:	c95ff0ef          	jal	ra,1588 <rt_object_allocate>
    18f8:	842a                	mv	s0,a0
    18fa:	c911                	beqz	a0,190e <rt_thread_create+0x2e>
    18fc:	8526                	mv	a0,s1
    18fe:	9dbff0ef          	jal	ra,12d8 <rt_malloc>
    1902:	4632                	lw	a2,12(sp)
    1904:	e909                	bnez	a0,1916 <rt_thread_create+0x36>
    1906:	8522                	mv	a0,s0
    1908:	cd7ff0ef          	jal	ra,15de <rt_object_delete>
    190c:	4401                	li	s0,0
    190e:	8522                	mv	a0,s0
    1910:	0141                	addi	sp,sp,16
    1912:	aabfe06f          	j	3bc <__riscv_restore_4>
    1916:	86aa                	mv	a3,a0
    1918:	8852                	mv	a6,s4
    191a:	87ce                	mv	a5,s3
    191c:	8726                	mv	a4,s1
    191e:	85ca                	mv	a1,s2
    1920:	8522                	mv	a0,s0
    1922:	3de1                	jal	17fa <_rt_thread_init.isra.0>
    1924:	b7ed                	j	190e <rt_thread_create+0x2e>

00001926 <rt_thread_yield>:
    1926:	a7dfe2ef          	jal	t0,3a2 <__riscv_save_0>
    192a:	2661                	jal	1cb2 <rt_hw_interrupt_disable>
    192c:	8701a783          	lw	a5,-1936(gp) # 200003a0 <rt_current_thread>
    1930:	4605                	li	a2,1
    1932:	86aa                	mv	a3,a0
    1934:	0347c703          	lbu	a4,52(a5)
    1938:	8b3d                	andi	a4,a4,15
    193a:	02c71c63          	bne	a4,a2,1972 <rt_thread_yield+0x4c>
    193e:	4bd0                	lw	a2,20(a5)
    1940:	4f98                	lw	a4,24(a5)
    1942:	02e60863          	beq	a2,a4,1972 <rt_thread_yield+0x4c>
    1946:	c258                	sw	a4,4(a2)
    1948:	c310                	sw	a2,0(a4)
    194a:	0357c603          	lbu	a2,53(a5)
    194e:	01478693          	addi	a3,a5,20
    1952:	060e                	slli	a2,a2,0x3
    1954:	c1018713          	addi	a4,gp,-1008 # 20000740 <rt_thread_priority_table>
    1958:	cf94                	sw	a3,24(a5)
    195a:	9732                	add	a4,a4,a2
    195c:	4350                	lw	a2,4(a4)
    195e:	c214                	sw	a3,0(a2)
    1960:	cf90                	sw	a2,24(a5)
    1962:	c354                	sw	a3,4(a4)
    1964:	cbd8                	sw	a4,20(a5)
    1966:	2ea1                	jal	1cbe <rt_hw_interrupt_enable>
    1968:	d0bff0ef          	jal	ra,1672 <rt_schedule>
    196c:	4501                	li	a0,0
    196e:	a59fe06f          	j	3c6 <__riscv_restore_0>
    1972:	8536                	mv	a0,a3
    1974:	26a9                	jal	1cbe <rt_hw_interrupt_enable>
    1976:	bfdd                	j	196c <rt_thread_yield+0x46>

00001978 <rt_thread_suspend>:
    1978:	03454783          	lbu	a5,52(a0)
    197c:	4705                	li	a4,1
    197e:	8bbd                	andi	a5,a5,15
    1980:	02e79f63          	bne	a5,a4,19be <rt_thread_suspend+0x46>
    1984:	a1ffe2ef          	jal	t0,3a2 <__riscv_save_0>
    1988:	842a                	mv	s0,a0
    198a:	2625                	jal	1cb2 <rt_hw_interrupt_disable>
    198c:	03444783          	lbu	a5,52(s0)
    1990:	84aa                	mv	s1,a0
    1992:	8522                	mv	a0,s0
    1994:	9bc1                	andi	a5,a5,-16
    1996:	0027e793          	ori	a5,a5,2
    199a:	02f40a23          	sb	a5,52(s0)
    199e:	d87ff0ef          	jal	ra,1724 <rt_schedule_remove_thread>
    19a2:	04c40513          	addi	a0,s0,76
    19a6:	22f1                	jal	1b72 <rt_timer_stop>
    19a8:	8526                	mv	a0,s1
    19aa:	2e11                	jal	1cbe <rt_hw_interrupt_enable>
    19ac:	8901a783          	lw	a5,-1904(gp) # 200003c0 <rt_thread_suspend_hook>
    19b0:	4501                	li	a0,0
    19b2:	c781                	beqz	a5,19ba <rt_thread_suspend+0x42>
    19b4:	8522                	mv	a0,s0
    19b6:	9782                	jalr	a5
    19b8:	4501                	li	a0,0
    19ba:	a0dfe06f          	j	3c6 <__riscv_restore_0>
    19be:	557d                	li	a0,-1
    19c0:	8082                	ret

000019c2 <rt_thread_sleep>:
    19c2:	9e1fe2ef          	jal	t0,3a2 <__riscv_save_0>
    19c6:	1141                	addi	sp,sp,-16
    19c8:	c62a                	sw	a0,12(sp)
    19ca:	24e5                	jal	1cb2 <rt_hw_interrupt_disable>
    19cc:	8701a403          	lw	s0,-1936(gp) # 200003a0 <rt_current_thread>
    19d0:	892a                	mv	s2,a0
    19d2:	8522                	mv	a0,s0
    19d4:	3755                	jal	1978 <rt_thread_suspend>
    19d6:	04c40493          	addi	s1,s0,76
    19da:	0070                	addi	a2,sp,12
    19dc:	4581                	li	a1,0
    19de:	8526                	mv	a0,s1
    19e0:	22c9                	jal	1ba2 <rt_timer_control>
    19e2:	8526                	mv	a0,s1
    19e4:	2239                	jal	1af2 <rt_timer_start>
    19e6:	854a                	mv	a0,s2
    19e8:	2cd9                	jal	1cbe <rt_hw_interrupt_enable>
    19ea:	c89ff0ef          	jal	ra,1672 <rt_schedule>
    19ee:	5818                	lw	a4,48(s0)
    19f0:	57f9                	li	a5,-2
    19f2:	00f71463          	bne	a4,a5,19fa <rt_thread_sleep+0x38>
    19f6:	02042823          	sw	zero,48(s0)
    19fa:	4501                	li	a0,0
    19fc:	0141                	addi	sp,sp,16
    19fe:	9c9fe06f          	j	3c6 <__riscv_restore_0>

00001a02 <rt_thread_mdelay>:
    1a02:	9a1fe2ef          	jal	t0,3a2 <__riscv_save_0>
    1a06:	bbdfe0ef          	jal	ra,5c2 <rt_tick_from_millisecond>
    1a0a:	3f65                	jal	19c2 <rt_thread_sleep>
    1a0c:	9bbfe06f          	j	3c6 <__riscv_restore_0>

00001a10 <rt_thread_resume>:
    1a10:	03454783          	lbu	a5,52(a0)
    1a14:	4709                	li	a4,2
    1a16:	8bbd                	andi	a5,a5,15
    1a18:	04e79063          	bne	a5,a4,1a58 <rt_thread_resume+0x48>
    1a1c:	987fe2ef          	jal	t0,3a2 <__riscv_save_0>
    1a20:	842a                	mv	s0,a0
    1a22:	2c41                	jal	1cb2 <rt_hw_interrupt_disable>
    1a24:	4854                	lw	a3,20(s0)
    1a26:	4c18                	lw	a4,24(s0)
    1a28:	01440793          	addi	a5,s0,20
    1a2c:	84aa                	mv	s1,a0
    1a2e:	c2d8                	sw	a4,4(a3)
    1a30:	c314                	sw	a3,0(a4)
    1a32:	cc1c                	sw	a5,24(s0)
    1a34:	c85c                	sw	a5,20(s0)
    1a36:	04c40513          	addi	a0,s0,76
    1a3a:	2a25                	jal	1b72 <rt_timer_stop>
    1a3c:	8526                	mv	a0,s1
    1a3e:	2441                	jal	1cbe <rt_hw_interrupt_enable>
    1a40:	8522                	mv	a0,s0
    1a42:	c9bff0ef          	jal	ra,16dc <rt_schedule_insert_thread>
    1a46:	88c1a783          	lw	a5,-1908(gp) # 200003bc <rt_thread_resume_hook>
    1a4a:	4501                	li	a0,0
    1a4c:	c781                	beqz	a5,1a54 <rt_thread_resume+0x44>
    1a4e:	8522                	mv	a0,s0
    1a50:	9782                	jalr	a5
    1a52:	4501                	li	a0,0
    1a54:	973fe06f          	j	3c6 <__riscv_restore_0>
    1a58:	557d                	li	a0,-1
    1a5a:	8082                	ret

00001a5c <rt_thread_startup>:
    1a5c:	947fe2ef          	jal	t0,3a2 <__riscv_save_0>
    1a60:	03654683          	lbu	a3,54(a0)
    1a64:	4705                	li	a4,1
    1a66:	00d71733          	sll	a4,a4,a3
    1a6a:	dd18                	sw	a4,56(a0)
    1a6c:	4709                	li	a4,2
    1a6e:	02d50aa3          	sb	a3,53(a0)
    1a72:	02e50a23          	sb	a4,52(a0)
    1a76:	3f69                	jal	1a10 <rt_thread_resume>
    1a78:	8701a783          	lw	a5,-1936(gp) # 200003a0 <rt_current_thread>
    1a7c:	c399                	beqz	a5,1a82 <rt_thread_startup+0x26>
    1a7e:	bf5ff0ef          	jal	ra,1672 <rt_schedule>
    1a82:	4501                	li	a0,0
    1a84:	943fe06f          	j	3c6 <__riscv_restore_0>

00001a88 <_rt_timer_remove.part.1>:
    1a88:	4954                	lw	a3,20(a0)
    1a8a:	4d18                	lw	a4,24(a0)
    1a8c:	01450793          	addi	a5,a0,20
    1a90:	c2d8                	sw	a4,4(a3)
    1a92:	c314                	sw	a3,0(a4)
    1a94:	cd1c                	sw	a5,24(a0)
    1a96:	c95c                	sw	a5,20(a0)
    1a98:	8082                	ret

00001a9a <rt_timer_init>:
    1a9a:	909fe2ef          	jal	t0,3a2 <__riscv_save_0>
    1a9e:	1141                	addi	sp,sp,-16
    1aa0:	84b2                	mv	s1,a2
    1aa2:	862e                	mv	a2,a1
    1aa4:	45a9                	li	a1,10
    1aa6:	842a                	mv	s0,a0
    1aa8:	c636                	sw	a3,12(sp)
    1aaa:	c43a                	sw	a4,8(sp)
    1aac:	c23e                	sw	a5,4(sp)
    1aae:	a4fff0ef          	jal	ra,14fc <rt_object_init>
    1ab2:	4792                	lw	a5,4(sp)
    1ab4:	46b2                	lw	a3,12(sp)
    1ab6:	4722                	lw	a4,8(sp)
    1ab8:	9bf9                	andi	a5,a5,-2
    1aba:	b41c                	sb	a5,9(s0)
    1abc:	01440793          	addi	a5,s0,20
    1ac0:	cc44                	sw	s1,28(s0)
    1ac2:	d014                	sw	a3,32(s0)
    1ac4:	02042423          	sw	zero,40(s0)
    1ac8:	d058                	sw	a4,36(s0)
    1aca:	cc1c                	sw	a5,24(s0)
    1acc:	c85c                	sw	a5,20(s0)
    1ace:	0141                	addi	sp,sp,16
    1ad0:	8f7fe06f          	j	3c6 <__riscv_restore_0>

00001ad4 <rt_timer_detach>:
    1ad4:	8cffe2ef          	jal	t0,3a2 <__riscv_save_0>
    1ad8:	842a                	mv	s0,a0
    1ada:	2ae1                	jal	1cb2 <rt_hw_interrupt_disable>
    1adc:	84aa                	mv	s1,a0
    1ade:	8522                	mv	a0,s0
    1ae0:	3765                	jal	1a88 <_rt_timer_remove.part.1>
    1ae2:	8526                	mv	a0,s1
    1ae4:	2ae9                	jal	1cbe <rt_hw_interrupt_enable>
    1ae6:	8522                	mv	a0,s0
    1ae8:	a73ff0ef          	jal	ra,155a <rt_object_detach>
    1aec:	4501                	li	a0,0
    1aee:	8d9fe06f          	j	3c6 <__riscv_restore_0>

00001af2 <rt_timer_start>:
    1af2:	8b1fe2ef          	jal	t0,3a2 <__riscv_save_0>
    1af6:	842a                	mv	s0,a0
    1af8:	2a6d                	jal	1cb2 <rt_hw_interrupt_disable>
    1afa:	84aa                	mv	s1,a0
    1afc:	8522                	mv	a0,s0
    1afe:	3769                	jal	1a88 <_rt_timer_remove.part.1>
    1b00:	341c                	lbu	a5,9(s0)
    1b02:	8526                	mv	a0,s1
    1b04:	9bf9                	andi	a5,a5,-2
    1b06:	b41c                	sb	a5,9(s0)
    1b08:	2a5d                	jal	1cbe <rt_hw_interrupt_enable>
    1b0a:	8641a783          	lw	a5,-1948(gp) # 20000394 <rt_object_take_hook>
    1b0e:	c399                	beqz	a5,1b14 <rt_timer_start+0x22>
    1b10:	8522                	mv	a0,s0
    1b12:	9782                	jalr	a5
    1b14:	a81fe0ef          	jal	ra,594 <rt_tick_get>
    1b18:	505c                	lw	a5,36(s0)
    1b1a:	953e                	add	a0,a0,a5
    1b1c:	d408                	sw	a0,40(s0)
    1b1e:	2a51                	jal	1cb2 <rt_hw_interrupt_disable>
    1b20:	8a018713          	addi	a4,gp,-1888 # 200003d0 <rt_timer_list>
    1b24:	00472803          	lw	a6,4(a4)
    1b28:	80000637          	lui	a2,0x80000
    1b2c:	8a018793          	addi	a5,gp,-1888 # 200003d0 <rt_timer_list>
    1b30:	ffe64613          	xori	a2,a2,-2
    1b34:	4398                	lw	a4,0(a5)
    1b36:	02f81563          	bne	a6,a5,1b60 <rt_timer_start+0x6e>
    1b3a:	89418693          	addi	a3,gp,-1900 # 200003c4 <random_nr.2483>
    1b3e:	4290                	lw	a2,0(a3)
    1b40:	0605                	addi	a2,a2,1
    1b42:	c290                	sw	a2,0(a3)
    1b44:	01440693          	addi	a3,s0,20
    1b48:	c354                	sw	a3,4(a4)
    1b4a:	c858                	sw	a4,20(s0)
    1b4c:	c394                	sw	a3,0(a5)
    1b4e:	cc1c                	sw	a5,24(s0)
    1b50:	341c                	lbu	a5,9(s0)
    1b52:	0017e793          	ori	a5,a5,1
    1b56:	b41c                	sb	a5,9(s0)
    1b58:	229d                	jal	1cbe <rt_hw_interrupt_enable>
    1b5a:	4501                	li	a0,0
    1b5c:	86bfe06f          	j	3c6 <__riscv_restore_0>
    1b60:	4b54                	lw	a3,20(a4)
    1b62:	540c                	lw	a1,40(s0)
    1b64:	00b68563          	beq	a3,a1,1b6e <rt_timer_start+0x7c>
    1b68:	8e8d                	sub	a3,a3,a1
    1b6a:	fcd678e3          	bgeu	a2,a3,1b3a <rt_timer_start+0x48>
    1b6e:	87ba                	mv	a5,a4
    1b70:	b7d1                	j	1b34 <rt_timer_start+0x42>

00001b72 <rt_timer_stop>:
    1b72:	351c                	lbu	a5,9(a0)
    1b74:	8b85                	andi	a5,a5,1
    1b76:	c785                	beqz	a5,1b9e <rt_timer_stop+0x2c>
    1b78:	82bfe2ef          	jal	t0,3a2 <__riscv_save_0>
    1b7c:	8601a783          	lw	a5,-1952(gp) # 20000390 <rt_object_put_hook>
    1b80:	842a                	mv	s0,a0
    1b82:	c391                	beqz	a5,1b86 <rt_timer_stop+0x14>
    1b84:	9782                	jalr	a5
    1b86:	2235                	jal	1cb2 <rt_hw_interrupt_disable>
    1b88:	84aa                	mv	s1,a0
    1b8a:	8522                	mv	a0,s0
    1b8c:	3df5                	jal	1a88 <_rt_timer_remove.part.1>
    1b8e:	8526                	mv	a0,s1
    1b90:	223d                	jal	1cbe <rt_hw_interrupt_enable>
    1b92:	341c                	lbu	a5,9(s0)
    1b94:	4501                	li	a0,0
    1b96:	9bf9                	andi	a5,a5,-2
    1b98:	b41c                	sb	a5,9(s0)
    1b9a:	82dfe06f          	j	3c6 <__riscv_restore_0>
    1b9e:	557d                	li	a0,-1
    1ba0:	8082                	ret

00001ba2 <rt_timer_control>:
    1ba2:	4785                	li	a5,1
    1ba4:	02f58163          	beq	a1,a5,1bc6 <rt_timer_control+0x24>
    1ba8:	00b7c563          	blt	a5,a1,1bb2 <rt_timer_control+0x10>
    1bac:	c185                	beqz	a1,1bcc <rt_timer_control+0x2a>
    1bae:	4501                	li	a0,0
    1bb0:	8082                	ret
    1bb2:	4789                	li	a5,2
    1bb4:	00f58f63          	beq	a1,a5,1bd2 <rt_timer_control+0x30>
    1bb8:	478d                	li	a5,3
    1bba:	fef59ae3          	bne	a1,a5,1bae <rt_timer_control+0xc>
    1bbe:	351c                	lbu	a5,9(a0)
    1bc0:	0027e793          	ori	a5,a5,2
    1bc4:	a809                	j	1bd6 <rt_timer_control+0x34>
    1bc6:	515c                	lw	a5,36(a0)
    1bc8:	c21c                	sw	a5,0(a2)
    1bca:	b7d5                	j	1bae <rt_timer_control+0xc>
    1bcc:	421c                	lw	a5,0(a2)
    1bce:	d15c                	sw	a5,36(a0)
    1bd0:	bff9                	j	1bae <rt_timer_control+0xc>
    1bd2:	351c                	lbu	a5,9(a0)
    1bd4:	9bf5                	andi	a5,a5,-3
    1bd6:	b51c                	sb	a5,9(a0)
    1bd8:	bfd9                	j	1bae <rt_timer_control+0xc>

00001bda <rt_timer_check>:
    1bda:	fa0fe2ef          	jal	t0,37a <__riscv_save_10>
    1bde:	9b7fe0ef          	jal	ra,594 <rt_tick_get>
    1be2:	8c2a                	mv	s8,a0
    1be4:	20f9                	jal	1cb2 <rt_hw_interrupt_disable>
    1be6:	800009b7          	lui	s3,0x80000
    1bea:	8a2a                	mv	s4,a0
    1bec:	8a018493          	addi	s1,gp,-1888 # 200003d0 <rt_timer_list>
    1bf0:	ffe9c993          	xori	s3,s3,-2
    1bf4:	4b8d                	li	s7,3
    1bf6:	4080                	lw	s0,0(s1)
    1bf8:	00941663          	bne	s0,s1,1c04 <rt_timer_check+0x2a>
    1bfc:	8552                	mv	a0,s4
    1bfe:	20c1                	jal	1cbe <rt_hw_interrupt_enable>
    1c00:	fb2fe06f          	j	3b2 <__riscv_restore_10>
    1c04:	4848                	lw	a0,20(s0)
    1c06:	fec40913          	addi	s2,s0,-20
    1c0a:	40ac0533          	sub	a0,s8,a0
    1c0e:	fea9e7e3          	bltu	s3,a0,1bfc <rt_timer_check+0x22>
    1c12:	8981a783          	lw	a5,-1896(gp) # 200003c8 <rt_timer_enter_hook>
    1c16:	c399                	beqz	a5,1c1c <rt_timer_check+0x42>
    1c18:	854a                	mv	a0,s2
    1c1a:	9782                	jalr	a5
    1c1c:	854a                	mv	a0,s2
    1c1e:	e6bff0ef          	jal	ra,1a88 <_rt_timer_remove.part.1>
    1c22:	441c                	lw	a5,8(s0)
    1c24:	4448                	lw	a0,12(s0)
    1c26:	9782                	jalr	a5
    1c28:	96dfe0ef          	jal	ra,594 <rt_tick_get>
    1c2c:	89c1a783          	lw	a5,-1892(gp) # 200003cc <rt_timer_exit_hook>
    1c30:	8c2a                	mv	s8,a0
    1c32:	c399                	beqz	a5,1c38 <rt_timer_check+0x5e>
    1c34:	854a                	mv	a0,s2
    1c36:	9782                	jalr	a5
    1c38:	ff544783          	lbu	a5,-11(s0)
    1c3c:	0fe7f713          	andi	a4,a5,254
    1c40:	fee40aa3          	sb	a4,-11(s0)
    1c44:	8b8d                	andi	a5,a5,3
    1c46:	fb7798e3          	bne	a5,s7,1bf6 <rt_timer_check+0x1c>
    1c4a:	854a                	mv	a0,s2
    1c4c:	ea7ff0ef          	jal	ra,1af2 <rt_timer_start>
    1c50:	b75d                	j	1bf6 <rt_timer_check+0x1c>

00001c52 <rt_system_timer_init>:
    1c52:	8a018793          	addi	a5,gp,-1888 # 200003d0 <rt_timer_list>
    1c56:	c3dc                	sw	a5,4(a5)
    1c58:	c39c                	sw	a5,0(a5)
    1c5a:	8082                	ret

00001c5c <rt_system_timer_thread_init>:
    1c5c:	8082                	ret

00001c5e <rt_hw_stack_init>:
    1c5e:	0611                	addi	a2,a2,4
    1c60:	9a71                	andi	a2,a2,-4
    1c62:	882a                	mv	a6,a0
    1c64:	deadc737          	lui	a4,0xdeadc
    1c68:	f8060513          	addi	a0,a2,-128 # 7fffff80 <_eusrstack+0x5ffeff80>
    1c6c:	87aa                	mv	a5,a0
    1c6e:	eef70713          	addi	a4,a4,-273 # deadbeef <_eusrstack+0xbeacbeef>
    1c72:	00f61e63          	bne	a2,a5,1c8e <rt_hw_stack_init+0x30>
    1c76:	67a1                	lui	a5,0x8
    1c78:	88078793          	addi	a5,a5,-1920 # 7880 <__ssvfiscanf_r+0x23c>
    1c7c:	f8d62223          	sw	a3,-124(a2)
    1c80:	fab62423          	sw	a1,-88(a2)
    1c84:	f9062023          	sw	a6,-128(a2)
    1c88:	f8f62423          	sw	a5,-120(a2)
    1c8c:	8082                	ret
    1c8e:	c398                	sw	a4,0(a5)
    1c90:	0791                	addi	a5,a5,4
    1c92:	b7c5                	j	1c72 <rt_hw_stack_init+0x14>

00001c94 <sw_setpend>:
    1c94:	e000f737          	lui	a4,0xe000f
    1c98:	431c                	lw	a5,0(a4)
    1c9a:	800006b7          	lui	a3,0x80000
    1c9e:	8fd5                	or	a5,a5,a3
    1ca0:	c31c                	sw	a5,0(a4)
    1ca2:	8082                	ret

00001ca4 <sw_clearpend>:
    1ca4:	e000f737          	lui	a4,0xe000f
    1ca8:	431c                	lw	a5,0(a4)
    1caa:	0786                	slli	a5,a5,0x1
    1cac:	8385                	srli	a5,a5,0x1
    1cae:	c31c                	sw	a5,0(a4)
    1cb0:	8082                	ret

00001cb2 <rt_hw_interrupt_disable>:
    1cb2:	6521                	lui	a0,0x8
    1cb4:	80050513          	addi	a0,a0,-2048 # 7800 <__ssvfiscanf_r+0x1bc>
    1cb8:	30051573          	csrrw	a0,mstatus,a0
    1cbc:	8082                	ret

00001cbe <rt_hw_interrupt_enable>:
    1cbe:	30051073          	csrw	mstatus,a0
    1cc2:	8082                	ret

00001cc4 <rt_hw_context_switch_interrupt>:
    1cc4:	edefe2ef          	jal	t0,3a2 <__riscv_save_0>
    1cc8:	8b018713          	addi	a4,gp,-1872 # 200003e0 <rt_thread_switch_interrupt_flag>
    1ccc:	4318                	lw	a4,0(a4)
    1cce:	8b018793          	addi	a5,gp,-1872 # 200003e0 <rt_thread_switch_interrupt_flag>
    1cd2:	e319                	bnez	a4,1cd8 <rt_hw_context_switch_interrupt+0x14>
    1cd4:	8aa1a423          	sw	a0,-1880(gp) # 200003d8 <rt_interrupt_from_thread>
    1cd8:	8ab1a623          	sw	a1,-1876(gp) # 200003dc <rt_interrupt_to_thread>
    1cdc:	4705                	li	a4,1
    1cde:	c398                	sw	a4,0(a5)
    1ce0:	3f55                	jal	1c94 <sw_setpend>
    1ce2:	ee4fe06f          	j	3c6 <__riscv_restore_0>

00001ce6 <rt_list_len>:
    1ce6:	872a                	mv	a4,a0
    1ce8:	4781                	li	a5,0
    1cea:	4318                	lw	a4,0(a4)
    1cec:	00a71463          	bne	a4,a0,1cf4 <rt_list_len+0xe>
    1cf0:	853e                	mv	a0,a5
    1cf2:	8082                	ret
    1cf4:	0785                	addi	a5,a5,1
    1cf6:	bfd5                	j	1cea <rt_list_len+0x4>

00001cf8 <reboot>:
    1cf8:	beef07b7          	lui	a5,0xbeef0
    1cfc:	e000e737          	lui	a4,0xe000e
    1d00:	08078793          	addi	a5,a5,128 # beef0080 <_eusrstack+0x9eee0080>
    1d04:	c73c                	sw	a5,72(a4)
    1d06:	4501                	li	a0,0
    1d08:	8082                	ret

00001d0a <clear>:
    1d0a:	e98fe2ef          	jal	t0,3a2 <__riscv_save_0>
    1d0e:	0000b537          	lui	a0,0xb
    1d12:	c6850513          	addi	a0,a0,-920 # ac68 <__fsym_list_mem_name+0x9c>
    1d16:	bc8ff0ef          	jal	ra,10de <rt_kprintf>
    1d1a:	4501                	li	a0,0
    1d1c:	eaafe06f          	j	3c6 <__riscv_restore_0>

00001d20 <object_split>:
    1d20:	e82fe2ef          	jal	t0,3a2 <__riscv_save_0>
    1d24:	842a                	mv	s0,a0
    1d26:	54fd                	li	s1,-1
    1d28:	0000b937          	lui	s2,0xb
    1d2c:	147d                	addi	s0,s0,-1
    1d2e:	00941463          	bne	s0,s1,1d36 <object_split+0x16>
    1d32:	e94fe06f          	j	3c6 <__riscv_restore_0>
    1d36:	3d090513          	addi	a0,s2,976 # b3d0 <__fsym_reboot_name+0x8>
    1d3a:	ba4ff0ef          	jal	ra,10de <rt_kprintf>
    1d3e:	b7fd                	j	1d2c <object_split+0xc>

00001d40 <show_wait_queue>:
    1d40:	e48fe2ef          	jal	t0,388 <__riscv_save_4>
    1d44:	4100                	lw	s0,0(a0)
    1d46:	84aa                	mv	s1,a0
    1d48:	0000b937          	lui	s2,0xb
    1d4c:	0000b9b7          	lui	s3,0xb
    1d50:	00941463          	bne	s0,s1,1d58 <show_wait_queue+0x18>
    1d54:	e68fe06f          	j	3bc <__riscv_restore_4>
    1d58:	fec40593          	addi	a1,s0,-20
    1d5c:	3d490513          	addi	a0,s2,980 # b3d4 <__fsym_reboot_name+0xc>
    1d60:	b7eff0ef          	jal	ra,10de <rt_kprintf>
    1d64:	401c                	lw	a5,0(s0)
    1d66:	00978663          	beq	a5,s1,1d72 <show_wait_queue+0x32>
    1d6a:	3d898513          	addi	a0,s3,984 # b3d8 <__fsym_reboot_name+0x10>
    1d6e:	b70ff0ef          	jal	ra,10de <rt_kprintf>
    1d72:	4000                	lw	s0,0(s0)
    1d74:	bff1                	j	1d50 <show_wait_queue+0x10>

00001d76 <object_name_maxlen>:
    1d76:	e2cfe2ef          	jal	t0,3a2 <__riscv_save_0>
    1d7a:	892e                	mv	s2,a1
    1d7c:	fc9fe0ef          	jal	ra,d44 <rt_strlen>
    1d80:	842a                	mv	s0,a0
    1d82:	9e5ff0ef          	jal	ra,1766 <rt_enter_critical>
    1d86:	00092483          	lw	s1,0(s2)
    1d8a:	01249c63          	bne	s1,s2,1da2 <object_name_maxlen+0x2c>
    1d8e:	9efff0ef          	jal	ra,177c <rt_exit_critical>
    1d92:	47a1                	li	a5,8
    1d94:	0087c363          	blt	a5,s0,1d9a <object_name_maxlen+0x24>
    1d98:	e011                	bnez	s0,1d9c <object_name_maxlen+0x26>
    1d9a:	4421                	li	s0,8
    1d9c:	8522                	mv	a0,s0
    1d9e:	e28fe06f          	j	3c6 <__riscv_restore_0>
    1da2:	ff448513          	addi	a0,s1,-12
    1da6:	f9ffe0ef          	jal	ra,d44 <rt_strlen>
    1daa:	00a45363          	bge	s0,a0,1db0 <object_name_maxlen+0x3a>
    1dae:	842a                	mv	s0,a0
    1db0:	4084                	lw	s1,0(s1)
    1db2:	bfe1                	j	1d8a <object_name_maxlen+0x14>

00001db4 <list_thread>:
    1db4:	dc6fe2ef          	jal	t0,37a <__riscv_save_10>
    1db8:	4505                	li	a0,1
    1dba:	f18ff0ef          	jal	ra,14d2 <rt_object_get_information>
    1dbe:	0000b9b7          	lui	s3,0xb
    1dc2:	00450913          	addi	s2,a0,4
    1dc6:	842a                	mv	s0,a0
    1dc8:	85ca                	mv	a1,s2
    1dca:	f1c98513          	addi	a0,s3,-228 # af1c <__fsym_list_mem_name+0x350>
    1dce:	3765                	jal	1d76 <object_name_maxlen>
    1dd0:	85aa                	mv	a1,a0
    1dd2:	84aa                	mv	s1,a0
    1dd4:	0000b537          	lui	a0,0xb
    1dd8:	f1c98613          	addi	a2,s3,-228
    1ddc:	f2450513          	addi	a0,a0,-220 # af24 <__fsym_list_mem_name+0x358>
    1de0:	afeff0ef          	jal	ra,10de <rt_kprintf>
    1de4:	8526                	mv	a0,s1
    1de6:	f3bff0ef          	jal	ra,1d20 <object_split>
    1dea:	0000b537          	lui	a0,0xb
    1dee:	f6850513          	addi	a0,a0,-152 # af68 <__fsym_list_mem_name+0x39c>
    1df2:	aecff0ef          	jal	ra,10de <rt_kprintf>
    1df6:	4040                	lw	s0,4(s0)
    1df8:	0000b9b7          	lui	s3,0xb
    1dfc:	4a05                	li	s4,1
    1dfe:	4a89                	li	s5,2
    1e00:	0000bb37          	lui	s6,0xb
    1e04:	0000bbb7          	lui	s7,0xb
    1e08:	0000bc37          	lui	s8,0xb
    1e0c:	0000bcb7          	lui	s9,0xb
    1e10:	0000bd37          	lui	s10,0xb
    1e14:	00891563          	bne	s2,s0,1e1e <list_thread+0x6a>
    1e18:	4501                	li	a0,0
    1e1a:	d98fe06f          	j	3b2 <__riscv_restore_10>
    1e1e:	02944703          	lbu	a4,41(s0)
    1e22:	fa898513          	addi	a0,s3,-88 # afa8 <__fsym_list_mem_name+0x3dc>
    1e26:	ff440693          	addi	a3,s0,-12
    1e2a:	4621                	li	a2,8
    1e2c:	85a6                	mv	a1,s1
    1e2e:	ab0ff0ef          	jal	ra,10de <rt_kprintf>
    1e32:	02844783          	lbu	a5,40(s0)
    1e36:	fb4c8513          	addi	a0,s9,-76 # afb4 <__fsym_list_mem_name+0x3e8>
    1e3a:	8bbd                	andi	a5,a5,15
    1e3c:	01478e63          	beq	a5,s4,1e58 <list_thread+0xa4>
    1e40:	fc0c0513          	addi	a0,s8,-64 # afc0 <__fsym_list_mem_name+0x3f4>
    1e44:	01578a63          	beq	a5,s5,1e58 <list_thread+0xa4>
    1e48:	fccb8513          	addi	a0,s7,-52 # afcc <__fsym_list_mem_name+0x400>
    1e4c:	c791                	beqz	a5,1e58 <list_thread+0xa4>
    1e4e:	4711                	li	a4,4
    1e50:	00e79663          	bne	a5,a4,1e5c <list_thread+0xa8>
    1e54:	fd8b0513          	addi	a0,s6,-40 # afd8 <__fsym_list_mem_name+0x40c>
    1e58:	a86ff0ef          	jal	ra,10de <rt_kprintf>
    1e5c:	4c4c                	lw	a1,28(s0)
    1e5e:	02300793          	li	a5,35
    1e62:	86ae                	mv	a3,a1
    1e64:	2298                	lbu	a4,0(a3)
    1e66:	02f70663          	beq	a4,a5,1e92 <list_thread+0xde>
    1e6a:	5010                	lw	a2,32(s0)
    1e6c:	06400793          	li	a5,100
    1e70:	4808                	lw	a0,16(s0)
    1e72:	95b2                	add	a1,a1,a2
    1e74:	40d586b3          	sub	a3,a1,a3
    1e78:	02f686b3          	mul	a3,a3,a5
    1e7c:	5c58                	lw	a4,60(s0)
    1e7e:	505c                	lw	a5,36(s0)
    1e80:	8d89                	sub	a1,a1,a0
    1e82:	fe4d0513          	addi	a0,s10,-28 # afe4 <__fsym_list_mem_name+0x418>
    1e86:	02c6d6b3          	divu	a3,a3,a2
    1e8a:	a54ff0ef          	jal	ra,10de <rt_kprintf>
    1e8e:	4000                	lw	s0,0(s0)
    1e90:	b751                	j	1e14 <list_thread+0x60>
    1e92:	0685                	addi	a3,a3,1
    1e94:	bfc1                	j	1e64 <list_thread+0xb0>

00001e96 <list_sem>:
    1e96:	cf2fe2ef          	jal	t0,388 <__riscv_save_4>
    1e9a:	1141                	addi	sp,sp,-16
    1e9c:	4509                	li	a0,2
    1e9e:	e34ff0ef          	jal	ra,14d2 <rt_object_get_information>
    1ea2:	00450993          	addi	s3,a0,4
    1ea6:	0000b937          	lui	s2,0xb
    1eaa:	842a                	mv	s0,a0
    1eac:	85ce                	mv	a1,s3
    1eae:	ebc90513          	addi	a0,s2,-324 # aebc <__fsym_list_mem_name+0x2f0>
    1eb2:	ec5ff0ef          	jal	ra,1d76 <object_name_maxlen>
    1eb6:	85aa                	mv	a1,a0
    1eb8:	84aa                	mv	s1,a0
    1eba:	0000b537          	lui	a0,0xb
    1ebe:	ebc90613          	addi	a2,s2,-324
    1ec2:	ec850513          	addi	a0,a0,-312 # aec8 <__fsym_list_mem_name+0x2fc>
    1ec6:	a18ff0ef          	jal	ra,10de <rt_kprintf>
    1eca:	8526                	mv	a0,s1
    1ecc:	e55ff0ef          	jal	ra,1d20 <object_split>
    1ed0:	0000b537          	lui	a0,0xb
    1ed4:	ee450513          	addi	a0,a0,-284 # aee4 <__fsym_list_mem_name+0x318>
    1ed8:	a06ff0ef          	jal	ra,10de <rt_kprintf>
    1edc:	4040                	lw	s0,4(s0)
    1ede:	0000ba37          	lui	s4,0xb
    1ee2:	0000bab7          	lui	s5,0xb
    1ee6:	0000cb37          	lui	s6,0xc
    1eea:	00899663          	bne	s3,s0,1ef6 <list_sem+0x60>
    1eee:	4501                	li	a0,0
    1ef0:	0141                	addi	sp,sp,16
    1ef2:	ccafe06f          	j	3bc <__riscv_restore_4>
    1ef6:	281a                	lhu	a4,16(s0)
    1ef8:	441c                	lw	a5,8(s0)
    1efa:	ff440693          	addi	a3,s0,-12
    1efe:	00840913          	addi	s2,s0,8
    1f02:	c636                	sw	a3,12(sp)
    1f04:	c43a                	sw	a4,8(sp)
    1f06:	854a                	mv	a0,s2
    1f08:	02f90663          	beq	s2,a5,1f34 <list_sem+0x9e>
    1f0c:	ddbff0ef          	jal	ra,1ce6 <rt_list_len>
    1f10:	4722                	lw	a4,8(sp)
    1f12:	46b2                	lw	a3,12(sp)
    1f14:	87aa                	mv	a5,a0
    1f16:	4621                	li	a2,8
    1f18:	85a6                	mv	a1,s1
    1f1a:	efca8513          	addi	a0,s5,-260 # aefc <__fsym_list_mem_name+0x330>
    1f1e:	9c0ff0ef          	jal	ra,10de <rt_kprintf>
    1f22:	854a                	mv	a0,s2
    1f24:	e1dff0ef          	jal	ra,1d40 <show_wait_queue>
    1f28:	0b0b0513          	addi	a0,s6,176 # c0b0 <__fsym___cmd_wifi_power_cmd_name+0x1f0>
    1f2c:	9b2ff0ef          	jal	ra,10de <rt_kprintf>
    1f30:	4000                	lw	s0,0(s0)
    1f32:	bf65                	j	1eea <list_sem+0x54>
    1f34:	db3ff0ef          	jal	ra,1ce6 <rt_list_len>
    1f38:	4722                	lw	a4,8(sp)
    1f3a:	46b2                	lw	a3,12(sp)
    1f3c:	87aa                	mv	a5,a0
    1f3e:	4621                	li	a2,8
    1f40:	85a6                	mv	a1,s1
    1f42:	f0ca0513          	addi	a0,s4,-244 # af0c <__fsym_list_mem_name+0x340>
    1f46:	998ff0ef          	jal	ra,10de <rt_kprintf>
    1f4a:	b7dd                	j	1f30 <list_sem+0x9a>

00001f4c <list_event>:
    1f4c:	c3cfe2ef          	jal	t0,388 <__riscv_save_4>
    1f50:	1141                	addi	sp,sp,-16
    1f52:	4511                	li	a0,4
    1f54:	d7eff0ef          	jal	ra,14d2 <rt_object_get_information>
    1f58:	00450993          	addi	s3,a0,4
    1f5c:	0000b937          	lui	s2,0xb
    1f60:	842a                	mv	s0,a0
    1f62:	85ce                	mv	a1,s3
    1f64:	d0090513          	addi	a0,s2,-768 # ad00 <__fsym_list_mem_name+0x134>
    1f68:	e0fff0ef          	jal	ra,1d76 <object_name_maxlen>
    1f6c:	85aa                	mv	a1,a0
    1f6e:	84aa                	mv	s1,a0
    1f70:	0000b537          	lui	a0,0xb
    1f74:	d0090613          	addi	a2,s2,-768
    1f78:	d0850513          	addi	a0,a0,-760 # ad08 <__fsym_list_mem_name+0x13c>
    1f7c:	962ff0ef          	jal	ra,10de <rt_kprintf>
    1f80:	8526                	mv	a0,s1
    1f82:	d9fff0ef          	jal	ra,1d20 <object_split>
    1f86:	0000b537          	lui	a0,0xb
    1f8a:	d2c50513          	addi	a0,a0,-724 # ad2c <__fsym_list_mem_name+0x160>
    1f8e:	950ff0ef          	jal	ra,10de <rt_kprintf>
    1f92:	4040                	lw	s0,4(s0)
    1f94:	0000ba37          	lui	s4,0xb
    1f98:	0000bab7          	lui	s5,0xb
    1f9c:	0000cb37          	lui	s6,0xc
    1fa0:	00899663          	bne	s3,s0,1fac <list_event+0x60>
    1fa4:	4501                	li	a0,0
    1fa6:	0141                	addi	sp,sp,16
    1fa8:	c14fe06f          	j	3bc <__riscv_restore_4>
    1fac:	441c                	lw	a5,8(s0)
    1fae:	00840913          	addi	s2,s0,8
    1fb2:	ff440693          	addi	a3,s0,-12
    1fb6:	4818                	lw	a4,16(s0)
    1fb8:	02f90963          	beq	s2,a5,1fea <list_event+0x9e>
    1fbc:	854a                	mv	a0,s2
    1fbe:	c636                	sw	a3,12(sp)
    1fc0:	c43a                	sw	a4,8(sp)
    1fc2:	d25ff0ef          	jal	ra,1ce6 <rt_list_len>
    1fc6:	4722                	lw	a4,8(sp)
    1fc8:	46b2                	lw	a3,12(sp)
    1fca:	87aa                	mv	a5,a0
    1fcc:	4621                	li	a2,8
    1fce:	85a6                	mv	a1,s1
    1fd0:	d4ca8513          	addi	a0,s5,-692 # ad4c <__fsym_list_mem_name+0x180>
    1fd4:	90aff0ef          	jal	ra,10de <rt_kprintf>
    1fd8:	854a                	mv	a0,s2
    1fda:	d67ff0ef          	jal	ra,1d40 <show_wait_queue>
    1fde:	0b0b0513          	addi	a0,s6,176 # c0b0 <__fsym___cmd_wifi_power_cmd_name+0x1f0>
    1fe2:	8fcff0ef          	jal	ra,10de <rt_kprintf>
    1fe6:	4000                	lw	s0,0(s0)
    1fe8:	bf65                	j	1fa0 <list_event+0x54>
    1fea:	4621                	li	a2,8
    1fec:	85a6                	mv	a1,s1
    1fee:	d64a0513          	addi	a0,s4,-668 # ad64 <__fsym_list_mem_name+0x198>
    1ff2:	8ecff0ef          	jal	ra,10de <rt_kprintf>
    1ff6:	bfc5                	j	1fe6 <list_event+0x9a>

00001ff8 <list_mutex>:
    1ff8:	b90fe2ef          	jal	t0,388 <__riscv_save_4>
    1ffc:	1141                	addi	sp,sp,-16
    1ffe:	450d                	li	a0,3
    2000:	cd2ff0ef          	jal	ra,14d2 <rt_object_get_information>
    2004:	0000b9b7          	lui	s3,0xb
    2008:	00450913          	addi	s2,a0,4
    200c:	842a                	mv	s0,a0
    200e:	85ca                	mv	a1,s2
    2010:	e5898513          	addi	a0,s3,-424 # ae58 <__fsym_list_mem_name+0x28c>
    2014:	d63ff0ef          	jal	ra,1d76 <object_name_maxlen>
    2018:	85aa                	mv	a1,a0
    201a:	84aa                	mv	s1,a0
    201c:	0000b537          	lui	a0,0xb
    2020:	e5898613          	addi	a2,s3,-424
    2024:	e6050513          	addi	a0,a0,-416 # ae60 <__fsym_list_mem_name+0x294>
    2028:	8b6ff0ef          	jal	ra,10de <rt_kprintf>
    202c:	8526                	mv	a0,s1
    202e:	cf3ff0ef          	jal	ra,1d20 <object_split>
    2032:	0000b537          	lui	a0,0xb
    2036:	e8450513          	addi	a0,a0,-380 # ae84 <__fsym_list_mem_name+0x2b8>
    203a:	8a4ff0ef          	jal	ra,10de <rt_kprintf>
    203e:	4040                	lw	s0,4(s0)
    2040:	0000b9b7          	lui	s3,0xb
    2044:	00891663          	bne	s2,s0,2050 <list_mutex+0x58>
    2048:	4501                	li	a0,0
    204a:	0141                	addi	sp,sp,16
    204c:	b70fe06f          	j	3bc <__riscv_restore_4>
    2050:	ff440693          	addi	a3,s0,-12
    2054:	00840513          	addi	a0,s0,8
    2058:	c636                	sw	a3,12(sp)
    205a:	c8dff0ef          	jal	ra,1ce6 <rt_list_len>
    205e:	01344803          	lbu	a6,19(s0)
    2062:	485c                	lw	a5,20(s0)
    2064:	46b2                	lw	a3,12(sp)
    2066:	88aa                	mv	a7,a0
    2068:	4721                	li	a4,8
    206a:	4621                	li	a2,8
    206c:	85a6                	mv	a1,s1
    206e:	ea498513          	addi	a0,s3,-348 # aea4 <__fsym_list_mem_name+0x2d8>
    2072:	86cff0ef          	jal	ra,10de <rt_kprintf>
    2076:	4000                	lw	s0,0(s0)
    2078:	b7f1                	j	2044 <list_mutex+0x4c>

0000207a <list_mailbox>:
    207a:	b0efe2ef          	jal	t0,388 <__riscv_save_4>
    207e:	1141                	addi	sp,sp,-16
    2080:	4515                	li	a0,5
    2082:	c50ff0ef          	jal	ra,14d2 <rt_object_get_information>
    2086:	00450993          	addi	s3,a0,4
    208a:	0000b937          	lui	s2,0xb
    208e:	842a                	mv	s0,a0
    2090:	85ce                	mv	a1,s3
    2092:	d7890513          	addi	a0,s2,-648 # ad78 <__fsym_list_mem_name+0x1ac>
    2096:	ce1ff0ef          	jal	ra,1d76 <object_name_maxlen>
    209a:	85aa                	mv	a1,a0
    209c:	84aa                	mv	s1,a0
    209e:	0000b537          	lui	a0,0xb
    20a2:	d7890613          	addi	a2,s2,-648
    20a6:	d8050513          	addi	a0,a0,-640 # ad80 <__fsym_list_mem_name+0x1b4>
    20aa:	834ff0ef          	jal	ra,10de <rt_kprintf>
    20ae:	8526                	mv	a0,s1
    20b0:	c71ff0ef          	jal	ra,1d20 <object_split>
    20b4:	0000b537          	lui	a0,0xb
    20b8:	da450513          	addi	a0,a0,-604 # ada4 <__fsym_list_mem_name+0x1d8>
    20bc:	822ff0ef          	jal	ra,10de <rt_kprintf>
    20c0:	4040                	lw	s0,4(s0)
    20c2:	0000ba37          	lui	s4,0xb
    20c6:	0000bab7          	lui	s5,0xb
    20ca:	0000cb37          	lui	s6,0xc
    20ce:	00899663          	bne	s3,s0,20da <list_mailbox+0x60>
    20d2:	4501                	li	a0,0
    20d4:	0141                	addi	sp,sp,16
    20d6:	ae6fe06f          	j	3bc <__riscv_restore_4>
    20da:	287a                	lhu	a4,22(s0)
    20dc:	285e                	lhu	a5,20(s0)
    20de:	4410                	lw	a2,8(s0)
    20e0:	ff440693          	addi	a3,s0,-12
    20e4:	00840913          	addi	s2,s0,8
    20e8:	c636                	sw	a3,12(sp)
    20ea:	c43a                	sw	a4,8(sp)
    20ec:	c23e                	sw	a5,4(sp)
    20ee:	854a                	mv	a0,s2
    20f0:	02c90763          	beq	s2,a2,211e <list_mailbox+0xa4>
    20f4:	bf3ff0ef          	jal	ra,1ce6 <rt_list_len>
    20f8:	4792                	lw	a5,4(sp)
    20fa:	4722                	lw	a4,8(sp)
    20fc:	46b2                	lw	a3,12(sp)
    20fe:	882a                	mv	a6,a0
    2100:	4621                	li	a2,8
    2102:	85a6                	mv	a1,s1
    2104:	dc0a8513          	addi	a0,s5,-576 # adc0 <__fsym_list_mem_name+0x1f4>
    2108:	fd7fe0ef          	jal	ra,10de <rt_kprintf>
    210c:	854a                	mv	a0,s2
    210e:	c33ff0ef          	jal	ra,1d40 <show_wait_queue>
    2112:	0b0b0513          	addi	a0,s6,176 # c0b0 <__fsym___cmd_wifi_power_cmd_name+0x1f0>
    2116:	fc9fe0ef          	jal	ra,10de <rt_kprintf>
    211a:	4000                	lw	s0,0(s0)
    211c:	bf4d                	j	20ce <list_mailbox+0x54>
    211e:	bc9ff0ef          	jal	ra,1ce6 <rt_list_len>
    2122:	4792                	lw	a5,4(sp)
    2124:	4722                	lw	a4,8(sp)
    2126:	46b2                	lw	a3,12(sp)
    2128:	882a                	mv	a6,a0
    212a:	4621                	li	a2,8
    212c:	85a6                	mv	a1,s1
    212e:	dd8a0513          	addi	a0,s4,-552 # add8 <__fsym_list_mem_name+0x20c>
    2132:	fadfe0ef          	jal	ra,10de <rt_kprintf>
    2136:	b7d5                	j	211a <list_mailbox+0xa0>

00002138 <list_msgqueue>:
    2138:	a50fe2ef          	jal	t0,388 <__riscv_save_4>
    213c:	1141                	addi	sp,sp,-16
    213e:	4519                	li	a0,6
    2140:	b92ff0ef          	jal	ra,14d2 <rt_object_get_information>
    2144:	00450993          	addi	s3,a0,4
    2148:	0000b937          	lui	s2,0xb
    214c:	842a                	mv	s0,a0
    214e:	85ce                	mv	a1,s3
    2150:	df090513          	addi	a0,s2,-528 # adf0 <__fsym_list_mem_name+0x224>
    2154:	c23ff0ef          	jal	ra,1d76 <object_name_maxlen>
    2158:	85aa                	mv	a1,a0
    215a:	84aa                	mv	s1,a0
    215c:	0000b537          	lui	a0,0xb
    2160:	df090613          	addi	a2,s2,-528
    2164:	dfc50513          	addi	a0,a0,-516 # adfc <__fsym_list_mem_name+0x230>
    2168:	f77fe0ef          	jal	ra,10de <rt_kprintf>
    216c:	8526                	mv	a0,s1
    216e:	bb3ff0ef          	jal	ra,1d20 <object_split>
    2172:	0000b537          	lui	a0,0xb
    2176:	e1850513          	addi	a0,a0,-488 # ae18 <__fsym_list_mem_name+0x24c>
    217a:	f65fe0ef          	jal	ra,10de <rt_kprintf>
    217e:	4040                	lw	s0,4(s0)
    2180:	0000ba37          	lui	s4,0xb
    2184:	0000bab7          	lui	s5,0xb
    2188:	0000cb37          	lui	s6,0xc
    218c:	00899663          	bne	s3,s0,2198 <list_msgqueue+0x60>
    2190:	4501                	li	a0,0
    2192:	0141                	addi	sp,sp,16
    2194:	a28fe06f          	j	3bc <__riscv_restore_4>
    2198:	2c1a                	lhu	a4,24(s0)
    219a:	441c                	lw	a5,8(s0)
    219c:	ff440693          	addi	a3,s0,-12
    21a0:	00840913          	addi	s2,s0,8
    21a4:	c636                	sw	a3,12(sp)
    21a6:	c43a                	sw	a4,8(sp)
    21a8:	854a                	mv	a0,s2
    21aa:	02f90663          	beq	s2,a5,21d6 <list_msgqueue+0x9e>
    21ae:	b39ff0ef          	jal	ra,1ce6 <rt_list_len>
    21b2:	4722                	lw	a4,8(sp)
    21b4:	46b2                	lw	a3,12(sp)
    21b6:	87aa                	mv	a5,a0
    21b8:	4621                	li	a2,8
    21ba:	85a6                	mv	a1,s1
    21bc:	e30a8513          	addi	a0,s5,-464 # ae30 <__fsym_list_mem_name+0x264>
    21c0:	f1ffe0ef          	jal	ra,10de <rt_kprintf>
    21c4:	854a                	mv	a0,s2
    21c6:	b7bff0ef          	jal	ra,1d40 <show_wait_queue>
    21ca:	0b0b0513          	addi	a0,s6,176 # c0b0 <__fsym___cmd_wifi_power_cmd_name+0x1f0>
    21ce:	f11fe0ef          	jal	ra,10de <rt_kprintf>
    21d2:	4000                	lw	s0,0(s0)
    21d4:	bf65                	j	218c <list_msgqueue+0x54>
    21d6:	b11ff0ef          	jal	ra,1ce6 <rt_list_len>
    21da:	4722                	lw	a4,8(sp)
    21dc:	46b2                	lw	a3,12(sp)
    21de:	87aa                	mv	a5,a0
    21e0:	4621                	li	a2,8
    21e2:	85a6                	mv	a1,s1
    21e4:	e44a0513          	addi	a0,s4,-444 # ae44 <__fsym_list_mem_name+0x278>
    21e8:	ef7fe0ef          	jal	ra,10de <rt_kprintf>
    21ec:	b7dd                	j	21d2 <list_msgqueue+0x9a>

000021ee <list_device>:
    21ee:	99afe2ef          	jal	t0,388 <__riscv_save_4>
    21f2:	715d                	addi	sp,sp,-80
    21f4:	4525                	li	a0,9
    21f6:	adcff0ef          	jal	ra,14d2 <rt_object_get_information>
    21fa:	65ad                	lui	a1,0xb
    21fc:	05000613          	li	a2,80
    2200:	842a                	mv	s0,a0
    2202:	00450913          	addi	s2,a0,4
    2206:	91458593          	addi	a1,a1,-1772 # a914 <_read+0x10>
    220a:	850a                	mv	a0,sp
    220c:	585020ef          	jal	ra,4f90 <memcpy>
    2210:	0000b9b7          	lui	s3,0xb
    2214:	85ca                	mv	a1,s2
    2216:	c9898513          	addi	a0,s3,-872 # ac98 <__fsym_list_mem_name+0xcc>
    221a:	b5dff0ef          	jal	ra,1d76 <object_name_maxlen>
    221e:	85aa                	mv	a1,a0
    2220:	84aa                	mv	s1,a0
    2222:	0000b537          	lui	a0,0xb
    2226:	c9898613          	addi	a2,s3,-872
    222a:	ca050513          	addi	a0,a0,-864 # aca0 <__fsym_list_mem_name+0xd4>
    222e:	eb1fe0ef          	jal	ra,10de <rt_kprintf>
    2232:	8526                	mv	a0,s1
    2234:	aedff0ef          	jal	ra,1d20 <object_split>
    2238:	0000b537          	lui	a0,0xb
    223c:	cc850513          	addi	a0,a0,-824 # acc8 <__fsym_list_mem_name+0xfc>
    2240:	e9ffe0ef          	jal	ra,10de <rt_kprintf>
    2244:	4040                	lw	s0,4(s0)
    2246:	49d1                	li	s3,20
    2248:	0000ba37          	lui	s4,0xb
    224c:	00891663          	bne	s2,s0,2258 <list_device+0x6a>
    2250:	4501                	li	a0,0
    2252:	6161                	addi	sp,sp,80
    2254:	968fe06f          	j	3bc <__riscv_restore_4>
    2258:	441c                	lw	a5,8(s0)
    225a:	ff440693          	addi	a3,s0,-12
    225e:	02f9e063          	bltu	s3,a5,227e <list_device+0x90>
    2262:	0898                	addi	a4,sp,80
    2264:	078a                	slli	a5,a5,0x2
    2266:	97ba                	add	a5,a5,a4
    2268:	fb07a703          	lw	a4,-80(a5)
    226c:	281c                	lbu	a5,16(s0)
    226e:	4621                	li	a2,8
    2270:	85a6                	mv	a1,s1
    2272:	ceca0513          	addi	a0,s4,-788 # acec <__fsym_list_mem_name+0x120>
    2276:	e69fe0ef          	jal	ra,10de <rt_kprintf>
    227a:	4000                	lw	s0,0(s0)
    227c:	bfc1                	j	224c <list_device+0x5e>
    227e:	4746                	lw	a4,80(sp)
    2280:	b7f5                	j	226c <list_device+0x7e>

00002282 <list_timer>:
    2282:	906fe2ef          	jal	t0,388 <__riscv_save_4>
    2286:	4529                	li	a0,10
    2288:	a4aff0ef          	jal	ra,14d2 <rt_object_get_information>
    228c:	0000b9b7          	lui	s3,0xb
    2290:	00450913          	addi	s2,a0,4
    2294:	842a                	mv	s0,a0
    2296:	85ca                	mv	a1,s2
    2298:	00c98513          	addi	a0,s3,12 # b00c <__fsym_list_mem_name+0x440>
    229c:	adbff0ef          	jal	ra,1d76 <object_name_maxlen>
    22a0:	85aa                	mv	a1,a0
    22a2:	84aa                	mv	s1,a0
    22a4:	0000b537          	lui	a0,0xb
    22a8:	00c98613          	addi	a2,s3,12
    22ac:	01450513          	addi	a0,a0,20 # b014 <__fsym_list_mem_name+0x448>
    22b0:	e2ffe0ef          	jal	ra,10de <rt_kprintf>
    22b4:	8526                	mv	a0,s1
    22b6:	a6bff0ef          	jal	ra,1d20 <object_split>
    22ba:	0000b537          	lui	a0,0xb
    22be:	03c50513          	addi	a0,a0,60 # b03c <__fsym_list_mem_name+0x470>
    22c2:	e1dfe0ef          	jal	ra,10de <rt_kprintf>
    22c6:	4040                	lw	s0,4(s0)
    22c8:	0000b9b7          	lui	s3,0xb
    22cc:	0000ba37          	lui	s4,0xb
    22d0:	0000bab7          	lui	s5,0xb
    22d4:	00891e63          	bne	s2,s0,22f0 <list_timer+0x6e>
    22d8:	abcfe0ef          	jal	ra,594 <rt_tick_get>
    22dc:	85aa                	mv	a1,a0
    22de:	0000b537          	lui	a0,0xb
    22e2:	09450513          	addi	a0,a0,148 # b094 <__fsym_list_mem_name+0x4c8>
    22e6:	df9fe0ef          	jal	ra,10de <rt_kprintf>
    22ea:	4501                	li	a0,0
    22ec:	8d0fe06f          	j	3bc <__riscv_restore_4>
    22f0:	4c5c                	lw	a5,28(s0)
    22f2:	4c18                	lw	a4,24(s0)
    22f4:	06098513          	addi	a0,s3,96 # b060 <__fsym_list_mem_name+0x494>
    22f8:	ff440693          	addi	a3,s0,-12
    22fc:	4621                	li	a2,8
    22fe:	85a6                	mv	a1,s1
    2300:	ddffe0ef          	jal	ra,10de <rt_kprintf>
    2304:	ffd44783          	lbu	a5,-3(s0)
    2308:	078a8513          	addi	a0,s5,120 # b078 <__fsym_list_mem_name+0x4ac>
    230c:	8b85                	andi	a5,a5,1
    230e:	e399                	bnez	a5,2314 <list_timer+0x92>
    2310:	084a0513          	addi	a0,s4,132 # b084 <__fsym_list_mem_name+0x4b8>
    2314:	dcbfe0ef          	jal	ra,10de <rt_kprintf>
    2318:	4000                	lw	s0,0(s0)
    231a:	bf6d                	j	22d4 <list_timer+0x52>

0000231c <list>:
    231c:	86cfe2ef          	jal	t0,388 <__riscv_save_4>
    2320:	0000b537          	lui	a0,0xb
    2324:	c7050513          	addi	a0,a0,-912 # ac70 <__fsym_list_mem_name+0xa4>
    2328:	db7fe0ef          	jal	ra,10de <rt_kprintf>
    232c:	8b81a403          	lw	s0,-1864(gp) # 200003e8 <_syscall_table_begin>
    2330:	0000b9b7          	lui	s3,0xb
    2334:	0000ba37          	lui	s4,0xb
    2338:	8bc1a783          	lw	a5,-1860(gp) # 200003ec <_syscall_table_end>
    233c:	00f46563          	bltu	s0,a5,2346 <list+0x2a>
    2340:	4501                	li	a0,0
    2342:	87afe06f          	j	3bc <__riscv_restore_4>
    2346:	4004                	lw	s1,0(s0)
    2348:	4609                	li	a2,2
    234a:	c8498593          	addi	a1,s3,-892 # ac84 <__fsym_list_mem_name+0xb8>
    234e:	8526                	mv	a0,s1
    2350:	697020ef          	jal	ra,51e6 <strncmp>
    2354:	c519                	beqz	a0,2362 <list+0x46>
    2356:	4050                	lw	a2,4(s0)
    2358:	85a6                	mv	a1,s1
    235a:	c88a0513          	addi	a0,s4,-888 # ac88 <__fsym_list_mem_name+0xbc>
    235e:	d81fe0ef          	jal	ra,10de <rt_kprintf>
    2362:	0431                	addi	s0,s0,12
    2364:	bfd1                	j	2338 <list+0x1c>

00002366 <msh_help>:
    2366:	822fe2ef          	jal	t0,388 <__riscv_save_4>
    236a:	0000b537          	lui	a0,0xb
    236e:	53450513          	addi	a0,a0,1332 # b534 <__fsym_reboot_name+0x16c>
    2372:	d6dfe0ef          	jal	ra,10de <rt_kprintf>
    2376:	8b81a403          	lw	s0,-1864(gp) # 200003e8 <_syscall_table_begin>
    237a:	0000b9b7          	lui	s3,0xb
    237e:	0000ba37          	lui	s4,0xb
    2382:	8bc1a783          	lw	a5,-1860(gp) # 200003ec <_syscall_table_end>
    2386:	00f46b63          	bltu	s0,a5,239c <msh_help+0x36>
    238a:	0000c537          	lui	a0,0xc
    238e:	0b050513          	addi	a0,a0,176 # c0b0 <__fsym___cmd_wifi_power_cmd_name+0x1f0>
    2392:	d4dfe0ef          	jal	ra,10de <rt_kprintf>
    2396:	4501                	li	a0,0
    2398:	824fe06f          	j	3bc <__riscv_restore_4>
    239c:	4004                	lw	s1,0(s0)
    239e:	4619                	li	a2,6
    23a0:	55098593          	addi	a1,s3,1360 # b550 <__fsym_reboot_name+0x188>
    23a4:	8526                	mv	a0,s1
    23a6:	641020ef          	jal	ra,51e6 <strncmp>
    23aa:	e901                	bnez	a0,23ba <msh_help+0x54>
    23ac:	4050                	lw	a2,4(s0)
    23ae:	00648593          	addi	a1,s1,6
    23b2:	558a0513          	addi	a0,s4,1368 # b558 <__fsym_reboot_name+0x190>
    23b6:	d29fe0ef          	jal	ra,10de <rt_kprintf>
    23ba:	0431                	addi	s0,s0,12
    23bc:	b7d9                	j	2382 <msh_help+0x1c>

000023be <msh_is_used>:
    23be:	4505                	li	a0,1
    23c0:	8082                	ret

000023c2 <msh_exec>:
    23c2:	fc7fd2ef          	jal	t0,388 <__riscv_save_4>
    23c6:	7179                	addi	sp,sp,-48
    23c8:	842a                	mv	s0,a0
    23ca:	95aa                	add	a1,a1,a0
    23cc:	02000693          	li	a3,32
    23d0:	4725                	li	a4,9
    23d2:	00040783          	lb	a5,0(s0)
    23d6:	408584b3          	sub	s1,a1,s0
    23da:	0ad78563          	beq	a5,a3,2484 <msh_exec+0xc2>
    23de:	0ae78363          	beq	a5,a4,2484 <msh_exec+0xc2>
    23e2:	4501                	li	a0,0
    23e4:	10048b63          	beqz	s1,24fa <msh_exec+0x138>
    23e8:	4901                	li	s2,0
    23ea:	02000713          	li	a4,32
    23ee:	46a5                	li	a3,9
    23f0:	012407b3          	add	a5,s0,s2
    23f4:	00078783          	lb	a5,0(a5)
    23f8:	08e78a63          	beq	a5,a4,248c <msh_exec+0xca>
    23fc:	08d78863          	beq	a5,a3,248c <msh_exec+0xca>
    2400:	08991463          	bne	s2,s1,2488 <msh_exec+0xc6>
    2404:	8b81a983          	lw	s3,-1864(gp) # 200003e8 <_syscall_table_begin>
    2408:	8bc1aa83          	lw	s5,-1860(gp) # 200003ec <_syscall_table_end>
    240c:	0000bb37          	lui	s6,0xb
    2410:	0959f063          	bgeu	s3,s5,2490 <msh_exec+0xce>
    2414:	0009aa03          	lw	s4,0(s3)
    2418:	4619                	li	a2,6
    241a:	550b0593          	addi	a1,s6,1360 # b550 <__fsym_reboot_name+0x188>
    241e:	8552                	mv	a0,s4
    2420:	5c7020ef          	jal	ra,51e6 <strncmp>
    2424:	e559                	bnez	a0,24b2 <msh_exec+0xf0>
    2426:	864a                	mv	a2,s2
    2428:	85a2                	mv	a1,s0
    242a:	006a0513          	addi	a0,s4,6
    242e:	5b9020ef          	jal	ra,51e6 <strncmp>
    2432:	e141                	bnez	a0,24b2 <msh_exec+0xf0>
    2434:	9a4a                	add	s4,s4,s2
    2436:	006a0783          	lb	a5,6(s4)
    243a:	efa5                	bnez	a5,24b2 <msh_exec+0xf0>
    243c:	0089a983          	lw	s3,8(s3)
    2440:	04098863          	beqz	s3,2490 <msh_exec+0xce>
    2444:	02800613          	li	a2,40
    2448:	4581                	li	a1,0
    244a:	0028                	addi	a0,sp,8
    244c:	f87fd0ef          	jal	ra,3d2 <memset>
    2450:	00810913          	addi	s2,sp,8
    2454:	86ca                	mv	a3,s2
    2456:	87a2                	mv	a5,s0
    2458:	4501                	li	a0,0
    245a:	4701                	li	a4,0
    245c:	02000813          	li	a6,32
    2460:	48a5                	li	a7,9
    2462:	4329                	li	t1,10
    2464:	02200613          	li	a2,34
    2468:	05c00e13          	li	t3,92
    246c:	00078583          	lb	a1,0(a5)
    2470:	01058463          	beq	a1,a6,2478 <msh_exec+0xb6>
    2474:	05159663          	bne	a1,a7,24c0 <msh_exec+0xfe>
    2478:	02971f63          	bne	a4,s1,24b6 <msh_exec+0xf4>
    247c:	47a9                	li	a5,10
    247e:	04f50363          	beq	a0,a5,24c4 <msh_exec+0x102>
    2482:	a869                	j	251c <msh_exec+0x15a>
    2484:	0405                	addi	s0,s0,1
    2486:	b7b1                	j	23d2 <msh_exec+0x10>
    2488:	0905                	addi	s2,s2,1
    248a:	b79d                	j	23f0 <msh_exec+0x2e>
    248c:	f6091ce3          	bnez	s2,2404 <msh_exec+0x42>
    2490:	87a2                	mv	a5,s0
    2492:	00078703          	lb	a4,0(a5)
    2496:	fdf77713          	andi	a4,a4,-33
    249a:	e779                	bnez	a4,2568 <msh_exec+0x1a6>
    249c:	0000b537          	lui	a0,0xb
    24a0:	51c50513          	addi	a0,a0,1308 # b51c <__fsym_reboot_name+0x154>
    24a4:	00078023          	sb	zero,0(a5)
    24a8:	85a2                	mv	a1,s0
    24aa:	c35fe0ef          	jal	ra,10de <rt_kprintf>
    24ae:	557d                	li	a0,-1
    24b0:	a0a9                	j	24fa <msh_exec+0x138>
    24b2:	09b1                	addi	s3,s3,12
    24b4:	bfb1                	j	2410 <msh_exec+0x4e>
    24b6:	00078023          	sb	zero,0(a5)
    24ba:	0705                	addi	a4,a4,1
    24bc:	0785                	addi	a5,a5,1
    24be:	b77d                	j	246c <msh_exec+0xaa>
    24c0:	04651063          	bne	a0,t1,2500 <msh_exec+0x13e>
    24c4:	0000b537          	lui	a0,0xb
    24c8:	4f850513          	addi	a0,a0,1272 # b4f8 <__fsym_reboot_name+0x130>
    24cc:	c13fe0ef          	jal	ra,10de <rt_kprintf>
    24d0:	1800                	addi	s0,sp,48
    24d2:	0000b4b7          	lui	s1,0xb
    24d6:	00092583          	lw	a1,0(s2)
    24da:	51848513          	addi	a0,s1,1304 # b518 <__fsym_reboot_name+0x150>
    24de:	0911                	addi	s2,s2,4
    24e0:	bfffe0ef          	jal	ra,10de <rt_kprintf>
    24e4:	fe8919e3          	bne	s2,s0,24d6 <msh_exec+0x114>
    24e8:	0000c537          	lui	a0,0xc
    24ec:	0b050513          	addi	a0,a0,176 # c0b0 <__fsym___cmd_wifi_power_cmd_name+0x1f0>
    24f0:	beffe0ef          	jal	ra,10de <rt_kprintf>
    24f4:	4529                	li	a0,10
    24f6:	002c                	addi	a1,sp,8
    24f8:	9982                	jalr	s3
    24fa:	6145                	addi	sp,sp,48
    24fc:	ec1fd06f          	j	3bc <__riscv_restore_4>
    2500:	00977e63          	bgeu	a4,s1,251c <msh_exec+0x15a>
    2504:	0505                	addi	a0,a0,1
    2506:	04c59263          	bne	a1,a2,254a <msh_exec+0x188>
    250a:	0785                	addi	a5,a5,1
    250c:	0705                	addi	a4,a4,1
    250e:	c29c                	sw	a5,0(a3)
    2510:	00078583          	lb	a1,0(a5)
    2514:	02c58163          	beq	a1,a2,2536 <msh_exec+0x174>
    2518:	00976463          	bltu	a4,s1,2520 <msh_exec+0x15e>
    251c:	fd69                	bnez	a0,24f6 <msh_exec+0x134>
    251e:	bf8d                	j	2490 <msh_exec+0xce>
    2520:	00178e83          	lb	t4,1(a5)
    2524:	01c59663          	bne	a1,t3,2530 <msh_exec+0x16e>
    2528:	00ce9463          	bne	t4,a2,2530 <msh_exec+0x16e>
    252c:	0785                	addi	a5,a5,1
    252e:	0705                	addi	a4,a4,1
    2530:	0785                	addi	a5,a5,1
    2532:	0705                	addi	a4,a4,1
    2534:	bff1                	j	2510 <msh_exec+0x14e>
    2536:	fe9773e3          	bgeu	a4,s1,251c <msh_exec+0x15a>
    253a:	00078023          	sb	zero,0(a5)
    253e:	0705                	addi	a4,a4,1
    2540:	0785                	addi	a5,a5,1
    2542:	0691                	addi	a3,a3,4
    2544:	f29764e3          	bltu	a4,s1,246c <msh_exec+0xaa>
    2548:	bfd1                	j	251c <msh_exec+0x15a>
    254a:	c29c                	sw	a5,0(a3)
    254c:	00078583          	lb	a1,0(a5)
    2550:	01058963          	beq	a1,a6,2562 <msh_exec+0x1a0>
    2554:	01158763          	beq	a1,a7,2562 <msh_exec+0x1a0>
    2558:	fc9702e3          	beq	a4,s1,251c <msh_exec+0x15a>
    255c:	0785                	addi	a5,a5,1
    255e:	0705                	addi	a4,a4,1
    2560:	b7f5                	j	254c <msh_exec+0x18a>
    2562:	fe9760e3          	bltu	a4,s1,2542 <msh_exec+0x180>
    2566:	bf5d                	j	251c <msh_exec+0x15a>
    2568:	0785                	addi	a5,a5,1
    256a:	b725                	j	2492 <msh_exec+0xd0>

0000256c <msh_auto_complete>:
    256c:	e0ffd2ef          	jal	t0,37a <__riscv_save_10>
    2570:	00050783          	lb	a5,0(a0)
    2574:	e799                	bnez	a5,2582 <msh_auto_complete+0x16>
    2576:	4581                	li	a1,0
    2578:	4501                	li	a0,0
    257a:	dedff0ef          	jal	ra,2366 <msh_help>
    257e:	e35fd06f          	j	3b2 <__riscv_restore_10>
    2582:	8b81aa03          	lw	s4,-1864(gp) # 200003e8 <_syscall_table_begin>
    2586:	89aa                	mv	s3,a0
    2588:	4481                	li	s1,0
    258a:	4901                	li	s2,0
    258c:	0000bb37          	lui	s6,0xb
    2590:	0000bbb7          	lui	s7,0xb
    2594:	8bc1a783          	lw	a5,-1860(gp) # 200003ec <_syscall_table_end>
    2598:	00fa6963          	bltu	s4,a5,25aa <msh_auto_complete+0x3e>
    259c:	d0ed                	beqz	s1,257e <msh_auto_complete+0x12>
    259e:	864a                	mv	a2,s2
    25a0:	85a6                	mv	a1,s1
    25a2:	854e                	mv	a0,s3
    25a4:	f4afe0ef          	jal	ra,cee <rt_strncpy>
    25a8:	bfd9                	j	257e <msh_auto_complete+0x12>
    25aa:	000a2403          	lw	s0,0(s4)
    25ae:	4619                	li	a2,6
    25b0:	550b0593          	addi	a1,s6,1360 # b550 <__fsym_reboot_name+0x188>
    25b4:	8522                	mv	a0,s0
    25b6:	431020ef          	jal	ra,51e6 <strncmp>
    25ba:	e121                	bnez	a0,25fa <msh_auto_complete+0x8e>
    25bc:	854e                	mv	a0,s3
    25be:	417020ef          	jal	ra,51d4 <strlen>
    25c2:	0419                	addi	s0,s0,6
    25c4:	862a                	mv	a2,a0
    25c6:	85a2                	mv	a1,s0
    25c8:	854e                	mv	a0,s3
    25ca:	41d020ef          	jal	ra,51e6 <strncmp>
    25ce:	e515                	bnez	a0,25fa <msh_auto_complete+0x8e>
    25d0:	00091763          	bnez	s2,25de <msh_auto_complete+0x72>
    25d4:	8522                	mv	a0,s0
    25d6:	3ff020ef          	jal	ra,51d4 <strlen>
    25da:	892a                	mv	s2,a0
    25dc:	84a2                	mv	s1,s0
    25de:	87a6                	mv	a5,s1
    25e0:	8722                	mv	a4,s0
    25e2:	00078603          	lb	a2,0(a5)
    25e6:	ee01                	bnez	a2,25fe <msh_auto_complete+0x92>
    25e8:	8f85                	sub	a5,a5,s1
    25ea:	0127d363          	bge	a5,s2,25f0 <msh_auto_complete+0x84>
    25ee:	893e                	mv	s2,a5
    25f0:	85a2                	mv	a1,s0
    25f2:	560b8513          	addi	a0,s7,1376 # b560 <__fsym_reboot_name+0x198>
    25f6:	ae9fe0ef          	jal	ra,10de <rt_kprintf>
    25fa:	0a31                	addi	s4,s4,12
    25fc:	bf61                	j	2594 <msh_auto_complete+0x28>
    25fe:	00070683          	lb	a3,0(a4) # e000e000 <_eusrstack+0xbfffe000>
    2602:	d2fd                	beqz	a3,25e8 <msh_auto_complete+0x7c>
    2604:	fed612e3          	bne	a2,a3,25e8 <msh_auto_complete+0x7c>
    2608:	0785                	addi	a5,a5,1
    260a:	0705                	addi	a4,a4,1
    260c:	bfd9                	j	25e2 <msh_auto_complete+0x76>

0000260e <cmd_ps>:
    260e:	d95fd2ef          	jal	t0,3a2 <__riscv_save_0>
    2612:	fa2ff0ef          	jal	ra,1db4 <list_thread>
    2616:	4501                	li	a0,0
    2618:	daffd06f          	j	3c6 <__riscv_restore_0>

0000261c <cmd_free>:
    261c:	d87fd2ef          	jal	t0,3a2 <__riscv_save_0>
    2620:	c0bfe0ef          	jal	ra,122a <list_mem>
    2624:	4501                	li	a0,0
    2626:	da1fd06f          	j	3c6 <__riscv_restore_0>

0000262a <finsh_rx_ind>:
    262a:	d79fd2ef          	jal	t0,3a2 <__riscv_save_0>
    262e:	8b41a503          	lw	a0,-1868(gp) # 200003e4 <shell>
    2632:	baefe0ef          	jal	ra,9e0 <rt_sem_release>
    2636:	4501                	li	a0,0
    2638:	d8ffd06f          	j	3c6 <__riscv_restore_0>

0000263c <finsh_system_init>:
    263c:	d67fd2ef          	jal	t0,3a2 <__riscv_save_0>
    2640:	0000c7b7          	lui	a5,0xc
    2644:	6fc78793          	addi	a5,a5,1788 # c6fc <__fsym_list_mem>
    2648:	8af1ac23          	sw	a5,-1864(gp) # 200003e8 <_syscall_table_begin>
    264c:	0000d7b7          	lui	a5,0xd
    2650:	89478793          	addi	a5,a5,-1900 # c894 <__rt_init_rti_start>
    2654:	8af1ae23          	sw	a5,-1860(gp) # 200003ec <_syscall_table_end>
    2658:	0000d7b7          	lui	a5,0xd
    265c:	89478793          	addi	a5,a5,-1900 # c894 <__rt_init_rti_start>
    2660:	8cf1a023          	sw	a5,-1856(gp) # 200003f0 <_sysvar_table_begin>
    2664:	0000d7b7          	lui	a5,0xd
    2668:	89478793          	addi	a5,a5,-1900 # c894 <__rt_init_rti_start>
    266c:	21000593          	li	a1,528
    2670:	4505                	li	a0,1
    2672:	8cf1a223          	sw	a5,-1852(gp) # 200003f4 <_sysvar_table_end>
    2676:	8b418413          	addi	s0,gp,-1868 # 200003e4 <shell>
    267a:	d8bfe0ef          	jal	ra,1404 <rt_calloc>
    267e:	c008                	sw	a0,0(s0)
    2680:	e919                	bnez	a0,2696 <finsh_system_init+0x5a>
    2682:	0000b537          	lui	a0,0xb
    2686:	61450513          	addi	a0,a0,1556 # b614 <__fsym___cmd_ps_name+0x40>
    268a:	a55fe0ef          	jal	ra,10de <rt_kprintf>
    268e:	547d                	li	s0,-1
    2690:	8522                	mv	a0,s0
    2692:	d35fd06f          	j	3c6 <__riscv_restore_0>
    2696:	6685                	lui	a3,0x1
    2698:	000025b7          	lui	a1,0x2
    269c:	0000b537          	lui	a0,0xb
    26a0:	47a9                	li	a5,10
    26a2:	4715                	li	a4,5
    26a4:	80068693          	addi	a3,a3,-2048 # 800 <__stack_size>
    26a8:	4601                	li	a2,0
    26aa:	7be58593          	addi	a1,a1,1982 # 27be <finsh_thread_entry>
    26ae:	62c50513          	addi	a0,a0,1580 # b62c <__fsym___cmd_ps_name+0x58>
    26b2:	a2eff0ef          	jal	ra,18e0 <rt_thread_create>
    26b6:	84aa                	mv	s1,a0
    26b8:	4008                	lw	a0,0(s0)
    26ba:	0000b5b7          	lui	a1,0xb
    26be:	4681                	li	a3,0
    26c0:	4601                	li	a2,0
    26c2:	63458593          	addi	a1,a1,1588 # b634 <__fsym___cmd_ps_name+0x60>
    26c6:	a72fe0ef          	jal	ra,938 <rt_sem_init>
    26ca:	4401                	li	s0,0
    26cc:	d0f1                	beqz	s1,2690 <finsh_system_init+0x54>
    26ce:	8526                	mv	a0,s1
    26d0:	b8cff0ef          	jal	ra,1a5c <rt_thread_startup>
    26d4:	bf75                	j	2690 <finsh_system_init+0x54>

000026d6 <finsh_get_prompt>:
    26d6:	ccdfd2ef          	jal	t0,3a2 <__riscv_save_0>
    26da:	ce5ff0ef          	jal	ra,23be <msh_is_used>
    26de:	c50d                	beqz	a0,2708 <finsh_get_prompt+0x32>
    26e0:	0000b5b7          	lui	a1,0xb
    26e4:	5e058593          	addi	a1,a1,1504 # b5e0 <__fsym___cmd_ps_name+0xc>
    26e8:	c9018513          	addi	a0,gp,-880 # 200007c0 <finsh_prompt.4315>
    26ec:	2d9020ef          	jal	ra,51c4 <strcpy>
    26f0:	0000b5b7          	lui	a1,0xb
    26f4:	5f058593          	addi	a1,a1,1520 # b5f0 <__fsym___cmd_ps_name+0x1c>
    26f8:	c9018513          	addi	a0,gp,-880 # 200007c0 <finsh_prompt.4315>
    26fc:	293020ef          	jal	ra,518e <strcat>
    2700:	c9018513          	addi	a0,gp,-880 # 200007c0 <finsh_prompt.4315>
    2704:	cc3fd06f          	j	3c6 <__riscv_restore_0>
    2708:	0000b5b7          	lui	a1,0xb
    270c:	5e858593          	addi	a1,a1,1512 # b5e8 <__fsym___cmd_ps_name+0x14>
    2710:	bfe1                	j	26e8 <finsh_get_prompt+0x12>

00002712 <shell_handle_history>:
    2712:	c91fd2ef          	jal	t0,3a2 <__riscv_save_0>
    2716:	842a                	mv	s0,a0
    2718:	0000b537          	lui	a0,0xb
    271c:	65050513          	addi	a0,a0,1616 # b650 <__fsym___cmd_ps_name+0x7c>
    2720:	9bffe0ef          	jal	ra,10de <rt_kprintf>
    2724:	fb3ff0ef          	jal	ra,26d6 <finsh_get_prompt>
    2728:	85aa                	mv	a1,a0
    272a:	0000b537          	lui	a0,0xb
    272e:	1ba40613          	addi	a2,s0,442
    2732:	65850513          	addi	a0,a0,1624 # b658 <__fsym___cmd_ps_name+0x84>
    2736:	9a9fe0ef          	jal	ra,10de <rt_kprintf>
    273a:	4501                	li	a0,0
    273c:	c8bfd06f          	j	3c6 <__riscv_restore_0>

00002740 <finsh_set_device>:
    2740:	c63fd2ef          	jal	t0,3a2 <__riscv_save_0>
    2744:	1141                	addi	sp,sp,-16
    2746:	c62a                	sw	a0,12(sp)
    2748:	f55fd0ef          	jal	ra,69c <rt_device_find>
    274c:	45b2                	lw	a1,12(sp)
    274e:	e911                	bnez	a0,2762 <finsh_set_device+0x22>
    2750:	0000b537          	lui	a0,0xb
    2754:	5f450513          	addi	a0,a0,1524 # b5f4 <__fsym___cmd_ps_name+0x20>
    2758:	987fe0ef          	jal	ra,10de <rt_kprintf>
    275c:	0141                	addi	sp,sp,16
    275e:	c69fd06f          	j	3c6 <__riscv_restore_0>
    2762:	8b41a783          	lw	a5,-1868(gp) # 200003e4 <shell>
    2766:	84aa                	mv	s1,a0
    2768:	8b418413          	addi	s0,gp,-1868 # 200003e4 <shell>
    276c:	20c7a783          	lw	a5,524(a5)
    2770:	fea786e3          	beq	a5,a0,275c <finsh_set_device+0x1c>
    2774:	14300593          	li	a1,323
    2778:	fa1fd0ef          	jal	ra,718 <rt_device_open>
    277c:	f165                	bnez	a0,275c <finsh_set_device+0x1c>
    277e:	401c                	lw	a5,0(s0)
    2780:	20c7a503          	lw	a0,524(a5)
    2784:	c909                	beqz	a0,2796 <finsh_set_device+0x56>
    2786:	80cfe0ef          	jal	ra,792 <rt_device_close>
    278a:	401c                	lw	a5,0(s0)
    278c:	4581                	li	a1,0
    278e:	20c7a503          	lw	a0,524(a5)
    2792:	880fe0ef          	jal	ra,812 <rt_device_set_rx_indicate>
    2796:	4000                	lw	s0,0(s0)
    2798:	05000613          	li	a2,80
    279c:	4581                	li	a1,0
    279e:	1ba40513          	addi	a0,s0,442
    27a2:	c31fd0ef          	jal	ra,3d2 <memset>
    27a6:	000025b7          	lui	a1,0x2
    27aa:	20041523          	sh	zero,522(s0)
    27ae:	20942623          	sw	s1,524(s0)
    27b2:	62a58593          	addi	a1,a1,1578 # 262a <finsh_rx_ind>
    27b6:	8526                	mv	a0,s1
    27b8:	85afe0ef          	jal	ra,812 <rt_device_set_rx_indicate>
    27bc:	b745                	j	275c <finsh_set_device+0x1c>

000027be <finsh_thread_entry>:
    27be:	bb5fd2ef          	jal	t0,372 <__riscv_save_12>
    27c2:	8b41a783          	lw	a5,-1868(gp) # 200003e4 <shell>
    27c6:	1141                	addi	sp,sp,-16
    27c8:	8b418493          	addi	s1,gp,-1868 # 200003e4 <shell>
    27cc:	0247c703          	lbu	a4,36(a5)
    27d0:	00176713          	ori	a4,a4,1
    27d4:	02e78223          	sb	a4,36(a5)
    27d8:	20c7a783          	lw	a5,524(a5)
    27dc:	e791                	bnez	a5,27e8 <finsh_thread_entry+0x2a>
    27de:	8cbfe0ef          	jal	ra,10a8 <rt_console_get_device>
    27e2:	c119                	beqz	a0,27e8 <finsh_thread_entry+0x2a>
    27e4:	f5dff0ef          	jal	ra,2740 <finsh_set_device>
    27e8:	eefff0ef          	jal	ra,26d6 <finsh_get_prompt>
    27ec:	8f3fe0ef          	jal	ra,10de <rt_kprintf>
    27f0:	0000bb37          	lui	s6,0xb
    27f4:	0000bbb7          	lui	s7,0xb
    27f8:	0000b9b7          	lui	s3,0xb
    27fc:	0000ca37          	lui	s4,0xc
    2800:	0000bab7          	lui	s5,0xb
    2804:	0000bc37          	lui	s8,0xb
    2808:	0000bcb7          	lui	s9,0xb
    280c:	409c                	lw	a5,0(s1)
    280e:	4685                	li	a3,1
    2810:	00f10613          	addi	a2,sp,15
    2814:	20c7a503          	lw	a0,524(a5)
    2818:	55fd                	li	a1,-1
    281a:	fb1fd0ef          	jal	ra,7ca <rt_device_read>
    281e:	4785                	li	a5,1
    2820:	00f51a63          	bne	a0,a5,2834 <finsh_thread_entry+0x76>
    2824:	00f10903          	lb	s2,15(sp)
    2828:	47ed                	li	a5,27
    282a:	4080                	lw	s0,0(s1)
    282c:	00f91963          	bne	s2,a5,283e <finsh_thread_entry+0x80>
    2830:	d008                	sw	a0,32(s0)
    2832:	bfe9                	j	280c <finsh_thread_entry+0x4e>
    2834:	4088                	lw	a0,0(s1)
    2836:	55fd                	li	a1,-1
    2838:	928fe0ef          	jal	ra,960 <rt_sem_take>
    283c:	bfc1                	j	280c <finsh_thread_entry+0x4e>
    283e:	501c                	lw	a5,32(s0)
    2840:	02a79263          	bne	a5,a0,2864 <finsh_thread_entry+0xa6>
    2844:	05b00793          	li	a5,91
    2848:	00f91563          	bne	s2,a5,2852 <finsh_thread_entry+0x94>
    284c:	4789                	li	a5,2
    284e:	d01c                	sw	a5,32(s0)
    2850:	bf75                	j	280c <finsh_thread_entry+0x4e>
    2852:	02042023          	sw	zero,32(s0)
    2856:	fa090be3          	beqz	s2,280c <finsh_thread_entry+0x4e>
    285a:	47a5                	li	a5,9
    285c:	12f91463          	bne	s2,a5,2984 <finsh_thread_entry+0x1c6>
    2860:	4901                	li	s2,0
    2862:	a8d1                	j	2936 <finsh_thread_entry+0x178>
    2864:	4709                	li	a4,2
    2866:	fee798e3          	bne	a5,a4,2856 <finsh_thread_entry+0x98>
    286a:	02042023          	sw	zero,32(s0)
    286e:	04100793          	li	a5,65
    2872:	04f91263          	bne	s2,a5,28b6 <finsh_thread_entry+0xf8>
    2876:	306e                	lhu	a1,38(s0)
    2878:	d9d1                	beqz	a1,280c <finsh_thread_entry+0x4e>
    287a:	15fd                	addi	a1,a1,-1
    287c:	05c2                	slli	a1,a1,0x10
    287e:	81c1                	srli	a1,a1,0x10
    2880:	b06e                	sh	a1,38(s0)
    2882:	1ba40793          	addi	a5,s0,442
    2886:	05000713          	li	a4,80
    288a:	02e585b3          	mul	a1,a1,a4
    288e:	05000613          	li	a2,80
    2892:	853e                	mv	a0,a5
    2894:	02a58593          	addi	a1,a1,42
    2898:	95a2                	add	a1,a1,s0
    289a:	6f6020ef          	jal	ra,4f90 <memcpy>
    289e:	137020ef          	jal	ra,51d4 <strlen>
    28a2:	0ff57513          	andi	a0,a0,255
    28a6:	20a40523          	sb	a0,522(s0)
    28aa:	20a405a3          	sb	a0,523(s0)
    28ae:	8522                	mv	a0,s0
    28b0:	e63ff0ef          	jal	ra,2712 <shell_handle_history>
    28b4:	bfa1                	j	280c <finsh_thread_entry+0x4e>
    28b6:	04200793          	li	a5,66
    28ba:	02f91163          	bne	s2,a5,28dc <finsh_thread_entry+0x11e>
    28be:	3416                	lhu	a3,40(s0)
    28c0:	307e                	lhu	a5,38(s0)
    28c2:	fff68713          	addi	a4,a3,-1
    28c6:	00e7d863          	bge	a5,a4,28d6 <finsh_thread_entry+0x118>
    28ca:	0785                	addi	a5,a5,1
    28cc:	b07e                	sh	a5,38(s0)
    28ce:	1ba40793          	addi	a5,s0,442
    28d2:	306e                	lhu	a1,38(s0)
    28d4:	bf4d                	j	2886 <finsh_thread_entry+0xc8>
    28d6:	da9d                	beqz	a3,280c <finsh_thread_entry+0x4e>
    28d8:	b07a                	sh	a4,38(s0)
    28da:	bfd5                	j	28ce <finsh_thread_entry+0x110>
    28dc:	04400793          	li	a5,68
    28e0:	02f91063          	bne	s2,a5,2900 <finsh_thread_entry+0x142>
    28e4:	20b44783          	lbu	a5,523(s0)
    28e8:	d395                	beqz	a5,280c <finsh_thread_entry+0x4e>
    28ea:	63c98513          	addi	a0,s3,1596 # b63c <__fsym___cmd_ps_name+0x68>
    28ee:	ff0fe0ef          	jal	ra,10de <rt_kprintf>
    28f2:	4098                	lw	a4,0(s1)
    28f4:	20b74783          	lbu	a5,523(a4)
    28f8:	17fd                	addi	a5,a5,-1
    28fa:	20f705a3          	sb	a5,523(a4)
    28fe:	b739                	j	280c <finsh_thread_entry+0x4e>
    2900:	04300793          	li	a5,67
    2904:	f4f919e3          	bne	s2,a5,2856 <finsh_thread_entry+0x98>
    2908:	20b44783          	lbu	a5,523(s0)
    290c:	20a44703          	lbu	a4,522(s0)
    2910:	eee7fee3          	bgeu	a5,a4,280c <finsh_thread_entry+0x4e>
    2914:	943e                	add	s0,s0,a5
    2916:	1ba40583          	lb	a1,442(s0)
    291a:	640a8513          	addi	a0,s5,1600 # b640 <__fsym___cmd_ps_name+0x6c>
    291e:	fc0fe0ef          	jal	ra,10de <rt_kprintf>
    2922:	4098                	lw	a4,0(s1)
    2924:	20b74783          	lbu	a5,523(a4)
    2928:	0785                	addi	a5,a5,1
    292a:	bfc1                	j	28fa <finsh_thread_entry+0x13c>
    292c:	63c98513          	addi	a0,s3,1596
    2930:	faefe0ef          	jal	ra,10de <rt_kprintf>
    2934:	0905                	addi	s2,s2,1
    2936:	4080                	lw	s0,0(s1)
    2938:	20b44783          	lbu	a5,523(s0)
    293c:	fef948e3          	blt	s2,a5,292c <finsh_thread_entry+0x16e>
    2940:	0b0a0513          	addi	a0,s4,176 # c0b0 <__fsym___cmd_wifi_power_cmd_name+0x1f0>
    2944:	f9afe0ef          	jal	ra,10de <rt_kprintf>
    2948:	a77ff0ef          	jal	ra,23be <msh_is_used>
    294c:	4785                	li	a5,1
    294e:	1ba40413          	addi	s0,s0,442
    2952:	00f51563          	bne	a0,a5,295c <finsh_thread_entry+0x19e>
    2956:	8522                	mv	a0,s0
    2958:	c15ff0ef          	jal	ra,256c <msh_auto_complete>
    295c:	d7bff0ef          	jal	ra,26d6 <finsh_get_prompt>
    2960:	8622                	mv	a2,s0
    2962:	85aa                	mv	a1,a0
    2964:	658c8513          	addi	a0,s9,1624 # b658 <__fsym___cmd_ps_name+0x84>
    2968:	f76fe0ef          	jal	ra,10de <rt_kprintf>
    296c:	4080                	lw	s0,0(s1)
    296e:	1ba40513          	addi	a0,s0,442
    2972:	063020ef          	jal	ra,51d4 <strlen>
    2976:	0ff57513          	andi	a0,a0,255
    297a:	20a40523          	sb	a0,522(s0)
    297e:	20a405a3          	sb	a0,523(s0)
    2982:	b569                	j	280c <finsh_thread_entry+0x4e>
    2984:	07f00793          	li	a5,127
    2988:	00f90563          	beq	s2,a5,2992 <finsh_thread_entry+0x1d4>
    298c:	47a1                	li	a5,8
    298e:	08f91563          	bne	s2,a5,2a18 <finsh_thread_entry+0x25a>
    2992:	20b44783          	lbu	a5,523(s0)
    2996:	e6078be3          	beqz	a5,280c <finsh_thread_entry+0x4e>
    299a:	20a44603          	lbu	a2,522(s0)
    299e:	17fd                	addi	a5,a5,-1
    29a0:	0ff7f793          	andi	a5,a5,255
    29a4:	167d                	addi	a2,a2,-1
    29a6:	0ff67613          	andi	a2,a2,255
    29aa:	20c40523          	sb	a2,522(s0)
    29ae:	20f405a3          	sb	a5,523(s0)
    29b2:	04c7f863          	bgeu	a5,a2,2a02 <finsh_thread_entry+0x244>
    29b6:	1bb78593          	addi	a1,a5,443
    29ba:	1ba78513          	addi	a0,a5,442
    29be:	8e1d                	sub	a2,a2,a5
    29c0:	95a2                	add	a1,a1,s0
    29c2:	9522                	add	a0,a0,s0
    29c4:	ae2fe0ef          	jal	ra,ca6 <rt_memmove>
    29c8:	409c                	lw	a5,0(s1)
    29ca:	644b8513          	addi	a0,s7,1604 # b644 <__fsym___cmd_ps_name+0x70>
    29ce:	20a7c703          	lbu	a4,522(a5)
    29d2:	973e                	add	a4,a4,a5
    29d4:	1a070d23          	sb	zero,442(a4)
    29d8:	20b7c583          	lbu	a1,523(a5)
    29dc:	1ba58593          	addi	a1,a1,442
    29e0:	95be                	add	a1,a1,a5
    29e2:	efcfe0ef          	jal	ra,10de <rt_kprintf>
    29e6:	409c                	lw	a5,0(s1)
    29e8:	20b7c403          	lbu	s0,523(a5)
    29ec:	409c                	lw	a5,0(s1)
    29ee:	20a7c783          	lbu	a5,522(a5)
    29f2:	e087cde3          	blt	a5,s0,280c <finsh_thread_entry+0x4e>
    29f6:	63c98513          	addi	a0,s3,1596
    29fa:	ee4fe0ef          	jal	ra,10de <rt_kprintf>
    29fe:	0405                	addi	s0,s0,1
    2a00:	b7f5                	j	29ec <finsh_thread_entry+0x22e>
    2a02:	64cb0513          	addi	a0,s6,1612 # b64c <__fsym___cmd_ps_name+0x78>
    2a06:	ed8fe0ef          	jal	ra,10de <rt_kprintf>
    2a0a:	409c                	lw	a5,0(s1)
    2a0c:	20a7c703          	lbu	a4,522(a5)
    2a10:	97ba                	add	a5,a5,a4
    2a12:	1a078d23          	sb	zero,442(a5)
    2a16:	bbdd                	j	280c <finsh_thread_entry+0x4e>
    2a18:	4735                	li	a4,13
    2a1a:	20a44783          	lbu	a5,522(s0)
    2a1e:	00e90563          	beq	s2,a4,2a28 <finsh_thread_entry+0x26a>
    2a22:	4729                	li	a4,10
    2a24:	0ee91e63          	bne	s2,a4,2b20 <finsh_thread_entry+0x362>
    2a28:	cbb9                	beqz	a5,2a7e <finsh_thread_entry+0x2c0>
    2a2a:	02845903          	lhu	s2,40(s0)
    2a2e:	4791                	li	a5,4
    2a30:	1ba40d13          	addi	s10,s0,442
    2a34:	0927fb63          	bgeu	a5,s2,2aca <finsh_thread_entry+0x30c>
    2a38:	16a40d93          	addi	s11,s0,362
    2a3c:	05000613          	li	a2,80
    2a40:	85ea                	mv	a1,s10
    2a42:	856e                	mv	a0,s11
    2a44:	528020ef          	jal	ra,4f6c <memcmp>
    2a48:	c91d                	beqz	a0,2a7e <finsh_thread_entry+0x2c0>
    2a4a:	02a40913          	addi	s2,s0,42
    2a4e:	854a                	mv	a0,s2
    2a50:	05090913          	addi	s2,s2,80
    2a54:	05000613          	li	a2,80
    2a58:	85ca                	mv	a1,s2
    2a5a:	536020ef          	jal	ra,4f90 <memcpy>
    2a5e:	ff2d98e3          	bne	s11,s2,2a4e <finsh_thread_entry+0x290>
    2a62:	05000613          	li	a2,80
    2a66:	4581                	li	a1,0
    2a68:	856e                	mv	a0,s11
    2a6a:	969fd0ef          	jal	ra,3d2 <memset>
    2a6e:	20a44603          	lbu	a2,522(s0)
    2a72:	85ea                	mv	a1,s10
    2a74:	856e                	mv	a0,s11
    2a76:	51a020ef          	jal	ra,4f90 <memcpy>
    2a7a:	4795                	li	a5,5
    2a7c:	b41e                	sh	a5,40(s0)
    2a7e:	341e                	lhu	a5,40(s0)
    2a80:	b07e                	sh	a5,38(s0)
    2a82:	93dff0ef          	jal	ra,23be <msh_is_used>
    2a86:	4785                	li	a5,1
    2a88:	02f51263          	bne	a0,a5,2aac <finsh_thread_entry+0x2ee>
    2a8c:	409c                	lw	a5,0(s1)
    2a8e:	0247c783          	lbu	a5,36(a5)
    2a92:	8b85                	andi	a5,a5,1
    2a94:	c789                	beqz	a5,2a9e <finsh_thread_entry+0x2e0>
    2a96:	0b0a0513          	addi	a0,s4,176
    2a9a:	e44fe0ef          	jal	ra,10de <rt_kprintf>
    2a9e:	4088                	lw	a0,0(s1)
    2aa0:	20a54583          	lbu	a1,522(a0)
    2aa4:	1ba50513          	addi	a0,a0,442
    2aa8:	91bff0ef          	jal	ra,23c2 <msh_exec>
    2aac:	c2bff0ef          	jal	ra,26d6 <finsh_get_prompt>
    2ab0:	e2efe0ef          	jal	ra,10de <rt_kprintf>
    2ab4:	4080                	lw	s0,0(s1)
    2ab6:	05000613          	li	a2,80
    2aba:	4581                	li	a1,0
    2abc:	1ba40513          	addi	a0,s0,442
    2ac0:	913fd0ef          	jal	ra,3d2 <memset>
    2ac4:	20041523          	sh	zero,522(s0)
    2ac8:	b391                	j	280c <finsh_thread_entry+0x4e>
    2aca:	02090163          	beqz	s2,2aec <finsh_thread_entry+0x32e>
    2ace:	fff90513          	addi	a0,s2,-1
    2ad2:	05000793          	li	a5,80
    2ad6:	02f50533          	mul	a0,a0,a5
    2ada:	05000613          	li	a2,80
    2ade:	85ea                	mv	a1,s10
    2ae0:	02a50513          	addi	a0,a0,42
    2ae4:	9522                	add	a0,a0,s0
    2ae6:	486020ef          	jal	ra,4f6c <memcmp>
    2aea:	d951                	beqz	a0,2a7e <finsh_thread_entry+0x2c0>
    2aec:	05000d93          	li	s11,80
    2af0:	03b90533          	mul	a0,s2,s11
    2af4:	05000613          	li	a2,80
    2af8:	4581                	li	a1,0
    2afa:	02a50513          	addi	a0,a0,42
    2afe:	9522                	add	a0,a0,s0
    2b00:	8d3fd0ef          	jal	ra,3d2 <memset>
    2b04:	340a                	lhu	a0,40(s0)
    2b06:	20a44603          	lbu	a2,522(s0)
    2b0a:	85ea                	mv	a1,s10
    2b0c:	03b50533          	mul	a0,a0,s11
    2b10:	02a50513          	addi	a0,a0,42
    2b14:	9522                	add	a0,a0,s0
    2b16:	47a020ef          	jal	ra,4f90 <memcpy>
    2b1a:	341e                	lhu	a5,40(s0)
    2b1c:	0785                	addi	a5,a5,1
    2b1e:	bfb9                	j	2a7c <finsh_thread_entry+0x2be>
    2b20:	04f00713          	li	a4,79
    2b24:	00f77463          	bgeu	a4,a5,2b2c <finsh_thread_entry+0x36e>
    2b28:	20040523          	sb	zero,522(s0)
    2b2c:	20b44603          	lbu	a2,523(s0)
    2b30:	20a44783          	lbu	a5,522(s0)
    2b34:	08f67063          	bgeu	a2,a5,2bb4 <finsh_thread_entry+0x3f6>
    2b38:	1ba60593          	addi	a1,a2,442
    2b3c:	1bb60513          	addi	a0,a2,443
    2b40:	95a2                	add	a1,a1,s0
    2b42:	40c78633          	sub	a2,a5,a2
    2b46:	9522                	add	a0,a0,s0
    2b48:	95efe0ef          	jal	ra,ca6 <rt_memmove>
    2b4c:	408c                	lw	a1,0(s1)
    2b4e:	20b5c783          	lbu	a5,523(a1)
    2b52:	00f58733          	add	a4,a1,a5
    2b56:	1b270d23          	sb	s2,442(a4)
    2b5a:	0245c703          	lbu	a4,36(a1)
    2b5e:	8b05                	andi	a4,a4,1
    2b60:	cb01                	beqz	a4,2b70 <finsh_thread_entry+0x3b2>
    2b62:	1ba78793          	addi	a5,a5,442
    2b66:	95be                	add	a1,a1,a5
    2b68:	3d4c0513          	addi	a0,s8,980 # b3d4 <__fsym_reboot_name+0xc>
    2b6c:	d72fe0ef          	jal	ra,10de <rt_kprintf>
    2b70:	409c                	lw	a5,0(s1)
    2b72:	20b7c403          	lbu	s0,523(a5)
    2b76:	409c                	lw	a5,0(s1)
    2b78:	20a7c783          	lbu	a5,522(a5)
    2b7c:	02f44663          	blt	s0,a5,2ba8 <finsh_thread_entry+0x3ea>
    2b80:	4098                	lw	a4,0(s1)
    2b82:	20a74783          	lbu	a5,522(a4)
    2b86:	20b74683          	lbu	a3,523(a4)
    2b8a:	0785                	addi	a5,a5,1
    2b8c:	0685                	addi	a3,a3,1
    2b8e:	0ff7f793          	andi	a5,a5,255
    2b92:	20d705a3          	sb	a3,523(a4)
    2b96:	20f70523          	sb	a5,522(a4)
    2b9a:	04f00693          	li	a3,79
    2b9e:	c6f6f7e3          	bgeu	a3,a5,280c <finsh_thread_entry+0x4e>
    2ba2:	20071523          	sh	zero,522(a4)
    2ba6:	b19d                	j	280c <finsh_thread_entry+0x4e>
    2ba8:	63c98513          	addi	a0,s3,1596
    2bac:	d32fe0ef          	jal	ra,10de <rt_kprintf>
    2bb0:	0405                	addi	s0,s0,1
    2bb2:	b7d1                	j	2b76 <finsh_thread_entry+0x3b8>
    2bb4:	97a2                	add	a5,a5,s0
    2bb6:	1b278d23          	sb	s2,442(a5)
    2bba:	02444783          	lbu	a5,36(s0)
    2bbe:	8b85                	andi	a5,a5,1
    2bc0:	d3e1                	beqz	a5,2b80 <finsh_thread_entry+0x3c2>
    2bc2:	85ca                	mv	a1,s2
    2bc4:	640a8513          	addi	a0,s5,1600
    2bc8:	d16fe0ef          	jal	ra,10de <rt_kprintf>
    2bcc:	bf55                	j	2b80 <finsh_thread_entry+0x3c2>

00002bce <rt_serial_init>:
    2bce:	417c                	lw	a5,68(a0)
    2bd0:	04052823          	sw	zero,80(a0)
    2bd4:	04052a23          	sw	zero,84(a0)
    2bd8:	439c                	lw	a5,0(a5)
    2bda:	cb81                	beqz	a5,2bea <rt_serial_init+0x1c>
    2bdc:	fc6fd2ef          	jal	t0,3a2 <__riscv_save_0>
    2be0:	04850593          	addi	a1,a0,72
    2be4:	9782                	jalr	a5
    2be6:	fe0fd06f          	j	3c6 <__riscv_restore_0>
    2bea:	4501                	li	a0,0
    2bec:	8082                	ret

00002bee <rt_serial_write>:
    2bee:	f9afd2ef          	jal	t0,388 <__riscv_save_4>
    2bf2:	8936                	mv	s2,a3
    2bf4:	ca9d                	beqz	a3,2c2a <rt_serial_write+0x3c>
    2bf6:	84aa                	mv	s1,a0
    2bf8:	8432                	mv	s0,a2
    2bfa:	00d609b3          	add	s3,a2,a3
    2bfe:	4a29                	li	s4,10
    2c00:	201c                	lbu	a5,0(s0)
    2c02:	01479b63          	bne	a5,s4,2c18 <rt_serial_write+0x2a>
    2c06:	2cbe                	lhu	a5,26(s1)
    2c08:	0407f793          	andi	a5,a5,64
    2c0c:	c791                	beqz	a5,2c18 <rt_serial_write+0x2a>
    2c0e:	40fc                	lw	a5,68(s1)
    2c10:	45b5                	li	a1,13
    2c12:	8526                	mv	a0,s1
    2c14:	479c                	lw	a5,8(a5)
    2c16:	9782                	jalr	a5
    2c18:	40fc                	lw	a5,68(s1)
    2c1a:	00040583          	lb	a1,0(s0)
    2c1e:	8526                	mv	a0,s1
    2c20:	479c                	lw	a5,8(a5)
    2c22:	0405                	addi	s0,s0,1
    2c24:	9782                	jalr	a5
    2c26:	fd341de3          	bne	s0,s3,2c00 <rt_serial_write+0x12>
    2c2a:	854a                	mv	a0,s2
    2c2c:	f90fd06f          	j	3bc <__riscv_restore_4>

00002c30 <rt_serial_open>:
    2c30:	f72fd2ef          	jal	t0,3a2 <__riscv_save_0>
    2c34:	1005f793          	andi	a5,a1,256
    2c38:	842a                	mv	s0,a0
    2c3a:	c791                	beqz	a5,2c46 <rt_serial_open+0x16>
    2c3c:	2d1a                	lhu	a4,24(a0)
    2c3e:	5561                	li	a0,-8
    2c40:	10077713          	andi	a4,a4,256
    2c44:	cf35                	beqz	a4,2cc0 <rt_serial_open+0x90>
    2c46:	4005f713          	andi	a4,a1,1024
    2c4a:	c711                	beqz	a4,2c56 <rt_serial_open+0x26>
    2c4c:	2c1a                	lhu	a4,24(s0)
    2c4e:	5561                	li	a0,-8
    2c50:	40077713          	andi	a4,a4,1024
    2c54:	c735                	beqz	a4,2cc0 <rt_serial_open+0x90>
    2c56:	0405f713          	andi	a4,a1,64
    2c5a:	04000493          	li	s1,64
    2c5e:	e701                	bnez	a4,2c66 <rt_serial_open+0x36>
    2c60:	2c26                	lhu	s1,26(s0)
    2c62:	0404f493          	andi	s1,s1,64
    2c66:	4838                	lw	a4,80(s0)
    2c68:	0ff5f593          	andi	a1,a1,255
    2c6c:	ac2e                	sh	a1,26(s0)
    2c6e:	eb39                	bnez	a4,2cc4 <rt_serial_open+0x94>
    2c70:	c7a1                	beqz	a5,2cb8 <rt_serial_open+0x88>
    2c72:	4468                	lw	a0,76(s0)
    2c74:	8129                	srli	a0,a0,0xa
    2c76:	0542                	slli	a0,a0,0x10
    2c78:	8141                	srli	a0,a0,0x10
    2c7a:	0531                	addi	a0,a0,12
    2c7c:	e5cfe0ef          	jal	ra,12d8 <rt_malloc>
    2c80:	4470                	lw	a2,76(s0)
    2c82:	892a                	mv	s2,a0
    2c84:	0531                	addi	a0,a0,12
    2c86:	8229                	srli	a2,a2,0xa
    2c88:	0642                	slli	a2,a2,0x10
    2c8a:	8241                	srli	a2,a2,0x10
    2c8c:	4581                	li	a1,0
    2c8e:	00a92023          	sw	a0,0(s2)
    2c92:	f8dfd0ef          	jal	ra,c1e <rt_memset>
    2c96:	00092223          	sw	zero,4(s2)
    2c9a:	2c3e                	lhu	a5,26(s0)
    2c9c:	00092423          	sw	zero,8(s2)
    2ca0:	05242823          	sw	s2,80(s0)
    2ca4:	1007e793          	ori	a5,a5,256
    2ca8:	ac3e                	sh	a5,26(s0)
    2caa:	407c                	lw	a5,68(s0)
    2cac:	10000613          	li	a2,256
    2cb0:	45c1                	li	a1,16
    2cb2:	43dc                	lw	a5,4(a5)
    2cb4:	8522                	mv	a0,s0
    2cb6:	9782                	jalr	a5
    2cb8:	2c3e                	lhu	a5,26(s0)
    2cba:	4501                	li	a0,0
    2cbc:	8cdd                	or	s1,s1,a5
    2cbe:	ac26                	sh	s1,26(s0)
    2cc0:	f06fd06f          	j	3c6 <__riscv_restore_0>
    2cc4:	dbf5                	beqz	a5,2cb8 <rt_serial_open+0x88>
    2cc6:	1005e593          	ori	a1,a1,256
    2cca:	ac2e                	sh	a1,26(s0)
    2ccc:	b7f5                	j	2cb8 <rt_serial_open+0x88>

00002cce <rt_serial_control>:
    2cce:	4809                	li	a6,2
    2cd0:	87aa                	mv	a5,a0
    2cd2:	03058163          	beq	a1,a6,2cf4 <rt_serial_control+0x26>
    2cd6:	eccfd2ef          	jal	t0,3a2 <__riscv_save_0>
    2cda:	480d                	li	a6,3
    2cdc:	03058263          	beq	a1,a6,2d00 <rt_serial_control+0x32>
    2ce0:	4705                	li	a4,1
    2ce2:	04e59963          	bne	a1,a4,2d34 <rt_serial_control+0x66>
    2ce6:	2d1a                	lhu	a4,24(a0)
    2ce8:	fdf77713          	andi	a4,a4,-33
    2cec:	ad1a                	sh	a4,24(a0)
    2cee:	4501                	li	a0,0
    2cf0:	ed6fd06f          	j	3c6 <__riscv_restore_0>
    2cf4:	2d1a                	lhu	a4,24(a0)
    2cf6:	02076713          	ori	a4,a4,32
    2cfa:	ad1a                	sh	a4,24(a0)
    2cfc:	4501                	li	a0,0
    2cfe:	8082                	ret
    2d00:	8732                	mv	a4,a2
    2d02:	d675                	beqz	a2,2cee <rt_serial_control+0x20>
    2d04:	4250                	lw	a2,4(a2)
    2d06:	4574                	lw	a3,76(a0)
    2d08:	2d4c                	lbu	a1,28(a0)
    2d0a:	8229                	srli	a2,a2,0xa
    2d0c:	82a9                	srli	a3,a3,0xa
    2d0e:	0642                	slli	a2,a2,0x10
    2d10:	06c2                	slli	a3,a3,0x10
    2d12:	8241                	srli	a2,a2,0x10
    2d14:	82c1                	srli	a3,a3,0x10
    2d16:	00d60463          	beq	a2,a3,2d1e <rt_serial_control+0x50>
    2d1a:	451d                	li	a0,7
    2d1c:	f9f1                	bnez	a1,2cf0 <rt_serial_control+0x22>
    2d1e:	4314                	lw	a3,0(a4)
    2d20:	c7b4                	sw	a3,72(a5)
    2d22:	4354                	lw	a3,4(a4)
    2d24:	c7f4                	sw	a3,76(a5)
    2d26:	d5e1                	beqz	a1,2cee <rt_serial_control+0x20>
    2d28:	43f4                	lw	a3,68(a5)
    2d2a:	85ba                	mv	a1,a4
    2d2c:	853e                	mv	a0,a5
    2d2e:	4294                	lw	a3,0(a3)
    2d30:	9682                	jalr	a3
    2d32:	bf75                	j	2cee <rt_serial_control+0x20>
    2d34:	417c                	lw	a5,68(a0)
    2d36:	43dc                	lw	a5,4(a5)
    2d38:	9782                	jalr	a5
    2d3a:	bf5d                	j	2cf0 <rt_serial_control+0x22>

00002d3c <rt_serial_read>:
    2d3c:	e4cfd2ef          	jal	t0,388 <__riscv_save_4>
    2d40:	8436                	mv	s0,a3
    2d42:	cab1                	beqz	a3,2d96 <rt_serial_read+0x5a>
    2d44:	2d3e                	lhu	a5,26(a0)
    2d46:	89aa                	mv	s3,a0
    2d48:	8932                	mv	s2,a2
    2d4a:	1007f793          	andi	a5,a5,256
    2d4e:	84b6                	mv	s1,a3
    2d50:	e39d                	bnez	a5,2d76 <rt_serial_read+0x3a>
    2d52:	5a7d                	li	s4,-1
    2d54:	4aa9                	li	s5,10
    2d56:	0449a783          	lw	a5,68(s3)
    2d5a:	854e                	mv	a0,s3
    2d5c:	47dc                	lw	a5,12(a5)
    2d5e:	9782                	jalr	a5
    2d60:	01450963          	beq	a0,s4,2d72 <rt_serial_read+0x36>
    2d64:	00a90023          	sb	a0,0(s2)
    2d68:	14fd                	addi	s1,s1,-1
    2d6a:	0905                	addi	s2,s2,1
    2d6c:	01550363          	beq	a0,s5,2d72 <rt_serial_read+0x36>
    2d70:	f0fd                	bnez	s1,2d56 <rt_serial_read+0x1a>
    2d72:	8c05                	sub	s0,s0,s1
    2d74:	a00d                	j	2d96 <rt_serial_read+0x5a>
    2d76:	4924                	lw	s1,80(a0)
    2d78:	8a36                	mv	s4,a3
    2d7a:	4a85                	li	s5,1
    2d7c:	f37fe0ef          	jal	ra,1cb2 <rt_hw_interrupt_disable>
    2d80:	20fe                	lhu	a5,6(s1)
    2d82:	20da                	lhu	a4,4(s1)
    2d84:	862a                	mv	a2,a0
    2d86:	4494                	lw	a3,8(s1)
    2d88:	00f71a63          	bne	a4,a5,2d9c <rt_serial_read+0x60>
    2d8c:	ea81                	bnez	a3,2d9c <rt_serial_read+0x60>
    2d8e:	f31fe0ef          	jal	ra,1cbe <rt_hw_interrupt_enable>
    2d92:	41440433          	sub	s0,s0,s4
    2d96:	8522                	mv	a0,s0
    2d98:	e24fd06f          	j	3bc <__riscv_restore_4>
    2d9c:	4098                	lw	a4,0(s1)
    2d9e:	973e                	add	a4,a4,a5
    2da0:	00074b03          	lbu	s6,0(a4)
    2da4:	04c9a703          	lw	a4,76(s3)
    2da8:	0785                	addi	a5,a5,1
    2daa:	07c2                	slli	a5,a5,0x10
    2dac:	8329                	srli	a4,a4,0xa
    2dae:	83c1                	srli	a5,a5,0x10
    2db0:	0742                	slli	a4,a4,0x10
    2db2:	a0fe                	sh	a5,6(s1)
    2db4:	8341                	srli	a4,a4,0x10
    2db6:	00e7e463          	bltu	a5,a4,2dbe <rt_serial_read+0x82>
    2dba:	00049323          	sh	zero,6(s1)
    2dbe:	01569463          	bne	a3,s5,2dc6 <rt_serial_read+0x8a>
    2dc2:	0004a423          	sw	zero,8(s1)
    2dc6:	8532                	mv	a0,a2
    2dc8:	ef7fe0ef          	jal	ra,1cbe <rt_hw_interrupt_enable>
    2dcc:	1a7d                	addi	s4,s4,-1
    2dce:	01690023          	sb	s6,0(s2)
    2dd2:	0905                	addi	s2,s2,1
    2dd4:	fa0a14e3          	bnez	s4,2d7c <rt_serial_read+0x40>
    2dd8:	bf6d                	j	2d92 <rt_serial_read+0x56>

00002dda <rt_serial_close>:
    2dda:	2d58                	lbu	a4,28(a0)
    2ddc:	4785                	li	a5,1
    2dde:	02e7ec63          	bltu	a5,a4,2e16 <rt_serial_close+0x3c>
    2de2:	2d3e                	lhu	a5,26(a0)
    2de4:	1007f793          	andi	a5,a5,256
    2de8:	c79d                	beqz	a5,2e16 <rt_serial_close+0x3c>
    2dea:	db8fd2ef          	jal	t0,3a2 <__riscv_save_0>
    2dee:	842a                	mv	s0,a0
    2df0:	4928                	lw	a0,80(a0)
    2df2:	e36fe0ef          	jal	ra,1428 <rt_free>
    2df6:	2c3e                	lhu	a5,26(s0)
    2df8:	04042823          	sw	zero,80(s0)
    2dfc:	10000613          	li	a2,256
    2e00:	eff7f793          	andi	a5,a5,-257
    2e04:	ac3e                	sh	a5,26(s0)
    2e06:	407c                	lw	a5,68(s0)
    2e08:	45c5                	li	a1,17
    2e0a:	8522                	mv	a0,s0
    2e0c:	43dc                	lw	a5,4(a5)
    2e0e:	9782                	jalr	a5
    2e10:	4501                	li	a0,0
    2e12:	db4fd06f          	j	3c6 <__riscv_restore_0>
    2e16:	4501                	li	a0,0
    2e18:	8082                	ret

00002e1a <rt_hw_serial_register>:
    2e1a:	d88fd2ef          	jal	t0,3a2 <__riscv_save_0>
    2e1e:	00003737          	lui	a4,0x3
    2e22:	bce70713          	addi	a4,a4,-1074 # 2bce <rt_serial_init>
    2e26:	d518                	sw	a4,40(a0)
    2e28:	00003737          	lui	a4,0x3
    2e2c:	c3070713          	addi	a4,a4,-976 # 2c30 <rt_serial_open>
    2e30:	d558                	sw	a4,44(a0)
    2e32:	00003737          	lui	a4,0x3
    2e36:	dda70713          	addi	a4,a4,-550 # 2dda <rt_serial_close>
    2e3a:	d918                	sw	a4,48(a0)
    2e3c:	00003737          	lui	a4,0x3
    2e40:	d3c70713          	addi	a4,a4,-708 # 2d3c <rt_serial_read>
    2e44:	d958                	sw	a4,52(a0)
    2e46:	00003737          	lui	a4,0x3
    2e4a:	bee70713          	addi	a4,a4,-1042 # 2bee <rt_serial_write>
    2e4e:	dd18                	sw	a4,56(a0)
    2e50:	00003737          	lui	a4,0x3
    2e54:	cce70713          	addi	a4,a4,-818 # 2cce <rt_serial_control>
    2e58:	0642                	slli	a2,a2,0x10
    2e5a:	dd58                	sw	a4,60(a0)
    2e5c:	c134                	sw	a3,64(a0)
    2e5e:	8241                	srli	a2,a2,0x10
    2e60:	00052a23          	sw	zero,20(a0)
    2e64:	02052023          	sw	zero,32(a0)
    2e68:	02052223          	sw	zero,36(a0)
    2e6c:	879fd0ef          	jal	ra,6e4 <rt_device_register>
    2e70:	d56fd06f          	j	3c6 <__riscv_restore_0>

00002e74 <rt_hw_serial_isr>:
    2e74:	0ff5f593          	andi	a1,a1,255
    2e78:	4785                	li	a5,1
    2e7a:	0af59163          	bne	a1,a5,2f1c <rt_hw_serial_isr+0xa8>
    2e7e:	d0afd2ef          	jal	t0,388 <__riscv_save_4>
    2e82:	4920                	lw	s0,80(a0)
    2e84:	1141                	addi	sp,sp,-16
    2e86:	84aa                	mv	s1,a0
    2e88:	597d                	li	s2,-1
    2e8a:	4985                	li	s3,1
    2e8c:	40fc                	lw	a5,68(s1)
    2e8e:	8526                	mv	a0,s1
    2e90:	47dc                	lw	a5,12(a5)
    2e92:	9782                	jalr	a5
    2e94:	8a2a                	mv	s4,a0
    2e96:	05250763          	beq	a0,s2,2ee4 <rt_hw_serial_isr+0x70>
    2e9a:	e19fe0ef          	jal	ra,1cb2 <rt_hw_interrupt_disable>
    2e9e:	205a                	lhu	a4,4(s0)
    2ea0:	401c                	lw	a5,0(s0)
    2ea2:	97ba                	add	a5,a5,a4
    2ea4:	01478023          	sb	s4,0(a5)
    2ea8:	205e                	lhu	a5,4(s0)
    2eaa:	44f8                	lw	a4,76(s1)
    2eac:	0785                	addi	a5,a5,1
    2eae:	07c2                	slli	a5,a5,0x10
    2eb0:	8329                	srli	a4,a4,0xa
    2eb2:	83c1                	srli	a5,a5,0x10
    2eb4:	0742                	slli	a4,a4,0x10
    2eb6:	a05e                	sh	a5,4(s0)
    2eb8:	8341                	srli	a4,a4,0x10
    2eba:	00e7e463          	bltu	a5,a4,2ec2 <rt_hw_serial_isr+0x4e>
    2ebe:	00041223          	sh	zero,4(s0)
    2ec2:	2076                	lhu	a3,6(s0)
    2ec4:	205e                	lhu	a5,4(s0)
    2ec6:	00d79c63          	bne	a5,a3,2ede <rt_hw_serial_isr+0x6a>
    2eca:	0785                	addi	a5,a5,1
    2ecc:	07c2                	slli	a5,a5,0x10
    2ece:	83c1                	srli	a5,a5,0x10
    2ed0:	a07e                	sh	a5,6(s0)
    2ed2:	01342423          	sw	s3,8(s0)
    2ed6:	00e7e463          	bltu	a5,a4,2ede <rt_hw_serial_isr+0x6a>
    2eda:	00041323          	sh	zero,6(s0)
    2ede:	de1fe0ef          	jal	ra,1cbe <rt_hw_interrupt_enable>
    2ee2:	b76d                	j	2e8c <rt_hw_serial_isr+0x18>
    2ee4:	509c                	lw	a5,32(s1)
    2ee6:	c385                	beqz	a5,2f06 <rt_hw_serial_isr+0x92>
    2ee8:	dcbfe0ef          	jal	ra,1cb2 <rt_hw_interrupt_disable>
    2eec:	205a                	lhu	a4,4(s0)
    2eee:	206e                	lhu	a1,6(s0)
    2ef0:	00b76e63          	bltu	a4,a1,2f0c <rt_hw_serial_isr+0x98>
    2ef4:	40b705b3          	sub	a1,a4,a1
    2ef8:	c62e                	sw	a1,12(sp)
    2efa:	dc5fe0ef          	jal	ra,1cbe <rt_hw_interrupt_enable>
    2efe:	509c                	lw	a5,32(s1)
    2f00:	45b2                	lw	a1,12(sp)
    2f02:	8526                	mv	a0,s1
    2f04:	9782                	jalr	a5
    2f06:	0141                	addi	sp,sp,16
    2f08:	cb4fd06f          	j	3bc <__riscv_restore_4>
    2f0c:	44fc                	lw	a5,76(s1)
    2f0e:	8d99                	sub	a1,a1,a4
    2f10:	83a9                	srli	a5,a5,0xa
    2f12:	07c2                	slli	a5,a5,0x10
    2f14:	83c1                	srli	a5,a5,0x10
    2f16:	40b785b3          	sub	a1,a5,a1
    2f1a:	bff9                	j	2ef8 <rt_hw_serial_isr+0x84>
    2f1c:	8082                	ret

00002f1e <_pin_control>:
    2f1e:	ce01                	beqz	a2,2f36 <_pin_control+0x18>
    2f20:	c82fd2ef          	jal	t0,3a2 <__riscv_save_0>
    2f24:	4178                	lw	a4,68(a0)
    2f26:	87b2                	mv	a5,a2
    2f28:	238e                	lhu	a1,0(a5)
    2f2a:	4318                	lw	a4,0(a4)
    2f2c:	2232                	lhu	a2,2(a2)
    2f2e:	9702                	jalr	a4
    2f30:	4501                	li	a0,0
    2f32:	c94fd06f          	j	3c6 <__riscv_restore_0>
    2f36:	557d                	li	a0,-1
    2f38:	8082                	ret

00002f3a <rt_pin_mode>:
    2f3a:	c68fd2ef          	jal	t0,3a2 <__riscv_save_0>
    2f3e:	d1418713          	addi	a4,gp,-748 # 20000844 <_hw_pin>
    2f42:	4378                	lw	a4,68(a4)
    2f44:	862e                	mv	a2,a1
    2f46:	85aa                	mv	a1,a0
    2f48:	4318                	lw	a4,0(a4)
    2f4a:	d1418513          	addi	a0,gp,-748 # 20000844 <_hw_pin>
    2f4e:	9702                	jalr	a4
    2f50:	c76fd06f          	j	3c6 <__riscv_restore_0>

00002f54 <rt_pin_write>:
    2f54:	c4efd2ef          	jal	t0,3a2 <__riscv_save_0>
    2f58:	d1418713          	addi	a4,gp,-748 # 20000844 <_hw_pin>
    2f5c:	4378                	lw	a4,68(a4)
    2f5e:	862e                	mv	a2,a1
    2f60:	85aa                	mv	a1,a0
    2f62:	4358                	lw	a4,4(a4)
    2f64:	d1418513          	addi	a0,gp,-748 # 20000844 <_hw_pin>
    2f68:	9702                	jalr	a4
    2f6a:	c5cfd06f          	j	3c6 <__riscv_restore_0>

00002f6e <rt_pin_read>:
    2f6e:	c34fd2ef          	jal	t0,3a2 <__riscv_save_0>
    2f72:	d1418713          	addi	a4,gp,-748 # 20000844 <_hw_pin>
    2f76:	4378                	lw	a4,68(a4)
    2f78:	85aa                	mv	a1,a0
    2f7a:	d1418513          	addi	a0,gp,-748 # 20000844 <_hw_pin>
    2f7e:	4718                	lw	a4,8(a4)
    2f80:	9702                	jalr	a4
    2f82:	c44fd06f          	j	3c6 <__riscv_restore_0>

00002f86 <_pin_read>:
    2f86:	c605                	beqz	a2,2fae <_pin_read+0x28>
    2f88:	4711                	li	a4,4
    2f8a:	02e69263          	bne	a3,a4,2fae <_pin_read+0x28>
    2f8e:	c14fd2ef          	jal	t0,3a2 <__riscv_save_0>
    2f92:	417c                	lw	a5,68(a0)
    2f94:	220e                	lhu	a1,0(a2)
    2f96:	1141                	addi	sp,sp,-16
    2f98:	479c                	lw	a5,8(a5)
    2f9a:	c636                	sw	a3,12(sp)
    2f9c:	c432                	sw	a2,8(sp)
    2f9e:	9782                	jalr	a5
    2fa0:	4622                	lw	a2,8(sp)
    2fa2:	46b2                	lw	a3,12(sp)
    2fa4:	a22a                	sh	a0,2(a2)
    2fa6:	8536                	mv	a0,a3
    2fa8:	0141                	addi	sp,sp,16
    2faa:	c1cfd06f          	j	3c6 <__riscv_restore_0>
    2fae:	4681                	li	a3,0
    2fb0:	8536                	mv	a0,a3
    2fb2:	8082                	ret

00002fb4 <_pin_write>:
    2fb4:	c21d                	beqz	a2,2fda <_pin_write+0x26>
    2fb6:	87b2                	mv	a5,a2
    2fb8:	4611                	li	a2,4
    2fba:	02c69063          	bne	a3,a2,2fda <_pin_write+0x26>
    2fbe:	be4fd2ef          	jal	t0,3a2 <__riscv_save_0>
    2fc2:	4178                	lw	a4,68(a0)
    2fc4:	23b2                	lhu	a2,2(a5)
    2fc6:	238e                	lhu	a1,0(a5)
    2fc8:	4358                	lw	a4,4(a4)
    2fca:	1141                	addi	sp,sp,-16
    2fcc:	c636                	sw	a3,12(sp)
    2fce:	9702                	jalr	a4
    2fd0:	46b2                	lw	a3,12(sp)
    2fd2:	0141                	addi	sp,sp,16
    2fd4:	8536                	mv	a0,a3
    2fd6:	bf0fd06f          	j	3c6 <__riscv_restore_0>
    2fda:	4681                	li	a3,0
    2fdc:	8536                	mv	a0,a3
    2fde:	8082                	ret

00002fe0 <rt_device_pin_register>:
    2fe0:	bc2fd2ef          	jal	t0,3a2 <__riscv_save_0>
    2fe4:	d1418793          	addi	a5,gp,-748 # 20000844 <_hw_pin>
    2fe8:	4749                	li	a4,18
    2fea:	cbd8                	sw	a4,20(a5)
    2fec:	00003737          	lui	a4,0x3
    2ff0:	f8670713          	addi	a4,a4,-122 # 2f86 <_pin_read>
    2ff4:	dbd8                	sw	a4,52(a5)
    2ff6:	00003737          	lui	a4,0x3
    2ffa:	fb470713          	addi	a4,a4,-76 # 2fb4 <_pin_write>
    2ffe:	df98                	sw	a4,56(a5)
    3000:	00003737          	lui	a4,0x3
    3004:	f1e70713          	addi	a4,a4,-226 # 2f1e <_pin_control>
    3008:	c3ec                	sw	a1,68(a5)
    300a:	c3b0                	sw	a2,64(a5)
    300c:	85aa                	mv	a1,a0
    300e:	460d                	li	a2,3
    3010:	d1418513          	addi	a0,gp,-748 # 20000844 <_hw_pin>
    3014:	0207a023          	sw	zero,32(a5)
    3018:	0207a223          	sw	zero,36(a5)
    301c:	0207a423          	sw	zero,40(a5)
    3020:	0207a623          	sw	zero,44(a5)
    3024:	0207a823          	sw	zero,48(a5)
    3028:	dfd8                	sw	a4,60(a5)
    302a:	ebafd0ef          	jal	ra,6e4 <rt_device_register>
    302e:	4501                	li	a0,0
    3030:	b96fd06f          	j	3c6 <__riscv_restore_0>

00003034 <rt_heap_begin_get>:
    3034:	20001537          	lui	a0,0x20001
    3038:	88c50513          	addi	a0,a0,-1908 # 2000088c <rt_heap>
    303c:	8082                	ret

0000303e <rt_heap_end_get>:
    303e:	20005537          	lui	a0,0x20005
    3042:	88c50513          	addi	a0,a0,-1908 # 2000488c <serial1>
    3046:	8082                	ret

00003048 <rt_hw_board_init>:
    3048:	b5afd2ef          	jal	t0,3a2 <__riscv_save_0>
    304c:	8081a703          	lw	a4,-2040(gp) # 20000338 <SystemCoreClock>
    3050:	3e800793          	li	a5,1000
    3054:	56c1                	li	a3,-16
    3056:	02f75733          	divu	a4,a4,a5
    305a:	e000e7b7          	lui	a5,0xe000e
    305e:	40d78623          	sb	a3,1036(a5) # e000e40c <_eusrstack+0xbfffe40c>
    3062:	40d78723          	sb	a3,1038(a5)
    3066:	6685                	lui	a3,0x1
    3068:	10d7a023          	sw	a3,256(a5)
    306c:	6691                	lui	a3,0x4
    306e:	10d7a023          	sw	a3,256(a5)
    3072:	e000f7b7          	lui	a5,0xe000f
    3076:	0007a023          	sw	zero,0(a5) # e000f000 <_eusrstack+0xbffff000>
    307a:	0007a223          	sw	zero,4(a5)
    307e:	4601                	li	a2,0
    3080:	c790                	sw	a2,8(a5)
    3082:	4681                	li	a3,0
    3084:	c7d4                	sw	a3,12(a5)
    3086:	4681                	li	a3,0
    3088:	fff70613          	addi	a2,a4,-1
    308c:	cb90                	sw	a2,16(a5)
    308e:	cbd4                	sw	a3,20(a5)
    3090:	473d                	li	a4,15
    3092:	c398                	sw	a4,0(a5)
    3094:	d66fd0ef          	jal	ra,5fa <rt_components_board_init>
    3098:	f9dff0ef          	jal	ra,3034 <rt_heap_begin_get>
    309c:	842a                	mv	s0,a0
    309e:	fa1ff0ef          	jal	ra,303e <rt_heap_end_get>
    30a2:	85aa                	mv	a1,a0
    30a4:	8522                	mv	a0,s0
    30a6:	9b6fe0ef          	jal	ra,125c <rt_system_heap_init>
    30aa:	0000b537          	lui	a0,0xb
    30ae:	6d050513          	addi	a0,a0,1744 # b6d0 <__fsym_pinMode_name+0x8>
    30b2:	ffdfd0ef          	jal	ra,10ae <rt_console_set_device>
    30b6:	b10fd06f          	j	3c6 <__riscv_restore_0>

000030ba <SysTick_Handler>:
    30ba:	34011173          	csrrw	sp,mscratch,sp
    30be:	965fd0ef          	jal	ra,a22 <rt_interrupt_enter>
    30c2:	e000f7b7          	lui	a5,0xe000f
    30c6:	0007a223          	sw	zero,4(a5) # e000f004 <_eusrstack+0xbffff004>
    30ca:	cd0fd0ef          	jal	ra,59a <rt_tick_increase>
    30ce:	983fd0ef          	jal	ra,a50 <rt_interrupt_leave>
    30d2:	34011173          	csrrw	sp,mscratch,sp
    30d6:	30200073          	mret

000030da <bit2bitno>:
    30da:	4781                	li	a5,0
    30dc:	4685                	li	a3,1
    30de:	02000713          	li	a4,32
    30e2:	00f69633          	sll	a2,a3,a5
    30e6:	00a60663          	beq	a2,a0,30f2 <bit2bitno+0x18>
    30ea:	0785                	addi	a5,a5,1
    30ec:	fee79be3          	bne	a5,a4,30e2 <bit2bitno+0x8>
    30f0:	57fd                	li	a5,-1
    30f2:	853e                	mv	a0,a5
    30f4:	8082                	ret

000030f6 <GPIOD_CLK_ENABLE>:
    30f6:	aacfd2ef          	jal	t0,3a2 <__riscv_save_0>
    30fa:	4585                	li	a1,1
    30fc:	02000513          	li	a0,32
    3100:	62c010ef          	jal	ra,472c <RCC_APB2PeriphClockCmd>
    3104:	ac2fd06f          	j	3c6 <__riscv_restore_0>

00003108 <GPIOB_CLK_ENABLE>:
    3108:	a9afd2ef          	jal	t0,3a2 <__riscv_save_0>
    310c:	4585                	li	a1,1
    310e:	4521                	li	a0,8
    3110:	61c010ef          	jal	ra,472c <RCC_APB2PeriphClockCmd>
    3114:	ab2fd06f          	j	3c6 <__riscv_restore_0>

00003118 <GPIOA_CLK_ENABLE>:
    3118:	a8afd2ef          	jal	t0,3a2 <__riscv_save_0>
    311c:	4585                	li	a1,1
    311e:	4511                	li	a0,4
    3120:	60c010ef          	jal	ra,472c <RCC_APB2PeriphClockCmd>
    3124:	aa2fd06f          	j	3c6 <__riscv_restore_0>

00003128 <GPIOC_CLK_ENABLE>:
    3128:	a7afd2ef          	jal	t0,3a2 <__riscv_save_0>
    312c:	4585                	li	a1,1
    312e:	4541                	li	a0,16
    3130:	5fc010ef          	jal	ra,472c <RCC_APB2PeriphClockCmd>
    3134:	a92fd06f          	j	3c6 <__riscv_restore_0>

00003138 <GPIOE_CLK_ENABLE>:
    3138:	a6afd2ef          	jal	t0,3a2 <__riscv_save_0>
    313c:	4585                	li	a1,1
    313e:	04000513          	li	a0,64
    3142:	5ea010ef          	jal	ra,472c <RCC_APB2PeriphClockCmd>
    3146:	a80fd06f          	j	3c6 <__riscv_restore_0>

0000314a <rt_hw_pin_init>:
    314a:	a58fd2ef          	jal	t0,3a2 <__riscv_save_0>
    314e:	65ad                	lui	a1,0xb
    3150:	0000c537          	lui	a0,0xc
    3154:	4601                	li	a2,0
    3156:	6d858593          	addi	a1,a1,1752 # b6d8 <_ch32_pin_ops>
    315a:	dc050513          	addi	a0,a0,-576 # bdc0 <pins+0x650>
    315e:	e83ff0ef          	jal	ra,2fe0 <rt_device_pin_register>
    3162:	a64fd06f          	j	3c6 <__riscv_restore_0>

00003166 <get_pin>:
    3166:	06400793          	li	a5,100
    316a:	00a7ec63          	bltu	a5,a0,3182 <get_pin+0x1c>
    316e:	00451793          	slli	a5,a0,0x4
    3172:	652d                	lui	a0,0xb
    3174:	77050513          	addi	a0,a0,1904 # b770 <pins>
    3178:	953e                	add	a0,a0,a5
    317a:	4118                	lw	a4,0(a0)
    317c:	57fd                	li	a5,-1
    317e:	00f71363          	bne	a4,a5,3184 <get_pin+0x1e>
    3182:	4501                	li	a0,0
    3184:	8082                	ret

00003186 <ch32_pin_write>:
    3186:	a1cfd2ef          	jal	t0,3a2 <__riscv_save_0>
    318a:	1141                	addi	sp,sp,-16
    318c:	0ff5f513          	andi	a0,a1,255
    3190:	c632                	sw	a2,12(sp)
    3192:	fd5ff0ef          	jal	ra,3166 <get_pin>
    3196:	c511                	beqz	a0,31a2 <ch32_pin_write+0x1c>
    3198:	254e                	lhu	a1,12(a0)
    319a:	4632                	lw	a2,12(sp)
    319c:	4508                	lw	a0,8(a0)
    319e:	3e2010ef          	jal	ra,4580 <GPIO_WriteBit>
    31a2:	0141                	addi	sp,sp,16
    31a4:	a22fd06f          	j	3c6 <__riscv_restore_0>

000031a8 <ch32_pin_read>:
    31a8:	9fafd2ef          	jal	t0,3a2 <__riscv_save_0>
    31ac:	0ff5f513          	andi	a0,a1,255
    31b0:	fb7ff0ef          	jal	ra,3166 <get_pin>
    31b4:	87aa                	mv	a5,a0
    31b6:	4501                	li	a0,0
    31b8:	c789                	beqz	a5,31c2 <ch32_pin_read+0x1a>
    31ba:	27ce                	lhu	a1,12(a5)
    31bc:	4788                	lw	a0,8(a5)
    31be:	3b8010ef          	jal	ra,4576 <GPIO_ReadInputDataBit>
    31c2:	a04fd06f          	j	3c6 <__riscv_restore_0>

000031c6 <ch32_pin_mode>:
    31c6:	9dcfd2ef          	jal	t0,3a2 <__riscv_save_0>
    31ca:	1101                	addi	sp,sp,-32
    31cc:	0ff5f513          	andi	a0,a1,255
    31d0:	8432                	mv	s0,a2
    31d2:	f95ff0ef          	jal	ra,3166 <get_pin>
    31d6:	c505                	beqz	a0,31fe <ch32_pin_mode+0x38>
    31d8:	415c                	lw	a5,4(a0)
    31da:	c62a                	sw	a0,12(sp)
    31dc:	9782                	jalr	a5
    31de:	4532                	lw	a0,12(sp)
    31e0:	455c                	lw	a5,12(a0)
    31e2:	82fc                	sh	a5,20(sp)
    31e4:	47c1                	li	a5,16
    31e6:	ce3e                	sw	a5,28(sp)
    31e8:	478d                	li	a5,3
    31ea:	cc3e                	sw	a5,24(sp)
    31ec:	c409                	beqz	s0,31f6 <ch32_pin_mode+0x30>
    31ee:	4715                	li	a4,5
    31f0:	00e41a63          	bne	s0,a4,3204 <ch32_pin_mode+0x3e>
    31f4:	ce02                	sw	zero,28(sp)
    31f6:	4508                	lw	a0,8(a0)
    31f8:	084c                	addi	a1,sp,20
    31fa:	2bc010ef          	jal	ra,44b6 <GPIO_Init>
    31fe:	6105                	addi	sp,sp,32
    3200:	9c6fd06f          	j	3c6 <__riscv_restore_0>
    3204:	4705                	li	a4,1
    3206:	00e41563          	bne	s0,a4,3210 <ch32_pin_mode+0x4a>
    320a:	4791                	li	a5,4
    320c:	ce3e                	sw	a5,28(sp)
    320e:	b7e5                	j	31f6 <ch32_pin_mode+0x30>
    3210:	00f41563          	bne	s0,a5,321a <ch32_pin_mode+0x54>
    3214:	02800793          	li	a5,40
    3218:	bfd5                	j	320c <ch32_pin_mode+0x46>
    321a:	4789                	li	a5,2
    321c:	00f41563          	bne	s0,a5,3226 <ch32_pin_mode+0x60>
    3220:	04800793          	li	a5,72
    3224:	b7e5                	j	320c <ch32_pin_mode+0x46>
    3226:	4791                	li	a5,4
    3228:	00f41463          	bne	s0,a5,3230 <ch32_pin_mode+0x6a>
    322c:	47d1                	li	a5,20
    322e:	bff9                	j	320c <ch32_pin_mode+0x46>
    3230:	4799                	li	a5,6
    3232:	00f41463          	bne	s0,a5,323a <ch32_pin_mode+0x74>
    3236:	47f1                	li	a5,28
    3238:	bfd1                	j	320c <ch32_pin_mode+0x46>
    323a:	479d                	li	a5,7
    323c:	faf41de3          	bne	s0,a5,31f6 <ch32_pin_mode+0x30>
    3240:	47e1                	li	a5,24
    3242:	b7e9                	j	320c <ch32_pin_mode+0x46>

00003244 <ch32_pin_attach_irq>:
    3244:	944fd2ef          	jal	t0,388 <__riscv_save_4>
    3248:	0ff5f513          	andi	a0,a1,255
    324c:	84ae                	mv	s1,a1
    324e:	89b2                	mv	s3,a2
    3250:	8a36                	mv	s4,a3
    3252:	893a                	mv	s2,a4
    3254:	f13ff0ef          	jal	ra,3166 <get_pin>
    3258:	4799                	li	a5,6
    325a:	cd31                	beqz	a0,32b6 <ch32_pin_attach_irq+0x72>
    325c:	4548                	lw	a0,12(a0)
    325e:	e7dff0ef          	jal	ra,30da <bit2bitno>
    3262:	473d                	li	a4,15
    3264:	842a                	mv	s0,a0
    3266:	4799                	li	a5,6
    3268:	04a76763          	bltu	a4,a0,32b6 <ch32_pin_attach_irq+0x72>
    326c:	a47fe0ef          	jal	ra,1cb2 <rt_hw_interrupt_disable>
    3270:	46b1                	li	a3,12
    3272:	02d406b3          	mul	a3,s0,a3
    3276:	200007b7          	lui	a5,0x20000
    327a:	08078713          	addi	a4,a5,128 # 20000080 <pin_irq_hdr_tab>
    327e:	862a                	mv	a2,a0
    3280:	08078793          	addi	a5,a5,128
    3284:	9736                	add	a4,a4,a3
    3286:	00071683          	lh	a3,0(a4)
    328a:	00969f63          	bne	a3,s1,32a8 <ch32_pin_attach_irq+0x64>
    328e:	434c                	lw	a1,4(a4)
    3290:	01459c63          	bne	a1,s4,32a8 <ch32_pin_attach_irq+0x64>
    3294:	232e                	lhu	a1,2(a4)
    3296:	01359963          	bne	a1,s3,32a8 <ch32_pin_attach_irq+0x64>
    329a:	4718                	lw	a4,8(a4)
    329c:	01271663          	bne	a4,s2,32a8 <ch32_pin_attach_irq+0x64>
    32a0:	a1ffe0ef          	jal	ra,1cbe <rt_hw_interrupt_enable>
    32a4:	4781                	li	a5,0
    32a6:	a801                	j	32b6 <ch32_pin_attach_irq+0x72>
    32a8:	577d                	li	a4,-1
    32aa:	00e68963          	beq	a3,a4,32bc <ch32_pin_attach_irq+0x78>
    32ae:	8532                	mv	a0,a2
    32b0:	a0ffe0ef          	jal	ra,1cbe <rt_hw_interrupt_enable>
    32b4:	479d                	li	a5,7
    32b6:	853e                	mv	a0,a5
    32b8:	904fd06f          	j	3bc <__riscv_restore_4>
    32bc:	4531                	li	a0,12
    32be:	02a40533          	mul	a0,s0,a0
    32c2:	953e                	add	a0,a0,a5
    32c4:	a106                	sh	s1,0(a0)
    32c6:	01452223          	sw	s4,4(a0)
    32ca:	01351123          	sh	s3,2(a0)
    32ce:	01252423          	sw	s2,8(a0)
    32d2:	8532                	mv	a0,a2
    32d4:	b7f1                	j	32a0 <ch32_pin_attach_irq+0x5c>

000032d6 <ch32_pin_dettach_irq>:
    32d6:	8ccfd2ef          	jal	t0,3a2 <__riscv_save_0>
    32da:	0ff5f513          	andi	a0,a1,255
    32de:	e89ff0ef          	jal	ra,3166 <get_pin>
    32e2:	4719                	li	a4,6
    32e4:	c91d                	beqz	a0,331a <ch32_pin_dettach_irq+0x44>
    32e6:	4548                	lw	a0,12(a0)
    32e8:	df3ff0ef          	jal	ra,30da <bit2bitno>
    32ec:	47bd                	li	a5,15
    32ee:	842a                	mv	s0,a0
    32f0:	4719                	li	a4,6
    32f2:	02a7e463          	bltu	a5,a0,331a <ch32_pin_dettach_irq+0x44>
    32f6:	9bdfe0ef          	jal	ra,1cb2 <rt_hw_interrupt_disable>
    32fa:	47b1                	li	a5,12
    32fc:	02f40433          	mul	s0,s0,a5
    3300:	200007b7          	lui	a5,0x20000
    3304:	08078793          	addi	a5,a5,128 # 20000080 <pin_irq_hdr_tab>
    3308:	577d                	li	a4,-1
    330a:	97a2                	add	a5,a5,s0
    330c:	00079683          	lh	a3,0(a5)
    3310:	00e69863          	bne	a3,a4,3320 <ch32_pin_dettach_irq+0x4a>
    3314:	9abfe0ef          	jal	ra,1cbe <rt_hw_interrupt_enable>
    3318:	4701                	li	a4,0
    331a:	853a                	mv	a0,a4
    331c:	8aafd06f          	j	3c6 <__riscv_restore_0>
    3320:	6741                	lui	a4,0x10
    3322:	177d                	addi	a4,a4,-1
    3324:	c398                	sw	a4,0(a5)
    3326:	0007a223          	sw	zero,4(a5)
    332a:	0007a423          	sw	zero,8(a5)
    332e:	b7dd                	j	3314 <ch32_pin_dettach_irq+0x3e>

00003330 <ch32_pin_irq_enable>:
    3330:	858fd2ef          	jal	t0,388 <__riscv_save_4>
    3334:	1101                	addi	sp,sp,-32
    3336:	0ff5f513          	andi	a0,a1,255
    333a:	8a32                	mv	s4,a2
    333c:	e2bff0ef          	jal	ra,3166 <get_pin>
    3340:	4799                	li	a5,6
    3342:	c121                	beqz	a0,3382 <ch32_pin_irq_enable+0x52>
    3344:	4485                	li	s1,1
    3346:	842a                	mv	s0,a0
    3348:	109a1563          	bne	s4,s1,3452 <ch32_pin_irq_enable+0x122>
    334c:	4548                	lw	a0,12(a0)
    334e:	d8dff0ef          	jal	ra,30da <bit2bitno>
    3352:	473d                	li	a4,15
    3354:	84aa                	mv	s1,a0
    3356:	4799                	li	a5,6
    3358:	02a76563          	bltu	a4,a0,3382 <ch32_pin_irq_enable+0x52>
    335c:	957fe0ef          	jal	ra,1cb2 <rt_hw_interrupt_disable>
    3360:	4ab1                	li	s5,12
    3362:	035487b3          	mul	a5,s1,s5
    3366:	20000937          	lui	s2,0x20000
    336a:	08090913          	addi	s2,s2,128 # 20000080 <pin_irq_hdr_tab>
    336e:	89aa                	mv	s3,a0
    3370:	993e                	add	s2,s2,a5
    3372:	00091703          	lh	a4,0(s2)
    3376:	57fd                	li	a5,-1
    3378:	00f71963          	bne	a4,a5,338a <ch32_pin_irq_enable+0x5a>
    337c:	943fe0ef          	jal	ra,1cbe <rt_hw_interrupt_enable>
    3380:	4799                	li	a5,6
    3382:	853e                	mv	a0,a5
    3384:	6105                	addi	sp,sp,32
    3386:	836fd06f          	j	3bc <__riscv_restore_4>
    338a:	405c                	lw	a5,4(s0)
    338c:	9782                	jalr	a5
    338e:	4585                	li	a1,1
    3390:	4505                	li	a0,1
    3392:	39a010ef          	jal	ra,472c <RCC_APB2PeriphClockCmd>
    3396:	445c                	lw	a5,12(s0)
    3398:	470d                	li	a4,3
    339a:	c43a                	sw	a4,8(sp)
    339c:	827c                	sh	a5,4(sp)
    339e:	c83e                	sw	a5,16(sp)
    33a0:	00295783          	lhu	a5,2(s2)
    33a4:	ca02                	sw	zero,20(sp)
    33a6:	ce52                	sw	s4,28(sp)
    33a8:	09478c63          	beq	a5,s4,3440 <ch32_pin_irq_enable+0x110>
    33ac:	c7c1                	beqz	a5,3434 <ch32_pin_irq_enable+0x104>
    33ae:	4709                	li	a4,2
    33b0:	08e78d63          	beq	a5,a4,344a <ch32_pin_irq_enable+0x11a>
    33b4:	4408                	lw	a0,8(s0)
    33b6:	004c                	addi	a1,sp,4
    33b8:	0fe010ef          	jal	ra,44b6 <GPIO_Init>
    33bc:	4418                	lw	a4,8(s0)
    33be:	400117b7          	lui	a5,0x40011
    33c2:	c0078693          	addi	a3,a5,-1024 # 40010c00 <_eusrstack+0x20000c00>
    33c6:	4505                	li	a0,1
    33c8:	02d70263          	beq	a4,a3,33ec <ch32_pin_irq_enable+0xbc>
    33cc:	4509                	li	a0,2
    33ce:	00f70f63          	beq	a4,a5,33ec <ch32_pin_irq_enable+0xbc>
    33d2:	40078793          	addi	a5,a5,1024
    33d6:	450d                	li	a0,3
    33d8:	00f70a63          	beq	a4,a5,33ec <ch32_pin_irq_enable+0xbc>
    33dc:	400127b7          	lui	a5,0x40012
    33e0:	80078793          	addi	a5,a5,-2048 # 40011800 <_eusrstack+0x20001800>
    33e4:	4501                	li	a0,0
    33e6:	00f71363          	bne	a4,a5,33ec <ch32_pin_irq_enable+0xbc>
    33ea:	4511                	li	a0,4
    33ec:	0ff4f593          	andi	a1,s1,255
    33f0:	19a010ef          	jal	ra,458a <GPIO_EXTILineConfig>
    33f4:	0808                	addi	a0,sp,16
    33f6:	02e010ef          	jal	ra,4424 <EXTI_Init>
    33fa:	67ad                	lui	a5,0xb
    33fc:	6f078793          	addi	a5,a5,1776 # b6f0 <pin_irq_map>
    3400:	048e                	slli	s1,s1,0x3
    3402:	94be                	add	s1,s1,a5
    3404:	40d0                	lw	a2,4(s1)
    3406:	e000e737          	lui	a4,0xe000e
    340a:	05000693          	li	a3,80
    340e:	00c707b3          	add	a5,a4,a2
    3412:	40d78023          	sb	a3,1024(a5)
    3416:	00565793          	srli	a5,a2,0x5
    341a:	04078793          	addi	a5,a5,64
    341e:	4685                	li	a3,1
    3420:	078a                	slli	a5,a5,0x2
    3422:	00c696b3          	sll	a3,a3,a2
    3426:	97ba                	add	a5,a5,a4
    3428:	c394                	sw	a3,0(a5)
    342a:	854e                	mv	a0,s3
    342c:	893fe0ef          	jal	ra,1cbe <rt_hw_interrupt_enable>
    3430:	4781                	li	a5,0
    3432:	bf81                	j	3382 <ch32_pin_irq_enable+0x52>
    3434:	02800793          	li	a5,40
    3438:	c63e                	sw	a5,12(sp)
    343a:	47a1                	li	a5,8
    343c:	cc3e                	sw	a5,24(sp)
    343e:	bf9d                	j	33b4 <ch32_pin_irq_enable+0x84>
    3440:	04800793          	li	a5,72
    3444:	c63e                	sw	a5,12(sp)
    3446:	cc56                	sw	s5,24(sp)
    3448:	b7b5                	j	33b4 <ch32_pin_irq_enable+0x84>
    344a:	4791                	li	a5,4
    344c:	c63e                	sw	a5,12(sp)
    344e:	47c1                	li	a5,16
    3450:	b7f5                	j	343c <ch32_pin_irq_enable+0x10c>
    3452:	4799                	li	a5,6
    3454:	f20a17e3          	bnez	s4,3382 <ch32_pin_irq_enable+0x52>
    3458:	4548                	lw	a0,12(a0)
    345a:	c81ff0ef          	jal	ra,30da <bit2bitno>
    345e:	473d                	li	a4,15
    3460:	4799                	li	a5,6
    3462:	f2a760e3          	bltu	a4,a0,3382 <ch32_pin_irq_enable+0x52>
    3466:	00351793          	slli	a5,a0,0x3
    346a:	652d                	lui	a0,0xb
    346c:	6f050513          	addi	a0,a0,1776 # b6f0 <pin_irq_map>
    3470:	953e                	add	a0,a0,a5
    3472:	4158                	lw	a4,4(a0)
    3474:	00575793          	srli	a5,a4,0x5
    3478:	06078793          	addi	a5,a5,96
    347c:	00e494b3          	sll	s1,s1,a4
    3480:	078a                	slli	a5,a5,0x2
    3482:	e000e737          	lui	a4,0xe000e
    3486:	97ba                	add	a5,a5,a4
    3488:	c384                	sw	s1,0(a5)
    348a:	0000100f          	fence.i
    348e:	b74d                	j	3430 <ch32_pin_irq_enable+0x100>

00003490 <HAL_GPIO_EXTI_Callback>:
    3490:	f13fc2ef          	jal	t0,3a2 <__riscv_save_0>
    3494:	c47ff0ef          	jal	ra,30da <bit2bitno>
    3498:	47b1                	li	a5,12
    349a:	02f50533          	mul	a0,a0,a5
    349e:	200007b7          	lui	a5,0x20000
    34a2:	08078793          	addi	a5,a5,128 # 20000080 <pin_irq_hdr_tab>
    34a6:	953e                	add	a0,a0,a5
    34a8:	415c                	lw	a5,4(a0)
    34aa:	c399                	beqz	a5,34b0 <HAL_GPIO_EXTI_Callback+0x20>
    34ac:	4508                	lw	a0,8(a0)
    34ae:	9782                	jalr	a5
    34b0:	f17fc06f          	j	3c6 <__riscv_restore_0>

000034b4 <EXTI0_IRQHandler>:
    34b4:	34011173          	csrrw	sp,mscratch,sp
    34b8:	d6afd0ef          	jal	ra,a22 <rt_interrupt_enter>
    34bc:	4505                	li	a0,1
    34be:	7d1000ef          	jal	ra,448e <EXTI_GetITStatus>
    34c2:	c519                	beqz	a0,34d0 <EXTI0_IRQHandler+0x1c>
    34c4:	4505                	li	a0,1
    34c6:	fcbff0ef          	jal	ra,3490 <HAL_GPIO_EXTI_Callback>
    34ca:	4505                	li	a0,1
    34cc:	7e1000ef          	jal	ra,44ac <EXTI_ClearITPendingBit>
    34d0:	d80fd0ef          	jal	ra,a50 <rt_interrupt_leave>
    34d4:	34011173          	csrrw	sp,mscratch,sp
    34d8:	30200073          	mret

000034dc <EXTI1_IRQHandler>:
    34dc:	34011173          	csrrw	sp,mscratch,sp
    34e0:	d42fd0ef          	jal	ra,a22 <rt_interrupt_enter>
    34e4:	4509                	li	a0,2
    34e6:	7a9000ef          	jal	ra,448e <EXTI_GetITStatus>
    34ea:	c519                	beqz	a0,34f8 <EXTI1_IRQHandler+0x1c>
    34ec:	4509                	li	a0,2
    34ee:	fa3ff0ef          	jal	ra,3490 <HAL_GPIO_EXTI_Callback>
    34f2:	4509                	li	a0,2
    34f4:	7b9000ef          	jal	ra,44ac <EXTI_ClearITPendingBit>
    34f8:	d58fd0ef          	jal	ra,a50 <rt_interrupt_leave>
    34fc:	34011173          	csrrw	sp,mscratch,sp
    3500:	30200073          	mret

00003504 <EXTI2_IRQHandler>:
    3504:	34011173          	csrrw	sp,mscratch,sp
    3508:	d1afd0ef          	jal	ra,a22 <rt_interrupt_enter>
    350c:	4511                	li	a0,4
    350e:	781000ef          	jal	ra,448e <EXTI_GetITStatus>
    3512:	c519                	beqz	a0,3520 <EXTI2_IRQHandler+0x1c>
    3514:	4511                	li	a0,4
    3516:	f7bff0ef          	jal	ra,3490 <HAL_GPIO_EXTI_Callback>
    351a:	4511                	li	a0,4
    351c:	791000ef          	jal	ra,44ac <EXTI_ClearITPendingBit>
    3520:	d30fd0ef          	jal	ra,a50 <rt_interrupt_leave>
    3524:	34011173          	csrrw	sp,mscratch,sp
    3528:	30200073          	mret

0000352c <EXTI3_IRQHandler>:
    352c:	34011173          	csrrw	sp,mscratch,sp
    3530:	cf2fd0ef          	jal	ra,a22 <rt_interrupt_enter>
    3534:	4521                	li	a0,8
    3536:	759000ef          	jal	ra,448e <EXTI_GetITStatus>
    353a:	c519                	beqz	a0,3548 <EXTI3_IRQHandler+0x1c>
    353c:	4521                	li	a0,8
    353e:	f53ff0ef          	jal	ra,3490 <HAL_GPIO_EXTI_Callback>
    3542:	4521                	li	a0,8
    3544:	769000ef          	jal	ra,44ac <EXTI_ClearITPendingBit>
    3548:	d08fd0ef          	jal	ra,a50 <rt_interrupt_leave>
    354c:	34011173          	csrrw	sp,mscratch,sp
    3550:	30200073          	mret

00003554 <EXTI4_IRQHandler>:
    3554:	34011173          	csrrw	sp,mscratch,sp
    3558:	ccafd0ef          	jal	ra,a22 <rt_interrupt_enter>
    355c:	4541                	li	a0,16
    355e:	731000ef          	jal	ra,448e <EXTI_GetITStatus>
    3562:	c519                	beqz	a0,3570 <EXTI4_IRQHandler+0x1c>
    3564:	4541                	li	a0,16
    3566:	f2bff0ef          	jal	ra,3490 <HAL_GPIO_EXTI_Callback>
    356a:	4541                	li	a0,16
    356c:	741000ef          	jal	ra,44ac <EXTI_ClearITPendingBit>
    3570:	ce0fd0ef          	jal	ra,a50 <rt_interrupt_leave>
    3574:	34011173          	csrrw	sp,mscratch,sp
    3578:	30200073          	mret

0000357c <EXTI9_5_IRQHandler>:
    357c:	34011173          	csrrw	sp,mscratch,sp
    3580:	ca2fd0ef          	jal	ra,a22 <rt_interrupt_enter>
    3584:	02000513          	li	a0,32
    3588:	707000ef          	jal	ra,448e <EXTI_GetITStatus>
    358c:	cd1d                	beqz	a0,35ca <EXTI9_5_IRQHandler+0x4e>
    358e:	02000513          	li	a0,32
    3592:	effff0ef          	jal	ra,3490 <HAL_GPIO_EXTI_Callback>
    3596:	04000513          	li	a0,64
    359a:	ef7ff0ef          	jal	ra,3490 <HAL_GPIO_EXTI_Callback>
    359e:	08000513          	li	a0,128
    35a2:	eefff0ef          	jal	ra,3490 <HAL_GPIO_EXTI_Callback>
    35a6:	10000513          	li	a0,256
    35aa:	ee7ff0ef          	jal	ra,3490 <HAL_GPIO_EXTI_Callback>
    35ae:	20000513          	li	a0,512
    35b2:	edfff0ef          	jal	ra,3490 <HAL_GPIO_EXTI_Callback>
    35b6:	3e000513          	li	a0,992
    35ba:	6f3000ef          	jal	ra,44ac <EXTI_ClearITPendingBit>
    35be:	c92fd0ef          	jal	ra,a50 <rt_interrupt_leave>
    35c2:	34011173          	csrrw	sp,mscratch,sp
    35c6:	30200073          	mret
    35ca:	04000513          	li	a0,64
    35ce:	6c1000ef          	jal	ra,448e <EXTI_GetITStatus>
    35d2:	fd55                	bnez	a0,358e <EXTI9_5_IRQHandler+0x12>
    35d4:	08000513          	li	a0,128
    35d8:	6b7000ef          	jal	ra,448e <EXTI_GetITStatus>
    35dc:	f94d                	bnez	a0,358e <EXTI9_5_IRQHandler+0x12>
    35de:	10000513          	li	a0,256
    35e2:	6ad000ef          	jal	ra,448e <EXTI_GetITStatus>
    35e6:	f545                	bnez	a0,358e <EXTI9_5_IRQHandler+0x12>
    35e8:	20000513          	li	a0,512
    35ec:	6a3000ef          	jal	ra,448e <EXTI_GetITStatus>
    35f0:	fd59                	bnez	a0,358e <EXTI9_5_IRQHandler+0x12>
    35f2:	b7f1                	j	35be <EXTI9_5_IRQHandler+0x42>

000035f4 <EXTI15_10_IRQHandler>:
    35f4:	34011173          	csrrw	sp,mscratch,sp
    35f8:	c2afd0ef          	jal	ra,a22 <rt_interrupt_enter>
    35fc:	40000513          	li	a0,1024
    3600:	68f000ef          	jal	ra,448e <EXTI_GetITStatus>
    3604:	c129                	beqz	a0,3646 <EXTI15_10_IRQHandler+0x52>
    3606:	40000513          	li	a0,1024
    360a:	e87ff0ef          	jal	ra,3490 <HAL_GPIO_EXTI_Callback>
    360e:	6505                	lui	a0,0x1
    3610:	80050513          	addi	a0,a0,-2048 # 800 <__stack_size>
    3614:	e7dff0ef          	jal	ra,3490 <HAL_GPIO_EXTI_Callback>
    3618:	6505                	lui	a0,0x1
    361a:	e77ff0ef          	jal	ra,3490 <HAL_GPIO_EXTI_Callback>
    361e:	6509                	lui	a0,0x2
    3620:	e71ff0ef          	jal	ra,3490 <HAL_GPIO_EXTI_Callback>
    3624:	6511                	lui	a0,0x4
    3626:	e6bff0ef          	jal	ra,3490 <HAL_GPIO_EXTI_Callback>
    362a:	6521                	lui	a0,0x8
    362c:	e65ff0ef          	jal	ra,3490 <HAL_GPIO_EXTI_Callback>
    3630:	6541                	lui	a0,0x10
    3632:	c0050513          	addi	a0,a0,-1024 # fc00 <__rt_init_end+0x3350>
    3636:	677000ef          	jal	ra,44ac <EXTI_ClearITPendingBit>
    363a:	c16fd0ef          	jal	ra,a50 <rt_interrupt_leave>
    363e:	34011173          	csrrw	sp,mscratch,sp
    3642:	30200073          	mret
    3646:	6505                	lui	a0,0x1
    3648:	80050513          	addi	a0,a0,-2048 # 800 <__stack_size>
    364c:	643000ef          	jal	ra,448e <EXTI_GetITStatus>
    3650:	f95d                	bnez	a0,3606 <EXTI15_10_IRQHandler+0x12>
    3652:	6505                	lui	a0,0x1
    3654:	63b000ef          	jal	ra,448e <EXTI_GetITStatus>
    3658:	f55d                	bnez	a0,3606 <EXTI15_10_IRQHandler+0x12>
    365a:	6509                	lui	a0,0x2
    365c:	633000ef          	jal	ra,448e <EXTI_GetITStatus>
    3660:	f15d                	bnez	a0,3606 <EXTI15_10_IRQHandler+0x12>
    3662:	6511                	lui	a0,0x4
    3664:	62b000ef          	jal	ra,448e <EXTI_GetITStatus>
    3668:	fd59                	bnez	a0,3606 <EXTI15_10_IRQHandler+0x12>
    366a:	6521                	lui	a0,0x8
    366c:	623000ef          	jal	ra,448e <EXTI_GetITStatus>
    3670:	f959                	bnez	a0,3606 <EXTI15_10_IRQHandler+0x12>
    3672:	b7e1                	j	363a <EXTI15_10_IRQHandler+0x46>

00003674 <pwm_gpio_init>:
    3674:	d2ffc2ef          	jal	t0,3a2 <__riscv_save_0>
    3678:	6509                	lui	a0,0x2
    367a:	1141                	addi	sp,sp,-16
    367c:	4585                	li	a1,1
    367e:	0541                	addi	a0,a0,16
    3680:	0ac010ef          	jal	ra,472c <RCC_APB2PeriphClockCmd>
    3684:	04000793          	li	a5,64
    3688:	827c                	sh	a5,4(sp)
    368a:	47e1                	li	a5,24
    368c:	c63e                	sw	a5,12(sp)
    368e:	004c                	addi	a1,sp,4
    3690:	478d                	li	a5,3
    3692:	40011537          	lui	a0,0x40011
    3696:	c43e                	sw	a5,8(sp)
    3698:	61f000ef          	jal	ra,44b6 <GPIO_Init>
    369c:	0141                	addi	sp,sp,16
    369e:	d29fc06f          	j	3c6 <__riscv_restore_0>

000036a2 <pwm_tim8_init>:
    36a2:	d01fc2ef          	jal	t0,3a2 <__riscv_save_0>
    36a6:	1101                	addi	sp,sp,-32
    36a8:	40013437          	lui	s0,0x40013
    36ac:	157d                	addi	a0,a0,-1
    36ae:	84ae                	mv	s1,a1
    36b0:	8468                	sh	a0,8(sp)
    36b2:	04700793          	li	a5,71
    36b6:	004c                	addi	a1,sp,4
    36b8:	40040513          	addi	a0,s0,1024 # 40013400 <_eusrstack+0x20003400>
    36bc:	c23e                	sw	a5,4(sp)
    36be:	00011523          	sh	zero,10(sp)
    36c2:	0a6010ef          	jal	ra,4768 <TIM_TimeBaseInit>
    36c6:	67c1                	lui	a5,0x10
    36c8:	06078793          	addi	a5,a5,96 # 10060 <__rt_init_end+0x37b0>
    36cc:	080c                	addi	a1,sp,16
    36ce:	40040513          	addi	a0,s0,1024
    36d2:	c83e                	sw	a5,16(sp)
    36d4:	83e4                	sh	s1,22(sp)
    36d6:	00011c23          	sh	zero,24(sp)
    36da:	138010ef          	jal	ra,4812 <TIM_OC1Init>
    36de:	40040513          	addi	a0,s0,1024
    36e2:	45a1                	li	a1,8
    36e4:	1f8010ef          	jal	ra,48dc <TIM_OC1PreloadConfig>
    36e8:	40040513          	addi	a0,s0,1024
    36ec:	4585                	li	a1,1
    36ee:	1d4010ef          	jal	ra,48c2 <TIM_ARRPreloadConfig>
    36f2:	40040513          	addi	a0,s0,1024
    36f6:	4585                	li	a1,1
    36f8:	1b4010ef          	jal	ra,48ac <TIM_CtrlPWMOutputs>
    36fc:	4585                	li	a1,1
    36fe:	40040513          	addi	a0,s0,1024
    3702:	192010ef          	jal	ra,4894 <TIM_Cmd>
    3706:	6105                	addi	sp,sp,32
    3708:	cbffc06f          	j	3c6 <__riscv_restore_0>

0000370c <ch32dma_transmit>:
    370c:	4501                	li	a0,0
    370e:	8082                	ret

00003710 <uart_isr>:
    3710:	c93fc2ef          	jal	t0,3a2 <__riscv_save_0>
    3714:	4120                	lw	s0,64(a0)
    3716:	84aa                	mv	s1,a0
    3718:	52500593          	li	a1,1317
    371c:	4808                	lw	a0,16(s0)
    371e:	2ba010ef          	jal	ra,49d8 <USART_GetITStatus>
    3722:	c911                	beqz	a0,3736 <uart_isr+0x26>
    3724:	4585                	li	a1,1
    3726:	8526                	mv	a0,s1
    3728:	f4cff0ef          	jal	ra,2e74 <rt_hw_serial_isr>
    372c:	4808                	lw	a0,16(s0)
    372e:	52500593          	li	a1,1317
    3732:	2e2010ef          	jal	ra,4a14 <USART_ClearITPendingBit>
    3736:	c91fc06f          	j	3c6 <__riscv_restore_0>

0000373a <rt_hw_usart_init>:
    373a:	c39fc2ef          	jal	t0,372 <__riscv_save_12>
    373e:	20005bb7          	lui	s7,0x20005
    3742:	93cb8413          	addi	s0,s7,-1732 # 2000493c <uart1>
    3746:	03500793          	li	a5,53
    374a:	c85c                	sw	a5,20(s0)
    374c:	20005cb7          	lui	s9,0x20005
    3750:	400147b7          	lui	a5,0x40014
    3754:	88cc8713          	addi	a4,s9,-1908 # 2000488c <serial1>
    3758:	80078793          	addi	a5,a5,-2048 # 40013800 <_eusrstack+0x20003800>
    375c:	c81c                	sw	a5,16(s0)
    375e:	477c                	lw	a5,76(a4)
    3760:	c0000937          	lui	s2,0xc0000
    3764:	6ac1                	lui	s5,0x10
    3766:	0aa1                	addi	s5,s5,8
    3768:	00f977b3          	and	a5,s2,a5
    376c:	64f1                	lui	s1,0x1c
    376e:	20048493          	addi	s1,s1,512 # 1c200 <__rt_init_end+0xf950>
    3772:	0157e7b3          	or	a5,a5,s5
    3776:	000c0db7          	lui	s11,0xc0
    377a:	6b31                	lui	s6,0xc
    377c:	6511                	lui	a0,0x4
    377e:	1141                	addi	sp,sp,-16
    3780:	c724                	sw	s1,72(a4)
    3782:	c77c                	sw	a5,76(a4)
    3784:	dc4b0b13          	addi	s6,s6,-572 # bdc4 <ch32_uart_ops>
    3788:	01b42423          	sw	s11,8(s0)
    378c:	00042223          	sw	zero,4(s0)
    3790:	4585                	li	a1,1
    3792:	0511                	addi	a0,a0,4
    3794:	05672223          	sw	s6,68(a4) # e000e044 <_eusrstack+0xbfffe044>
    3798:	400119b7          	lui	s3,0x40011
    379c:	c004                	sw	s1,0(s0)
    379e:	00041623          	sh	zero,12(s0)
    37a2:	78b000ef          	jal	ra,472c <RCC_APB2PeriphClockCmd>
    37a6:	4a0d                	li	s4,3
    37a8:	20000793          	li	a5,512
    37ac:	4d61                	li	s10,24
    37ae:	004c                	addi	a1,sp,4
    37b0:	80098513          	addi	a0,s3,-2048 # 40010800 <_eusrstack+0x20000800>
    37b4:	827c                	sh	a5,4(sp)
    37b6:	c452                	sw	s4,8(sp)
    37b8:	c66a                	sw	s10,12(sp)
    37ba:	4fd000ef          	jal	ra,44b6 <GPIO_Init>
    37be:	40000793          	li	a5,1024
    37c2:	4c11                	li	s8,4
    37c4:	004c                	addi	a1,sp,4
    37c6:	80098513          	addi	a0,s3,-2048
    37ca:	827c                	sh	a5,4(sp)
    37cc:	c452                	sw	s4,8(sp)
    37ce:	c662                	sw	s8,12(sp)
    37d0:	4e7000ef          	jal	ra,44b6 <GPIO_Init>
    37d4:	4808                	lw	a0,16(s0)
    37d6:	93cb8593          	addi	a1,s7,-1732
    37da:	110010ef          	jal	ra,48ea <USART_Init>
    37de:	4808                	lw	a0,16(s0)
    37e0:	4585                	li	a1,1
    37e2:	198010ef          	jal	ra,497a <USART_Cmd>
    37e6:	0000b5b7          	lui	a1,0xb
    37ea:	93cb8693          	addi	a3,s7,-1732
    37ee:	10300613          	li	a2,259
    37f2:	6d058593          	addi	a1,a1,1744 # b6d0 <__fsym_pinMode_name+0x8>
    37f6:	88cc8513          	addi	a0,s9,-1908
    37fa:	e20ff0ef          	jal	ra,2e1a <rt_hw_serial_register>
    37fe:	20005bb7          	lui	s7,0x20005
    3802:	954b8413          	addi	s0,s7,-1708 # 20004954 <uart2>
    3806:	03600793          	li	a5,54
    380a:	c85c                	sw	a5,20(s0)
    380c:	400047b7          	lui	a5,0x40004
    3810:	20005cb7          	lui	s9,0x20005
    3814:	40078793          	addi	a5,a5,1024 # 40004400 <_eusrstack+0x1fff4400>
    3818:	c81c                	sw	a5,16(s0)
    381a:	8e4c8793          	addi	a5,s9,-1820 # 200048e4 <serial2>
    381e:	47f8                	lw	a4,76(a5)
    3820:	c7a4                	sw	s1,72(a5)
    3822:	00042223          	sw	zero,4(s0)
    3826:	00e97933          	and	s2,s2,a4
    382a:	01596933          	or	s2,s2,s5
    382e:	0527a623          	sw	s2,76(a5)
    3832:	01b42423          	sw	s11,8(s0)
    3836:	4585                	li	a1,1
    3838:	00020537          	lui	a0,0x20
    383c:	0567a223          	sw	s6,68(a5)
    3840:	c004                	sw	s1,0(s0)
    3842:	00041623          	sh	zero,12(s0)
    3846:	705000ef          	jal	ra,474a <RCC_APB1PeriphClockCmd>
    384a:	4585                	li	a1,1
    384c:	4511                	li	a0,4
    384e:	6df000ef          	jal	ra,472c <RCC_APB2PeriphClockCmd>
    3852:	004c                	addi	a1,sp,4
    3854:	80098513          	addi	a0,s3,-2048
    3858:	01811223          	sh	s8,4(sp)
    385c:	c452                	sw	s4,8(sp)
    385e:	c66a                	sw	s10,12(sp)
    3860:	457000ef          	jal	ra,44b6 <GPIO_Init>
    3864:	47a1                	li	a5,8
    3866:	004c                	addi	a1,sp,4
    3868:	80098513          	addi	a0,s3,-2048
    386c:	827c                	sh	a5,4(sp)
    386e:	c452                	sw	s4,8(sp)
    3870:	c662                	sw	s8,12(sp)
    3872:	445000ef          	jal	ra,44b6 <GPIO_Init>
    3876:	4808                	lw	a0,16(s0)
    3878:	954b8593          	addi	a1,s7,-1708
    387c:	06e010ef          	jal	ra,48ea <USART_Init>
    3880:	4808                	lw	a0,16(s0)
    3882:	4585                	li	a1,1
    3884:	0f6010ef          	jal	ra,497a <USART_Cmd>
    3888:	0000c5b7          	lui	a1,0xc
    388c:	954b8693          	addi	a3,s7,-1708
    3890:	10300613          	li	a2,259
    3894:	dd858593          	addi	a1,a1,-552 # bdd8 <ch32_uart_ops+0x14>
    3898:	8e4c8513          	addi	a0,s9,-1820
    389c:	d7eff0ef          	jal	ra,2e1a <rt_hw_serial_register>
    38a0:	4501                	li	a0,0
    38a2:	0141                	addi	sp,sp,16
    38a4:	b0bfc06f          	j	3ae <__riscv_restore_12>

000038a8 <ch32_configure>:
    38a8:	afbfc2ef          	jal	t0,3a2 <__riscv_save_0>
    38ac:	419c                	lw	a5,0(a1)
    38ae:	4120                	lw	s0,64(a0)
    38b0:	46a1                	li	a3,8
    38b2:	1141                	addi	sp,sp,-16
    38b4:	c01c                	sw	a5,0(s0)
    38b6:	47b1                	li	a5,12
    38b8:	a43e                	sh	a5,10(s0)
    38ba:	41dc                	lw	a5,4(a1)
    38bc:	00041623          	sh	zero,12(s0)
    38c0:	00f7f713          	andi	a4,a5,15
    38c4:	02d70163          	beq	a4,a3,38e6 <ch32_configure+0x3e>
    38c8:	46a5                	li	a3,9
    38ca:	00d71e63          	bne	a4,a3,38e6 <ch32_configure+0x3e>
    38ce:	6705                	lui	a4,0x1
    38d0:	a05a                	sh	a4,4(s0)
    38d2:	0047d713          	srli	a4,a5,0x4
    38d6:	8b0d                	andi	a4,a4,3
    38d8:	c701                	beqz	a4,38e0 <ch32_configure+0x38>
    38da:	4685                	li	a3,1
    38dc:	00d70863          	beq	a4,a3,38ec <ch32_configure+0x44>
    38e0:	00041323          	sh	zero,6(s0)
    38e4:	a031                	j	38f0 <ch32_configure+0x48>
    38e6:	00041223          	sh	zero,4(s0)
    38ea:	b7e5                	j	38d2 <ch32_configure+0x2a>
    38ec:	6709                	lui	a4,0x2
    38ee:	a07a                	sh	a4,6(s0)
    38f0:	8399                	srli	a5,a5,0x6
    38f2:	8b8d                	andi	a5,a5,3
    38f4:	4705                	li	a4,1
    38f6:	00e78963          	beq	a5,a4,3908 <ch32_configure+0x60>
    38fa:	c781                	beqz	a5,3902 <ch32_configure+0x5a>
    38fc:	4709                	li	a4,2
    38fe:	0ce78863          	beq	a5,a4,39ce <ch32_configure+0x126>
    3902:	00041423          	sh	zero,8(s0)
    3906:	a021                	j	390e <ch32_configure+0x66>
    3908:	60000793          	li	a5,1536
    390c:	a41e                	sh	a5,8(s0)
    390e:	4818                	lw	a4,16(s0)
    3910:	400147b7          	lui	a5,0x40014
    3914:	80078793          	addi	a5,a5,-2048 # 40013800 <_eusrstack+0x20003800>
    3918:	04f71863          	bne	a4,a5,3968 <ch32_configure+0xc0>
    391c:	6511                	lui	a0,0x4
    391e:	4585                	li	a1,1
    3920:	0511                	addi	a0,a0,4
    3922:	60b000ef          	jal	ra,472c <RCC_APB2PeriphClockCmd>
    3926:	20000793          	li	a5,512
    392a:	400114b7          	lui	s1,0x40011
    392e:	827c                	sh	a5,4(sp)
    3930:	490d                	li	s2,3
    3932:	47e1                	li	a5,24
    3934:	004c                	addi	a1,sp,4
    3936:	80048513          	addi	a0,s1,-2048 # 40010800 <_eusrstack+0x20000800>
    393a:	c63e                	sw	a5,12(sp)
    393c:	c44a                	sw	s2,8(sp)
    393e:	379000ef          	jal	ra,44b6 <GPIO_Init>
    3942:	40000793          	li	a5,1024
    3946:	827c                	sh	a5,4(sp)
    3948:	004c                	addi	a1,sp,4
    394a:	4791                	li	a5,4
    394c:	80048513          	addi	a0,s1,-2048
    3950:	c63e                	sw	a5,12(sp)
    3952:	c44a                	sw	s2,8(sp)
    3954:	363000ef          	jal	ra,44b6 <GPIO_Init>
    3958:	4808                	lw	a0,16(s0)
    395a:	85a2                	mv	a1,s0
    395c:	78f000ef          	jal	ra,48ea <USART_Init>
    3960:	4808                	lw	a0,16(s0)
    3962:	4585                	li	a1,1
    3964:	016010ef          	jal	ra,497a <USART_Cmd>
    3968:	4818                	lw	a4,16(s0)
    396a:	400047b7          	lui	a5,0x40004
    396e:	40078793          	addi	a5,a5,1024 # 40004400 <_eusrstack+0x1fff4400>
    3972:	04f71a63          	bne	a4,a5,39c6 <ch32_configure+0x11e>
    3976:	4585                	li	a1,1
    3978:	00020537          	lui	a0,0x20
    397c:	5cf000ef          	jal	ra,474a <RCC_APB1PeriphClockCmd>
    3980:	4585                	li	a1,1
    3982:	4511                	li	a0,4
    3984:	5a9000ef          	jal	ra,472c <RCC_APB2PeriphClockCmd>
    3988:	4791                	li	a5,4
    398a:	400114b7          	lui	s1,0x40011
    398e:	827c                	sh	a5,4(sp)
    3990:	490d                	li	s2,3
    3992:	47e1                	li	a5,24
    3994:	004c                	addi	a1,sp,4
    3996:	80048513          	addi	a0,s1,-2048 # 40010800 <_eusrstack+0x20000800>
    399a:	c63e                	sw	a5,12(sp)
    399c:	c44a                	sw	s2,8(sp)
    399e:	319000ef          	jal	ra,44b6 <GPIO_Init>
    39a2:	47a1                	li	a5,8
    39a4:	827c                	sh	a5,4(sp)
    39a6:	004c                	addi	a1,sp,4
    39a8:	4791                	li	a5,4
    39aa:	80048513          	addi	a0,s1,-2048
    39ae:	c63e                	sw	a5,12(sp)
    39b0:	c44a                	sw	s2,8(sp)
    39b2:	305000ef          	jal	ra,44b6 <GPIO_Init>
    39b6:	4808                	lw	a0,16(s0)
    39b8:	85a2                	mv	a1,s0
    39ba:	731000ef          	jal	ra,48ea <USART_Init>
    39be:	4808                	lw	a0,16(s0)
    39c0:	4585                	li	a1,1
    39c2:	7b9000ef          	jal	ra,497a <USART_Cmd>
    39c6:	4501                	li	a0,0
    39c8:	0141                	addi	sp,sp,16
    39ca:	9fdfc06f          	j	3c6 <__riscv_restore_0>
    39ce:	40000793          	li	a5,1024
    39d2:	bf2d                	j	390c <ch32_configure+0x64>

000039d4 <ch32_getc>:
    39d4:	9cffc2ef          	jal	t0,3a2 <__riscv_save_0>
    39d8:	4120                	lw	s0,64(a0)
    39da:	02000593          	li	a1,32
    39de:	4808                	lw	a0,16(s0)
    39e0:	7ef000ef          	jal	ra,49ce <USART_GetFlagStatus>
    39e4:	c519                	beqz	a0,39f2 <ch32_getc+0x1e>
    39e6:	481c                	lw	a5,16(s0)
    39e8:	23ca                	lhu	a0,4(a5)
    39ea:	0ff57513          	andi	a0,a0,255
    39ee:	9d9fc06f          	j	3c6 <__riscv_restore_0>
    39f2:	557d                	li	a0,-1
    39f4:	bfed                	j	39ee <ch32_getc+0x1a>

000039f6 <ch32_putc>:
    39f6:	9adfc2ef          	jal	t0,3a2 <__riscv_save_0>
    39fa:	4124                	lw	s1,64(a0)
    39fc:	842e                	mv	s0,a1
    39fe:	4888                	lw	a0,16(s1)
    3a00:	04000593          	li	a1,64
    3a04:	7cb000ef          	jal	ra,49ce <USART_GetFlagStatus>
    3a08:	d97d                	beqz	a0,39fe <ch32_putc+0x8>
    3a0a:	489c                	lw	a5,16(s1)
    3a0c:	0442                	slli	s0,s0,0x10
    3a0e:	8041                	srli	s0,s0,0x10
    3a10:	a3c2                	sh	s0,4(a5)
    3a12:	4505                	li	a0,1
    3a14:	9b3fc06f          	j	3c6 <__riscv_restore_0>

00003a18 <ch32_control>:
    3a18:	98bfc2ef          	jal	t0,3a2 <__riscv_save_0>
    3a1c:	47c1                	li	a5,16
    3a1e:	4138                	lw	a4,64(a0)
    3a20:	02f58d63          	beq	a1,a5,3a5a <ch32_control+0x42>
    3a24:	47c5                	li	a5,17
    3a26:	02f59763          	bne	a1,a5,3a54 <ch32_control+0x3c>
    3a2a:	4b54                	lw	a3,20(a4)
    3a2c:	4605                	li	a2,1
    3a2e:	0056d793          	srli	a5,a3,0x5
    3a32:	06078793          	addi	a5,a5,96
    3a36:	00d61633          	sll	a2,a2,a3
    3a3a:	078a                	slli	a5,a5,0x2
    3a3c:	e000e6b7          	lui	a3,0xe000e
    3a40:	97b6                	add	a5,a5,a3
    3a42:	c390                	sw	a2,0(a5)
    3a44:	0000100f          	fence.i
    3a48:	4601                	li	a2,0
    3a4a:	4b08                	lw	a0,16(a4)
    3a4c:	52500593          	li	a1,1317
    3a50:	741000ef          	jal	ra,4990 <USART_ITConfig>
    3a54:	4501                	li	a0,0
    3a56:	971fc06f          	j	3c6 <__riscv_restore_0>
    3a5a:	4b54                	lw	a3,20(a4)
    3a5c:	4605                	li	a2,1
    3a5e:	0056d793          	srli	a5,a3,0x5
    3a62:	04078793          	addi	a5,a5,64
    3a66:	00d61633          	sll	a2,a2,a3
    3a6a:	078a                	slli	a5,a5,0x2
    3a6c:	e000e6b7          	lui	a3,0xe000e
    3a70:	97b6                	add	a5,a5,a3
    3a72:	c390                	sw	a2,0(a5)
    3a74:	4605                	li	a2,1
    3a76:	bfd1                	j	3a4a <ch32_control+0x32>

00003a78 <USART1_IRQHandler>:
    3a78:	34011173          	csrrw	sp,mscratch,sp
    3a7c:	fa7fc0ef          	jal	ra,a22 <rt_interrupt_enter>
    3a80:	20005537          	lui	a0,0x20005
    3a84:	88c50513          	addi	a0,a0,-1908 # 2000488c <serial1>
    3a88:	c89ff0ef          	jal	ra,3710 <uart_isr>
    3a8c:	fc5fc0ef          	jal	ra,a50 <rt_interrupt_leave>
    3a90:	34011173          	csrrw	sp,mscratch,sp
    3a94:	30200073          	mret

00003a98 <USART2_IRQHandler>:
    3a98:	34011173          	csrrw	sp,mscratch,sp
    3a9c:	f87fc0ef          	jal	ra,a22 <rt_interrupt_enter>
    3aa0:	20005537          	lui	a0,0x20005
    3aa4:	8e450513          	addi	a0,a0,-1820 # 200048e4 <serial2>
    3aa8:	c69ff0ef          	jal	ra,3710 <uart_isr>
    3aac:	fa5fc0ef          	jal	ra,a50 <rt_interrupt_leave>
    3ab0:	34011173          	csrrw	sp,mscratch,sp
    3ab4:	30200073          	mret

00003ab8 <send_at_cmd>:
    3ab8:	8ebfc2ef          	jal	t0,3a2 <__riscv_save_0>
    3abc:	8c81a483          	lw	s1,-1848(gp) # 200003f8 <atk_uart>
    3ac0:	842a                	mv	s0,a0
    3ac2:	a82fd0ef          	jal	ra,d44 <rt_strlen>
    3ac6:	86aa                	mv	a3,a0
    3ac8:	8622                	mv	a2,s0
    3aca:	4581                	li	a1,0
    3acc:	8526                	mv	a0,s1
    3ace:	d19fc0ef          	jal	ra,7e6 <rt_device_write>
    3ad2:	0000c537          	lui	a0,0xc
    3ad6:	85a2                	mv	a1,s0
    3ad8:	de050513          	addi	a0,a0,-544 # bde0 <ch32_uart_ops+0x1c>
    3adc:	e02fd0ef          	jal	ra,10de <rt_kprintf>
    3ae0:	5dc00513          	li	a0,1500
    3ae4:	f1ffd0ef          	jal	ra,1a02 <rt_thread_mdelay>
    3ae8:	8dffc06f          	j	3c6 <__riscv_restore_0>

00003aec <set_round_cmd>:
    3aec:	8b7fc2ef          	jal	t0,3a2 <__riscv_save_0>
    3af0:	20000437          	lui	s0,0x20000
    3af4:	4789                	li	a5,2
    3af6:	33040413          	addi	s0,s0,816 # 20000330 <servo_round_count>
    3afa:	00f51663          	bne	a0,a5,3b06 <set_round_cmd+0x1a>
    3afe:	41c8                	lw	a0,4(a1)
    3b00:	464010ef          	jal	ra,4f64 <atoi>
    3b04:	c008                	sw	a0,0(s0)
    3b06:	400c                	lw	a1,0(s0)
    3b08:	0000c537          	lui	a0,0xc
    3b0c:	e9050513          	addi	a0,a0,-368 # be90 <__fsym___cmd_servo_speed_cmd_name+0x64>
    3b10:	dcefd0ef          	jal	ra,10de <rt_kprintf>
    3b14:	8b3fc06f          	j	3c6 <__riscv_restore_0>

00003b18 <servo_speed_cmd>:
    3b18:	88bfc2ef          	jal	t0,3a2 <__riscv_save_0>
    3b1c:	4789                	li	a5,2
    3b1e:	00f50a63          	beq	a0,a5,3b32 <servo_speed_cmd+0x1a>
    3b22:	0000c537          	lui	a0,0xc
    3b26:	e4450513          	addi	a0,a0,-444 # be44 <__fsym___cmd_servo_speed_cmd_name+0x18>
    3b2a:	db4fd0ef          	jal	ra,10de <rt_kprintf>
    3b2e:	899fc06f          	j	3c6 <__riscv_restore_0>
    3b32:	41c8                	lw	a0,4(a1)
    3b34:	430010ef          	jal	ra,4f64 <atoi>
    3b38:	06450713          	addi	a4,a0,100
    3b3c:	0c800793          	li	a5,200
    3b40:	85aa                	mv	a1,a0
    3b42:	00e7f763          	bgeu	a5,a4,3b50 <servo_speed_cmd+0x38>
    3b46:	0000c537          	lui	a0,0xc
    3b4a:	e6850513          	addi	a0,a0,-408 # be68 <__fsym___cmd_servo_speed_cmd_name+0x3c>
    3b4e:	bff1                	j	3b2a <servo_speed_cmd+0x12>
    3b50:	80a1a223          	sw	a0,-2044(gp) # 20000334 <servo_speed>
    3b54:	8ca1a623          	sw	a0,-1844(gp) # 200003fc <g_servo_param>
    3b58:	0000c537          	lui	a0,0xc
    3b5c:	e7c50513          	addi	a0,a0,-388 # be7c <__fsym___cmd_servo_speed_cmd_name+0x50>
    3b60:	d7efd0ef          	jal	ra,10de <rt_kprintf>
    3b64:	b7e9                	j	3b2e <servo_speed_cmd+0x16>

00003b66 <wifi_recv_thread_entry>:
    3b66:	815fc2ef          	jal	t0,37a <__riscv_save_10>
    3b6a:	0000c7b7          	lui	a5,0xc
    3b6e:	f607aa83          	lw	s5,-160(a5) # bf60 <__fsym___cmd_wifi_power_cmd_name+0xa0>
    3b72:	20005937          	lui	s2,0x20005
    3b76:	200059b7          	lui	s3,0x20005
    3b7a:	711d                	addi	sp,sp,-96
    3b7c:	97890913          	addi	s2,s2,-1672 # 20004978 <wifi_recv_buf>
    3b80:	96c98993          	addi	s3,s3,-1684 # 2000496c <g_wifi_param>
    3b84:	8bd6                	mv	s7,s5
    3b86:	20005537          	lui	a0,0x20005
    3b8a:	55fd                	li	a1,-1
    3b8c:	9f850513          	addi	a0,a0,-1544 # 200049f8 <wifi_rx_sem>
    3b90:	dd1fc0ef          	jal	ra,960 <rt_sem_take>
    3b94:	8d41a503          	lw	a0,-1836(gp) # 20000404 <wifi_uart>
    3b98:	4685                	li	a3,1
    3b9a:	01f10613          	addi	a2,sp,31
    3b9e:	4581                	li	a1,0
    3ba0:	c2bfc0ef          	jal	ra,7ca <rt_device_read>
    3ba4:	4785                	li	a5,1
    3ba6:	fef510e3          	bne	a0,a5,3b86 <wifi_recv_thread_entry+0x20>
    3baa:	8d01a783          	lw	a5,-1840(gp) # 20000400 <wifi_data_len>
    3bae:	07e00713          	li	a4,126
    3bb2:	8d018493          	addi	s1,gp,-1840 # 20000400 <wifi_data_len>
    3bb6:	16f76a63          	bltu	a4,a5,3d2a <wifi_recv_thread_entry+0x1c4>
    3bba:	01f10683          	lb	a3,31(sp)
    3bbe:	00178713          	addi	a4,a5,1
    3bc2:	97ca                	add	a5,a5,s2
    3bc4:	a394                	sb	a3,0(a5)
    3bc6:	c098                	sw	a4,0(s1)
    3bc8:	974a                	add	a4,a4,s2
    3bca:	00070023          	sb	zero,0(a4) # 2000 <list_mutex+0x8>
    3bce:	07d00793          	li	a5,125
    3bd2:	fcf691e3          	bne	a3,a5,3b94 <wifi_recv_thread_entry+0x2e>
    3bd6:	07b00593          	li	a1,123
    3bda:	854a                	mv	a0,s2
    3bdc:	5d0010ef          	jal	ra,51ac <strchr>
    3be0:	842a                	mv	s0,a0
    3be2:	14050463          	beqz	a0,3d2a <wifi_recv_thread_entry+0x1c4>
    3be6:	85aa                	mv	a1,a0
    3be8:	0000c537          	lui	a0,0xc
    3bec:	f6450513          	addi	a0,a0,-156 # bf64 <__fsym___cmd_wifi_power_cmd_name+0xa4>
    3bf0:	ceefd0ef          	jal	ra,10de <rt_kprintf>
    3bf4:	4581                	li	a1,0
    3bf6:	02000613          	li	a2,32
    3bfa:	1008                	addi	a0,sp,32
    3bfc:	fd6fc0ef          	jal	ra,3d2 <memset>
    3c00:	0000c5b7          	lui	a1,0xc
    3c04:	f7858593          	addi	a1,a1,-136 # bf78 <__fsym___cmd_wifi_power_cmd_name+0xb8>
    3c08:	8522                	mv	a0,s0
    3c0a:	604010ef          	jal	ra,520e <strstr>
    3c0e:	12050163          	beqz	a0,3d30 <wifi_recv_thread_entry+0x1ca>
    3c12:	0000c5b7          	lui	a1,0xc
    3c16:	0090                	addi	a2,sp,64
    3c18:	f8458593          	addi	a1,a1,-124 # bf84 <__fsym___cmd_wifi_power_cmd_name+0xc4>
    3c1c:	052d                	addi	a0,a0,11
    3c1e:	466010ef          	jal	ra,5084 <siscanf>
    3c22:	0088                	addi	a0,sp,64
    3c24:	33a010ef          	jal	ra,4f5e <atof>
    3c28:	15e010ef          	jal	ra,4d86 <__truncdfsf2>
    3c2c:	8c2a                	mv	s8,a0
    3c2e:	4a05                	li	s4,1
    3c30:	0000c5b7          	lui	a1,0xc
    3c34:	f9058593          	addi	a1,a1,-112 # bf90 <__fsym___cmd_wifi_power_cmd_name+0xd0>
    3c38:	8522                	mv	a0,s0
    3c3a:	5d4010ef          	jal	ra,520e <strstr>
    3c3e:	00000c93          	li	s9,0
    3c42:	c105                	beqz	a0,3c62 <wifi_recv_thread_entry+0xfc>
    3c44:	0000c5b7          	lui	a1,0xc
    3c48:	0090                	addi	a2,sp,64
    3c4a:	f8458593          	addi	a1,a1,-124 # bf84 <__fsym___cmd_wifi_power_cmd_name+0xc4>
    3c4e:	0525                	addi	a0,a0,9
    3c50:	434010ef          	jal	ra,5084 <siscanf>
    3c54:	0088                	addi	a0,sp,64
    3c56:	308010ef          	jal	ra,4f5e <atof>
    3c5a:	12c010ef          	jal	ra,4d86 <__truncdfsf2>
    3c5e:	8caa                	mv	s9,a0
    3c60:	4a05                	li	s4,1
    3c62:	0000c5b7          	lui	a1,0xc
    3c66:	f9c58593          	addi	a1,a1,-100 # bf9c <__fsym___cmd_wifi_power_cmd_name+0xdc>
    3c6a:	8522                	mv	a0,s0
    3c6c:	5a2010ef          	jal	ra,520e <strstr>
    3c70:	4d01                	li	s10,0
    3c72:	cd11                	beqz	a0,3c8e <wifi_recv_thread_entry+0x128>
    3c74:	0000c5b7          	lui	a1,0xc
    3c78:	0090                	addi	a2,sp,64
    3c7a:	f8458593          	addi	a1,a1,-124 # bf84 <__fsym___cmd_wifi_power_cmd_name+0xc4>
    3c7e:	0521                	addi	a0,a0,8
    3c80:	404010ef          	jal	ra,5084 <siscanf>
    3c84:	0088                	addi	a0,sp,64
    3c86:	2de010ef          	jal	ra,4f64 <atoi>
    3c8a:	8d2a                	mv	s10,a0
    3c8c:	4a05                	li	s4,1
    3c8e:	0000c5b7          	lui	a1,0xc
    3c92:	fa858593          	addi	a1,a1,-88 # bfa8 <__fsym___cmd_wifi_power_cmd_name+0xe8>
    3c96:	8522                	mv	a0,s0
    3c98:	576010ef          	jal	ra,520e <strstr>
    3c9c:	c555                	beqz	a0,3d48 <wifi_recv_thread_entry+0x1e2>
    3c9e:	051d                	addi	a0,a0,7
    3ca0:	02000713          	li	a4,32
    3ca4:	00050783          	lb	a5,0(a0)
    3ca8:	9bf5                	andi	a5,a5,-3
    3caa:	08e78763          	beq	a5,a4,3d38 <wifi_recv_thread_entry+0x1d2>
    3cae:	0000c5b7          	lui	a1,0xc
    3cb2:	1010                	addi	a2,sp,32
    3cb4:	fb058593          	addi	a1,a1,-80 # bfb0 <__fsym___cmd_wifi_power_cmd_name+0xf0>
    3cb8:	3cc010ef          	jal	ra,5084 <siscanf>
    3cbc:	060a0063          	beqz	s4,3d1c <wifi_recv_thread_entry+0x1b6>
    3cc0:	4a05                	li	s4,1
    3cc2:	85d6                	mv	a1,s5
    3cc4:	0189a023          	sw	s8,0(s3)
    3cc8:	0199a223          	sw	s9,4(s3)
    3ccc:	01a9a423          	sw	s10,8(s3)
    3cd0:	8566                	mv	a0,s9
    3cd2:	5c3000ef          	jal	ra,4a94 <__mulsf3>
    3cd6:	04e010ef          	jal	ra,4d24 <__fixsfsi>
    3cda:	06400413          	li	s0,100
    3cde:	02856733          	rem	a4,a0,s0
    3ce2:	8566                	mv	a0,s9
    3ce4:	c63a                	sw	a4,12(sp)
    3ce6:	03e010ef          	jal	ra,4d24 <__fixsfsi>
    3cea:	85de                	mv	a1,s7
    3cec:	c42a                	sw	a0,8(sp)
    3cee:	8562                	mv	a0,s8
    3cf0:	5a5000ef          	jal	ra,4a94 <__mulsf3>
    3cf4:	030010ef          	jal	ra,4d24 <__fixsfsi>
    3cf8:	02856433          	rem	s0,a0,s0
    3cfc:	8562                	mv	a0,s8
    3cfe:	026010ef          	jal	ra,4d24 <__fixsfsi>
    3d02:	4732                	lw	a4,12(sp)
    3d04:	46a2                	lw	a3,8(sp)
    3d06:	85aa                	mv	a1,a0
    3d08:	0000c537          	lui	a0,0xc
    3d0c:	87ea                	mv	a5,s10
    3d0e:	fb850513          	addi	a0,a0,-72 # bfb8 <__fsym___cmd_wifi_power_cmd_name+0xf8>
    3d12:	8622                	mv	a2,s0
    3d14:	bcafd0ef          	jal	ra,10de <rt_kprintf>
    3d18:	000a0963          	beqz	s4,3d2a <wifi_recv_thread_entry+0x1c4>
    3d1c:	0000c537          	lui	a0,0xc
    3d20:	100c                	addi	a1,sp,32
    3d22:	ff050513          	addi	a0,a0,-16 # bff0 <__fsym___cmd_wifi_power_cmd_name+0x130>
    3d26:	bb8fd0ef          	jal	ra,10de <rt_kprintf>
    3d2a:	0004a023          	sw	zero,0(s1)
    3d2e:	b59d                	j	3b94 <wifi_recv_thread_entry+0x2e>
    3d30:	4a01                	li	s4,0
    3d32:	00000c13          	li	s8,0
    3d36:	bded                	j	3c30 <wifi_recv_thread_entry+0xca>
    3d38:	0505                	addi	a0,a0,1
    3d3a:	b7ad                	j	3ca4 <wifi_recv_thread_entry+0x13e>
    3d3c:	0000c537          	lui	a0,0xc
    3d40:	85a2                	mv	a1,s0
    3d42:	00850513          	addi	a0,a0,8 # c008 <__fsym___cmd_wifi_power_cmd_name+0x148>
    3d46:	b7c5                	j	3d26 <wifi_recv_thread_entry+0x1c0>
    3d48:	fe0a0ae3          	beqz	s4,3d3c <wifi_recv_thread_entry+0x1d6>
    3d4c:	4a01                	li	s4,0
    3d4e:	bf95                	j	3cc2 <wifi_recv_thread_entry+0x15c>

00003d50 <wifi_uart_rx_callback>:
    3d50:	e52fc2ef          	jal	t0,3a2 <__riscv_save_0>
    3d54:	20005537          	lui	a0,0x20005
    3d58:	9f850513          	addi	a0,a0,-1544 # 200049f8 <wifi_rx_sem>
    3d5c:	c85fc0ef          	jal	ra,9e0 <rt_sem_release>
    3d60:	4501                	li	a0,0
    3d62:	e64fc06f          	j	3c6 <__riscv_restore_0>

00003d66 <wifi_power_ctrl>:
    3d66:	e3cfc2ef          	jal	t0,3a2 <__riscv_save_0>
    3d6a:	842a                	mv	s0,a0
    3d6c:	00a035b3          	snez	a1,a0
    3d70:	452d                	li	a0,11
    3d72:	9e2ff0ef          	jal	ra,2f54 <rt_pin_write>
    3d76:	ec09                	bnez	s0,3d90 <wifi_power_ctrl+0x2a>
    3d78:	0000c5b7          	lui	a1,0xc
    3d7c:	f4858593          	addi	a1,a1,-184 # bf48 <__fsym___cmd_wifi_power_cmd_name+0x88>
    3d80:	0000c537          	lui	a0,0xc
    3d84:	f4c50513          	addi	a0,a0,-180 # bf4c <__fsym___cmd_wifi_power_cmd_name+0x8c>
    3d88:	b56fd0ef          	jal	ra,10de <rt_kprintf>
    3d8c:	e3afc06f          	j	3c6 <__riscv_restore_0>
    3d90:	0000c5b7          	lui	a1,0xc
    3d94:	f4458593          	addi	a1,a1,-188 # bf44 <__fsym___cmd_wifi_power_cmd_name+0x84>
    3d98:	b7e5                	j	3d80 <wifi_power_ctrl+0x1a>

00003d9a <wifi_module_init>:
    3d9a:	e08fc2ef          	jal	t0,3a2 <__riscv_save_0>
    3d9e:	200057b7          	lui	a5,0x20005
    3da2:	0000c537          	lui	a0,0xc
    3da6:	96c78793          	addi	a5,a5,-1684 # 2000496c <g_wifi_param>
    3daa:	00000713          	li	a4,0
    3dae:	1141                	addi	sp,sp,-16
    3db0:	dd850513          	addi	a0,a0,-552 # bdd8 <ch32_uart_ops+0x14>
    3db4:	c398                	sw	a4,0(a5)
    3db6:	c3d8                	sw	a4,4(a5)
    3db8:	0007a423          	sw	zero,8(a5)
    3dbc:	8d418413          	addi	s0,gp,-1836 # 20000404 <wifi_uart>
    3dc0:	8ddfc0ef          	jal	ra,69c <rt_device_find>
    3dc4:	c008                	sw	a0,0(s0)
    3dc6:	e911                	bnez	a0,3dda <wifi_module_init+0x40>
    3dc8:	0000c537          	lui	a0,0xc
    3dcc:	ed850513          	addi	a0,a0,-296 # bed8 <__fsym___cmd_wifi_power_cmd_name+0x18>
    3dd0:	b0efd0ef          	jal	ra,10de <rt_kprintf>
    3dd4:	0141                	addi	sp,sp,16
    3dd6:	df0fc06f          	j	3c6 <__riscv_restore_0>
    3dda:	4732                	lw	a4,12(sp)
    3ddc:	67f1                	lui	a5,0x1c
    3dde:	20078793          	addi	a5,a5,512 # 1c200 <__rt_init_end+0xf950>
    3de2:	c43e                	sw	a5,8(sp)
    3de4:	c00007b7          	lui	a5,0xc0000
    3de8:	8ff9                	and	a5,a5,a4
    3dea:	6741                	lui	a4,0x10
    3dec:	0721                	addi	a4,a4,8
    3dee:	0000c5b7          	lui	a1,0xc
    3df2:	20005537          	lui	a0,0x20005
    3df6:	8fd9                	or	a5,a5,a4
    3df8:	4681                	li	a3,0
    3dfa:	4601                	li	a2,0
    3dfc:	ef058593          	addi	a1,a1,-272 # bef0 <__fsym___cmd_wifi_power_cmd_name+0x30>
    3e00:	9f850513          	addi	a0,a0,-1544 # 200049f8 <wifi_rx_sem>
    3e04:	c63e                	sw	a5,12(sp)
    3e06:	b33fc0ef          	jal	ra,938 <rt_sem_init>
    3e0a:	4008                	lw	a0,0(s0)
    3e0c:	0030                	addi	a2,sp,8
    3e0e:	458d                	li	a1,3
    3e10:	9f3fc0ef          	jal	ra,802 <rt_device_control>
    3e14:	4008                	lw	a0,0(s0)
    3e16:	10300593          	li	a1,259
    3e1a:	8fffc0ef          	jal	ra,718 <rt_device_open>
    3e1e:	4008                	lw	a0,0(s0)
    3e20:	000045b7          	lui	a1,0x4
    3e24:	d5058593          	addi	a1,a1,-688 # 3d50 <wifi_uart_rx_callback>
    3e28:	9ebfc0ef          	jal	ra,812 <rt_device_set_rx_indicate>
    3e2c:	000045b7          	lui	a1,0x4
    3e30:	0000c537          	lui	a0,0xc
    3e34:	47a9                	li	a5,10
    3e36:	4721                	li	a4,8
    3e38:	40000693          	li	a3,1024
    3e3c:	4601                	li	a2,0
    3e3e:	b6658593          	addi	a1,a1,-1178 # 3b66 <wifi_recv_thread_entry>
    3e42:	ef850513          	addi	a0,a0,-264 # bef8 <__fsym___cmd_wifi_power_cmd_name+0x38>
    3e46:	a9bfd0ef          	jal	ra,18e0 <rt_thread_create>
    3e4a:	c119                	beqz	a0,3e50 <wifi_module_init+0xb6>
    3e4c:	c11fd0ef          	jal	ra,1a5c <rt_thread_startup>
    3e50:	4581                	li	a1,0
    3e52:	452d                	li	a0,11
    3e54:	8e6ff0ef          	jal	ra,2f3a <rt_pin_mode>
    3e58:	4505                	li	a0,1
    3e5a:	f0dff0ef          	jal	ra,3d66 <wifi_power_ctrl>
    3e5e:	bf9d                	j	3dd4 <wifi_module_init+0x3a>

00003e60 <wifi_power_cmd>:
    3e60:	d42fc2ef          	jal	t0,3a2 <__riscv_save_0>
    3e64:	4789                	li	a5,2
    3e66:	00f50963          	beq	a0,a5,3e78 <wifi_power_cmd+0x18>
    3e6a:	0000c537          	lui	a0,0xc
    3e6e:	f0450513          	addi	a0,a0,-252 # bf04 <__fsym___cmd_wifi_power_cmd_name+0x44>
    3e72:	a6cfd0ef          	jal	ra,10de <rt_kprintf>
    3e76:	a829                	j	3e90 <wifi_power_cmd+0x30>
    3e78:	41c0                	lw	s0,4(a1)
    3e7a:	0000c5b7          	lui	a1,0xc
    3e7e:	f2058593          	addi	a1,a1,-224 # bf20 <__fsym___cmd_wifi_power_cmd_name+0x60>
    3e82:	8522                	mv	a0,s0
    3e84:	df6fc0ef          	jal	ra,47a <strcmp>
    3e88:	e511                	bnez	a0,3e94 <wifi_power_cmd+0x34>
    3e8a:	4505                	li	a0,1
    3e8c:	edbff0ef          	jal	ra,3d66 <wifi_power_ctrl>
    3e90:	d36fc06f          	j	3c6 <__riscv_restore_0>
    3e94:	0000c5b7          	lui	a1,0xc
    3e98:	f2458593          	addi	a1,a1,-220 # bf24 <__fsym___cmd_wifi_power_cmd_name+0x64>
    3e9c:	8522                	mv	a0,s0
    3e9e:	ddcfc0ef          	jal	ra,47a <strcmp>
    3ea2:	d56d                	beqz	a0,3e8c <wifi_power_cmd+0x2c>
    3ea4:	0000c537          	lui	a0,0xc
    3ea8:	f2850513          	addi	a0,a0,-216 # bf28 <__fsym___cmd_wifi_power_cmd_name+0x68>
    3eac:	b7d9                	j	3e72 <wifi_power_cmd+0x12>

00003eae <NMI_Handler>:
    3eae:	34011173          	csrrw	sp,mscratch,sp
    3eb2:	b71fc0ef          	jal	ra,a22 <rt_interrupt_enter>
    3eb6:	0000c537          	lui	a0,0xc
    3eba:	02850513          	addi	a0,a0,40 # c028 <__fsym___cmd_wifi_power_cmd_name+0x168>
    3ebe:	a20fd0ef          	jal	ra,10de <rt_kprintf>
    3ec2:	b8ffc0ef          	jal	ra,a50 <rt_interrupt_leave>
    3ec6:	34011173          	csrrw	sp,mscratch,sp
    3eca:	30200073          	mret

00003ece <HardFault_Handler>:
    3ece:	34011173          	csrrw	sp,mscratch,sp
    3ed2:	b51fc0ef          	jal	ra,a22 <rt_interrupt_enter>
    3ed6:	0000c537          	lui	a0,0xc
    3eda:	01c50513          	addi	a0,a0,28 # c01c <__fsym___cmd_wifi_power_cmd_name+0x15c>
    3ede:	a00fd0ef          	jal	ra,10de <rt_kprintf>
    3ee2:	b6ffc0ef          	jal	ra,a50 <rt_interrupt_leave>
    3ee6:	34011173          	csrrw	sp,mscratch,sp
    3eea:	30200073          	mret

00003eee <rt_hw_us_delay>:
    3eee:	577d                	li	a4,-1
    3ef0:	157d                	addi	a0,a0,-1
    3ef2:	00e51363          	bne	a0,a4,3ef8 <rt_hw_us_delay+0xa>
    3ef6:	8082                	ret
    3ef8:	02300793          	li	a5,35
    3efc:	0001                	nop
    3efe:	17fd                	addi	a5,a5,-1
    3f00:	fff5                	bnez	a5,3efc <rt_hw_us_delay+0xe>
    3f02:	b7fd                	j	3ef0 <rt_hw_us_delay+0x2>

00003f04 <dht11_read_data>:
    3f04:	c84fc2ef          	jal	t0,388 <__riscv_save_4>
    3f08:	1101                	addi	sp,sp,-32
    3f0a:	40011437          	lui	s0,0x40011
    3f0e:	478d                	li	a5,3
    3f10:	4985                	li	s3,1
    3f12:	cc3e                	sw	a5,24(sp)
    3f14:	84aa                	mv	s1,a0
    3f16:	47c1                	li	a5,16
    3f18:	80040513          	addi	a0,s0,-2048 # 40010800 <_eusrstack+0x20000800>
    3f1c:	892e                	mv	s2,a1
    3f1e:	084c                	addi	a1,sp,20
    3f20:	ce3e                	sw	a5,28(sp)
    3f22:	c602                	sw	zero,12(sp)
    3f24:	00010823          	sb	zero,16(sp)
    3f28:	01311a23          	sh	s3,20(sp)
    3f2c:	2369                	jal	44b6 <GPIO_Init>
    3f2e:	4601                	li	a2,0
    3f30:	4585                	li	a1,1
    3f32:	80040513          	addi	a0,s0,-2048
    3f36:	25a9                	jal	4580 <GPIO_WriteBit>
    3f38:	4551                	li	a0,20
    3f3a:	ac9fd0ef          	jal	ra,1a02 <rt_thread_mdelay>
    3f3e:	4605                	li	a2,1
    3f40:	4585                	li	a1,1
    3f42:	80040513          	addi	a0,s0,-2048
    3f46:	2d2d                	jal	4580 <GPIO_WriteBit>
    3f48:	4579                	li	a0,30
    3f4a:	fa5ff0ef          	jal	ra,3eee <rt_hw_us_delay>
    3f4e:	04800793          	li	a5,72
    3f52:	084c                	addi	a1,sp,20
    3f54:	80040513          	addi	a0,s0,-2048
    3f58:	ce3e                	sw	a5,28(sp)
    3f5a:	01311a23          	sh	s3,20(sp)
    3f5e:	2ba1                	jal	44b6 <GPIO_Init>
    3f60:	4585                	li	a1,1
    3f62:	80040513          	addi	a0,s0,-2048
    3f66:	2d01                	jal	4576 <GPIO_ReadInputDataBit>
    3f68:	4785                	li	a5,1
    3f6a:	00f51c63          	bne	a0,a5,3f82 <dht11_read_data+0x7e>
    3f6e:	0000c537          	lui	a0,0xc
    3f72:	03850513          	addi	a0,a0,56 # c038 <__fsym___cmd_wifi_power_cmd_name+0x178>
    3f76:	968fd0ef          	jal	ra,10de <rt_kprintf>
    3f7a:	557d                	li	a0,-1
    3f7c:	6105                	addi	sp,sp,32
    3f7e:	c3efc06f          	j	3bc <__riscv_restore_4>
    3f82:	80040413          	addi	s0,s0,-2048
    3f86:	4585                	li	a1,1
    3f88:	8522                	mv	a0,s0
    3f8a:	23f5                	jal	4576 <GPIO_ReadInputDataBit>
    3f8c:	dd6d                	beqz	a0,3f86 <dht11_read_data+0x82>
    3f8e:	0000c537          	lui	a0,0xc
    3f92:	05850513          	addi	a0,a0,88 # c058 <__fsym___cmd_wifi_power_cmd_name+0x198>
    3f96:	40011437          	lui	s0,0x40011
    3f9a:	944fd0ef          	jal	ra,10de <rt_kprintf>
    3f9e:	80040413          	addi	s0,s0,-2048 # 40010800 <_eusrstack+0x20000800>
    3fa2:	4585                	li	a1,1
    3fa4:	8522                	mv	a0,s0
    3fa6:	2bc1                	jal	4576 <GPIO_ReadInputDataBit>
    3fa8:	4785                	li	a5,1
    3faa:	fef50ce3          	beq	a0,a5,3fa2 <dht11_read_data+0x9e>
    3fae:	0000c537          	lui	a0,0xc
    3fb2:	06c50513          	addi	a0,a0,108 # c06c <__fsym___cmd_wifi_power_cmd_name+0x1ac>
    3fb6:	400119b7          	lui	s3,0x40011
    3fba:	924fd0ef          	jal	ra,10de <rt_kprintf>
    3fbe:	0060                	addi	s0,sp,12
    3fc0:	01110a93          	addi	s5,sp,17
    3fc4:	80098993          	addi	s3,s3,-2048 # 40010800 <_eusrstack+0x20000800>
    3fc8:	5b7d                	li	s6,-1
    3fca:	4a1d                	li	s4,7
    3fcc:	4585                	li	a1,1
    3fce:	854e                	mv	a0,s3
    3fd0:	235d                	jal	4576 <GPIO_ReadInputDataBit>
    3fd2:	dd6d                	beqz	a0,3fcc <dht11_read_data+0xc8>
    3fd4:	02800513          	li	a0,40
    3fd8:	f17ff0ef          	jal	ra,3eee <rt_hw_us_delay>
    3fdc:	4585                	li	a1,1
    3fde:	854e                	mv	a0,s3
    3fe0:	2b59                	jal	4576 <GPIO_ReadInputDataBit>
    3fe2:	4785                	li	a5,1
    3fe4:	00f51763          	bne	a0,a5,3ff2 <dht11_read_data+0xee>
    3fe8:	201c                	lbu	a5,0(s0)
    3fea:	01451533          	sll	a0,a0,s4
    3fee:	8d5d                	or	a0,a0,a5
    3ff0:	a008                	sb	a0,0(s0)
    3ff2:	4585                	li	a1,1
    3ff4:	854e                	mv	a0,s3
    3ff6:	2341                	jal	4576 <GPIO_ReadInputDataBit>
    3ff8:	4785                	li	a5,1
    3ffa:	fef50ce3          	beq	a0,a5,3ff2 <dht11_read_data+0xee>
    3ffe:	1a7d                	addi	s4,s4,-1
    4000:	fd6a16e3          	bne	s4,s6,3fcc <dht11_read_data+0xc8>
    4004:	0405                	addi	s0,s0,1
    4006:	fc8a92e3          	bne	s5,s0,3fca <dht11_read_data+0xc6>
    400a:	8614                	lbu	a3,12(sp)
    400c:	869c                	lbu	a5,13(sp)
    400e:	8718                	lbu	a4,14(sp)
    4010:	8790                	lbu	a2,15(sp)
    4012:	97b6                	add	a5,a5,a3
    4014:	97ba                	add	a5,a5,a4
    4016:	97b2                	add	a5,a5,a2
    4018:	01014603          	lbu	a2,16(sp)
    401c:	5579                	li	a0,-2
    401e:	f4c79fe3          	bne	a5,a2,3f7c <dht11_read_data+0x78>
    4022:	00d90023          	sb	a3,0(s2)
    4026:	a098                	sb	a4,0(s1)
    4028:	4501                	li	a0,0
    402a:	bf89                	j	3f7c <dht11_read_data+0x78>

0000402c <read_dht11_sample>:
    402c:	b76fc2ef          	jal	t0,3a2 <__riscv_save_0>
    4030:	1141                	addi	sp,sp,-16
    4032:	00f10593          	addi	a1,sp,15
    4036:	00e10513          	addi	a0,sp,14
    403a:	ecbff0ef          	jal	ra,3f04 <dht11_read_data>
    403e:	ed01                	bnez	a0,4056 <read_dht11_sample+0x2a>
    4040:	8790                	lbu	a2,15(sp)
    4042:	870c                	lbu	a1,14(sp)
    4044:	0000c537          	lui	a0,0xc
    4048:	19450513          	addi	a0,a0,404 # c194 <__fsym___cmd_led_name+0xc>
    404c:	892fd0ef          	jal	ra,10de <rt_kprintf>
    4050:	0141                	addi	sp,sp,16
    4052:	b74fc06f          	j	3c6 <__riscv_restore_0>
    4056:	0000c537          	lui	a0,0xc
    405a:	1b050513          	addi	a0,a0,432 # c1b0 <__fsym___cmd_led_name+0x28>
    405e:	880fd0ef          	jal	ra,10de <rt_kprintf>
    4062:	b7fd                	j	4050 <read_dht11_sample+0x24>

00004064 <led>:
    4064:	b3efc2ef          	jal	t0,3a2 <__riscv_save_0>
    4068:	4581                	li	a1,0
    406a:	4529                	li	a0,10
    406c:	ecffe0ef          	jal	ra,2f3a <rt_pin_mode>
    4070:	221000ef          	jal	ra,4a90 <__get_SP>
    4074:	85aa                	mv	a1,a0
    4076:	0000c537          	lui	a0,0xc
    407a:	08050513          	addi	a0,a0,128 # c080 <__fsym___cmd_wifi_power_cmd_name+0x1c0>
    407e:	7c5000ef          	jal	ra,5042 <iprintf>
    4082:	4401                	li	s0,0
    4084:	0000c937          	lui	s2,0xc
    4088:	0000c4b7          	lui	s1,0xc
    408c:	4581                	li	a1,0
    408e:	4529                	li	a0,10
    4090:	ec5fe0ef          	jal	ra,2f54 <rt_pin_write>
    4094:	85a2                	mv	a1,s0
    4096:	09090513          	addi	a0,s2,144 # c090 <__fsym___cmd_wifi_power_cmd_name+0x1d0>
    409a:	844fd0ef          	jal	ra,10de <rt_kprintf>
    409e:	1f400513          	li	a0,500
    40a2:	961fd0ef          	jal	ra,1a02 <rt_thread_mdelay>
    40a6:	4585                	li	a1,1
    40a8:	4529                	li	a0,10
    40aa:	eabfe0ef          	jal	ra,2f54 <rt_pin_write>
    40ae:	0a848513          	addi	a0,s1,168 # c0a8 <__fsym___cmd_wifi_power_cmd_name+0x1e8>
    40b2:	82cfd0ef          	jal	ra,10de <rt_kprintf>
    40b6:	1f400513          	li	a0,500
    40ba:	949fd0ef          	jal	ra,1a02 <rt_thread_mdelay>
    40be:	0405                	addi	s0,s0,1
    40c0:	47a9                	li	a5,10
    40c2:	fcf415e3          	bne	s0,a5,408c <led+0x28>
    40c6:	4501                	li	a0,0
    40c8:	afefc06f          	j	3c6 <__riscv_restore_0>

000040cc <main>:
    40cc:	ad6fc2ef          	jal	t0,3a2 <__riscv_save_0>
    40d0:	d6cfe0ef          	jal	ra,263c <finsh_system_init>
    40d4:	0000b437          	lui	s0,0xb
    40d8:	6d040513          	addi	a0,s0,1744 # b6d0 <__fsym_pinMode_name+0x8>
    40dc:	e64fe0ef          	jal	ra,2740 <finsh_set_device>
    40e0:	6d040513          	addi	a0,s0,1744
    40e4:	db8fc0ef          	jal	ra,69c <rt_device_find>
    40e8:	c509                	beqz	a0,40f2 <main+0x26>
    40ea:	10300593          	li	a1,259
    40ee:	e2afc0ef          	jal	ra,718 <rt_device_open>
    40f2:	d26fc0ef          	jal	ra,618 <rt_components_init>
    40f6:	0000c537          	lui	a0,0xc
    40fa:	0b450513          	addi	a0,a0,180 # c0b4 <__fsym___cmd_wifi_power_cmd_name+0x1f4>
    40fe:	fe1fc0ef          	jal	ra,10de <rt_kprintf>
    4102:	2aa9                	jal	425c <SystemCoreClockUpdate>
    4104:	8081a583          	lw	a1,-2040(gp) # 20000338 <SystemCoreClock>
    4108:	0000c537          	lui	a0,0xc
    410c:	0c850513          	addi	a0,a0,200 # c0c8 <__fsym___cmd_wifi_power_cmd_name+0x208>
    4110:	fcffc0ef          	jal	ra,10de <rt_kprintf>
    4114:	2619                	jal	441a <DBGMCU_GetCHIPID>
    4116:	85aa                	mv	a1,a0
    4118:	0000c537          	lui	a0,0xc
    411c:	0d850513          	addi	a0,a0,216 # c0d8 <__fsym___cmd_wifi_power_cmd_name+0x218>
    4120:	fbffc0ef          	jal	ra,10de <rt_kprintf>
    4124:	0000c537          	lui	a0,0xc
    4128:	0e850513          	addi	a0,a0,232 # c0e8 <__fsym___cmd_wifi_power_cmd_name+0x228>
    412c:	fb3fc0ef          	jal	ra,10de <rt_kprintf>
    4130:	c6bff0ef          	jal	ra,3d9a <wifi_module_init>
    4134:	2225                	jal	425c <SystemCoreClockUpdate>
    4136:	d3eff0ef          	jal	ra,3674 <pwm_gpio_init>
    413a:	6515                	lui	a0,0x5
    413c:	51400593          	li	a1,1300
    4140:	e2050513          	addi	a0,a0,-480 # 4e20 <__truncdfsf2+0x9a>
    4144:	6405                	lui	s0,0x1
    4146:	d5cff0ef          	jal	ra,36a2 <pwm_tim8_init>
    414a:	0000c4b7          	lui	s1,0xc
    414e:	bb840413          	addi	s0,s0,-1096 # bb8 <print_number+0x134>
    4152:	0f848513          	addi	a0,s1,248 # c0f8 <__fsym___cmd_wifi_power_cmd_name+0x238>
    4156:	f89fc0ef          	jal	ra,10de <rt_kprintf>
    415a:	8522                	mv	a0,s0
    415c:	8a7fd0ef          	jal	ra,1a02 <rt_thread_mdelay>
    4160:	bfcd                	j	4152 <main+0x86>

00004162 <SystemInit>:
    4162:	400217b7          	lui	a5,0x40021
    4166:	4398                	lw	a4,0(a5)
    4168:	f0ff06b7          	lui	a3,0xf0ff0
    416c:	1141                	addi	sp,sp,-16
    416e:	00176713          	ori	a4,a4,1
    4172:	c398                	sw	a4,0(a5)
    4174:	43d8                	lw	a4,4(a5)
    4176:	00020637          	lui	a2,0x20
    417a:	8f75                	and	a4,a4,a3
    417c:	c3d8                	sw	a4,4(a5)
    417e:	4398                	lw	a4,0(a5)
    4180:	fef706b7          	lui	a3,0xfef70
    4184:	16fd                	addi	a3,a3,-1
    4186:	8f75                	and	a4,a4,a3
    4188:	c398                	sw	a4,0(a5)
    418a:	4398                	lw	a4,0(a5)
    418c:	fffc06b7          	lui	a3,0xfffc0
    4190:	16fd                	addi	a3,a3,-1
    4192:	8f75                	and	a4,a4,a3
    4194:	c398                	sw	a4,0(a5)
    4196:	43d8                	lw	a4,4(a5)
    4198:	ff0106b7          	lui	a3,0xff010
    419c:	16fd                	addi	a3,a3,-1
    419e:	8f75                	and	a4,a4,a3
    41a0:	c3d8                	sw	a4,4(a5)
    41a2:	4398                	lw	a4,0(a5)
    41a4:	ec0006b7          	lui	a3,0xec000
    41a8:	16fd                	addi	a3,a3,-1
    41aa:	8f75                	and	a4,a4,a3
    41ac:	c398                	sw	a4,0(a5)
    41ae:	00ff0737          	lui	a4,0xff0
    41b2:	c798                	sw	a4,8(a5)
    41b4:	0207a623          	sw	zero,44(a5) # 4002102c <_eusrstack+0x2001102c>
    41b8:	c402                	sw	zero,8(sp)
    41ba:	c602                	sw	zero,12(sp)
    41bc:	4398                	lw	a4,0(a5)
    41be:	66c1                	lui	a3,0x10
    41c0:	8f55                	or	a4,a4,a3
    41c2:	c398                	sw	a4,0(a5)
    41c4:	400216b7          	lui	a3,0x40021
    41c8:	6705                	lui	a4,0x1
    41ca:	429c                	lw	a5,0(a3)
    41cc:	8ff1                	and	a5,a5,a2
    41ce:	c63e                	sw	a5,12(sp)
    41d0:	47a2                	lw	a5,8(sp)
    41d2:	0785                	addi	a5,a5,1
    41d4:	c43e                	sw	a5,8(sp)
    41d6:	47b2                	lw	a5,12(sp)
    41d8:	e781                	bnez	a5,41e0 <SystemInit+0x7e>
    41da:	47a2                	lw	a5,8(sp)
    41dc:	fee797e3          	bne	a5,a4,41ca <SystemInit+0x68>
    41e0:	400217b7          	lui	a5,0x40021
    41e4:	439c                	lw	a5,0(a5)
    41e6:	00e79713          	slli	a4,a5,0xe
    41ea:	06075763          	bgez	a4,4258 <SystemInit+0xf6>
    41ee:	4785                	li	a5,1
    41f0:	c63e                	sw	a5,12(sp)
    41f2:	4732                	lw	a4,12(sp)
    41f4:	4785                	li	a5,1
    41f6:	04f71f63          	bne	a4,a5,4254 <SystemInit+0xf2>
    41fa:	400217b7          	lui	a5,0x40021
    41fe:	43d8                	lw	a4,4(a5)
    4200:	ffc106b7          	lui	a3,0xffc10
    4204:	16fd                	addi	a3,a3,-1
    4206:	c3d8                	sw	a4,4(a5)
    4208:	43d8                	lw	a4,4(a5)
    420a:	c3d8                	sw	a4,4(a5)
    420c:	43d8                	lw	a4,4(a5)
    420e:	40076713          	ori	a4,a4,1024
    4212:	c3d8                	sw	a4,4(a5)
    4214:	43d8                	lw	a4,4(a5)
    4216:	8f75                	and	a4,a4,a3
    4218:	c3d8                	sw	a4,4(a5)
    421a:	43d8                	lw	a4,4(a5)
    421c:	002906b7          	lui	a3,0x290
    4220:	8f55                	or	a4,a4,a3
    4222:	c3d8                	sw	a4,4(a5)
    4224:	4398                	lw	a4,0(a5)
    4226:	010006b7          	lui	a3,0x1000
    422a:	8f55                	or	a4,a4,a3
    422c:	c398                	sw	a4,0(a5)
    422e:	4398                	lw	a4,0(a5)
    4230:	00671693          	slli	a3,a4,0x6
    4234:	fe06dde3          	bgez	a3,422e <SystemInit+0xcc>
    4238:	43d8                	lw	a4,4(a5)
    423a:	400216b7          	lui	a3,0x40021
    423e:	9b71                	andi	a4,a4,-4
    4240:	c3d8                	sw	a4,4(a5)
    4242:	43d8                	lw	a4,4(a5)
    4244:	00276713          	ori	a4,a4,2
    4248:	c3d8                	sw	a4,4(a5)
    424a:	4721                	li	a4,8
    424c:	42dc                	lw	a5,4(a3)
    424e:	8bb1                	andi	a5,a5,12
    4250:	fee79ee3          	bne	a5,a4,424c <SystemInit+0xea>
    4254:	0141                	addi	sp,sp,16
    4256:	8082                	ret
    4258:	c602                	sw	zero,12(sp)
    425a:	bf61                	j	41f2 <SystemInit+0x90>

0000425c <SystemCoreClockUpdate>:
    425c:	400216b7          	lui	a3,0x40021
    4260:	42d8                	lw	a4,4(a3)
    4262:	4611                	li	a2,4
    4264:	8b31                	andi	a4,a4,12
    4266:	80818793          	addi	a5,gp,-2040 # 20000338 <SystemCoreClock>
    426a:	00c70563          	beq	a4,a2,4274 <SystemCoreClockUpdate+0x18>
    426e:	4621                	li	a2,8
    4270:	02c70863          	beq	a4,a2,42a0 <SystemCoreClockUpdate+0x44>
    4274:	007a1737          	lui	a4,0x7a1
    4278:	20070713          	addi	a4,a4,512 # 7a1200 <__rt_init_end+0x794950>
    427c:	c398                	sw	a4,0(a5)
    427e:	40021737          	lui	a4,0x40021
    4282:	4358                	lw	a4,4(a4)
    4284:	8311                	srli	a4,a4,0x4
    4286:	00f77693          	andi	a3,a4,15
    428a:	20000737          	lui	a4,0x20000
    428e:	14070713          	addi	a4,a4,320 # 20000140 <AHBPrescTable>
    4292:	9736                	add	a4,a4,a3
    4294:	2314                	lbu	a3,0(a4)
    4296:	4398                	lw	a4,0(a5)
    4298:	00d75733          	srl	a4,a4,a3
    429c:	c398                	sw	a4,0(a5)
    429e:	8082                	ret
    42a0:	42d8                	lw	a4,4(a3)
    42a2:	42d4                	lw	a3,4(a3)
    42a4:	6641                	lui	a2,0x10
    42a6:	8349                	srli	a4,a4,0x12
    42a8:	8b3d                	andi	a4,a4,15
    42aa:	8ef1                	and	a3,a3,a2
    42ac:	00270613          	addi	a2,a4,2
    42b0:	cf15                	beqz	a4,42ec <SystemCoreClockUpdate+0x90>
    42b2:	473d                	li	a4,15
    42b4:	02e60f63          	beq	a2,a4,42f2 <SystemCoreClockUpdate+0x96>
    42b8:	4741                	li	a4,16
    42ba:	02e60f63          	beq	a2,a4,42f8 <SystemCoreClockUpdate+0x9c>
    42be:	4745                	li	a4,17
    42c0:	4581                	li	a1,0
    42c2:	00e61363          	bne	a2,a4,42c8 <SystemCoreClockUpdate+0x6c>
    42c6:	4641                	li	a2,16
    42c8:	e2a1                	bnez	a3,4308 <SystemCoreClockUpdate+0xac>
    42ca:	40024737          	lui	a4,0x40024
    42ce:	80072703          	lw	a4,-2048(a4) # 40023800 <_eusrstack+0x20013800>
    42d2:	8b41                	andi	a4,a4,16
    42d4:	c70d                	beqz	a4,42fe <SystemCoreClockUpdate+0xa2>
    42d6:	007a1737          	lui	a4,0x7a1
    42da:	20070713          	addi	a4,a4,512 # 7a1200 <__rt_init_end+0x794950>
    42de:	02c70633          	mul	a2,a4,a2
    42e2:	c390                	sw	a2,0(a5)
    42e4:	ddc9                	beqz	a1,427e <SystemCoreClockUpdate+0x22>
    42e6:	4398                	lw	a4,0(a5)
    42e8:	8305                	srli	a4,a4,0x1
    42ea:	bf49                	j	427c <SystemCoreClockUpdate+0x20>
    42ec:	4581                	li	a1,0
    42ee:	4649                	li	a2,18
    42f0:	bfe1                	j	42c8 <SystemCoreClockUpdate+0x6c>
    42f2:	4585                	li	a1,1
    42f4:	4635                	li	a2,13
    42f6:	bfc9                	j	42c8 <SystemCoreClockUpdate+0x6c>
    42f8:	4581                	li	a1,0
    42fa:	463d                	li	a2,15
    42fc:	b7f1                	j	42c8 <SystemCoreClockUpdate+0x6c>
    42fe:	003d1737          	lui	a4,0x3d1
    4302:	90070713          	addi	a4,a4,-1792 # 3d0900 <__rt_init_end+0x3c4050>
    4306:	bfe1                	j	42de <SystemCoreClockUpdate+0x82>
    4308:	40021537          	lui	a0,0x40021
    430c:	5558                	lw	a4,44(a0)
    430e:	00f71693          	slli	a3,a4,0xf
    4312:	5558                	lw	a4,44(a0)
    4314:	0406df63          	bgez	a3,4372 <SystemCoreClockUpdate+0x116>
    4318:	8311                	srli	a4,a4,0x4
    431a:	8b3d                	andi	a4,a4,15
    431c:	00170693          	addi	a3,a4,1
    4320:	007a1737          	lui	a4,0x7a1
    4324:	20070713          	addi	a4,a4,512 # 7a1200 <__rt_init_end+0x794950>
    4328:	02d75733          	divu	a4,a4,a3
    432c:	c398                	sw	a4,0(a5)
    432e:	5554                	lw	a3,44(a0)
    4330:	82a1                	srli	a3,a3,0x8
    4332:	8abd                	andi	a3,a3,15
    4334:	e28d                	bnez	a3,4356 <SystemCoreClockUpdate+0xfa>
    4336:	4695                	li	a3,5
    4338:	02d70733          	mul	a4,a4,a3
    433c:	8305                	srli	a4,a4,0x1
    433e:	c398                	sw	a4,0(a5)
    4340:	40021737          	lui	a4,0x40021
    4344:	5758                	lw	a4,44(a4)
    4346:	4394                	lw	a3,0(a5)
    4348:	8b3d                	andi	a4,a4,15
    434a:	0705                	addi	a4,a4,1
    434c:	02e6d733          	divu	a4,a3,a4
    4350:	c398                	sw	a4,0(a5)
    4352:	4398                	lw	a4,0(a5)
    4354:	b769                	j	42de <SystemCoreClockUpdate+0x82>
    4356:	4505                	li	a0,1
    4358:	00a69463          	bne	a3,a0,4360 <SystemCoreClockUpdate+0x104>
    435c:	46e5                	li	a3,25
    435e:	bfe9                	j	4338 <SystemCoreClockUpdate+0xdc>
    4360:	453d                	li	a0,15
    4362:	00a69663          	bne	a3,a0,436e <SystemCoreClockUpdate+0x112>
    4366:	46d1                	li	a3,20
    4368:	02e68733          	mul	a4,a3,a4
    436c:	bfc9                	j	433e <SystemCoreClockUpdate+0xe2>
    436e:	0689                	addi	a3,a3,2
    4370:	bfe5                	j	4368 <SystemCoreClockUpdate+0x10c>
    4372:	8b3d                	andi	a4,a4,15
    4374:	00170693          	addi	a3,a4,1 # 40021001 <_eusrstack+0x20011001>
    4378:	007a1737          	lui	a4,0x7a1
    437c:	20070713          	addi	a4,a4,512 # 7a1200 <__rt_init_end+0x794950>
    4380:	02d75733          	divu	a4,a4,a3
    4384:	b7f1                	j	4350 <SystemCoreClockUpdate+0xf4>

00004386 <ADC1_2_IRQHandler>:
    4386:	a001                	j	4386 <ADC1_2_IRQHandler>

00004388 <handle_reset>:
    4388:	34129073          	csrw	mepc,t0
    438c:	1fffc197          	auipc	gp,0x1fffc
    4390:	7a418193          	addi	gp,gp,1956 # 20000b30 <__global_pointer$>
    4394:	2000c117          	auipc	sp,0x2000c
    4398:	c6c10113          	addi	sp,sp,-916 # 20010000 <_eusrstack>
    439c:	00008517          	auipc	a0,0x8
    43a0:	51450513          	addi	a0,a0,1300 # c8b0 <__rt_init_end>
    43a4:	1fffc597          	auipc	a1,0x1fffc
    43a8:	c5c58593          	addi	a1,a1,-932 # 20000000 <_data_vma>
    43ac:	82018613          	addi	a2,gp,-2016 # 20000350 <_edata>
    43b0:	00c5fa63          	bgeu	a1,a2,43c4 <handle_reset+0x3c>
    43b4:	00052283          	lw	t0,0(a0)
    43b8:	0055a023          	sw	t0,0(a1)
    43bc:	0511                	addi	a0,a0,4
    43be:	0591                	addi	a1,a1,4
    43c0:	fec5eae3          	bltu	a1,a2,43b4 <handle_reset+0x2c>
    43c4:	82018513          	addi	a0,gp,-2016 # 20000350 <_edata>
    43c8:	20000597          	auipc	a1,0x20000
    43cc:	65458593          	addi	a1,a1,1620 # 20004a1c <_ebss>
    43d0:	00b57763          	bgeu	a0,a1,43de <handle_reset+0x56>
    43d4:	00052023          	sw	zero,0(a0)
    43d8:	0511                	addi	a0,a0,4
    43da:	feb56de3          	bltu	a0,a1,43d4 <handle_reset+0x4c>
    43de:	42fd                	li	t0,31
    43e0:	bc029073          	csrw	0xbc0,t0
    43e4:	42fd                	li	t0,31
    43e6:	80429073          	csrw	0x804,t0
    43ea:	000082b7          	lui	t0,0x8
    43ee:	80028293          	addi	t0,t0,-2048 # 7800 <__ssvfiscanf_r+0x1bc>
    43f2:	30029073          	csrw	mstatus,t0
    43f6:	ffffc297          	auipc	t0,0xffffc
    43fa:	c0e28293          	addi	t0,t0,-1010 # 4 <_einit>
    43fe:	0032e293          	ori	t0,t0,3
    4402:	30529073          	csrw	mtvec,t0
    4406:	d5dff0ef          	jal	ra,4162 <SystemInit>
    440a:	ffffc297          	auipc	t0,0xffffc
    440e:	28828293          	addi	t0,t0,648 # 692 <entry>
    4412:	34129073          	csrw	mepc,t0
    4416:	30200073          	mret

0000441a <DBGMCU_GetCHIPID>:
    441a:	1ffff7b7          	lui	a5,0x1ffff
    441e:	7047a503          	lw	a0,1796(a5) # 1ffff704 <__rt_init_end+0x1fff2e54>
    4422:	8082                	ret

00004424 <EXTI_Init>:
    4424:	4158                	lw	a4,4(a0)
    4426:	00052803          	lw	a6,0(a0)
    442a:	454c                	lw	a1,12(a0)
    442c:	40010637          	lui	a2,0x40010
    4430:	40060793          	addi	a5,a2,1024 # 40010400 <_eusrstack+0x20000400>
    4434:	973e                	add	a4,a4,a5
    4436:	fff84693          	not	a3,a6
    443a:	c5b1                	beqz	a1,4486 <EXTI_Init+0x62>
    443c:	40062583          	lw	a1,1024(a2)
    4440:	8df5                	and	a1,a1,a3
    4442:	40b62023          	sw	a1,1024(a2)
    4446:	43d0                	lw	a2,4(a5)
    4448:	8ef1                	and	a3,a3,a2
    444a:	c3d4                	sw	a3,4(a5)
    444c:	4314                	lw	a3,0(a4)
    444e:	0106e6b3          	or	a3,a3,a6
    4452:	c314                	sw	a3,0(a4)
    4454:	4118                	lw	a4,0(a0)
    4456:	4790                	lw	a2,8(a5)
    4458:	fff74693          	not	a3,a4
    445c:	8e75                	and	a2,a2,a3
    445e:	c790                	sw	a2,8(a5)
    4460:	47d0                	lw	a2,12(a5)
    4462:	8ef1                	and	a3,a3,a2
    4464:	c7d4                	sw	a3,12(a5)
    4466:	4514                	lw	a3,8(a0)
    4468:	4641                	li	a2,16
    446a:	00c69963          	bne	a3,a2,447c <EXTI_Init+0x58>
    446e:	4794                	lw	a3,8(a5)
    4470:	8ed9                	or	a3,a3,a4
    4472:	c794                	sw	a3,8(a5)
    4474:	47d4                	lw	a3,12(a5)
    4476:	8f55                	or	a4,a4,a3
    4478:	c7d8                	sw	a4,12(a5)
    447a:	8082                	ret
    447c:	97b6                	add	a5,a5,a3
    447e:	4394                	lw	a3,0(a5)
    4480:	8f55                	or	a4,a4,a3
    4482:	c398                	sw	a4,0(a5)
    4484:	8082                	ret
    4486:	431c                	lw	a5,0(a4)
    4488:	8ff5                	and	a5,a5,a3
    448a:	c31c                	sw	a5,0(a4)
    448c:	8082                	ret

0000448e <EXTI_GetITStatus>:
    448e:	400107b7          	lui	a5,0x40010
    4492:	40078713          	addi	a4,a5,1024 # 40010400 <_eusrstack+0x20000400>
    4496:	4007a783          	lw	a5,1024(a5)
    449a:	4b58                	lw	a4,20(a4)
    449c:	8f69                	and	a4,a4,a0
    449e:	c709                	beqz	a4,44a8 <EXTI_GetITStatus+0x1a>
    44a0:	8d7d                	and	a0,a0,a5
    44a2:	00a03533          	snez	a0,a0
    44a6:	8082                	ret
    44a8:	4501                	li	a0,0
    44aa:	8082                	ret

000044ac <EXTI_ClearITPendingBit>:
    44ac:	400107b7          	lui	a5,0x40010
    44b0:	40a7aa23          	sw	a0,1044(a5) # 40010414 <_eusrstack+0x20000414>
    44b4:	8082                	ret

000044b6 <GPIO_Init>:
    44b6:	459c                	lw	a5,8(a1)
    44b8:	0107f713          	andi	a4,a5,16
    44bc:	00f7f813          	andi	a6,a5,15
    44c0:	c701                	beqz	a4,44c8 <GPIO_Init+0x12>
    44c2:	41d8                	lw	a4,4(a1)
    44c4:	00e86833          	or	a6,a6,a4
    44c8:	218e                	lhu	a1,0(a1)
    44ca:	0ff5f713          	andi	a4,a1,255
    44ce:	c339                	beqz	a4,4514 <GPIO_Init+0x5e>
    44d0:	4118                	lw	a4,0(a0)
    44d2:	4681                	li	a3,0
    44d4:	4e85                	li	t4,1
    44d6:	4f3d                	li	t5,15
    44d8:	02800f93          	li	t6,40
    44dc:	04800293          	li	t0,72
    44e0:	4e21                	li	t3,8
    44e2:	00de9633          	sll	a2,t4,a3
    44e6:	00c5f8b3          	and	a7,a1,a2
    44ea:	03161163          	bne	a2,a7,450c <GPIO_Init+0x56>
    44ee:	00269893          	slli	a7,a3,0x2
    44f2:	011f1333          	sll	t1,t5,a7
    44f6:	fff34313          	not	t1,t1
    44fa:	00e37733          	and	a4,t1,a4
    44fe:	011818b3          	sll	a7,a6,a7
    4502:	00e8e733          	or	a4,a7,a4
    4506:	05f79f63          	bne	a5,t6,4564 <GPIO_Init+0xae>
    450a:	c950                	sw	a2,20(a0)
    450c:	0685                	addi	a3,a3,1
    450e:	fdc69ae3          	bne	a3,t3,44e2 <GPIO_Init+0x2c>
    4512:	c118                	sw	a4,0(a0)
    4514:	0ff00713          	li	a4,255
    4518:	04b77563          	bgeu	a4,a1,4562 <GPIO_Init+0xac>
    451c:	4154                	lw	a3,4(a0)
    451e:	4621                	li	a2,8
    4520:	4e85                	li	t4,1
    4522:	4f3d                	li	t5,15
    4524:	02800f93          	li	t6,40
    4528:	04800293          	li	t0,72
    452c:	4e41                	li	t3,16
    452e:	00ce98b3          	sll	a7,t4,a2
    4532:	0115f733          	and	a4,a1,a7
    4536:	02e89263          	bne	a7,a4,455a <GPIO_Init+0xa4>
    453a:	00261713          	slli	a4,a2,0x2
    453e:	1701                	addi	a4,a4,-32
    4540:	00ef1333          	sll	t1,t5,a4
    4544:	fff34313          	not	t1,t1
    4548:	00d376b3          	and	a3,t1,a3
    454c:	00e81733          	sll	a4,a6,a4
    4550:	8ed9                	or	a3,a3,a4
    4552:	01f79d63          	bne	a5,t6,456c <GPIO_Init+0xb6>
    4556:	01152a23          	sw	a7,20(a0)
    455a:	0605                	addi	a2,a2,1
    455c:	fdc619e3          	bne	a2,t3,452e <GPIO_Init+0x78>
    4560:	c154                	sw	a3,4(a0)
    4562:	8082                	ret
    4564:	fa5794e3          	bne	a5,t0,450c <GPIO_Init+0x56>
    4568:	c910                	sw	a2,16(a0)
    456a:	b74d                	j	450c <GPIO_Init+0x56>
    456c:	fe5797e3          	bne	a5,t0,455a <GPIO_Init+0xa4>
    4570:	01152823          	sw	a7,16(a0)
    4574:	b7dd                	j	455a <GPIO_Init+0xa4>

00004576 <GPIO_ReadInputDataBit>:
    4576:	4508                	lw	a0,8(a0)
    4578:	8d6d                	and	a0,a0,a1
    457a:	00a03533          	snez	a0,a0
    457e:	8082                	ret

00004580 <GPIO_WriteBit>:
    4580:	c219                	beqz	a2,4586 <GPIO_WriteBit+0x6>
    4582:	c90c                	sw	a1,16(a0)
    4584:	8082                	ret
    4586:	c94c                	sw	a1,20(a0)
    4588:	8082                	ret

0000458a <GPIO_EXTILineConfig>:
    458a:	0fc5f713          	andi	a4,a1,252
    458e:	0035f793          	andi	a5,a1,3
    4592:	400105b7          	lui	a1,0x40010
    4596:	95ba                	add	a1,a1,a4
    4598:	4594                	lw	a3,8(a1)
    459a:	078a                	slli	a5,a5,0x2
    459c:	473d                	li	a4,15
    459e:	00f71733          	sll	a4,a4,a5
    45a2:	fff74713          	not	a4,a4
    45a6:	8f75                	and	a4,a4,a3
    45a8:	c598                	sw	a4,8(a1)
    45aa:	4598                	lw	a4,8(a1)
    45ac:	00f51533          	sll	a0,a0,a5
    45b0:	8d59                	or	a0,a0,a4
    45b2:	c588                	sw	a0,8(a1)
    45b4:	8082                	ret

000045b6 <RCC_GetClocksFreq>:
    45b6:	40021737          	lui	a4,0x40021
    45ba:	435c                	lw	a5,4(a4)
    45bc:	4691                	li	a3,4
    45be:	8bb1                	andi	a5,a5,12
    45c0:	00d78563          	beq	a5,a3,45ca <RCC_GetClocksFreq+0x14>
    45c4:	46a1                	li	a3,8
    45c6:	06d78263          	beq	a5,a3,462a <RCC_GetClocksFreq+0x74>
    45ca:	007a17b7          	lui	a5,0x7a1
    45ce:	20078793          	addi	a5,a5,512 # 7a1200 <__rt_init_end+0x794950>
    45d2:	c11c                	sw	a5,0(a0)
    45d4:	40021637          	lui	a2,0x40021
    45d8:	425c                	lw	a5,4(a2)
    45da:	20000737          	lui	a4,0x20000
    45de:	15070713          	addi	a4,a4,336 # 20000150 <APBAHBPrescTable>
    45e2:	8391                	srli	a5,a5,0x4
    45e4:	8bbd                	andi	a5,a5,15
    45e6:	97ba                	add	a5,a5,a4
    45e8:	2394                	lbu	a3,0(a5)
    45ea:	411c                	lw	a5,0(a0)
    45ec:	00d7d7b3          	srl	a5,a5,a3
    45f0:	c15c                	sw	a5,4(a0)
    45f2:	4254                	lw	a3,4(a2)
    45f4:	82a1                	srli	a3,a3,0x8
    45f6:	8a9d                	andi	a3,a3,7
    45f8:	96ba                	add	a3,a3,a4
    45fa:	2294                	lbu	a3,0(a3)
    45fc:	00d7d6b3          	srl	a3,a5,a3
    4600:	c514                	sw	a3,8(a0)
    4602:	4254                	lw	a3,4(a2)
    4604:	82ad                	srli	a3,a3,0xb
    4606:	8a9d                	andi	a3,a3,7
    4608:	9736                	add	a4,a4,a3
    460a:	2318                	lbu	a4,0(a4)
    460c:	00e7d7b3          	srl	a5,a5,a4
    4610:	c55c                	sw	a5,12(a0)
    4612:	4258                	lw	a4,4(a2)
    4614:	8339                	srli	a4,a4,0xe
    4616:	00377693          	andi	a3,a4,3
    461a:	80c18713          	addi	a4,gp,-2036 # 2000033c <ADCPrescTable>
    461e:	9736                	add	a4,a4,a3
    4620:	2318                	lbu	a4,0(a4)
    4622:	02e7d7b3          	divu	a5,a5,a4
    4626:	c91c                	sw	a5,16(a0)
    4628:	8082                	ret
    462a:	435c                	lw	a5,4(a4)
    462c:	4358                	lw	a4,4(a4)
    462e:	66c1                	lui	a3,0x10
    4630:	83c9                	srli	a5,a5,0x12
    4632:	8f75                	and	a4,a4,a3
    4634:	1ffff6b7          	lui	a3,0x1ffff
    4638:	70c6a683          	lw	a3,1804(a3) # 1ffff70c <__rt_init_end+0x1fff2e5c>
    463c:	8bbd                	andi	a5,a5,15
    463e:	0789                	addi	a5,a5,2
    4640:	01169613          	slli	a2,a3,0x11
    4644:	00064863          	bltz	a2,4654 <RCC_GetClocksFreq+0x9e>
    4648:	46c5                	li	a3,17
    464a:	4601                	li	a2,0
    464c:	02d79263          	bne	a5,a3,4670 <RCC_GetClocksFreq+0xba>
    4650:	47c9                	li	a5,18
    4652:	a839                	j	4670 <RCC_GetClocksFreq+0xba>
    4654:	4689                	li	a3,2
    4656:	02d78f63          	beq	a5,a3,4694 <RCC_GetClocksFreq+0xde>
    465a:	46bd                	li	a3,15
    465c:	02d78e63          	beq	a5,a3,4698 <RCC_GetClocksFreq+0xe2>
    4660:	46c1                	li	a3,16
    4662:	02d78e63          	beq	a5,a3,469e <RCC_GetClocksFreq+0xe8>
    4666:	46c5                	li	a3,17
    4668:	4601                	li	a2,0
    466a:	00d79363          	bne	a5,a3,4670 <RCC_GetClocksFreq+0xba>
    466e:	47c1                	li	a5,16
    4670:	ef1d                	bnez	a4,46ae <RCC_GetClocksFreq+0xf8>
    4672:	40024737          	lui	a4,0x40024
    4676:	80072703          	lw	a4,-2048(a4) # 40023800 <_eusrstack+0x20013800>
    467a:	8b41                	andi	a4,a4,16
    467c:	c705                	beqz	a4,46a4 <RCC_GetClocksFreq+0xee>
    467e:	007a1737          	lui	a4,0x7a1
    4682:	20070713          	addi	a4,a4,512 # 7a1200 <__rt_init_end+0x794950>
    4686:	02f707b3          	mul	a5,a4,a5
    468a:	c11c                	sw	a5,0(a0)
    468c:	d621                	beqz	a2,45d4 <RCC_GetClocksFreq+0x1e>
    468e:	411c                	lw	a5,0(a0)
    4690:	8385                	srli	a5,a5,0x1
    4692:	b781                	j	45d2 <RCC_GetClocksFreq+0x1c>
    4694:	4601                	li	a2,0
    4696:	bf6d                	j	4650 <RCC_GetClocksFreq+0x9a>
    4698:	4605                	li	a2,1
    469a:	47b5                	li	a5,13
    469c:	bfd1                	j	4670 <RCC_GetClocksFreq+0xba>
    469e:	4601                	li	a2,0
    46a0:	47bd                	li	a5,15
    46a2:	b7f9                	j	4670 <RCC_GetClocksFreq+0xba>
    46a4:	003d1737          	lui	a4,0x3d1
    46a8:	90070713          	addi	a4,a4,-1792 # 3d0900 <__rt_init_end+0x3c4050>
    46ac:	bfe9                	j	4686 <RCC_GetClocksFreq+0xd0>
    46ae:	400215b7          	lui	a1,0x40021
    46b2:	55d8                	lw	a4,44(a1)
    46b4:	00f71693          	slli	a3,a4,0xf
    46b8:	55d8                	lw	a4,44(a1)
    46ba:	0406df63          	bgez	a3,4718 <RCC_GetClocksFreq+0x162>
    46be:	8311                	srli	a4,a4,0x4
    46c0:	8b3d                	andi	a4,a4,15
    46c2:	00170693          	addi	a3,a4,1
    46c6:	007a1737          	lui	a4,0x7a1
    46ca:	20070713          	addi	a4,a4,512 # 7a1200 <__rt_init_end+0x794950>
    46ce:	02d75733          	divu	a4,a4,a3
    46d2:	c118                	sw	a4,0(a0)
    46d4:	55d4                	lw	a3,44(a1)
    46d6:	82a1                	srli	a3,a3,0x8
    46d8:	8abd                	andi	a3,a3,15
    46da:	e28d                	bnez	a3,46fc <RCC_GetClocksFreq+0x146>
    46dc:	4695                	li	a3,5
    46de:	02d70733          	mul	a4,a4,a3
    46e2:	8305                	srli	a4,a4,0x1
    46e4:	c118                	sw	a4,0(a0)
    46e6:	40021737          	lui	a4,0x40021
    46ea:	5758                	lw	a4,44(a4)
    46ec:	4114                	lw	a3,0(a0)
    46ee:	8b3d                	andi	a4,a4,15
    46f0:	0705                	addi	a4,a4,1
    46f2:	02e6d733          	divu	a4,a3,a4
    46f6:	c118                	sw	a4,0(a0)
    46f8:	4118                	lw	a4,0(a0)
    46fa:	b771                	j	4686 <RCC_GetClocksFreq+0xd0>
    46fc:	4585                	li	a1,1
    46fe:	00b69463          	bne	a3,a1,4706 <RCC_GetClocksFreq+0x150>
    4702:	46e5                	li	a3,25
    4704:	bfe9                	j	46de <RCC_GetClocksFreq+0x128>
    4706:	45bd                	li	a1,15
    4708:	00b69663          	bne	a3,a1,4714 <RCC_GetClocksFreq+0x15e>
    470c:	46d1                	li	a3,20
    470e:	02e68733          	mul	a4,a3,a4
    4712:	bfc9                	j	46e4 <RCC_GetClocksFreq+0x12e>
    4714:	0689                	addi	a3,a3,2
    4716:	bfe5                	j	470e <RCC_GetClocksFreq+0x158>
    4718:	8b3d                	andi	a4,a4,15
    471a:	00170693          	addi	a3,a4,1 # 40021001 <_eusrstack+0x20011001>
    471e:	007a1737          	lui	a4,0x7a1
    4722:	20070713          	addi	a4,a4,512 # 7a1200 <__rt_init_end+0x794950>
    4726:	02d75733          	divu	a4,a4,a3
    472a:	b7f1                	j	46f6 <RCC_GetClocksFreq+0x140>

0000472c <RCC_APB2PeriphClockCmd>:
    472c:	c599                	beqz	a1,473a <RCC_APB2PeriphClockCmd+0xe>
    472e:	40021737          	lui	a4,0x40021
    4732:	4f1c                	lw	a5,24(a4)
    4734:	8d5d                	or	a0,a0,a5
    4736:	cf08                	sw	a0,24(a4)
    4738:	8082                	ret
    473a:	400217b7          	lui	a5,0x40021
    473e:	4f98                	lw	a4,24(a5)
    4740:	fff54513          	not	a0,a0
    4744:	8d79                	and	a0,a0,a4
    4746:	cf88                	sw	a0,24(a5)
    4748:	8082                	ret

0000474a <RCC_APB1PeriphClockCmd>:
    474a:	c599                	beqz	a1,4758 <RCC_APB1PeriphClockCmd+0xe>
    474c:	40021737          	lui	a4,0x40021
    4750:	4f5c                	lw	a5,28(a4)
    4752:	8d5d                	or	a0,a0,a5
    4754:	cf48                	sw	a0,28(a4)
    4756:	8082                	ret
    4758:	400217b7          	lui	a5,0x40021
    475c:	4fd8                	lw	a4,28(a5)
    475e:	fff54513          	not	a0,a0
    4762:	8d79                	and	a0,a0,a4
    4764:	cfc8                	sw	a0,28(a5)
    4766:	8082                	ret

00004768 <TIM_TimeBaseInit>:
    4768:	211e                	lhu	a5,0(a0)
    476a:	40013737          	lui	a4,0x40013
    476e:	c0070693          	addi	a3,a4,-1024 # 40012c00 <_eusrstack+0x20002c00>
    4772:	07c2                	slli	a5,a5,0x10
    4774:	83c1                	srli	a5,a5,0x10
    4776:	04d50063          	beq	a0,a3,47b6 <TIM_TimeBaseInit+0x4e>
    477a:	400006b7          	lui	a3,0x40000
    477e:	02d50c63          	beq	a0,a3,47b6 <TIM_TimeBaseInit+0x4e>
    4782:	40068693          	addi	a3,a3,1024 # 40000400 <_eusrstack+0x1fff0400>
    4786:	02d50863          	beq	a0,a3,47b6 <TIM_TimeBaseInit+0x4e>
    478a:	400016b7          	lui	a3,0x40001
    478e:	80068613          	addi	a2,a3,-2048 # 40000800 <_eusrstack+0x1fff0800>
    4792:	02c50263          	beq	a0,a2,47b6 <TIM_TimeBaseInit+0x4e>
    4796:	c0068693          	addi	a3,a3,-1024
    479a:	00d50e63          	beq	a0,a3,47b6 <TIM_TimeBaseInit+0x4e>
    479e:	40070713          	addi	a4,a4,1024
    47a2:	00e50a63          	beq	a0,a4,47b6 <TIM_TimeBaseInit+0x4e>
    47a6:	40015737          	lui	a4,0x40015
    47aa:	c0070693          	addi	a3,a4,-1024 # 40014c00 <_eusrstack+0x20004c00>
    47ae:	00d50463          	beq	a0,a3,47b6 <TIM_TimeBaseInit+0x4e>
    47b2:	00e51663          	bne	a0,a4,47be <TIM_TimeBaseInit+0x56>
    47b6:	21ba                	lhu	a4,2(a1)
    47b8:	f8f7f793          	andi	a5,a5,-113
    47bc:	8fd9                	or	a5,a5,a4
    47be:	40001737          	lui	a4,0x40001
    47c2:	00e50c63          	beq	a0,a4,47da <TIM_TimeBaseInit+0x72>
    47c6:	40070713          	addi	a4,a4,1024 # 40001400 <_eusrstack+0x1fff1400>
    47ca:	00e50863          	beq	a0,a4,47da <TIM_TimeBaseInit+0x72>
    47ce:	cff7f793          	andi	a5,a5,-769
    47d2:	21fa                	lhu	a4,6(a1)
    47d4:	07c2                	slli	a5,a5,0x10
    47d6:	83c1                	srli	a5,a5,0x10
    47d8:	8fd9                	or	a5,a5,a4
    47da:	a11e                	sh	a5,0(a0)
    47dc:	21de                	lhu	a5,4(a1)
    47de:	b55e                	sh	a5,44(a0)
    47e0:	219e                	lhu	a5,0(a1)
    47e2:	b51e                	sh	a5,40(a0)
    47e4:	400137b7          	lui	a5,0x40013
    47e8:	c0078713          	addi	a4,a5,-1024 # 40012c00 <_eusrstack+0x20002c00>
    47ec:	00e50e63          	beq	a0,a4,4808 <TIM_TimeBaseInit+0xa0>
    47f0:	40078793          	addi	a5,a5,1024
    47f4:	00f50a63          	beq	a0,a5,4808 <TIM_TimeBaseInit+0xa0>
    47f8:	400157b7          	lui	a5,0x40015
    47fc:	c0078713          	addi	a4,a5,-1024 # 40014c00 <_eusrstack+0x20004c00>
    4800:	00e50463          	beq	a0,a4,4808 <TIM_TimeBaseInit+0xa0>
    4804:	00f51463          	bne	a0,a5,480c <TIM_TimeBaseInit+0xa4>
    4808:	259c                	lbu	a5,8(a1)
    480a:	b91e                	sh	a5,48(a0)
    480c:	4785                	li	a5,1
    480e:	a95e                	sh	a5,20(a0)
    4810:	8082                	ret

00004812 <TIM_OC1Init>:
    4812:	311e                	lhu	a5,32(a0)
    4814:	2192                	lhu	a2,0(a1)
    4816:	0025d803          	lhu	a6,2(a1) # 40021002 <_eusrstack+0x20011002>
    481a:	07c2                	slli	a5,a5,0x10
    481c:	83c1                	srli	a5,a5,0x10
    481e:	9bf9                	andi	a5,a5,-2
    4820:	07c2                	slli	a5,a5,0x10
    4822:	83c1                	srli	a5,a5,0x10
    4824:	b11e                	sh	a5,32(a0)
    4826:	311e                	lhu	a5,32(a0)
    4828:	2156                	lhu	a3,4(a0)
    482a:	2d1a                	lhu	a4,24(a0)
    482c:	07c2                	slli	a5,a5,0x10
    482e:	83c1                	srli	a5,a5,0x10
    4830:	0742                	slli	a4,a4,0x10
    4832:	8341                	srli	a4,a4,0x10
    4834:	f8c77713          	andi	a4,a4,-116
    4838:	8f51                	or	a4,a4,a2
    483a:	2592                	lhu	a2,8(a1)
    483c:	9bf5                	andi	a5,a5,-3
    483e:	06c2                	slli	a3,a3,0x10
    4840:	01066633          	or	a2,a2,a6
    4844:	8fd1                	or	a5,a5,a2
    4846:	40013637          	lui	a2,0x40013
    484a:	c0060813          	addi	a6,a2,-1024 # 40012c00 <_eusrstack+0x20002c00>
    484e:	82c1                	srli	a3,a3,0x10
    4850:	01050e63          	beq	a0,a6,486c <TIM_OC1Init+0x5a>
    4854:	40060613          	addi	a2,a2,1024
    4858:	00c50a63          	beq	a0,a2,486c <TIM_OC1Init+0x5a>
    485c:	40015637          	lui	a2,0x40015
    4860:	c0060813          	addi	a6,a2,-1024 # 40014c00 <_eusrstack+0x20004c00>
    4864:	01050463          	beq	a0,a6,486c <TIM_OC1Init+0x5a>
    4868:	02c51063          	bne	a0,a2,4888 <TIM_OC1Init+0x76>
    486c:	25b2                	lhu	a2,10(a1)
    486e:	9bdd                	andi	a5,a5,-9
    4870:	00e5d803          	lhu	a6,14(a1)
    4874:	8fd1                	or	a5,a5,a2
    4876:	21d2                	lhu	a2,4(a1)
    4878:	9bed                	andi	a5,a5,-5
    487a:	cff6f693          	andi	a3,a3,-769
    487e:	8fd1                	or	a5,a5,a2
    4880:	25d2                	lhu	a2,12(a1)
    4882:	01066633          	or	a2,a2,a6
    4886:	8ed1                	or	a3,a3,a2
    4888:	a156                	sh	a3,4(a0)
    488a:	ad1a                	sh	a4,24(a0)
    488c:	21fa                	lhu	a4,6(a1)
    488e:	b95a                	sh	a4,52(a0)
    4890:	b11e                	sh	a5,32(a0)
    4892:	8082                	ret

00004894 <TIM_Cmd>:
    4894:	211e                	lhu	a5,0(a0)
    4896:	c589                	beqz	a1,48a0 <TIM_Cmd+0xc>
    4898:	0017e793          	ori	a5,a5,1
    489c:	a11e                	sh	a5,0(a0)
    489e:	8082                	ret
    48a0:	07c2                	slli	a5,a5,0x10
    48a2:	83c1                	srli	a5,a5,0x10
    48a4:	9bf9                	andi	a5,a5,-2
    48a6:	07c2                	slli	a5,a5,0x10
    48a8:	83c1                	srli	a5,a5,0x10
    48aa:	bfcd                	j	489c <TIM_Cmd+0x8>

000048ac <TIM_CtrlPWMOutputs>:
    48ac:	04455783          	lhu	a5,68(a0)
    48b0:	c591                	beqz	a1,48bc <TIM_CtrlPWMOutputs+0x10>
    48b2:	6721                	lui	a4,0x8
    48b4:	8fd9                	or	a5,a5,a4
    48b6:	04f51223          	sh	a5,68(a0)
    48ba:	8082                	ret
    48bc:	07c6                	slli	a5,a5,0x11
    48be:	83c5                	srli	a5,a5,0x11
    48c0:	bfdd                	j	48b6 <TIM_CtrlPWMOutputs+0xa>

000048c2 <TIM_ARRPreloadConfig>:
    48c2:	211e                	lhu	a5,0(a0)
    48c4:	c589                	beqz	a1,48ce <TIM_ARRPreloadConfig+0xc>
    48c6:	0807e793          	ori	a5,a5,128
    48ca:	a11e                	sh	a5,0(a0)
    48cc:	8082                	ret
    48ce:	07c2                	slli	a5,a5,0x10
    48d0:	83c1                	srli	a5,a5,0x10
    48d2:	f7f7f793          	andi	a5,a5,-129
    48d6:	07c2                	slli	a5,a5,0x10
    48d8:	83c1                	srli	a5,a5,0x10
    48da:	bfc5                	j	48ca <TIM_ARRPreloadConfig+0x8>

000048dc <TIM_OC1PreloadConfig>:
    48dc:	2d1e                	lhu	a5,24(a0)
    48de:	07c2                	slli	a5,a5,0x10
    48e0:	83c1                	srli	a5,a5,0x10
    48e2:	9bdd                	andi	a5,a5,-9
    48e4:	8ddd                	or	a1,a1,a5
    48e6:	ad0e                	sh	a1,24(a0)
    48e8:	8082                	ret

000048ea <USART_Init>:
    48ea:	ab9fb2ef          	jal	t0,3a2 <__riscv_save_0>
    48ee:	2916                	lhu	a3,16(a0)
    48f0:	77f5                	lui	a5,0xffffd
    48f2:	17fd                	addi	a5,a5,-1
    48f4:	8ff5                	and	a5,a5,a3
    48f6:	21f6                	lhu	a3,6(a1)
    48f8:	25da                	lhu	a4,12(a1)
    48fa:	7179                	addi	sp,sp,-48
    48fc:	8fd5                	or	a5,a5,a3
    48fe:	a91e                	sh	a5,16(a0)
    4900:	2556                	lhu	a3,12(a0)
    4902:	77fd                	lui	a5,0xfffff
    4904:	9f378793          	addi	a5,a5,-1549 # ffffe9f3 <_eusrstack+0xdffee9f3>
    4908:	8ff5                	and	a5,a5,a3
    490a:	21d6                	lhu	a3,4(a1)
    490c:	842a                	mv	s0,a0
    490e:	c62e                	sw	a1,12(sp)
    4910:	8fd5                	or	a5,a5,a3
    4912:	2596                	lhu	a3,8(a1)
    4914:	8fd5                	or	a5,a5,a3
    4916:	25b6                	lhu	a3,10(a1)
    4918:	8fd5                	or	a5,a5,a3
    491a:	a55e                	sh	a5,12(a0)
    491c:	295e                	lhu	a5,20(a0)
    491e:	07c2                	slli	a5,a5,0x10
    4920:	83c1                	srli	a5,a5,0x10
    4922:	cff7f793          	andi	a5,a5,-769
    4926:	8fd9                	or	a5,a5,a4
    4928:	a95e                	sh	a5,20(a0)
    492a:	0868                	addi	a0,sp,28
    492c:	c8bff0ef          	jal	ra,45b6 <RCC_GetClocksFreq>
    4930:	400147b7          	lui	a5,0x40014
    4934:	80078793          	addi	a5,a5,-2048 # 40013800 <_eusrstack+0x20003800>
    4938:	45b2                	lw	a1,12(sp)
    493a:	02f41e63          	bne	s0,a5,4976 <USART_Init+0x8c>
    493e:	57a2                	lw	a5,40(sp)
    4940:	4765                	li	a4,25
    4942:	02e787b3          	mul	a5,a5,a4
    4946:	4198                	lw	a4,0(a1)
    4948:	06400693          	li	a3,100
    494c:	070a                	slli	a4,a4,0x2
    494e:	02e7d7b3          	divu	a5,a5,a4
    4952:	02d7d733          	divu	a4,a5,a3
    4956:	02d7f7b3          	remu	a5,a5,a3
    495a:	0712                	slli	a4,a4,0x4
    495c:	0792                	slli	a5,a5,0x4
    495e:	03278793          	addi	a5,a5,50
    4962:	02d7d7b3          	divu	a5,a5,a3
    4966:	8bbd                	andi	a5,a5,15
    4968:	8fd9                	or	a5,a5,a4
    496a:	07c2                	slli	a5,a5,0x10
    496c:	83c1                	srli	a5,a5,0x10
    496e:	a41e                	sh	a5,8(s0)
    4970:	6145                	addi	sp,sp,48
    4972:	a55fb06f          	j	3c6 <__riscv_restore_0>
    4976:	5792                	lw	a5,36(sp)
    4978:	b7e1                	j	4940 <USART_Init+0x56>

0000497a <USART_Cmd>:
    497a:	c591                	beqz	a1,4986 <USART_Cmd+0xc>
    497c:	255e                	lhu	a5,12(a0)
    497e:	6709                	lui	a4,0x2
    4980:	8fd9                	or	a5,a5,a4
    4982:	a55e                	sh	a5,12(a0)
    4984:	8082                	ret
    4986:	255a                	lhu	a4,12(a0)
    4988:	77f9                	lui	a5,0xffffe
    498a:	17fd                	addi	a5,a5,-1
    498c:	8ff9                	and	a5,a5,a4
    498e:	bfd5                	j	4982 <USART_Cmd+0x8>

00004990 <USART_ITConfig>:
    4990:	0ff5f713          	andi	a4,a1,255
    4994:	4785                	li	a5,1
    4996:	8315                	srli	a4,a4,0x5
    4998:	00b795b3          	sll	a1,a5,a1
    499c:	00f71963          	bne	a4,a5,49ae <USART_ITConfig+0x1e>
    49a0:	00c50793          	addi	a5,a0,12
    49a4:	4398                	lw	a4,0(a5)
    49a6:	ce01                	beqz	a2,49be <USART_ITConfig+0x2e>
    49a8:	8dd9                	or	a1,a1,a4
    49aa:	c38c                	sw	a1,0(a5)
    49ac:	8082                	ret
    49ae:	4689                	li	a3,2
    49b0:	01450793          	addi	a5,a0,20
    49b4:	fed718e3          	bne	a4,a3,49a4 <USART_ITConfig+0x14>
    49b8:	01050793          	addi	a5,a0,16
    49bc:	b7e5                	j	49a4 <USART_ITConfig+0x14>
    49be:	fff5c593          	not	a1,a1
    49c2:	8df9                	and	a1,a1,a4
    49c4:	b7dd                	j	49aa <USART_ITConfig+0x1a>

000049c6 <USART_SendData>:
    49c6:	1ff5f593          	andi	a1,a1,511
    49ca:	a14e                	sh	a1,4(a0)
    49cc:	8082                	ret

000049ce <USART_GetFlagStatus>:
    49ce:	210a                	lhu	a0,0(a0)
    49d0:	8d6d                	and	a0,a0,a1
    49d2:	00a03533          	snez	a0,a0
    49d6:	8082                	ret

000049d8 <USART_GetITStatus>:
    49d8:	0ff5f713          	andi	a4,a1,255
    49dc:	4685                	li	a3,1
    49de:	8315                	srli	a4,a4,0x5
    49e0:	00b697b3          	sll	a5,a3,a1
    49e4:	02d71163          	bne	a4,a3,4a06 <USART_GetITStatus+0x2e>
    49e8:	255a                	lhu	a4,12(a0)
    49ea:	8ff9                	and	a5,a5,a4
    49ec:	211a                	lhu	a4,0(a0)
    49ee:	4501                	li	a0,0
    49f0:	0742                	slli	a4,a4,0x10
    49f2:	8341                	srli	a4,a4,0x10
    49f4:	cb81                	beqz	a5,4a04 <USART_GetITStatus+0x2c>
    49f6:	4505                	li	a0,1
    49f8:	81a1                	srli	a1,a1,0x8
    49fa:	00b515b3          	sll	a1,a0,a1
    49fe:	8f6d                	and	a4,a4,a1
    4a00:	00e03533          	snez	a0,a4
    4a04:	8082                	ret
    4a06:	4689                	li	a3,2
    4a08:	00d71463          	bne	a4,a3,4a10 <USART_GetITStatus+0x38>
    4a0c:	291a                	lhu	a4,16(a0)
    4a0e:	bff1                	j	49ea <USART_GetITStatus+0x12>
    4a10:	295a                	lhu	a4,20(a0)
    4a12:	bfe1                	j	49ea <USART_GetITStatus+0x12>

00004a14 <USART_ClearITPendingBit>:
    4a14:	81a1                	srli	a1,a1,0x8
    4a16:	4785                	li	a5,1
    4a18:	00b797b3          	sll	a5,a5,a1
    4a1c:	fff7c793          	not	a5,a5
    4a20:	07c2                	slli	a5,a5,0x10
    4a22:	83c1                	srli	a5,a5,0x10
    4a24:	a11e                	sh	a5,0(a0)
    4a26:	8082                	ret

00004a28 <_write>:
    4a28:	961fb2ef          	jal	t0,388 <__riscv_save_4>
    4a2c:	400144b7          	lui	s1,0x40014
    4a30:	89ae                	mv	s3,a1
    4a32:	8932                	mv	s2,a2
    4a34:	4401                	li	s0,0
    4a36:	80048493          	addi	s1,s1,-2048 # 40013800 <_eusrstack+0x20003800>
    4a3a:	01244563          	blt	s0,s2,4a44 <_write+0x1c>
    4a3e:	854a                	mv	a0,s2
    4a40:	97dfb06f          	j	3bc <__riscv_restore_4>
    4a44:	04000593          	li	a1,64
    4a48:	8526                	mv	a0,s1
    4a4a:	f85ff0ef          	jal	ra,49ce <USART_GetFlagStatus>
    4a4e:	d97d                	beqz	a0,4a44 <_write+0x1c>
    4a50:	008987b3          	add	a5,s3,s0
    4a54:	00078583          	lb	a1,0(a5) # ffffe000 <_eusrstack+0xdffee000>
    4a58:	8526                	mv	a0,s1
    4a5a:	0405                	addi	s0,s0,1
    4a5c:	05c2                	slli	a1,a1,0x10
    4a5e:	81c1                	srli	a1,a1,0x10
    4a60:	f67ff0ef          	jal	ra,49c6 <USART_SendData>
    4a64:	bfd9                	j	4a3a <_write+0x12>

00004a66 <_sbrk>:
    4a66:	81018713          	addi	a4,gp,-2032 # 20000340 <curbrk.5273>
    4a6a:	431c                	lw	a5,0(a4)
    4a6c:	200056b7          	lui	a3,0x20005
    4a70:	a1c68693          	addi	a3,a3,-1508 # 20004a1c <_ebss>
    4a74:	953e                	add	a0,a0,a5
    4a76:	00d56b63          	bltu	a0,a3,4a8c <_sbrk+0x26>
    4a7a:	200106b7          	lui	a3,0x20010
    4a7e:	80068693          	addi	a3,a3,-2048 # 2000f800 <_heap_end>
    4a82:	00a6e563          	bltu	a3,a0,4a8c <_sbrk+0x26>
    4a86:	c308                	sw	a0,0(a4)
    4a88:	853e                	mv	a0,a5
    4a8a:	8082                	ret
    4a8c:	57fd                	li	a5,-1
    4a8e:	bfed                	j	4a88 <_sbrk+0x22>

00004a90 <__get_SP>:
    4a90:	850a                	mv	a0,sp
    4a92:	8082                	ret

00004a94 <__mulsf3>:
    4a94:	7179                	addi	sp,sp,-48
    4a96:	d422                	sw	s0,40(sp)
    4a98:	01755413          	srli	s0,a0,0x17
    4a9c:	ce4e                	sw	s3,28(sp)
    4a9e:	cc52                	sw	s4,24(sp)
    4aa0:	00951993          	slli	s3,a0,0x9
    4aa4:	d606                	sw	ra,44(sp)
    4aa6:	d226                	sw	s1,36(sp)
    4aa8:	d04a                	sw	s2,32(sp)
    4aaa:	ca56                	sw	s5,20(sp)
    4aac:	c85a                	sw	s6,16(sp)
    4aae:	0ff47413          	andi	s0,s0,255
    4ab2:	0099d993          	srli	s3,s3,0x9
    4ab6:	01f55a13          	srli	s4,a0,0x1f
    4aba:	c469                	beqz	s0,4b84 <__mulsf3+0xf0>
    4abc:	0ff00793          	li	a5,255
    4ac0:	0ef40863          	beq	s0,a5,4bb0 <__mulsf3+0x11c>
    4ac4:	00399793          	slli	a5,s3,0x3
    4ac8:	04000737          	lui	a4,0x4000
    4acc:	00e7e9b3          	or	s3,a5,a4
    4ad0:	f8140413          	addi	s0,s0,-127
    4ad4:	4481                	li	s1,0
    4ad6:	4b01                	li	s6,0
    4ad8:	0175d713          	srli	a4,a1,0x17
    4adc:	00959a93          	slli	s5,a1,0x9
    4ae0:	0ff77713          	andi	a4,a4,255
    4ae4:	009ada93          	srli	s5,s5,0x9
    4ae8:	01f5d913          	srli	s2,a1,0x1f
    4aec:	cf45                	beqz	a4,4ba4 <__mulsf3+0x110>
    4aee:	0ff00793          	li	a5,255
    4af2:	02f70c63          	beq	a4,a5,4b2a <__mulsf3+0x96>
    4af6:	0a8e                	slli	s5,s5,0x3
    4af8:	f8170713          	addi	a4,a4,-127 # 3ffff81 <__rt_init_end+0x3ff36d1>
    4afc:	040007b7          	lui	a5,0x4000
    4b00:	00faeab3          	or	s5,s5,a5
    4b04:	943a                	add	s0,s0,a4
    4b06:	4601                	li	a2,0
    4b08:	012a4533          	xor	a0,s4,s2
    4b0c:	47bd                	li	a5,15
    4b0e:	86aa                	mv	a3,a0
    4b10:	00140593          	addi	a1,s0,1
    4b14:	1097e063          	bltu	a5,s1,4c14 <__mulsf3+0x180>
    4b18:	00007717          	auipc	a4,0x7
    4b1c:	6ac70713          	addi	a4,a4,1708 # c1c4 <__fsym___cmd_led_name+0x3c>
    4b20:	048a                	slli	s1,s1,0x2
    4b22:	94ba                	add	s1,s1,a4
    4b24:	409c                	lw	a5,0(s1)
    4b26:	97ba                	add	a5,a5,a4
    4b28:	8782                	jr	a5
    4b2a:	0ff40413          	addi	s0,s0,255
    4b2e:	0c0a9663          	bnez	s5,4bfa <__mulsf3+0x166>
    4b32:	0024e493          	ori	s1,s1,2
    4b36:	4609                	li	a2,2
    4b38:	bfc1                	j	4b08 <__mulsf3+0x74>
    4b3a:	4501                	li	a0,0
    4b3c:	0ff00713          	li	a4,255
    4b40:	004007b7          	lui	a5,0x400
    4b44:	50b2                	lw	ra,44(sp)
    4b46:	5422                	lw	s0,40(sp)
    4b48:	07a6                	slli	a5,a5,0x9
    4b4a:	075e                	slli	a4,a4,0x17
    4b4c:	83a5                	srli	a5,a5,0x9
    4b4e:	057e                	slli	a0,a0,0x1f
    4b50:	8fd9                	or	a5,a5,a4
    4b52:	5492                	lw	s1,36(sp)
    4b54:	5902                	lw	s2,32(sp)
    4b56:	49f2                	lw	s3,28(sp)
    4b58:	4a62                	lw	s4,24(sp)
    4b5a:	4ad2                	lw	s5,20(sp)
    4b5c:	4b42                	lw	s6,16(sp)
    4b5e:	8d5d                	or	a0,a0,a5
    4b60:	6145                	addi	sp,sp,48
    4b62:	8082                	ret
    4b64:	86ca                	mv	a3,s2
    4b66:	89d6                	mv	s3,s5
    4b68:	8b32                	mv	s6,a2
    4b6a:	4789                	li	a5,2
    4b6c:	08fb0f63          	beq	s6,a5,4c0a <__mulsf3+0x176>
    4b70:	478d                	li	a5,3
    4b72:	fcfb04e3          	beq	s6,a5,4b3a <__mulsf3+0xa6>
    4b76:	4785                	li	a5,1
    4b78:	8536                	mv	a0,a3
    4b7a:	1afb1063          	bne	s6,a5,4d1a <__mulsf3+0x286>
    4b7e:	4701                	li	a4,0
    4b80:	4781                	li	a5,0
    4b82:	b7c9                	j	4b44 <__mulsf3+0xb0>
    4b84:	04099d63          	bnez	s3,4bde <__mulsf3+0x14a>
    4b88:	0175d713          	srli	a4,a1,0x17
    4b8c:	00959a93          	slli	s5,a1,0x9
    4b90:	0ff77713          	andi	a4,a4,255
    4b94:	4491                	li	s1,4
    4b96:	4401                	li	s0,0
    4b98:	4b05                	li	s6,1
    4b9a:	009ada93          	srli	s5,s5,0x9
    4b9e:	01f5d913          	srli	s2,a1,0x1f
    4ba2:	f731                	bnez	a4,4aee <__mulsf3+0x5a>
    4ba4:	000a9d63          	bnez	s5,4bbe <__mulsf3+0x12a>
    4ba8:	0014e493          	ori	s1,s1,1
    4bac:	4605                	li	a2,1
    4bae:	bfa9                	j	4b08 <__mulsf3+0x74>
    4bb0:	02099263          	bnez	s3,4bd4 <__mulsf3+0x140>
    4bb4:	44a1                	li	s1,8
    4bb6:	0ff00413          	li	s0,255
    4bba:	4b09                	li	s6,2
    4bbc:	bf31                	j	4ad8 <__mulsf3+0x44>
    4bbe:	8556                	mv	a0,s5
    4bc0:	2e05                	jal	4ef0 <__clzsi2>
    4bc2:	ffb50793          	addi	a5,a0,-5
    4bc6:	8c09                	sub	s0,s0,a0
    4bc8:	00fa9ab3          	sll	s5,s5,a5
    4bcc:	f8a40413          	addi	s0,s0,-118
    4bd0:	4601                	li	a2,0
    4bd2:	bf1d                	j	4b08 <__mulsf3+0x74>
    4bd4:	44b1                	li	s1,12
    4bd6:	0ff00413          	li	s0,255
    4bda:	4b0d                	li	s6,3
    4bdc:	bdf5                	j	4ad8 <__mulsf3+0x44>
    4bde:	854e                	mv	a0,s3
    4be0:	c62e                	sw	a1,12(sp)
    4be2:	2639                	jal	4ef0 <__clzsi2>
    4be4:	ffb50793          	addi	a5,a0,-5
    4be8:	f8a00413          	li	s0,-118
    4bec:	00f999b3          	sll	s3,s3,a5
    4bf0:	8c09                	sub	s0,s0,a0
    4bf2:	4481                	li	s1,0
    4bf4:	4b01                	li	s6,0
    4bf6:	45b2                	lw	a1,12(sp)
    4bf8:	b5c5                	j	4ad8 <__mulsf3+0x44>
    4bfa:	0034e493          	ori	s1,s1,3
    4bfe:	460d                	li	a2,3
    4c00:	b721                	j	4b08 <__mulsf3+0x74>
    4c02:	4789                	li	a5,2
    4c04:	86d2                	mv	a3,s4
    4c06:	f6fb15e3          	bne	s6,a5,4b70 <__mulsf3+0xdc>
    4c0a:	8536                	mv	a0,a3
    4c0c:	0ff00713          	li	a4,255
    4c10:	4781                	li	a5,0
    4c12:	bf0d                	j	4b44 <__mulsf3+0xb0>
    4c14:	6341                	lui	t1,0x10
    4c16:	fff30693          	addi	a3,t1,-1 # ffff <__rt_init_end+0x374f>
    4c1a:	0109d613          	srli	a2,s3,0x10
    4c1e:	010ad893          	srli	a7,s5,0x10
    4c22:	00d9f7b3          	and	a5,s3,a3
    4c26:	00dafab3          	and	s5,s5,a3
    4c2a:	03578833          	mul	a6,a5,s5
    4c2e:	02f889b3          	mul	s3,a7,a5
    4c32:	01085713          	srli	a4,a6,0x10
    4c36:	03560ab3          	mul	s5,a2,s5
    4c3a:	99d6                	add	s3,s3,s5
    4c3c:	974e                	add	a4,a4,s3
    4c3e:	03160633          	mul	a2,a2,a7
    4c42:	01577363          	bgeu	a4,s5,4c48 <__mulsf3+0x1b4>
    4c46:	961a                	add	a2,a2,t1
    4c48:	67c1                	lui	a5,0x10
    4c4a:	17fd                	addi	a5,a5,-1
    4c4c:	00f776b3          	and	a3,a4,a5
    4c50:	00f87833          	and	a6,a6,a5
    4c54:	06c2                	slli	a3,a3,0x10
    4c56:	96c2                	add	a3,a3,a6
    4c58:	00669993          	slli	s3,a3,0x6
    4c5c:	01075793          	srli	a5,a4,0x10
    4c60:	013039b3          	snez	s3,s3
    4c64:	82e9                	srli	a3,a3,0x1a
    4c66:	97b2                	add	a5,a5,a2
    4c68:	079a                	slli	a5,a5,0x6
    4c6a:	00d9e6b3          	or	a3,s3,a3
    4c6e:	00d7e9b3          	or	s3,a5,a3
    4c72:	00499793          	slli	a5,s3,0x4
    4c76:	0007d963          	bgez	a5,4c88 <__mulsf3+0x1f4>
    4c7a:	0019d713          	srli	a4,s3,0x1
    4c7e:	0019f793          	andi	a5,s3,1
    4c82:	00f769b3          	or	s3,a4,a5
    4c86:	842e                	mv	s0,a1
    4c88:	07f40713          	addi	a4,s0,127
    4c8c:	04e05063          	blez	a4,4ccc <__mulsf3+0x238>
    4c90:	0079f793          	andi	a5,s3,7
    4c94:	c799                	beqz	a5,4ca2 <__mulsf3+0x20e>
    4c96:	00f9f793          	andi	a5,s3,15
    4c9a:	4691                	li	a3,4
    4c9c:	00d78363          	beq	a5,a3,4ca2 <__mulsf3+0x20e>
    4ca0:	0991                	addi	s3,s3,4
    4ca2:	00499793          	slli	a5,s3,0x4
    4ca6:	0007d963          	bgez	a5,4cb8 <__mulsf3+0x224>
    4caa:	f80007b7          	lui	a5,0xf8000
    4cae:	17fd                	addi	a5,a5,-1
    4cb0:	00f9f9b3          	and	s3,s3,a5
    4cb4:	08040713          	addi	a4,s0,128
    4cb8:	0fe00793          	li	a5,254
    4cbc:	04e7cb63          	blt	a5,a4,4d12 <__mulsf3+0x27e>
    4cc0:	00699793          	slli	a5,s3,0x6
    4cc4:	83a5                	srli	a5,a5,0x9
    4cc6:	0ff77713          	andi	a4,a4,255
    4cca:	bdad                	j	4b44 <__mulsf3+0xb0>
    4ccc:	4785                	li	a5,1
    4cce:	40e786b3          	sub	a3,a5,a4
    4cd2:	c711                	beqz	a4,4cde <__mulsf3+0x24a>
    4cd4:	466d                	li	a2,27
    4cd6:	4701                	li	a4,0
    4cd8:	4781                	li	a5,0
    4cda:	e6d645e3          	blt	a2,a3,4b44 <__mulsf3+0xb0>
    4cde:	09e40713          	addi	a4,s0,158
    4ce2:	00e99733          	sll	a4,s3,a4
    4ce6:	00e03733          	snez	a4,a4
    4cea:	00d9d7b3          	srl	a5,s3,a3
    4cee:	8fd9                	or	a5,a5,a4
    4cf0:	0077f713          	andi	a4,a5,7
    4cf4:	c719                	beqz	a4,4d02 <__mulsf3+0x26e>
    4cf6:	00f7f713          	andi	a4,a5,15
    4cfa:	4691                	li	a3,4
    4cfc:	00d70363          	beq	a4,a3,4d02 <__mulsf3+0x26e>
    4d00:	0791                	addi	a5,a5,4
    4d02:	00579713          	slli	a4,a5,0x5
    4d06:	00074c63          	bltz	a4,4d1e <__mulsf3+0x28a>
    4d0a:	079a                	slli	a5,a5,0x6
    4d0c:	83a5                	srli	a5,a5,0x9
    4d0e:	4701                	li	a4,0
    4d10:	bd15                	j	4b44 <__mulsf3+0xb0>
    4d12:	0ff00713          	li	a4,255
    4d16:	4781                	li	a5,0
    4d18:	b535                	j	4b44 <__mulsf3+0xb0>
    4d1a:	842e                	mv	s0,a1
    4d1c:	b7b5                	j	4c88 <__mulsf3+0x1f4>
    4d1e:	4705                	li	a4,1
    4d20:	4781                	li	a5,0
    4d22:	b50d                	j	4b44 <__mulsf3+0xb0>

00004d24 <__fixsfsi>:
    4d24:	00800637          	lui	a2,0x800
    4d28:	01755713          	srli	a4,a0,0x17
    4d2c:	fff60793          	addi	a5,a2,-1 # 7fffff <__rt_init_end+0x7f374f>
    4d30:	0ff77713          	andi	a4,a4,255
    4d34:	07e00593          	li	a1,126
    4d38:	00a7f6b3          	and	a3,a5,a0
    4d3c:	01f55793          	srli	a5,a0,0x1f
    4d40:	00e5fc63          	bgeu	a1,a4,4d58 <__fixsfsi+0x34>
    4d44:	09d00593          	li	a1,157
    4d48:	00e5fa63          	bgeu	a1,a4,4d5c <__fixsfsi+0x38>
    4d4c:	80000537          	lui	a0,0x80000
    4d50:	fff54513          	not	a0,a0
    4d54:	953e                	add	a0,a0,a5
    4d56:	8082                	ret
    4d58:	4501                	li	a0,0
    4d5a:	8082                	ret
    4d5c:	09500593          	li	a1,149
    4d60:	8ed1                	or	a3,a3,a2
    4d62:	00e5cd63          	blt	a1,a4,4d7c <__fixsfsi+0x58>
    4d66:	09600613          	li	a2,150
    4d6a:	40e60733          	sub	a4,a2,a4
    4d6e:	00e6d733          	srl	a4,a3,a4
    4d72:	40e00533          	neg	a0,a4
    4d76:	f3f5                	bnez	a5,4d5a <__fixsfsi+0x36>
    4d78:	853a                	mv	a0,a4
    4d7a:	8082                	ret
    4d7c:	f6a70713          	addi	a4,a4,-150
    4d80:	00e69733          	sll	a4,a3,a4
    4d84:	b7fd                	j	4d72 <__fixsfsi+0x4e>

00004d86 <__truncdfsf2>:
    4d86:	0145d693          	srli	a3,a1,0x14
    4d8a:	00c59793          	slli	a5,a1,0xc
    4d8e:	7ff6f693          	andi	a3,a3,2047
    4d92:	83b1                	srli	a5,a5,0xc
    4d94:	00168613          	addi	a2,a3,1
    4d98:	078e                	slli	a5,a5,0x3
    4d9a:	01d55713          	srli	a4,a0,0x1d
    4d9e:	7fe67613          	andi	a2,a2,2046
    4da2:	81fd                	srli	a1,a1,0x1f
    4da4:	8f5d                	or	a4,a4,a5
    4da6:	00351893          	slli	a7,a0,0x3
    4daa:	ce35                	beqz	a2,4e26 <__truncdfsf2+0xa0>
    4dac:	c8068813          	addi	a6,a3,-896
    4db0:	0fe00793          	li	a5,254
    4db4:	0107dd63          	bge	a5,a6,4dce <__truncdfsf2+0x48>
    4db8:	4781                	li	a5,0
    4dba:	00979513          	slli	a0,a5,0x9
    4dbe:	0ff00693          	li	a3,255
    4dc2:	06de                	slli	a3,a3,0x17
    4dc4:	8125                	srli	a0,a0,0x9
    4dc6:	05fe                	slli	a1,a1,0x1f
    4dc8:	8d55                	or	a0,a0,a3
    4dca:	8d4d                	or	a0,a0,a1
    4dcc:	8082                	ret
    4dce:	0b005563          	blez	a6,4e78 <__truncdfsf2+0xf2>
    4dd2:	00651793          	slli	a5,a0,0x6
    4dd6:	070e                	slli	a4,a4,0x3
    4dd8:	00f037b3          	snez	a5,a5
    4ddc:	8fd9                	or	a5,a5,a4
    4dde:	01d8d893          	srli	a7,a7,0x1d
    4de2:	0117e7b3          	or	a5,a5,a7
    4de6:	0077f713          	andi	a4,a5,7
    4dea:	10070163          	beqz	a4,4eec <__truncdfsf2+0x166>
    4dee:	00f7f713          	andi	a4,a5,15
    4df2:	4691                	li	a3,4
    4df4:	00d70363          	beq	a4,a3,4dfa <__truncdfsf2+0x74>
    4df8:	0791                	addi	a5,a5,4
    4dfa:	04000737          	lui	a4,0x4000
    4dfe:	8f7d                	and	a4,a4,a5
    4e00:	c775                	beqz	a4,4eec <__truncdfsf2+0x166>
    4e02:	00180713          	addi	a4,a6,1
    4e06:	0ff00613          	li	a2,255
    4e0a:	0ff77693          	andi	a3,a4,255
    4e0e:	fac705e3          	beq	a4,a2,4db8 <__truncdfsf2+0x32>
    4e12:	079a                	slli	a5,a5,0x6
    4e14:	83a5                	srli	a5,a5,0x9
    4e16:	00979513          	slli	a0,a5,0x9
    4e1a:	06de                	slli	a3,a3,0x17
    4e1c:	8125                	srli	a0,a0,0x9
    4e1e:	05fe                	slli	a1,a1,0x1f
    4e20:	8d55                	or	a0,a0,a3
    4e22:	8d4d                	or	a0,a0,a1
    4e24:	8082                	ret
    4e26:	011767b3          	or	a5,a4,a7
    4e2a:	ee99                	bnez	a3,4e48 <__truncdfsf2+0xc2>
    4e2c:	cf85                	beqz	a5,4e64 <__truncdfsf2+0xde>
    4e2e:	4795                	li	a5,5
    4e30:	079a                	slli	a5,a5,0x6
    4e32:	83a5                	srli	a5,a5,0x9
    4e34:	00979513          	slli	a0,a5,0x9
    4e38:	0ff6f693          	andi	a3,a3,255
    4e3c:	06de                	slli	a3,a3,0x17
    4e3e:	8125                	srli	a0,a0,0x9
    4e40:	05fe                	slli	a1,a1,0x1f
    4e42:	8d55                	or	a0,a0,a3
    4e44:	8d4d                	or	a0,a0,a1
    4e46:	8082                	ret
    4e48:	dba5                	beqz	a5,4db8 <__truncdfsf2+0x32>
    4e4a:	004007b7          	lui	a5,0x400
    4e4e:	00979513          	slli	a0,a5,0x9
    4e52:	0ff00693          	li	a3,255
    4e56:	06de                	slli	a3,a3,0x17
    4e58:	4581                	li	a1,0
    4e5a:	8125                	srli	a0,a0,0x9
    4e5c:	05fe                	slli	a1,a1,0x1f
    4e5e:	8d55                	or	a0,a0,a3
    4e60:	8d4d                	or	a0,a0,a1
    4e62:	8082                	ret
    4e64:	4781                	li	a5,0
    4e66:	00979513          	slli	a0,a5,0x9
    4e6a:	4681                	li	a3,0
    4e6c:	06de                	slli	a3,a3,0x17
    4e6e:	8125                	srli	a0,a0,0x9
    4e70:	05fe                	slli	a1,a1,0x1f
    4e72:	8d55                	or	a0,a0,a3
    4e74:	8d4d                	or	a0,a0,a1
    4e76:	8082                	ret
    4e78:	57a5                	li	a5,-23
    4e7a:	04f84863          	blt	a6,a5,4eca <__truncdfsf2+0x144>
    4e7e:	47f9                	li	a5,30
    4e80:	00800637          	lui	a2,0x800
    4e84:	410787b3          	sub	a5,a5,a6
    4e88:	457d                	li	a0,31
    4e8a:	8e59                	or	a2,a2,a4
    4e8c:	04f55163          	bge	a0,a5,4ece <__truncdfsf2+0x148>
    4e90:	5779                	li	a4,-2
    4e92:	41070733          	sub	a4,a4,a6
    4e96:	02000513          	li	a0,32
    4e9a:	00e65733          	srl	a4,a2,a4
    4e9e:	00a78863          	beq	a5,a0,4eae <__truncdfsf2+0x128>
    4ea2:	ca268693          	addi	a3,a3,-862
    4ea6:	00d616b3          	sll	a3,a2,a3
    4eaa:	00d8e8b3          	or	a7,a7,a3
    4eae:	011037b3          	snez	a5,a7
    4eb2:	8fd9                	or	a5,a5,a4
    4eb4:	0077f713          	andi	a4,a5,7
    4eb8:	4801                	li	a6,0
    4eba:	fb15                	bnez	a4,4dee <__truncdfsf2+0x68>
    4ebc:	00579713          	slli	a4,a5,0x5
    4ec0:	4685                	li	a3,1
    4ec2:	f40748e3          	bltz	a4,4e12 <__truncdfsf2+0x8c>
    4ec6:	4681                	li	a3,0
    4ec8:	b7a5                	j	4e30 <__truncdfsf2+0xaa>
    4eca:	4681                	li	a3,0
    4ecc:	b78d                	j	4e2e <__truncdfsf2+0xa8>
    4ece:	c8268693          	addi	a3,a3,-894
    4ed2:	00d89733          	sll	a4,a7,a3
    4ed6:	00e03733          	snez	a4,a4
    4eda:	00d616b3          	sll	a3,a2,a3
    4ede:	00f8d8b3          	srl	a7,a7,a5
    4ee2:	00d767b3          	or	a5,a4,a3
    4ee6:	00f8e7b3          	or	a5,a7,a5
    4eea:	b7e9                	j	4eb4 <__truncdfsf2+0x12e>
    4eec:	86c2                	mv	a3,a6
    4eee:	b789                	j	4e30 <__truncdfsf2+0xaa>

00004ef0 <__clzsi2>:
    4ef0:	67c1                	lui	a5,0x10
    4ef2:	02f57c63          	bgeu	a0,a5,4f2a <__clzsi2+0x3a>
    4ef6:	0ff00793          	li	a5,255
    4efa:	02000713          	li	a4,32
    4efe:	00a7eb63          	bltu	a5,a0,4f14 <__clzsi2+0x24>
    4f02:	00007797          	auipc	a5,0x7
    4f06:	30278793          	addi	a5,a5,770 # c204 <__clz_tab>
    4f0a:	97aa                	add	a5,a5,a0
    4f0c:	2388                	lbu	a0,0(a5)
    4f0e:	40a70533          	sub	a0,a4,a0
    4f12:	8082                	ret
    4f14:	8121                	srli	a0,a0,0x8
    4f16:	00007797          	auipc	a5,0x7
    4f1a:	2ee78793          	addi	a5,a5,750 # c204 <__clz_tab>
    4f1e:	97aa                	add	a5,a5,a0
    4f20:	2388                	lbu	a0,0(a5)
    4f22:	4761                	li	a4,24
    4f24:	40a70533          	sub	a0,a4,a0
    4f28:	8082                	ret
    4f2a:	010007b7          	lui	a5,0x1000
    4f2e:	00f56d63          	bltu	a0,a5,4f48 <__clzsi2+0x58>
    4f32:	8161                	srli	a0,a0,0x18
    4f34:	00007797          	auipc	a5,0x7
    4f38:	2d078793          	addi	a5,a5,720 # c204 <__clz_tab>
    4f3c:	97aa                	add	a5,a5,a0
    4f3e:	2388                	lbu	a0,0(a5)
    4f40:	4721                	li	a4,8
    4f42:	40a70533          	sub	a0,a4,a0
    4f46:	8082                	ret
    4f48:	8141                	srli	a0,a0,0x10
    4f4a:	00007797          	auipc	a5,0x7
    4f4e:	2ba78793          	addi	a5,a5,698 # c204 <__clz_tab>
    4f52:	97aa                	add	a5,a5,a0
    4f54:	2388                	lbu	a0,0(a5)
    4f56:	4741                	li	a4,16
    4f58:	40a70533          	sub	a0,a4,a0
    4f5c:	8082                	ret

00004f5e <atof>:
    4f5e:	4581                	li	a1,0
    4f60:	79d0006f          	j	5efc <strtod>

00004f64 <atoi>:
    4f64:	4629                	li	a2,10
    4f66:	4581                	li	a1,0
    4f68:	1000106f          	j	6068 <strtol>

00004f6c <memcmp>:
    4f6c:	4701                	li	a4,0
    4f6e:	00e61463          	bne	a2,a4,4f76 <memcmp+0xa>
    4f72:	4501                	li	a0,0
    4f74:	8082                	ret
    4f76:	00e507b3          	add	a5,a0,a4
    4f7a:	0705                	addi	a4,a4,1
    4f7c:	00e586b3          	add	a3,a1,a4
    4f80:	239c                	lbu	a5,0(a5)
    4f82:	fff6c683          	lbu	a3,-1(a3)
    4f86:	fed784e3          	beq	a5,a3,4f6e <memcmp+0x2>
    4f8a:	40d78533          	sub	a0,a5,a3
    4f8e:	8082                	ret

00004f90 <memcpy>:
    4f90:	00a5c7b3          	xor	a5,a1,a0
    4f94:	8b8d                	andi	a5,a5,3
    4f96:	00c50733          	add	a4,a0,a2
    4f9a:	e781                	bnez	a5,4fa2 <memcpy+0x12>
    4f9c:	478d                	li	a5,3
    4f9e:	00c7ed63          	bltu	a5,a2,4fb8 <memcpy+0x28>
    4fa2:	87aa                	mv	a5,a0
    4fa4:	08e57e63          	bgeu	a0,a4,5040 <memcpy+0xb0>
    4fa8:	2194                	lbu	a3,0(a1)
    4faa:	0785                	addi	a5,a5,1
    4fac:	0585                	addi	a1,a1,1
    4fae:	fed78fa3          	sb	a3,-1(a5)
    4fb2:	fee7ebe3          	bltu	a5,a4,4fa8 <memcpy+0x18>
    4fb6:	8082                	ret
    4fb8:	00357693          	andi	a3,a0,3
    4fbc:	87aa                	mv	a5,a0
    4fbe:	ca89                	beqz	a3,4fd0 <memcpy+0x40>
    4fc0:	2194                	lbu	a3,0(a1)
    4fc2:	0785                	addi	a5,a5,1
    4fc4:	0585                	addi	a1,a1,1
    4fc6:	fed78fa3          	sb	a3,-1(a5)
    4fca:	0037f693          	andi	a3,a5,3
    4fce:	bfc5                	j	4fbe <memcpy+0x2e>
    4fd0:	ffc77693          	andi	a3,a4,-4
    4fd4:	fe068613          	addi	a2,a3,-32
    4fd8:	06c7f063          	bgeu	a5,a2,5038 <memcpy+0xa8>
    4fdc:	0005a383          	lw	t2,0(a1)
    4fe0:	0045a283          	lw	t0,4(a1)
    4fe4:	0085af83          	lw	t6,8(a1)
    4fe8:	00c5af03          	lw	t5,12(a1)
    4fec:	0105ae83          	lw	t4,16(a1)
    4ff0:	0145ae03          	lw	t3,20(a1)
    4ff4:	0185a303          	lw	t1,24(a1)
    4ff8:	01c5a883          	lw	a7,28(a1)
    4ffc:	02458593          	addi	a1,a1,36
    5000:	0077a023          	sw	t2,0(a5)
    5004:	ffc5a803          	lw	a6,-4(a1)
    5008:	0057a223          	sw	t0,4(a5)
    500c:	01f7a423          	sw	t6,8(a5)
    5010:	01e7a623          	sw	t5,12(a5)
    5014:	01d7a823          	sw	t4,16(a5)
    5018:	01c7aa23          	sw	t3,20(a5)
    501c:	0067ac23          	sw	t1,24(a5)
    5020:	0117ae23          	sw	a7,28(a5)
    5024:	02478793          	addi	a5,a5,36
    5028:	ff07ae23          	sw	a6,-4(a5)
    502c:	b775                	j	4fd8 <memcpy+0x48>
    502e:	4190                	lw	a2,0(a1)
    5030:	0791                	addi	a5,a5,4
    5032:	0591                	addi	a1,a1,4
    5034:	fec7ae23          	sw	a2,-4(a5)
    5038:	fed7ebe3          	bltu	a5,a3,502e <memcpy+0x9e>
    503c:	f6e7e6e3          	bltu	a5,a4,4fa8 <memcpy+0x18>
    5040:	8082                	ret

00005042 <iprintf>:
    5042:	7139                	addi	sp,sp,-64
    5044:	da3e                	sw	a5,52(sp)
    5046:	d22e                	sw	a1,36(sp)
    5048:	d432                	sw	a2,40(sp)
    504a:	d636                	sw	a3,44(sp)
    504c:	d83a                	sw	a4,48(sp)
    504e:	dc42                	sw	a6,56(sp)
    5050:	de46                	sw	a7,60(sp)
    5052:	81418793          	addi	a5,gp,-2028 # 20000344 <_impure_ptr>
    5056:	cc22                	sw	s0,24(sp)
    5058:	4380                	lw	s0,0(a5)
    505a:	ca26                	sw	s1,20(sp)
    505c:	ce06                	sw	ra,28(sp)
    505e:	84aa                	mv	s1,a0
    5060:	c411                	beqz	s0,506c <iprintf+0x2a>
    5062:	4c1c                	lw	a5,24(s0)
    5064:	e781                	bnez	a5,506c <iprintf+0x2a>
    5066:	8522                	mv	a0,s0
    5068:	13e010ef          	jal	ra,61a6 <__sinit>
    506c:	440c                	lw	a1,8(s0)
    506e:	1054                	addi	a3,sp,36
    5070:	8626                	mv	a2,s1
    5072:	8522                	mv	a0,s0
    5074:	c636                	sw	a3,12(sp)
    5076:	1e1020ef          	jal	ra,7a56 <_vfiprintf_r>
    507a:	40f2                	lw	ra,28(sp)
    507c:	4462                	lw	s0,24(sp)
    507e:	44d2                	lw	s1,20(sp)
    5080:	6121                	addi	sp,sp,64
    5082:	8082                	ret

00005084 <siscanf>:
    5084:	7171                	addi	sp,sp,-176
    5086:	d33e                	sw	a5,164(sp)
    5088:	20400793          	li	a5,516
    508c:	c706                	sw	ra,140(sp)
    508e:	c62e                	sw	a1,12(sp)
    5090:	cd32                	sw	a2,152(sp)
    5092:	cf36                	sw	a3,156(sp)
    5094:	d13a                	sw	a4,160(sp)
    5096:	d542                	sw	a6,168(sp)
    5098:	d746                	sw	a7,172(sp)
    509a:	02f11223          	sh	a5,36(sp)
    509e:	cc2a                	sw	a0,24(sp)
    50a0:	d42a                	sw	a0,40(sp)
    50a2:	2a0d                	jal	51d4 <strlen>
    50a4:	00000797          	auipc	a5,0x0
    50a8:	06078793          	addi	a5,a5,96 # 5104 <__seofread>
    50ac:	de3e                	sw	a5,60(sp)
    50ae:	57fd                	li	a5,-1
    50b0:	45b2                	lw	a1,12(sp)
    50b2:	02f11323          	sh	a5,38(sp)
    50b6:	81418793          	addi	a5,gp,-2028 # 20000344 <_impure_ptr>
    50ba:	ce2a                	sw	a0,28(sp)
    50bc:	d62a                	sw	a0,44(sp)
    50be:	4388                	lw	a0,0(a5)
    50c0:	0934                	addi	a3,sp,152
    50c2:	862e                	mv	a2,a1
    50c4:	082c                	addi	a1,sp,24
    50c6:	c682                	sw	zero,76(sp)
    50c8:	d082                	sw	zero,96(sp)
    50ca:	ca36                	sw	a3,20(sp)
    50cc:	578020ef          	jal	ra,7644 <__ssvfiscanf_r>
    50d0:	40ba                	lw	ra,140(sp)
    50d2:	614d                	addi	sp,sp,176
    50d4:	8082                	ret

000050d6 <__sread>:
    50d6:	1141                	addi	sp,sp,-16
    50d8:	c422                	sw	s0,8(sp)
    50da:	842e                	mv	s0,a1
    50dc:	00e59583          	lh	a1,14(a1)
    50e0:	c606                	sw	ra,12(sp)
    50e2:	2ec030ef          	jal	ra,83ce <_read_r>
    50e6:	00054963          	bltz	a0,50f8 <__sread+0x22>
    50ea:	487c                	lw	a5,84(s0)
    50ec:	97aa                	add	a5,a5,a0
    50ee:	c87c                	sw	a5,84(s0)
    50f0:	40b2                	lw	ra,12(sp)
    50f2:	4422                	lw	s0,8(sp)
    50f4:	0141                	addi	sp,sp,16
    50f6:	8082                	ret
    50f8:	245e                	lhu	a5,12(s0)
    50fa:	777d                	lui	a4,0xfffff
    50fc:	177d                	addi	a4,a4,-1
    50fe:	8ff9                	and	a5,a5,a4
    5100:	a45e                	sh	a5,12(s0)
    5102:	b7fd                	j	50f0 <__sread+0x1a>

00005104 <__seofread>:
    5104:	4501                	li	a0,0
    5106:	8082                	ret

00005108 <__swrite>:
    5108:	25de                	lhu	a5,12(a1)
    510a:	1101                	addi	sp,sp,-32
    510c:	cc22                	sw	s0,24(sp)
    510e:	ca26                	sw	s1,20(sp)
    5110:	c84a                	sw	s2,16(sp)
    5112:	c64e                	sw	s3,12(sp)
    5114:	ce06                	sw	ra,28(sp)
    5116:	1007f793          	andi	a5,a5,256
    511a:	84aa                	mv	s1,a0
    511c:	842e                	mv	s0,a1
    511e:	8932                	mv	s2,a2
    5120:	89b6                	mv	s3,a3
    5122:	c799                	beqz	a5,5130 <__swrite+0x28>
    5124:	00e59583          	lh	a1,14(a1)
    5128:	4689                	li	a3,2
    512a:	4601                	li	a2,0
    512c:	14d010ef          	jal	ra,6a78 <_lseek_r>
    5130:	245e                	lhu	a5,12(s0)
    5132:	777d                	lui	a4,0xfffff
    5134:	177d                	addi	a4,a4,-1
    5136:	8ff9                	and	a5,a5,a4
    5138:	a45e                	sh	a5,12(s0)
    513a:	00e41583          	lh	a1,14(s0)
    513e:	4462                	lw	s0,24(sp)
    5140:	40f2                	lw	ra,28(sp)
    5142:	86ce                	mv	a3,s3
    5144:	864a                	mv	a2,s2
    5146:	49b2                	lw	s3,12(sp)
    5148:	4942                	lw	s2,16(sp)
    514a:	8526                	mv	a0,s1
    514c:	44d2                	lw	s1,20(sp)
    514e:	6105                	addi	sp,sp,32
    5150:	7370006f          	j	6086 <_write_r>

00005154 <__sseek>:
    5154:	1141                	addi	sp,sp,-16
    5156:	c422                	sw	s0,8(sp)
    5158:	842e                	mv	s0,a1
    515a:	00e59583          	lh	a1,14(a1)
    515e:	c606                	sw	ra,12(sp)
    5160:	119010ef          	jal	ra,6a78 <_lseek_r>
    5164:	57fd                	li	a5,-1
    5166:	245a                	lhu	a4,12(s0)
    5168:	00f51a63          	bne	a0,a5,517c <__sseek+0x28>
    516c:	77fd                	lui	a5,0xfffff
    516e:	17fd                	addi	a5,a5,-1
    5170:	8ff9                	and	a5,a5,a4
    5172:	a45e                	sh	a5,12(s0)
    5174:	40b2                	lw	ra,12(sp)
    5176:	4422                	lw	s0,8(sp)
    5178:	0141                	addi	sp,sp,16
    517a:	8082                	ret
    517c:	6785                	lui	a5,0x1
    517e:	8fd9                	or	a5,a5,a4
    5180:	a45e                	sh	a5,12(s0)
    5182:	c868                	sw	a0,84(s0)
    5184:	bfc5                	j	5174 <__sseek+0x20>

00005186 <__sclose>:
    5186:	00e59583          	lh	a1,14(a1)
    518a:	7330006f          	j	60bc <_close_r>

0000518e <strcat>:
    518e:	87aa                	mv	a5,a0
    5190:	2398                	lbu	a4,0(a5)
    5192:	00178693          	addi	a3,a5,1 # 1001 <rt_vsnprintf+0x2ab>
    5196:	eb09                	bnez	a4,51a8 <strcat+0x1a>
    5198:	0585                	addi	a1,a1,1
    519a:	fff5c703          	lbu	a4,-1(a1)
    519e:	0785                	addi	a5,a5,1
    51a0:	fee78fa3          	sb	a4,-1(a5)
    51a4:	fb75                	bnez	a4,5198 <strcat+0xa>
    51a6:	8082                	ret
    51a8:	87b6                	mv	a5,a3
    51aa:	b7dd                	j	5190 <strcat+0x2>

000051ac <strchr>:
    51ac:	0ff5f593          	andi	a1,a1,255
    51b0:	211c                	lbu	a5,0(a0)
    51b2:	c791                	beqz	a5,51be <strchr+0x12>
    51b4:	00b79363          	bne	a5,a1,51ba <strchr+0xe>
    51b8:	8082                	ret
    51ba:	0505                	addi	a0,a0,1
    51bc:	bfd5                	j	51b0 <strchr+0x4>
    51be:	c191                	beqz	a1,51c2 <strchr+0x16>
    51c0:	4501                	li	a0,0
    51c2:	8082                	ret

000051c4 <strcpy>:
    51c4:	87aa                	mv	a5,a0
    51c6:	2198                	lbu	a4,0(a1)
    51c8:	0785                	addi	a5,a5,1
    51ca:	0585                	addi	a1,a1,1
    51cc:	fee78fa3          	sb	a4,-1(a5)
    51d0:	fb7d                	bnez	a4,51c6 <strcpy+0x2>
    51d2:	8082                	ret

000051d4 <strlen>:
    51d4:	87aa                	mv	a5,a0
    51d6:	0785                	addi	a5,a5,1
    51d8:	fff7c703          	lbu	a4,-1(a5)
    51dc:	ff6d                	bnez	a4,51d6 <strlen+0x2>
    51de:	40a78533          	sub	a0,a5,a0
    51e2:	157d                	addi	a0,a0,-1
    51e4:	8082                	ret

000051e6 <strncmp>:
    51e6:	c215                	beqz	a2,520a <strncmp+0x24>
    51e8:	167d                	addi	a2,a2,-1
    51ea:	4701                	li	a4,0
    51ec:	00e507b3          	add	a5,a0,a4
    51f0:	00e586b3          	add	a3,a1,a4
    51f4:	239c                	lbu	a5,0(a5)
    51f6:	2294                	lbu	a3,0(a3)
    51f8:	00d79663          	bne	a5,a3,5204 <strncmp+0x1e>
    51fc:	00c70463          	beq	a4,a2,5204 <strncmp+0x1e>
    5200:	0705                	addi	a4,a4,1
    5202:	f7ed                	bnez	a5,51ec <strncmp+0x6>
    5204:	40d78533          	sub	a0,a5,a3
    5208:	8082                	ret
    520a:	4501                	li	a0,0
    520c:	8082                	ret

0000520e <strstr>:
    520e:	2118                	lbu	a4,0(a0)
    5210:	219c                	lbu	a5,0(a1)
    5212:	e701                	bnez	a4,521a <strstr+0xc>
    5214:	c391                	beqz	a5,5218 <strstr+0xa>
    5216:	4501                	li	a0,0
    5218:	8082                	ret
    521a:	4781                	li	a5,0
    521c:	a039                	j	522a <strstr+0x1c>
    521e:	311c                	lbu	a5,1(a0)
    5220:	00150713          	addi	a4,a0,1 # 80000001 <_eusrstack+0x5fff0001>
    5224:	dbed                	beqz	a5,5216 <strstr+0x8>
    5226:	4781                	li	a5,0
    5228:	853a                	mv	a0,a4
    522a:	00f58733          	add	a4,a1,a5
    522e:	2318                	lbu	a4,0(a4)
    5230:	d765                	beqz	a4,5218 <strstr+0xa>
    5232:	00f506b3          	add	a3,a0,a5
    5236:	2294                	lbu	a3,0(a3)
    5238:	fee693e3          	bne	a3,a4,521e <strstr+0x10>
    523c:	0785                	addi	a5,a5,1
    523e:	872a                	mv	a4,a0
    5240:	b7e5                	j	5228 <strstr+0x1a>

00005242 <sulp>:
    5242:	1101                	addi	sp,sp,-32
    5244:	cc22                	sw	s0,24(sp)
    5246:	872a                	mv	a4,a0
    5248:	842e                	mv	s0,a1
    524a:	853a                	mv	a0,a4
    524c:	85a2                	mv	a1,s0
    524e:	c632                	sw	a2,12(sp)
    5250:	ce06                	sw	ra,28(sp)
    5252:	75b010ef          	jal	ra,71ac <__ulp>
    5256:	4632                	lw	a2,12(sp)
    5258:	882a                	mv	a6,a0
    525a:	88ae                	mv	a7,a1
    525c:	c605                	beqz	a2,5284 <sulp+0x42>
    525e:	8051                	srli	s0,s0,0x14
    5260:	7ff47413          	andi	s0,s0,2047
    5264:	06b00793          	li	a5,107
    5268:	8f81                	sub	a5,a5,s0
    526a:	00f05d63          	blez	a5,5284 <sulp+0x42>
    526e:	07d2                	slli	a5,a5,0x14
    5270:	3ff00737          	lui	a4,0x3ff00
    5274:	4801                	li	a6,0
    5276:	973e                	add	a4,a4,a5
    5278:	8642                	mv	a2,a6
    527a:	86ba                	mv	a3,a4
    527c:	0b5040ef          	jal	ra,9b30 <__muldf3>
    5280:	882a                	mv	a6,a0
    5282:	88ae                	mv	a7,a1
    5284:	40f2                	lw	ra,28(sp)
    5286:	4462                	lw	s0,24(sp)
    5288:	8542                	mv	a0,a6
    528a:	85c6                	mv	a1,a7
    528c:	6105                	addi	sp,sp,32
    528e:	8082                	ret

00005290 <_strtod_l>:
    5290:	7135                	addi	sp,sp,-160
    5292:	c94a                	sw	s2,144(sp)
    5294:	892a                	mv	s2,a0
    5296:	8536                	mv	a0,a3
    5298:	d432                	sw	a2,40(sp)
    529a:	c636                	sw	a3,12(sp)
    529c:	cf06                	sw	ra,156(sp)
    529e:	cd22                	sw	s0,152(sp)
    52a0:	cb26                	sw	s1,148(sp)
    52a2:	c74e                	sw	s3,140(sp)
    52a4:	d8ea                	sw	s10,112(sp)
    52a6:	d6ee                	sw	s11,108(sp)
    52a8:	8d2e                	mv	s10,a1
    52aa:	c552                	sw	s4,136(sp)
    52ac:	c356                	sw	s5,132(sp)
    52ae:	c15a                	sw	s6,128(sp)
    52b0:	dede                	sw	s7,124(sp)
    52b2:	dce2                	sw	s8,120(sp)
    52b4:	dae6                	sw	s9,116(sp)
    52b6:	c882                	sw	zero,80(sp)
    52b8:	7ba010ef          	jal	ra,6a72 <__localeconv_l>
    52bc:	8daa                	mv	s11,a0
    52be:	4108                	lw	a0,0(a0)
    52c0:	4481                	li	s1,0
    52c2:	4401                	li	s0,0
    52c4:	f11ff0ef          	jal	ra,51d4 <strlen>
    52c8:	46b2                	lw	a3,12(sp)
    52ca:	89aa                	mv	s3,a0
    52cc:	c6ea                	sw	s10,76(sp)
    52ce:	4635                	li	a2,13
    52d0:	02b00593          	li	a1,43
    52d4:	02d00513          	li	a0,45
    52d8:	02000813          	li	a6,32
    52dc:	48a5                	li	a7,9
    52de:	47b6                	lw	a5,76(sp)
    52e0:	2398                	lbu	a4,0(a5)
    52e2:	08e66b63          	bltu	a2,a4,5378 <_strtod_l+0xe8>
    52e6:	09177f63          	bgeu	a4,a7,5384 <_strtod_l+0xf4>
    52ea:	c755                	beqz	a4,5396 <_strtod_l+0x106>
    52ec:	c802                	sw	zero,16(sp)
    52ee:	4a36                	lw	s4,76(sp)
    52f0:	03000793          	li	a5,48
    52f4:	4a81                	li	s5,0
    52f6:	000a4703          	lbu	a4,0(s4)
    52fa:	12f71b63          	bne	a4,a5,5430 <_strtod_l+0x1a0>
    52fe:	001a4783          	lbu	a5,1(s4)
    5302:	05800713          	li	a4,88
    5306:	00e78863          	beq	a5,a4,5316 <_strtod_l+0x86>
    530a:	07800613          	li	a2,120
    530e:	03000713          	li	a4,48
    5312:	10c79663          	bne	a5,a2,541e <_strtod_l+0x18e>
    5316:	47c2                	lw	a5,16(sp)
    5318:	8836                	mv	a6,a3
    531a:	0898                	addi	a4,sp,80
    531c:	08d4                	addi	a3,sp,84
    531e:	00007617          	auipc	a2,0x7
    5322:	04260613          	addi	a2,a2,66 # c360 <fpi.3395>
    5326:	00ec                	addi	a1,sp,76
    5328:	854a                	mv	a0,s2
    532a:	0a8010ef          	jal	ra,63d2 <__gethex>
    532e:	00757993          	andi	s3,a0,7
    5332:	8aaa                	mv	s5,a0
    5334:	00098863          	beqz	s3,5344 <_strtod_l+0xb4>
    5338:	4799                	li	a5,6
    533a:	06f99763          	bne	s3,a5,53a8 <_strtod_l+0x118>
    533e:	0a05                	addi	s4,s4,1
    5340:	c6d2                	sw	s4,76(sp)
    5342:	c802                	sw	zero,16(sp)
    5344:	57a2                	lw	a5,40(sp)
    5346:	c781                	beqz	a5,534e <_strtod_l+0xbe>
    5348:	47b6                	lw	a5,76(sp)
    534a:	5722                	lw	a4,40(sp)
    534c:	c31c                	sw	a5,0(a4)
    534e:	47c2                	lw	a5,16(sp)
    5350:	c7b9                	beqz	a5,539e <_strtod_l+0x10e>
    5352:	800005b7          	lui	a1,0x80000
    5356:	8da1                	xor	a1,a1,s0
    5358:	40fa                	lw	ra,156(sp)
    535a:	446a                	lw	s0,152(sp)
    535c:	8526                	mv	a0,s1
    535e:	494a                	lw	s2,144(sp)
    5360:	44da                	lw	s1,148(sp)
    5362:	49ba                	lw	s3,140(sp)
    5364:	4a2a                	lw	s4,136(sp)
    5366:	4a9a                	lw	s5,132(sp)
    5368:	4b0a                	lw	s6,128(sp)
    536a:	5bf6                	lw	s7,124(sp)
    536c:	5c66                	lw	s8,120(sp)
    536e:	5cd6                	lw	s9,116(sp)
    5370:	5d46                	lw	s10,112(sp)
    5372:	5db6                	lw	s11,108(sp)
    5374:	610d                	addi	sp,sp,160
    5376:	8082                	ret
    5378:	00b70963          	beq	a4,a1,538a <_strtod_l+0xfa>
    537c:	02a70363          	beq	a4,a0,53a2 <_strtod_l+0x112>
    5380:	f70716e3          	bne	a4,a6,52ec <_strtod_l+0x5c>
    5384:	0785                	addi	a5,a5,1
    5386:	c6be                	sw	a5,76(sp)
    5388:	bf99                	j	52de <_strtod_l+0x4e>
    538a:	c802                	sw	zero,16(sp)
    538c:	00178713          	addi	a4,a5,1
    5390:	c6ba                	sw	a4,76(sp)
    5392:	339c                	lbu	a5,1(a5)
    5394:	ffa9                	bnez	a5,52ee <_strtod_l+0x5e>
    5396:	57a2                	lw	a5,40(sp)
    5398:	c6ea                	sw	s10,76(sp)
    539a:	c802                	sw	zero,16(sp)
    539c:	f7d5                	bnez	a5,5348 <_strtod_l+0xb8>
    539e:	85a2                	mv	a1,s0
    53a0:	bf65                	j	5358 <_strtod_l+0xc8>
    53a2:	4705                	li	a4,1
    53a4:	c83a                	sw	a4,16(sp)
    53a6:	b7dd                	j	538c <_strtod_l+0xfc>
    53a8:	4646                	lw	a2,80(sp)
    53aa:	ca11                	beqz	a2,53be <_strtod_l+0x12e>
    53ac:	03500593          	li	a1,53
    53b0:	08a8                	addi	a0,sp,88
    53b2:	03c020ef          	jal	ra,73ee <__copybits>
    53b6:	45c6                	lw	a1,80(sp)
    53b8:	854a                	mv	a0,s2
    53ba:	7b2010ef          	jal	ra,6b6c <_Bfree>
    53be:	19fd                	addi	s3,s3,-1
    53c0:	4791                	li	a5,4
    53c2:	0137ee63          	bltu	a5,s3,53de <_strtod_l+0x14e>
    53c6:	00007717          	auipc	a4,0x7
    53ca:	f3e70713          	addi	a4,a4,-194 # c304 <__clz_tab+0x100>
    53ce:	098a                	slli	s3,s3,0x2
    53d0:	99ba                	add	s3,s3,a4
    53d2:	0009a783          	lw	a5,0(s3)
    53d6:	97ba                	add	a5,a5,a4
    53d8:	8782                	jr	a5
    53da:	44e6                	lw	s1,88(sp)
    53dc:	4476                	lw	s0,92(sp)
    53de:	008afa93          	andi	s5,s5,8
    53e2:	f60a81e3          	beqz	s5,5344 <_strtod_l+0xb4>
    53e6:	800007b7          	lui	a5,0x80000
    53ea:	8c5d                	or	s0,s0,a5
    53ec:	bfa1                	j	5344 <_strtod_l+0xb4>
    53ee:	45f6                	lw	a1,92(sp)
    53f0:	fff00437          	lui	s0,0xfff00
    53f4:	147d                	addi	s0,s0,-1
    53f6:	0085f7b3          	and	a5,a1,s0
    53fa:	4456                	lw	s0,84(sp)
    53fc:	44e6                	lw	s1,88(sp)
    53fe:	43340413          	addi	s0,s0,1075 # fff00433 <_eusrstack+0xdfef0433>
    5402:	01441593          	slli	a1,s0,0x14
    5406:	00b7e433          	or	s0,a5,a1
    540a:	bfd1                	j	53de <_strtod_l+0x14e>
    540c:	7ff00437          	lui	s0,0x7ff00
    5410:	b7f9                	j	53de <_strtod_l+0x14e>
    5412:	800005b7          	lui	a1,0x80000
    5416:	fff5c413          	not	s0,a1
    541a:	54fd                	li	s1,-1
    541c:	b7c9                	j	53de <_strtod_l+0x14e>
    541e:	47b6                	lw	a5,76(sp)
    5420:	00178693          	addi	a3,a5,1 # 80000001 <_eusrstack+0x5fff0001>
    5424:	c6b6                	sw	a3,76(sp)
    5426:	339c                	lbu	a5,1(a5)
    5428:	fee78be3          	beq	a5,a4,541e <_strtod_l+0x18e>
    542c:	df81                	beqz	a5,5344 <_strtod_l+0xb4>
    542e:	4a85                	li	s5,1
    5430:	4cb6                	lw	s9,76(sp)
    5432:	4a01                	li	s4,0
    5434:	4b81                	li	s7,0
    5436:	4c01                	li	s8,0
    5438:	46a5                	li	a3,9
    543a:	45a1                	li	a1,8
    543c:	47a9                	li	a5,10
    543e:	4536                	lw	a0,76(sp)
    5440:	00054b03          	lbu	s6,0(a0)
    5444:	fd0b0713          	addi	a4,s6,-48
    5448:	0ff77613          	andi	a2,a4,255
    544c:	04c6fd63          	bgeu	a3,a2,54a6 <_strtod_l+0x216>
    5450:	000da583          	lw	a1,0(s11) # c0000 <__rt_init_end+0xb3750>
    5454:	864e                	mv	a2,s3
    5456:	d91ff0ef          	jal	ra,51e6 <strncmp>
    545a:	c13d                	beqz	a0,54c0 <_strtod_l+0x230>
    545c:	87da                	mv	a5,s6
    545e:	8de2                	mv	s11,s8
    5460:	4681                	li	a3,0
    5462:	4b01                	li	s6,0
    5464:	4501                	li	a0,0
    5466:	06500713          	li	a4,101
    546a:	00e78763          	beq	a5,a4,5478 <_strtod_l+0x1e8>
    546e:	04500713          	li	a4,69
    5472:	4981                	li	s3,0
    5474:	16e79563          	bne	a5,a4,55de <_strtod_l+0x34e>
    5478:	000d9663          	bnez	s11,5484 <_strtod_l+0x1f4>
    547c:	0156e7b3          	or	a5,a3,s5
    5480:	db99                	beqz	a5,5396 <_strtod_l+0x106>
    5482:	4d81                	li	s11,0
    5484:	4d36                	lw	s10,76(sp)
    5486:	02b00713          	li	a4,43
    548a:	001d0793          	addi	a5,s10,1
    548e:	c6be                	sw	a5,76(sp)
    5490:	001d4783          	lbu	a5,1(s10)
    5494:	0ce78f63          	beq	a5,a4,5572 <_strtod_l+0x2e2>
    5498:	02d00713          	li	a4,45
    549c:	4801                	li	a6,0
    549e:	0ee79063          	bne	a5,a4,557e <_strtod_l+0x2ee>
    54a2:	4805                	li	a6,1
    54a4:	a8c1                	j	5574 <_strtod_l+0x2e4>
    54a6:	0185c963          	blt	a1,s8,54b8 <_strtod_l+0x228>
    54aa:	02fb8bb3          	mul	s7,s7,a5
    54ae:	9bba                	add	s7,s7,a4
    54b0:	0505                	addi	a0,a0,1
    54b2:	0c05                	addi	s8,s8,1
    54b4:	c6aa                	sw	a0,76(sp)
    54b6:	b761                	j	543e <_strtod_l+0x1ae>
    54b8:	02fa0a33          	mul	s4,s4,a5
    54bc:	9a3a                	add	s4,s4,a4
    54be:	bfcd                	j	54b0 <_strtod_l+0x220>
    54c0:	4536                	lw	a0,76(sp)
    54c2:	4681                	li	a3,0
    54c4:	954e                	add	a0,a0,s3
    54c6:	c6aa                	sw	a0,76(sp)
    54c8:	211c                	lbu	a5,0(a0)
    54ca:	060c0b63          	beqz	s8,5540 <_strtod_l+0x2b0>
    54ce:	4b01                	li	s6,0
    54d0:	8de2                	mv	s11,s8
    54d2:	fd078713          	addi	a4,a5,-48
    54d6:	4625                	li	a2,9
    54d8:	02e67563          	bgeu	a2,a4,5502 <_strtod_l+0x272>
    54dc:	4505                	li	a0,1
    54de:	b761                	j	5466 <_strtod_l+0x1d6>
    54e0:	47b6                	lw	a5,76(sp)
    54e2:	0685                	addi	a3,a3,1
    54e4:	00178613          	addi	a2,a5,1
    54e8:	c6b2                	sw	a2,76(sp)
    54ea:	339c                	lbu	a5,1(a5)
    54ec:	fee78ae3          	beq	a5,a4,54e0 <_strtod_l+0x250>
    54f0:	fcf78713          	addi	a4,a5,-49
    54f4:	4621                	li	a2,8
    54f6:	1ee666e3          	bltu	a2,a4,5ee2 <_strtod_l+0xc52>
    54fa:	4cb6                	lw	s9,76(sp)
    54fc:	8b36                	mv	s6,a3
    54fe:	4d81                	li	s11,0
    5500:	4681                	li	a3,0
    5502:	fd078793          	addi	a5,a5,-48
    5506:	00168713          	addi	a4,a3,1
    550a:	c785                	beqz	a5,5532 <_strtod_l+0x2a2>
    550c:	9b3a                	add	s6,s6,a4
    550e:	01b68533          	add	a0,a3,s11
    5512:	876e                	mv	a4,s11
    5514:	4821                	li	a6,8
    5516:	48c1                	li	a7,16
    5518:	4629                	li	a2,10
    551a:	02a71663          	bne	a4,a0,5546 <_strtod_l+0x2b6>
    551e:	0d85                	addi	s11,s11,1
    5520:	9db6                	add	s11,s11,a3
    5522:	46a1                	li	a3,8
    5524:	02e6ce63          	blt	a3,a4,5560 <_strtod_l+0x2d0>
    5528:	4729                	li	a4,10
    552a:	02eb8bb3          	mul	s7,s7,a4
    552e:	4701                	li	a4,0
    5530:	9bbe                	add	s7,s7,a5
    5532:	47b6                	lw	a5,76(sp)
    5534:	00178693          	addi	a3,a5,1
    5538:	c6b6                	sw	a3,76(sp)
    553a:	339c                	lbu	a5,1(a5)
    553c:	86ba                	mv	a3,a4
    553e:	bf51                	j	54d2 <_strtod_l+0x242>
    5540:	03000713          	li	a4,48
    5544:	b765                	j	54ec <_strtod_l+0x25c>
    5546:	00170593          	addi	a1,a4,1
    554a:	00e84663          	blt	a6,a4,5556 <_strtod_l+0x2c6>
    554e:	02cb8bb3          	mul	s7,s7,a2
    5552:	872e                	mv	a4,a1
    5554:	b7d9                	j	551a <_strtod_l+0x28a>
    5556:	feb8cee3          	blt	a7,a1,5552 <_strtod_l+0x2c2>
    555a:	02ca0a33          	mul	s4,s4,a2
    555e:	bfd5                	j	5552 <_strtod_l+0x2c2>
    5560:	46c1                	li	a3,16
    5562:	4701                	li	a4,0
    5564:	fdb6c7e3          	blt	a3,s11,5532 <_strtod_l+0x2a2>
    5568:	46a9                	li	a3,10
    556a:	02da0a33          	mul	s4,s4,a3
    556e:	9a3e                	add	s4,s4,a5
    5570:	b7c9                	j	5532 <_strtod_l+0x2a2>
    5572:	4801                	li	a6,0
    5574:	002d0793          	addi	a5,s10,2
    5578:	c6be                	sw	a5,76(sp)
    557a:	002d4783          	lbu	a5,2(s10)
    557e:	fd078713          	addi	a4,a5,-48
    5582:	4625                	li	a2,9
    5584:	0ce66563          	bltu	a2,a4,564e <_strtod_l+0x3be>
    5588:	03000713          	li	a4,48
    558c:	0ae78563          	beq	a5,a4,5636 <_strtod_l+0x3a6>
    5590:	fcf78713          	addi	a4,a5,-49
    5594:	4621                	li	a2,8
    5596:	4981                	li	s3,0
    5598:	04e66363          	bltu	a2,a4,55de <_strtod_l+0x34e>
    559c:	48b6                	lw	a7,76(sp)
    559e:	fd078713          	addi	a4,a5,-48
    55a2:	4325                	li	t1,9
    55a4:	4e29                	li	t3,10
    55a6:	47b6                	lw	a5,76(sp)
    55a8:	00178613          	addi	a2,a5,1
    55ac:	c6b2                	sw	a2,76(sp)
    55ae:	339c                	lbu	a5,1(a5)
    55b0:	fd078593          	addi	a1,a5,-48
    55b4:	0ff5f593          	andi	a1,a1,255
    55b8:	08b37563          	bgeu	t1,a1,5642 <_strtod_l+0x3b2>
    55bc:	6995                	lui	s3,0x5
    55be:	41160633          	sub	a2,a2,a7
    55c2:	e1f98993          	addi	s3,s3,-481 # 4e1f <__truncdfsf2+0x99>
    55c6:	48a1                	li	a7,8
    55c8:	85ce                	mv	a1,s3
    55ca:	00c8c663          	blt	a7,a2,55d6 <_strtod_l+0x346>
    55ce:	89ba                	mv	s3,a4
    55d0:	00e5d363          	bge	a1,a4,55d6 <_strtod_l+0x346>
    55d4:	89ae                	mv	s3,a1
    55d6:	00080463          	beqz	a6,55de <_strtod_l+0x34e>
    55da:	413009b3          	neg	s3,s3
    55de:	0c0d9663          	bnez	s11,56aa <_strtod_l+0x41a>
    55e2:	00dae6b3          	or	a3,s5,a3
    55e6:	d4069fe3          	bnez	a3,5344 <_strtod_l+0xb4>
    55ea:	da0516e3          	bnez	a0,5396 <_strtod_l+0x106>
    55ee:	04e00713          	li	a4,78
    55f2:	06e78963          	beq	a5,a4,5664 <_strtod_l+0x3d4>
    55f6:	04f74f63          	blt	a4,a5,5654 <_strtod_l+0x3c4>
    55fa:	04900713          	li	a4,73
    55fe:	d8e79ce3          	bne	a5,a4,5396 <_strtod_l+0x106>
    5602:	00007597          	auipc	a1,0x7
    5606:	d4e58593          	addi	a1,a1,-690 # c350 <__clz_tab+0x14c>
    560a:	00e8                	addi	a0,sp,76
    560c:	2bc010ef          	jal	ra,68c8 <__match>
    5610:	d80503e3          	beqz	a0,5396 <_strtod_l+0x106>
    5614:	47b6                	lw	a5,76(sp)
    5616:	00007597          	auipc	a1,0x7
    561a:	d3e58593          	addi	a1,a1,-706 # c354 <__clz_tab+0x150>
    561e:	00e8                	addi	a0,sp,76
    5620:	17fd                	addi	a5,a5,-1
    5622:	c6be                	sw	a5,76(sp)
    5624:	2a4010ef          	jal	ra,68c8 <__match>
    5628:	e501                	bnez	a0,5630 <_strtod_l+0x3a0>
    562a:	47b6                	lw	a5,76(sp)
    562c:	0785                	addi	a5,a5,1
    562e:	c6be                	sw	a5,76(sp)
    5630:	7ff00437          	lui	s0,0x7ff00
    5634:	bb01                	j	5344 <_strtod_l+0xb4>
    5636:	47b6                	lw	a5,76(sp)
    5638:	00178613          	addi	a2,a5,1
    563c:	c6b2                	sw	a2,76(sp)
    563e:	339c                	lbu	a5,1(a5)
    5640:	b7b1                	j	558c <_strtod_l+0x2fc>
    5642:	03c70733          	mul	a4,a4,t3
    5646:	97ba                	add	a5,a5,a4
    5648:	fd078713          	addi	a4,a5,-48
    564c:	bfa9                	j	55a6 <_strtod_l+0x316>
    564e:	c6ea                	sw	s10,76(sp)
    5650:	4981                	li	s3,0
    5652:	b771                	j	55de <_strtod_l+0x34e>
    5654:	06900713          	li	a4,105
    5658:	fae785e3          	beq	a5,a4,5602 <_strtod_l+0x372>
    565c:	06e00713          	li	a4,110
    5660:	d2e79be3          	bne	a5,a4,5396 <_strtod_l+0x106>
    5664:	00007597          	auipc	a1,0x7
    5668:	cf858593          	addi	a1,a1,-776 # c35c <__clz_tab+0x158>
    566c:	00e8                	addi	a0,sp,76
    566e:	25a010ef          	jal	ra,68c8 <__match>
    5672:	d20502e3          	beqz	a0,5396 <_strtod_l+0x106>
    5676:	47b6                	lw	a5,76(sp)
    5678:	2398                	lbu	a4,0(a5)
    567a:	02800793          	li	a5,40
    567e:	02f71363          	bne	a4,a5,56a4 <_strtod_l+0x414>
    5682:	08b0                	addi	a2,sp,88
    5684:	00007597          	auipc	a1,0x7
    5688:	cf058593          	addi	a1,a1,-784 # c374 <fpinan.3431>
    568c:	00e8                	addi	a0,sp,76
    568e:	268010ef          	jal	ra,68f6 <__hexnan>
    5692:	4795                	li	a5,5
    5694:	00f51863          	bne	a0,a5,56a4 <_strtod_l+0x414>
    5698:	45f6                	lw	a1,92(sp)
    569a:	7ff00437          	lui	s0,0x7ff00
    569e:	44e6                	lw	s1,88(sp)
    56a0:	8c4d                	or	s0,s0,a1
    56a2:	b14d                	j	5344 <_strtod_l+0xb4>
    56a4:	fff80437          	lui	s0,0xfff80
    56a8:	b971                	j	5344 <_strtod_l+0xb4>
    56aa:	41698ab3          	sub	s5,s3,s6
    56ae:	000c1363          	bnez	s8,56b4 <_strtod_l+0x424>
    56b2:	8c6e                	mv	s8,s11
    56b4:	47c1                	li	a5,16
    56b6:	8d6e                	mv	s10,s11
    56b8:	01b7d363          	bge	a5,s11,56be <_strtod_l+0x42e>
    56bc:	4d41                	li	s10,16
    56be:	855e                	mv	a0,s7
    56c0:	19c050ef          	jal	ra,a85c <__floatunsidf>
    56c4:	47a5                	li	a5,9
    56c6:	84aa                	mv	s1,a0
    56c8:	842e                	mv	s0,a1
    56ca:	03b7dc63          	bge	a5,s11,5702 <_strtod_l+0x472>
    56ce:	ff7d0793          	addi	a5,s10,-9
    56d2:	00379713          	slli	a4,a5,0x3
    56d6:	00007797          	auipc	a5,0x7
    56da:	d7278793          	addi	a5,a5,-654 # c448 <__mprec_tens>
    56de:	97ba                	add	a5,a5,a4
    56e0:	4390                	lw	a2,0(a5)
    56e2:	43d4                	lw	a3,4(a5)
    56e4:	44c040ef          	jal	ra,9b30 <__muldf3>
    56e8:	842a                	mv	s0,a0
    56ea:	8552                	mv	a0,s4
    56ec:	84ae                	mv	s1,a1
    56ee:	16e050ef          	jal	ra,a85c <__floatunsidf>
    56f2:	862a                	mv	a2,a0
    56f4:	86ae                	mv	a3,a1
    56f6:	8522                	mv	a0,s0
    56f8:	85a6                	mv	a1,s1
    56fa:	584030ef          	jal	ra,8c7e <__adddf3>
    56fe:	84aa                	mv	s1,a0
    5700:	842e                	mv	s0,a1
    5702:	47bd                	li	a5,15
    5704:	09b7cd63          	blt	a5,s11,579e <_strtod_l+0x50e>
    5708:	c20a8ee3          	beqz	s5,5344 <_strtod_l+0xb4>
    570c:	07505463          	blez	s5,5774 <_strtod_l+0x4e4>
    5710:	4759                	li	a4,22
    5712:	03574363          	blt	a4,s5,5738 <_strtod_l+0x4a8>
    5716:	0a8e                	slli	s5,s5,0x3
    5718:	00007797          	auipc	a5,0x7
    571c:	d3078793          	addi	a5,a5,-720 # c448 <__mprec_tens>
    5720:	9abe                	add	s5,s5,a5
    5722:	000aa503          	lw	a0,0(s5) # 10000 <__rt_init_end+0x3750>
    5726:	004aa583          	lw	a1,4(s5)
    572a:	8626                	mv	a2,s1
    572c:	86a2                	mv	a3,s0
    572e:	402040ef          	jal	ra,9b30 <__muldf3>
    5732:	84aa                	mv	s1,a0
    5734:	842e                	mv	s0,a1
    5736:	b139                	j	5344 <_strtod_l+0xb4>
    5738:	02500713          	li	a4,37
    573c:	41b70733          	sub	a4,a4,s11
    5740:	05574f63          	blt	a4,s5,579e <_strtod_l+0x50e>
    5744:	41b78db3          	sub	s11,a5,s11
    5748:	00007917          	auipc	s2,0x7
    574c:	d0090913          	addi	s2,s2,-768 # c448 <__mprec_tens>
    5750:	003d9793          	slli	a5,s11,0x3
    5754:	97ca                	add	a5,a5,s2
    5756:	4388                	lw	a0,0(a5)
    5758:	43cc                	lw	a1,4(a5)
    575a:	41ba8db3          	sub	s11,s5,s11
    575e:	8626                	mv	a2,s1
    5760:	86a2                	mv	a3,s0
    5762:	0d8e                	slli	s11,s11,0x3
    5764:	3cc040ef          	jal	ra,9b30 <__muldf3>
    5768:	9dca                	add	s11,s11,s2
    576a:	000da603          	lw	a2,0(s11)
    576e:	004da683          	lw	a3,4(s11)
    5772:	bf75                	j	572e <_strtod_l+0x49e>
    5774:	57a9                	li	a5,-22
    5776:	02fac463          	blt	s5,a5,579e <_strtod_l+0x50e>
    577a:	413b09b3          	sub	s3,s6,s3
    577e:	00399b13          	slli	s6,s3,0x3
    5782:	00007997          	auipc	s3,0x7
    5786:	cc698993          	addi	s3,s3,-826 # c448 <__mprec_tens>
    578a:	99da                	add	s3,s3,s6
    578c:	0009a603          	lw	a2,0(s3)
    5790:	0049a683          	lw	a3,4(s3)
    5794:	8526                	mv	a0,s1
    5796:	85a2                	mv	a1,s0
    5798:	417030ef          	jal	ra,93ae <__divdf3>
    579c:	bf59                	j	5732 <_strtod_l+0x4a2>
    579e:	41ad8d33          	sub	s10,s11,s10
    57a2:	9d56                	add	s10,s10,s5
    57a4:	11a05763          	blez	s10,58b2 <_strtod_l+0x622>
    57a8:	00fd7793          	andi	a5,s10,15
    57ac:	cf99                	beqz	a5,57ca <_strtod_l+0x53a>
    57ae:	00007717          	auipc	a4,0x7
    57b2:	c9a70713          	addi	a4,a4,-870 # c448 <__mprec_tens>
    57b6:	078e                	slli	a5,a5,0x3
    57b8:	97ba                	add	a5,a5,a4
    57ba:	4388                	lw	a0,0(a5)
    57bc:	43cc                	lw	a1,4(a5)
    57be:	8626                	mv	a2,s1
    57c0:	86a2                	mv	a3,s0
    57c2:	36e040ef          	jal	ra,9b30 <__muldf3>
    57c6:	84aa                	mv	s1,a0
    57c8:	842e                	mv	s0,a1
    57ca:	ff0d7d13          	andi	s10,s10,-16
    57ce:	0a0d0863          	beqz	s10,587e <_strtod_l+0x5ee>
    57d2:	13400793          	li	a5,308
    57d6:	05a7d563          	bge	a5,s10,5820 <_strtod_l+0x590>
    57da:	4b01                	li	s6,0
    57dc:	4981                	li	s3,0
    57de:	c602                	sw	zero,12(sp)
    57e0:	4b81                	li	s7,0
    57e2:	02200793          	li	a5,34
    57e6:	00f92023          	sw	a5,0(s2)
    57ea:	7ff00437          	lui	s0,0x7ff00
    57ee:	4481                	li	s1,0
    57f0:	47b2                	lw	a5,12(sp)
    57f2:	b40789e3          	beqz	a5,5344 <_strtod_l+0xb4>
    57f6:	45c6                	lw	a1,80(sp)
    57f8:	854a                	mv	a0,s2
    57fa:	372010ef          	jal	ra,6b6c <_Bfree>
    57fe:	85de                	mv	a1,s7
    5800:	854a                	mv	a0,s2
    5802:	36a010ef          	jal	ra,6b6c <_Bfree>
    5806:	85ce                	mv	a1,s3
    5808:	854a                	mv	a0,s2
    580a:	362010ef          	jal	ra,6b6c <_Bfree>
    580e:	45b2                	lw	a1,12(sp)
    5810:	854a                	mv	a0,s2
    5812:	35a010ef          	jal	ra,6b6c <_Bfree>
    5816:	85da                	mv	a1,s6
    5818:	854a                	mv	a0,s2
    581a:	352010ef          	jal	ra,6b6c <_Bfree>
    581e:	b61d                	j	5344 <_strtod_l+0xb4>
    5820:	404d5d13          	srai	s10,s10,0x4
    5824:	8526                	mv	a0,s1
    5826:	85a2                	mv	a1,s0
    5828:	4781                	li	a5,0
    582a:	4a01                	li	s4,0
    582c:	4805                	li	a6,1
    582e:	00007897          	auipc	a7,0x7
    5832:	bf288893          	addi	a7,a7,-1038 # c420 <__mprec_bigtens>
    5836:	05a84663          	blt	a6,s10,5882 <_strtod_l+0x5f2>
    583a:	c399                	beqz	a5,5840 <_strtod_l+0x5b0>
    583c:	84aa                	mv	s1,a0
    583e:	842e                	mv	s0,a1
    5840:	00007717          	auipc	a4,0x7
    5844:	be070713          	addi	a4,a4,-1056 # c420 <__mprec_bigtens>
    5848:	003a1793          	slli	a5,s4,0x3
    584c:	97ba                	add	a5,a5,a4
    584e:	4388                	lw	a0,0(a5)
    5850:	43cc                	lw	a1,4(a5)
    5852:	fcb00737          	lui	a4,0xfcb00
    5856:	9722                	add	a4,a4,s0
    5858:	8626                	mv	a2,s1
    585a:	86ba                	mv	a3,a4
    585c:	2d4040ef          	jal	ra,9b30 <__muldf3>
    5860:	7ff00437          	lui	s0,0x7ff00
    5864:	00b477b3          	and	a5,s0,a1
    5868:	7ca00737          	lui	a4,0x7ca00
    586c:	84aa                	mv	s1,a0
    586e:	f6f766e3          	bltu	a4,a5,57da <_strtod_l+0x54a>
    5872:	7c900737          	lui	a4,0x7c900
    5876:	02f77a63          	bgeu	a4,a5,58aa <_strtod_l+0x61a>
    587a:	147d                	addi	s0,s0,-1
    587c:	54fd                	li	s1,-1
    587e:	4a01                	li	s4,0
    5880:	a8dd                	j	5976 <_strtod_l+0x6e6>
    5882:	001d7713          	andi	a4,s10,1
    5886:	cf11                	beqz	a4,58a2 <_strtod_l+0x612>
    5888:	003a1713          	slli	a4,s4,0x3
    588c:	9746                	add	a4,a4,a7
    588e:	4310                	lw	a2,0(a4)
    5890:	4354                	lw	a3,4(a4)
    5892:	29e040ef          	jal	ra,9b30 <__muldf3>
    5896:	4785                	li	a5,1
    5898:	4805                	li	a6,1
    589a:	00007897          	auipc	a7,0x7
    589e:	b8688893          	addi	a7,a7,-1146 # c420 <__mprec_bigtens>
    58a2:	0a05                	addi	s4,s4,1
    58a4:	401d5d13          	srai	s10,s10,0x1
    58a8:	b779                	j	5836 <_strtod_l+0x5a6>
    58aa:	03500437          	lui	s0,0x3500
    58ae:	942e                	add	s0,s0,a1
    58b0:	b7f9                	j	587e <_strtod_l+0x5ee>
    58b2:	fc0d06e3          	beqz	s10,587e <_strtod_l+0x5ee>
    58b6:	41a00d33          	neg	s10,s10
    58ba:	00fd7793          	andi	a5,s10,15
    58be:	cf99                	beqz	a5,58dc <_strtod_l+0x64c>
    58c0:	00007717          	auipc	a4,0x7
    58c4:	b8870713          	addi	a4,a4,-1144 # c448 <__mprec_tens>
    58c8:	078e                	slli	a5,a5,0x3
    58ca:	97ba                	add	a5,a5,a4
    58cc:	4390                	lw	a2,0(a5)
    58ce:	43d4                	lw	a3,4(a5)
    58d0:	8526                	mv	a0,s1
    58d2:	85a2                	mv	a1,s0
    58d4:	2db030ef          	jal	ra,93ae <__divdf3>
    58d8:	84aa                	mv	s1,a0
    58da:	842e                	mv	s0,a1
    58dc:	404d5d13          	srai	s10,s10,0x4
    58e0:	f80d0fe3          	beqz	s10,587e <_strtod_l+0x5ee>
    58e4:	47fd                	li	a5,31
    58e6:	01a7dd63          	bge	a5,s10,5900 <_strtod_l+0x670>
    58ea:	4b01                	li	s6,0
    58ec:	4981                	li	s3,0
    58ee:	c602                	sw	zero,12(sp)
    58f0:	4b81                	li	s7,0
    58f2:	02200793          	li	a5,34
    58f6:	4481                	li	s1,0
    58f8:	4401                	li	s0,0
    58fa:	00f92023          	sw	a5,0(s2)
    58fe:	bdcd                	j	57f0 <_strtod_l+0x560>
    5900:	010d7a13          	andi	s4,s10,16
    5904:	000a0463          	beqz	s4,590c <_strtod_l+0x67c>
    5908:	06a00a13          	li	s4,106
    590c:	8526                	mv	a0,s1
    590e:	85a2                	mv	a1,s0
    5910:	00007797          	auipc	a5,0x7
    5914:	a7878793          	addi	a5,a5,-1416 # c388 <tinytens>
    5918:	4701                	li	a4,0
    591a:	001d7693          	andi	a3,s10,1
    591e:	ca81                	beqz	a3,592e <_strtod_l+0x69e>
    5920:	4390                	lw	a2,0(a5)
    5922:	43d4                	lw	a3,4(a5)
    5924:	c63e                	sw	a5,12(sp)
    5926:	20a040ef          	jal	ra,9b30 <__muldf3>
    592a:	47b2                	lw	a5,12(sp)
    592c:	4705                	li	a4,1
    592e:	401d5d13          	srai	s10,s10,0x1
    5932:	07a1                	addi	a5,a5,8
    5934:	fe0d13e3          	bnez	s10,591a <_strtod_l+0x68a>
    5938:	c319                	beqz	a4,593e <_strtod_l+0x6ae>
    593a:	84aa                	mv	s1,a0
    593c:	842e                	mv	s0,a1
    593e:	020a0563          	beqz	s4,5968 <_strtod_l+0x6d8>
    5942:	01445793          	srli	a5,s0,0x14
    5946:	7ff7f713          	andi	a4,a5,2047
    594a:	06b00793          	li	a5,107
    594e:	8f99                	sub	a5,a5,a4
    5950:	00f05c63          	blez	a5,5968 <_strtod_l+0x6d8>
    5954:	477d                	li	a4,31
    5956:	22f75463          	bge	a4,a5,5b7e <_strtod_l+0x8ee>
    595a:	03400713          	li	a4,52
    595e:	4481                	li	s1,0
    5960:	20f75963          	bge	a4,a5,5b72 <_strtod_l+0x8e2>
    5964:	03700437          	lui	s0,0x3700
    5968:	4601                	li	a2,0
    596a:	4681                	li	a3,0
    596c:	8526                	mv	a0,s1
    596e:	85a2                	mv	a1,s0
    5970:	7f3030ef          	jal	ra,9962 <__eqdf2>
    5974:	d93d                	beqz	a0,58ea <_strtod_l+0x65a>
    5976:	875e                	mv	a4,s7
    5978:	86ee                	mv	a3,s11
    597a:	8662                	mv	a2,s8
    597c:	85e6                	mv	a1,s9
    597e:	854a                	mv	a0,s2
    5980:	2c8010ef          	jal	ra,6c48 <__s2b>
    5984:	c62a                	sw	a0,12(sp)
    5986:	e4050ae3          	beqz	a0,57da <_strtod_l+0x54a>
    598a:	41fad793          	srai	a5,s5,0x1f
    598e:	413b09b3          	sub	s3,s6,s3
    5992:	00f9f7b3          	and	a5,s3,a5
    5996:	d03e                	sw	a5,32(sp)
    5998:	ce56                	sw	s5,28(sp)
    599a:	000ad363          	bgez	s5,59a0 <_strtod_l+0x710>
    599e:	ce02                	sw	zero,28(sp)
    59a0:	47b2                	lw	a5,12(sp)
    59a2:	4b01                	li	s6,0
    59a4:	4981                	li	s3,0
    59a6:	07b1                	addi	a5,a5,12
    59a8:	d83e                	sw	a5,48(sp)
    59aa:	001007b7          	lui	a5,0x100
    59ae:	17fd                	addi	a5,a5,-1
    59b0:	d63e                	sw	a5,44(sp)
    59b2:	47b2                	lw	a5,12(sp)
    59b4:	854a                	mv	a0,s2
    59b6:	43cc                	lw	a1,4(a5)
    59b8:	128010ef          	jal	ra,6ae0 <_Balloc>
    59bc:	8baa                	mv	s7,a0
    59be:	e20502e3          	beqz	a0,57e2 <_strtod_l+0x552>
    59c2:	47b2                	lw	a5,12(sp)
    59c4:	55c2                	lw	a1,48(sp)
    59c6:	0531                	addi	a0,a0,12
    59c8:	4b90                	lw	a2,16(a5)
    59ca:	0609                	addi	a2,a2,2
    59cc:	060a                	slli	a2,a2,0x2
    59ce:	dc2ff0ef          	jal	ra,4f90 <memcpy>
    59d2:	08b8                	addi	a4,sp,88
    59d4:	08d4                	addi	a3,sp,84
    59d6:	8622                	mv	a2,s0
    59d8:	85a6                	mv	a1,s1
    59da:	854a                	mv	a0,s2
    59dc:	ca26                	sw	s1,20(sp)
    59de:	cc22                	sw	s0,24(sp)
    59e0:	0c7010ef          	jal	ra,72a6 <__d2b>
    59e4:	c8aa                	sw	a0,80(sp)
    59e6:	de050ee3          	beqz	a0,57e2 <_strtod_l+0x552>
    59ea:	4585                	li	a1,1
    59ec:	854a                	mv	a0,s2
    59ee:	3ae010ef          	jal	ra,6d9c <__i2b>
    59f2:	89aa                	mv	s3,a0
    59f4:	de0507e3          	beqz	a0,57e2 <_strtod_l+0x552>
    59f8:	47d6                	lw	a5,84(sp)
    59fa:	1807c763          	bltz	a5,5b88 <_strtod_l+0x8f8>
    59fe:	5702                	lw	a4,32(sp)
    5a00:	4c72                	lw	s8,28(sp)
    5a02:	00e78d33          	add	s10,a5,a4
    5a06:	4766                	lw	a4,88(sp)
    5a08:	414787b3          	sub	a5,a5,s4
    5a0c:	03600693          	li	a3,54
    5a10:	97ba                	add	a5,a5,a4
    5a12:	17fd                	addi	a5,a5,-1
    5a14:	c0200d93          	li	s11,-1022
    5a18:	8e99                	sub	a3,a3,a4
    5a1a:	19b7d663          	bge	a5,s11,5ba6 <_strtod_l+0x916>
    5a1e:	40fd8733          	sub	a4,s11,a5
    5a22:	467d                	li	a2,31
    5a24:	8e99                	sub	a3,a3,a4
    5a26:	16e64663          	blt	a2,a4,5b92 <_strtod_l+0x902>
    5a2a:	4d85                	li	s11,1
    5a2c:	00ed97b3          	sll	a5,s11,a4
    5a30:	d23e                	sw	a5,36(sp)
    5a32:	4c81                	li	s9,0
    5a34:	9c36                	add	s8,s8,a3
    5a36:	00dd0db3          	add	s11,s10,a3
    5a3a:	9c52                	add	s8,s8,s4
    5a3c:	87ea                	mv	a5,s10
    5a3e:	01add363          	bge	s11,s10,5a44 <_strtod_l+0x7b4>
    5a42:	87ee                	mv	a5,s11
    5a44:	00fc5363          	bge	s8,a5,5a4a <_strtod_l+0x7ba>
    5a48:	87e2                	mv	a5,s8
    5a4a:	00f05863          	blez	a5,5a5a <_strtod_l+0x7ca>
    5a4e:	40fd8db3          	sub	s11,s11,a5
    5a52:	40fc0c33          	sub	s8,s8,a5
    5a56:	40fd0d33          	sub	s10,s10,a5
    5a5a:	5782                	lw	a5,32(sp)
    5a5c:	02f05863          	blez	a5,5a8c <_strtod_l+0x7fc>
    5a60:	85ce                	mv	a1,s3
    5a62:	863e                	mv	a2,a5
    5a64:	854a                	mv	a0,s2
    5a66:	496010ef          	jal	ra,6efc <__pow5mult>
    5a6a:	89aa                	mv	s3,a0
    5a6c:	d6050be3          	beqz	a0,57e2 <_strtod_l+0x552>
    5a70:	4646                	lw	a2,80(sp)
    5a72:	85aa                	mv	a1,a0
    5a74:	854a                	mv	a0,s2
    5a76:	342010ef          	jal	ra,6db8 <__multiply>
    5a7a:	da2a                	sw	a0,52(sp)
    5a7c:	d60503e3          	beqz	a0,57e2 <_strtod_l+0x552>
    5a80:	45c6                	lw	a1,80(sp)
    5a82:	854a                	mv	a0,s2
    5a84:	0e8010ef          	jal	ra,6b6c <_Bfree>
    5a88:	57d2                	lw	a5,52(sp)
    5a8a:	c8be                	sw	a5,80(sp)
    5a8c:	11b04f63          	bgtz	s11,5baa <_strtod_l+0x91a>
    5a90:	01505a63          	blez	s5,5aa4 <_strtod_l+0x814>
    5a94:	4672                	lw	a2,28(sp)
    5a96:	85de                	mv	a1,s7
    5a98:	854a                	mv	a0,s2
    5a9a:	462010ef          	jal	ra,6efc <__pow5mult>
    5a9e:	8baa                	mv	s7,a0
    5aa0:	d40501e3          	beqz	a0,57e2 <_strtod_l+0x552>
    5aa4:	01805a63          	blez	s8,5ab8 <_strtod_l+0x828>
    5aa8:	85de                	mv	a1,s7
    5aaa:	8662                	mv	a2,s8
    5aac:	854a                	mv	a0,s2
    5aae:	50c010ef          	jal	ra,6fba <__lshift>
    5ab2:	8baa                	mv	s7,a0
    5ab4:	d20507e3          	beqz	a0,57e2 <_strtod_l+0x552>
    5ab8:	01a05a63          	blez	s10,5acc <_strtod_l+0x83c>
    5abc:	85ce                	mv	a1,s3
    5abe:	866a                	mv	a2,s10
    5ac0:	854a                	mv	a0,s2
    5ac2:	4f8010ef          	jal	ra,6fba <__lshift>
    5ac6:	89aa                	mv	s3,a0
    5ac8:	d0050de3          	beqz	a0,57e2 <_strtod_l+0x552>
    5acc:	45c6                	lw	a1,80(sp)
    5ace:	865e                	mv	a2,s7
    5ad0:	854a                	mv	a0,s2
    5ad2:	5e8010ef          	jal	ra,70ba <__mdiff>
    5ad6:	8b2a                	mv	s6,a0
    5ad8:	d00505e3          	beqz	a0,57e2 <_strtod_l+0x552>
    5adc:	00c52c03          	lw	s8,12(a0)
    5ae0:	85ce                	mv	a1,s3
    5ae2:	00052623          	sw	zero,12(a0)
    5ae6:	5a2010ef          	jal	ra,7088 <__mcmp>
    5aea:	0c055963          	bgez	a0,5bbc <_strtod_l+0x92c>
    5aee:	009c6c33          	or	s8,s8,s1
    5af2:	120c1163          	bnez	s8,5c14 <_strtod_l+0x984>
    5af6:	00c41793          	slli	a5,s0,0xc
    5afa:	10079d63          	bnez	a5,5c14 <_strtod_l+0x984>
    5afe:	7ff007b7          	lui	a5,0x7ff00
    5b02:	8fe1                	and	a5,a5,s0
    5b04:	06b00737          	lui	a4,0x6b00
    5b08:	10f77663          	bgeu	a4,a5,5c14 <_strtod_l+0x984>
    5b0c:	014b2783          	lw	a5,20(s6)
    5b10:	e791                	bnez	a5,5b1c <_strtod_l+0x88c>
    5b12:	010b2703          	lw	a4,16(s6)
    5b16:	4785                	li	a5,1
    5b18:	0ee7de63          	bge	a5,a4,5c14 <_strtod_l+0x984>
    5b1c:	85da                	mv	a1,s6
    5b1e:	4605                	li	a2,1
    5b20:	854a                	mv	a0,s2
    5b22:	498010ef          	jal	ra,6fba <__lshift>
    5b26:	85ce                	mv	a1,s3
    5b28:	8b2a                	mv	s6,a0
    5b2a:	55e010ef          	jal	ra,7088 <__mcmp>
    5b2e:	0ea05363          	blez	a0,5c14 <_strtod_l+0x984>
    5b32:	100a0c63          	beqz	s4,5c4a <_strtod_l+0x9ba>
    5b36:	7ff007b7          	lui	a5,0x7ff00
    5b3a:	8fe1                	and	a5,a5,s0
    5b3c:	06b00737          	lui	a4,0x6b00
    5b40:	10f74563          	blt	a4,a5,5c4a <_strtod_l+0x9ba>
    5b44:	03700737          	lui	a4,0x3700
    5b48:	daf755e3          	bge	a4,a5,58f2 <_strtod_l+0x662>
    5b4c:	4701                	li	a4,0
    5b4e:	395007b7          	lui	a5,0x39500
    5b52:	8526                	mv	a0,s1
    5b54:	85a2                	mv	a1,s0
    5b56:	863a                	mv	a2,a4
    5b58:	86be                	mv	a3,a5
    5b5a:	7d7030ef          	jal	ra,9b30 <__muldf3>
    5b5e:	842e                	mv	s0,a1
    5b60:	8dc9                	or	a1,a1,a0
    5b62:	84aa                	mv	s1,a0
    5b64:	c80599e3          	bnez	a1,57f6 <_strtod_l+0x566>
    5b68:	02200793          	li	a5,34
    5b6c:	00f92023          	sw	a5,0(s2)
    5b70:	b159                	j	57f6 <_strtod_l+0x566>
    5b72:	1781                	addi	a5,a5,-32
    5b74:	577d                	li	a4,-1
    5b76:	00f717b3          	sll	a5,a4,a5
    5b7a:	8c7d                	and	s0,s0,a5
    5b7c:	b3f5                	j	5968 <_strtod_l+0x6d8>
    5b7e:	577d                	li	a4,-1
    5b80:	00f717b3          	sll	a5,a4,a5
    5b84:	8cfd                	and	s1,s1,a5
    5b86:	b3cd                	j	5968 <_strtod_l+0x6d8>
    5b88:	4772                	lw	a4,28(sp)
    5b8a:	5d02                	lw	s10,32(sp)
    5b8c:	40f70c33          	sub	s8,a4,a5
    5b90:	bd9d                	j	5a06 <_strtod_l+0x776>
    5b92:	be200c93          	li	s9,-1054
    5b96:	40fc87b3          	sub	a5,s9,a5
    5b9a:	4c85                	li	s9,1
    5b9c:	00fc9cb3          	sll	s9,s9,a5
    5ba0:	4785                	li	a5,1
    5ba2:	d23e                	sw	a5,36(sp)
    5ba4:	bd41                	j	5a34 <_strtod_l+0x7a4>
    5ba6:	4c81                	li	s9,0
    5ba8:	bfe5                	j	5ba0 <_strtod_l+0x910>
    5baa:	45c6                	lw	a1,80(sp)
    5bac:	866e                	mv	a2,s11
    5bae:	854a                	mv	a0,s2
    5bb0:	40a010ef          	jal	ra,6fba <__lshift>
    5bb4:	c8aa                	sw	a0,80(sp)
    5bb6:	ec051de3          	bnez	a0,5a90 <_strtod_l+0x800>
    5bba:	b125                	j	57e2 <_strtod_l+0x552>
    5bbc:	e969                	bnez	a0,5c8e <_strtod_l+0x9fe>
    5bbe:	00100737          	lui	a4,0x100
    5bc2:	177d                	addi	a4,a4,-1
    5bc4:	00e477b3          	and	a5,s0,a4
    5bc8:	040c0963          	beqz	s8,5c1a <_strtod_l+0x98a>
    5bcc:	04e79963          	bne	a5,a4,5c1e <_strtod_l+0x98e>
    5bd0:	577d                	li	a4,-1
    5bd2:	020a0063          	beqz	s4,5bf2 <_strtod_l+0x962>
    5bd6:	7ff007b7          	lui	a5,0x7ff00
    5bda:	8fe1                	and	a5,a5,s0
    5bdc:	06a006b7          	lui	a3,0x6a00
    5be0:	00f6e963          	bltu	a3,a5,5bf2 <_strtod_l+0x962>
    5be4:	83d1                	srli	a5,a5,0x14
    5be6:	06b00693          	li	a3,107
    5bea:	40f687b3          	sub	a5,a3,a5
    5bee:	00f71733          	sll	a4,a4,a5
    5bf2:	02e49663          	bne	s1,a4,5c1e <_strtod_l+0x98e>
    5bf6:	7ff007b7          	lui	a5,0x7ff00
    5bfa:	17fd                	addi	a5,a5,-1
    5bfc:	00f41563          	bne	s0,a5,5c06 <_strtod_l+0x976>
    5c00:	57fd                	li	a5,-1
    5c02:	bef480e3          	beq	s1,a5,57e2 <_strtod_l+0x552>
    5c06:	7ff005b7          	lui	a1,0x7ff00
    5c0a:	8de1                	and	a1,a1,s0
    5c0c:	00100437          	lui	s0,0x100
    5c10:	942e                	add	s0,s0,a1
    5c12:	4481                	li	s1,0
    5c14:	f20a1ce3          	bnez	s4,5b4c <_strtod_l+0x8bc>
    5c18:	bef9                	j	57f6 <_strtod_l+0x566>
    5c1a:	8fc5                	or	a5,a5,s1
    5c1c:	db99                	beqz	a5,5b32 <_strtod_l+0x8a2>
    5c1e:	040c8263          	beqz	s9,5c62 <_strtod_l+0x9d2>
    5c22:	008cfcb3          	and	s9,s9,s0
    5c26:	fe0c87e3          	beqz	s9,5c14 <_strtod_l+0x984>
    5c2a:	8652                	mv	a2,s4
    5c2c:	8526                	mv	a0,s1
    5c2e:	85a2                	mv	a1,s0
    5c30:	020c0f63          	beqz	s8,5c6e <_strtod_l+0x9de>
    5c34:	e0eff0ef          	jal	ra,5242 <sulp>
    5c38:	862a                	mv	a2,a0
    5c3a:	86ae                	mv	a3,a1
    5c3c:	4552                	lw	a0,20(sp)
    5c3e:	45e2                	lw	a1,24(sp)
    5c40:	03e030ef          	jal	ra,8c7e <__adddf3>
    5c44:	84aa                	mv	s1,a0
    5c46:	842e                	mv	s0,a1
    5c48:	b7f1                	j	5c14 <_strtod_l+0x984>
    5c4a:	7ff005b7          	lui	a1,0x7ff00
    5c4e:	8de1                	and	a1,a1,s0
    5c50:	fff00437          	lui	s0,0xfff00
    5c54:	95a2                	add	a1,a1,s0
    5c56:	00100437          	lui	s0,0x100
    5c5a:	147d                	addi	s0,s0,-1
    5c5c:	8c4d                	or	s0,s0,a1
    5c5e:	54fd                	li	s1,-1
    5c60:	bf55                	j	5c14 <_strtod_l+0x984>
    5c62:	5792                	lw	a5,36(sp)
    5c64:	0097fdb3          	and	s11,a5,s1
    5c68:	fa0d86e3          	beqz	s11,5c14 <_strtod_l+0x984>
    5c6c:	bf7d                	j	5c2a <_strtod_l+0x99a>
    5c6e:	dd4ff0ef          	jal	ra,5242 <sulp>
    5c72:	862a                	mv	a2,a0
    5c74:	86ae                	mv	a3,a1
    5c76:	4552                	lw	a0,20(sp)
    5c78:	45e2                	lw	a1,24(sp)
    5c7a:	36e040ef          	jal	ra,9fe8 <__subdf3>
    5c7e:	4601                	li	a2,0
    5c80:	4681                	li	a3,0
    5c82:	84aa                	mv	s1,a0
    5c84:	842e                	mv	s0,a1
    5c86:	4dd030ef          	jal	ra,9962 <__eqdf2>
    5c8a:	f549                	bnez	a0,5c14 <_strtod_l+0x984>
    5c8c:	b19d                	j	58f2 <_strtod_l+0x662>
    5c8e:	85ce                	mv	a1,s3
    5c90:	855a                	mv	a0,s6
    5c92:	6e8010ef          	jal	ra,737a <__ratio>
    5c96:	00006797          	auipc	a5,0x6
    5c9a:	69278793          	addi	a5,a5,1682 # c328 <__clz_tab+0x124>
    5c9e:	4390                	lw	a2,0(a5)
    5ca0:	43d4                	lw	a3,4(a5)
    5ca2:	8d2a                	mv	s10,a0
    5ca4:	8dae                	mv	s11,a1
    5ca6:	5d5030ef          	jal	ra,9a7a <__ledf2>
    5caa:	10a04263          	bgtz	a0,5dae <_strtod_l+0xb1e>
    5cae:	0a0c0163          	beqz	s8,5d50 <_strtod_l+0xac0>
    5cb2:	4d81                	li	s11,0
    5cb4:	3ff00d37          	lui	s10,0x3ff00
    5cb8:	4701                	li	a4,0
    5cba:	3ff007b7          	lui	a5,0x3ff00
    5cbe:	7ff006b7          	lui	a3,0x7ff00
    5cc2:	00d47cb3          	and	s9,s0,a3
    5cc6:	7fe006b7          	lui	a3,0x7fe00
    5cca:	16dc9f63          	bne	s9,a3,5e48 <_strtod_l+0xbb8>
    5cce:	d26a                	sw	s10,36(sp)
    5cd0:	fcb00d37          	lui	s10,0xfcb00
    5cd4:	9d22                	add	s10,s10,s0
    5cd6:	8526                	mv	a0,s1
    5cd8:	85ea                	mv	a1,s10
    5cda:	de3e                	sw	a5,60(sp)
    5cdc:	dc3a                	sw	a4,56(sp)
    5cde:	da6e                	sw	s11,52(sp)
    5ce0:	4cc010ef          	jal	ra,71ac <__ulp>
    5ce4:	58d2                	lw	a7,52(sp)
    5ce6:	5812                	lw	a6,36(sp)
    5ce8:	862a                	mv	a2,a0
    5cea:	86ae                	mv	a3,a1
    5cec:	8546                	mv	a0,a7
    5cee:	85c2                	mv	a1,a6
    5cf0:	641030ef          	jal	ra,9b30 <__muldf3>
    5cf4:	8626                	mv	a2,s1
    5cf6:	86ea                	mv	a3,s10
    5cf8:	787020ef          	jal	ra,8c7e <__adddf3>
    5cfc:	84aa                	mv	s1,a0
    5cfe:	7ff00537          	lui	a0,0x7ff00
    5d02:	00b57633          	and	a2,a0,a1
    5d06:	7ca006b7          	lui	a3,0x7ca00
    5d0a:	5762                	lw	a4,56(sp)
    5d0c:	57f2                	lw	a5,60(sp)
    5d0e:	0cd66563          	bltu	a2,a3,5dd8 <_strtod_l+0xb48>
    5d12:	4762                	lw	a4,24(sp)
    5d14:	fff50793          	addi	a5,a0,-1 # 7fefffff <_eusrstack+0x5feeffff>
    5d18:	00e79663          	bne	a5,a4,5d24 <_strtod_l+0xa94>
    5d1c:	4752                	lw	a4,20(sp)
    5d1e:	57fd                	li	a5,-1
    5d20:	ace781e3          	beq	a5,a4,57e2 <_strtod_l+0x552>
    5d24:	7ff007b7          	lui	a5,0x7ff00
    5d28:	fff78413          	addi	s0,a5,-1 # 7fefffff <_eusrstack+0x5feeffff>
    5d2c:	54fd                	li	s1,-1
    5d2e:	45c6                	lw	a1,80(sp)
    5d30:	854a                	mv	a0,s2
    5d32:	63b000ef          	jal	ra,6b6c <_Bfree>
    5d36:	85de                	mv	a1,s7
    5d38:	854a                	mv	a0,s2
    5d3a:	633000ef          	jal	ra,6b6c <_Bfree>
    5d3e:	85ce                	mv	a1,s3
    5d40:	854a                	mv	a0,s2
    5d42:	62b000ef          	jal	ra,6b6c <_Bfree>
    5d46:	85da                	mv	a1,s6
    5d48:	854a                	mv	a0,s2
    5d4a:	623000ef          	jal	ra,6b6c <_Bfree>
    5d4e:	b195                	j	59b2 <_strtod_l+0x722>
    5d50:	e0b1                	bnez	s1,5d94 <_strtod_l+0xb04>
    5d52:	57b2                	lw	a5,44(sp)
    5d54:	8fe1                	and	a5,a5,s0
    5d56:	e7a1                	bnez	a5,5d9e <_strtod_l+0xb0e>
    5d58:	00006797          	auipc	a5,0x6
    5d5c:	5c878793          	addi	a5,a5,1480 # c320 <__clz_tab+0x11c>
    5d60:	4390                	lw	a2,0(a5)
    5d62:	43d4                	lw	a3,4(a5)
    5d64:	856a                	mv	a0,s10
    5d66:	85ee                	mv	a1,s11
    5d68:	513030ef          	jal	ra,9a7a <__ledf2>
    5d6c:	02054d63          	bltz	a0,5da6 <_strtod_l+0xb16>
    5d70:	00006797          	auipc	a5,0x6
    5d74:	5a878793          	addi	a5,a5,1448 # c318 <__clz_tab+0x114>
    5d78:	4390                	lw	a2,0(a5)
    5d7a:	43d4                	lw	a3,4(a5)
    5d7c:	856a                	mv	a0,s10
    5d7e:	85ee                	mv	a1,s11
    5d80:	5b1030ef          	jal	ra,9b30 <__muldf3>
    5d84:	872a                	mv	a4,a0
    5d86:	87ae                	mv	a5,a1
    5d88:	80000d37          	lui	s10,0x80000
    5d8c:	8dba                	mv	s11,a4
    5d8e:	00fd4d33          	xor	s10,s10,a5
    5d92:	b735                	j	5cbe <_strtod_l+0xa2e>
    5d94:	4785                	li	a5,1
    5d96:	00f49463          	bne	s1,a5,5d9e <_strtod_l+0xb0e>
    5d9a:	b4040ce3          	beqz	s0,58f2 <_strtod_l+0x662>
    5d9e:	4d81                	li	s11,0
    5da0:	bff00d37          	lui	s10,0xbff00
    5da4:	bf11                	j	5cb8 <_strtod_l+0xa28>
    5da6:	4701                	li	a4,0
    5da8:	3fe007b7          	lui	a5,0x3fe00
    5dac:	bff1                	j	5d88 <_strtod_l+0xaf8>
    5dae:	00006797          	auipc	a5,0x6
    5db2:	56a78793          	addi	a5,a5,1386 # c318 <__clz_tab+0x114>
    5db6:	4390                	lw	a2,0(a5)
    5db8:	43d4                	lw	a3,4(a5)
    5dba:	856a                	mv	a0,s10
    5dbc:	85ee                	mv	a1,s11
    5dbe:	573030ef          	jal	ra,9b30 <__muldf3>
    5dc2:	872a                	mv	a4,a0
    5dc4:	87ae                	mv	a5,a1
    5dc6:	8d2e                	mv	s10,a1
    5dc8:	000c1663          	bnez	s8,5dd4 <_strtod_l+0xb44>
    5dcc:	80000d37          	lui	s10,0x80000
    5dd0:	00bd4d33          	xor	s10,s10,a1
    5dd4:	8daa                	mv	s11,a0
    5dd6:	b5e5                	j	5cbe <_strtod_l+0xa2e>
    5dd8:	03500437          	lui	s0,0x3500
    5ddc:	942e                	add	s0,s0,a1
    5dde:	f40a18e3          	bnez	s4,5d2e <_strtod_l+0xa9e>
    5de2:	7ff006b7          	lui	a3,0x7ff00
    5de6:	8ee1                	and	a3,a3,s0
    5de8:	f4dc93e3          	bne	s9,a3,5d2e <_strtod_l+0xa9e>
    5dec:	85be                	mv	a1,a5
    5dee:	853a                	mv	a0,a4
    5df0:	8d3a                	mv	s10,a4
    5df2:	8cbe                	mv	s9,a5
    5df4:	133040ef          	jal	ra,a726 <__fixdfsi>
    5df8:	1f3040ef          	jal	ra,a7ea <__floatsidf>
    5dfc:	862a                	mv	a2,a0
    5dfe:	86ae                	mv	a3,a1
    5e00:	856a                	mv	a0,s10
    5e02:	85e6                	mv	a1,s9
    5e04:	1e4040ef          	jal	ra,9fe8 <__subdf3>
    5e08:	57b2                	lw	a5,44(sp)
    5e0a:	8d2a                	mv	s10,a0
    5e0c:	8dae                	mv	s11,a1
    5e0e:	8fe1                	and	a5,a5,s0
    5e10:	8fc5                	or	a5,a5,s1
    5e12:	0187ec33          	or	s8,a5,s8
    5e16:	0a0c0b63          	beqz	s8,5ecc <_strtod_l+0xc3c>
    5e1a:	00006797          	auipc	a5,0x6
    5e1e:	51e78793          	addi	a5,a5,1310 # c338 <__clz_tab+0x134>
    5e22:	4390                	lw	a2,0(a5)
    5e24:	43d4                	lw	a3,4(a5)
    5e26:	455030ef          	jal	ra,9a7a <__ledf2>
    5e2a:	9c0546e3          	bltz	a0,57f6 <_strtod_l+0x566>
    5e2e:	00006797          	auipc	a5,0x6
    5e32:	51278793          	addi	a5,a5,1298 # c340 <__clz_tab+0x13c>
    5e36:	4390                	lw	a2,0(a5)
    5e38:	43d4                	lw	a3,4(a5)
    5e3a:	856a                	mv	a0,s10
    5e3c:	85ee                	mv	a1,s11
    5e3e:	38f030ef          	jal	ra,99cc <__gedf2>
    5e42:	eea056e3          	blez	a0,5d2e <_strtod_l+0xa9e>
    5e46:	ba45                	j	57f6 <_strtod_l+0x566>
    5e48:	040a0d63          	beqz	s4,5ea2 <_strtod_l+0xc12>
    5e4c:	06a006b7          	lui	a3,0x6a00
    5e50:	0596e963          	bltu	a3,s9,5ea2 <_strtod_l+0xc12>
    5e54:	00006697          	auipc	a3,0x6
    5e58:	4dc68693          	addi	a3,a3,1244 # c330 <__clz_tab+0x12c>
    5e5c:	4290                	lw	a2,0(a3)
    5e5e:	42d4                	lw	a3,4(a3)
    5e60:	853a                	mv	a0,a4
    5e62:	85be                	mv	a1,a5
    5e64:	da3a                	sw	a4,52(sp)
    5e66:	d23e                	sw	a5,36(sp)
    5e68:	413030ef          	jal	ra,9a7a <__ledf2>
    5e6c:	5792                	lw	a5,36(sp)
    5e6e:	5752                	lw	a4,52(sp)
    5e70:	02a04463          	bgtz	a0,5e98 <_strtod_l+0xc08>
    5e74:	853a                	mv	a0,a4
    5e76:	85be                	mv	a1,a5
    5e78:	117040ef          	jal	ra,a78e <__fixunsdfsi>
    5e7c:	e111                	bnez	a0,5e80 <_strtod_l+0xbf0>
    5e7e:	4505                	li	a0,1
    5e80:	1dd040ef          	jal	ra,a85c <__floatunsidf>
    5e84:	872a                	mv	a4,a0
    5e86:	87ae                	mv	a5,a1
    5e88:	8d2e                	mv	s10,a1
    5e8a:	000c1663          	bnez	s8,5e96 <_strtod_l+0xc06>
    5e8e:	80000d37          	lui	s10,0x80000
    5e92:	00bd4d33          	xor	s10,s10,a1
    5e96:	8daa                	mv	s11,a0
    5e98:	06b005b7          	lui	a1,0x6b00
    5e9c:	9d2e                	add	s10,s10,a1
    5e9e:	419d0d33          	sub	s10,s10,s9
    5ea2:	4552                	lw	a0,20(sp)
    5ea4:	45e2                	lw	a1,24(sp)
    5ea6:	da3e                	sw	a5,52(sp)
    5ea8:	d23a                	sw	a4,36(sp)
    5eaa:	302010ef          	jal	ra,71ac <__ulp>
    5eae:	862a                	mv	a2,a0
    5eb0:	86ae                	mv	a3,a1
    5eb2:	856e                	mv	a0,s11
    5eb4:	85ea                	mv	a1,s10
    5eb6:	47b030ef          	jal	ra,9b30 <__muldf3>
    5eba:	4652                	lw	a2,20(sp)
    5ebc:	46e2                	lw	a3,24(sp)
    5ebe:	5c1020ef          	jal	ra,8c7e <__adddf3>
    5ec2:	84aa                	mv	s1,a0
    5ec4:	842e                	mv	s0,a1
    5ec6:	57d2                	lw	a5,52(sp)
    5ec8:	5712                	lw	a4,36(sp)
    5eca:	bf11                	j	5dde <_strtod_l+0xb4e>
    5ecc:	00006797          	auipc	a5,0x6
    5ed0:	47c78793          	addi	a5,a5,1148 # c348 <__clz_tab+0x144>
    5ed4:	4390                	lw	a2,0(a5)
    5ed6:	43d4                	lw	a3,4(a5)
    5ed8:	3a3030ef          	jal	ra,9a7a <__ledf2>
    5edc:	e40559e3          	bgez	a0,5d2e <_strtod_l+0xa9e>
    5ee0:	ba19                	j	57f6 <_strtod_l+0x566>
    5ee2:	06500713          	li	a4,101
    5ee6:	00e78763          	beq	a5,a4,5ef4 <_strtod_l+0xc64>
    5eea:	04500713          	li	a4,69
    5eee:	4505                	li	a0,1
    5ef0:	eee79963          	bne	a5,a4,55e2 <_strtod_l+0x352>
    5ef4:	4b01                	li	s6,0
    5ef6:	4505                	li	a0,1
    5ef8:	d84ff06f          	j	547c <_strtod_l+0x1ec>

00005efc <strtod>:
    5efc:	81418793          	addi	a5,gp,-2028 # 20000344 <_impure_ptr>
    5f00:	439c                	lw	a5,0(a5)
    5f02:	862e                	mv	a2,a1
    5f04:	5394                	lw	a3,32(a5)
    5f06:	e689                	bnez	a3,5f10 <strtod+0x14>
    5f08:	1fffa697          	auipc	a3,0x1fffa
    5f0c:	2b868693          	addi	a3,a3,696 # 200001c0 <__global_locale>
    5f10:	85aa                	mv	a1,a0
    5f12:	853e                	mv	a0,a5
    5f14:	b7cff06f          	j	5290 <_strtod_l>

00005f18 <_strtol_l.isra.0>:
    5f18:	7179                	addi	sp,sp,-48
    5f1a:	d04a                	sw	s2,32(sp)
    5f1c:	ce4e                	sw	s3,28(sp)
    5f1e:	d606                	sw	ra,44(sp)
    5f20:	d422                	sw	s0,40(sp)
    5f22:	d226                	sw	s1,36(sp)
    5f24:	89aa                	mv	s3,a0
    5f26:	892e                	mv	s2,a1
    5f28:	00190493          	addi	s1,s2,1
    5f2c:	fff4c403          	lbu	s0,-1(s1)
    5f30:	853a                	mv	a0,a4
    5f32:	c636                	sw	a3,12(sp)
    5f34:	c432                	sw	a2,8(sp)
    5f36:	c22e                	sw	a1,4(sp)
    5f38:	c03a                	sw	a4,0(sp)
    5f3a:	31b000ef          	jal	ra,6a54 <__locale_ctype_ptr_l>
    5f3e:	9522                	add	a0,a0,s0
    5f40:	311c                	lbu	a5,1(a0)
    5f42:	4702                	lw	a4,0(sp)
    5f44:	4592                	lw	a1,4(sp)
    5f46:	8ba1                	andi	a5,a5,8
    5f48:	4622                	lw	a2,8(sp)
    5f4a:	46b2                	lw	a3,12(sp)
    5f4c:	e3d1                	bnez	a5,5fd0 <_strtol_l.isra.0+0xb8>
    5f4e:	02d00793          	li	a5,45
    5f52:	08f41163          	bne	s0,a5,5fd4 <_strtol_l.isra.0+0xbc>
    5f56:	209c                	lbu	a5,0(s1)
    5f58:	4305                	li	t1,1
    5f5a:	00290493          	addi	s1,s2,2
    5f5e:	c6e5                	beqz	a3,6046 <_strtol_l.isra.0+0x12e>
    5f60:	4741                	li	a4,16
    5f62:	02e69063          	bne	a3,a4,5f82 <_strtol_l.isra.0+0x6a>
    5f66:	03000713          	li	a4,48
    5f6a:	00e79c63          	bne	a5,a4,5f82 <_strtol_l.isra.0+0x6a>
    5f6e:	209c                	lbu	a5,0(s1)
    5f70:	05800713          	li	a4,88
    5f74:	0df7f793          	andi	a5,a5,223
    5f78:	0ce79263          	bne	a5,a4,603c <_strtol_l.isra.0+0x124>
    5f7c:	309c                	lbu	a5,1(s1)
    5f7e:	46c1                	li	a3,16
    5f80:	0489                	addi	s1,s1,2
    5f82:	800008b7          	lui	a7,0x80000
    5f86:	00031463          	bnez	t1,5f8e <_strtol_l.isra.0+0x76>
    5f8a:	fff8c893          	not	a7,a7
    5f8e:	02d8ff33          	remu	t5,a7,a3
    5f92:	4801                	li	a6,0
    5f94:	4501                	li	a0,0
    5f96:	4fa5                	li	t6,9
    5f98:	4ee5                	li	t4,25
    5f9a:	52fd                	li	t0,-1
    5f9c:	02d8de33          	divu	t3,a7,a3
    5fa0:	fd078713          	addi	a4,a5,-48
    5fa4:	04efe363          	bltu	t6,a4,5fea <_strtol_l.isra.0+0xd2>
    5fa8:	87ba                	mv	a5,a4
    5faa:	04d7de63          	bge	a5,a3,6006 <_strtol_l.isra.0+0xee>
    5fae:	00580d63          	beq	a6,t0,5fc8 <_strtol_l.isra.0+0xb0>
    5fb2:	587d                	li	a6,-1
    5fb4:	00ae6a63          	bltu	t3,a0,5fc8 <_strtol_l.isra.0+0xb0>
    5fb8:	00ae1463          	bne	t3,a0,5fc0 <_strtol_l.isra.0+0xa8>
    5fbc:	00ff4663          	blt	t5,a5,5fc8 <_strtol_l.isra.0+0xb0>
    5fc0:	4805                	li	a6,1
    5fc2:	02a68533          	mul	a0,a3,a0
    5fc6:	953e                	add	a0,a0,a5
    5fc8:	0485                	addi	s1,s1,1
    5fca:	fff4c783          	lbu	a5,-1(s1)
    5fce:	bfc9                	j	5fa0 <_strtol_l.isra.0+0x88>
    5fd0:	8926                	mv	s2,s1
    5fd2:	bf99                	j	5f28 <_strtol_l.isra.0+0x10>
    5fd4:	02b00793          	li	a5,43
    5fd8:	00f40563          	beq	s0,a5,5fe2 <_strtol_l.isra.0+0xca>
    5fdc:	87a2                	mv	a5,s0
    5fde:	4301                	li	t1,0
    5fe0:	bfbd                	j	5f5e <_strtol_l.isra.0+0x46>
    5fe2:	209c                	lbu	a5,0(s1)
    5fe4:	00290493          	addi	s1,s2,2
    5fe8:	bfdd                	j	5fde <_strtol_l.isra.0+0xc6>
    5fea:	fbf78713          	addi	a4,a5,-65
    5fee:	00eee563          	bltu	t4,a4,5ff8 <_strtol_l.isra.0+0xe0>
    5ff2:	fc978793          	addi	a5,a5,-55
    5ff6:	bf55                	j	5faa <_strtol_l.isra.0+0x92>
    5ff8:	f9f78713          	addi	a4,a5,-97
    5ffc:	00eee563          	bltu	t4,a4,6006 <_strtol_l.isra.0+0xee>
    6000:	fa978793          	addi	a5,a5,-87
    6004:	b75d                	j	5faa <_strtol_l.isra.0+0x92>
    6006:	57fd                	li	a5,-1
    6008:	00f81f63          	bne	a6,a5,6026 <_strtol_l.isra.0+0x10e>
    600c:	02200793          	li	a5,34
    6010:	00f9a023          	sw	a5,0(s3)
    6014:	8546                	mv	a0,a7
    6016:	ee19                	bnez	a2,6034 <_strtol_l.isra.0+0x11c>
    6018:	50b2                	lw	ra,44(sp)
    601a:	5422                	lw	s0,40(sp)
    601c:	5492                	lw	s1,36(sp)
    601e:	5902                	lw	s2,32(sp)
    6020:	49f2                	lw	s3,28(sp)
    6022:	6145                	addi	sp,sp,48
    6024:	8082                	ret
    6026:	00030463          	beqz	t1,602e <_strtol_l.isra.0+0x116>
    602a:	40a00533          	neg	a0,a0
    602e:	d66d                	beqz	a2,6018 <_strtol_l.isra.0+0x100>
    6030:	00080463          	beqz	a6,6038 <_strtol_l.isra.0+0x120>
    6034:	fff48593          	addi	a1,s1,-1
    6038:	c20c                	sw	a1,0(a2)
    603a:	bff9                	j	6018 <_strtol_l.isra.0+0x100>
    603c:	03000793          	li	a5,48
    6040:	f2a9                	bnez	a3,5f82 <_strtol_l.isra.0+0x6a>
    6042:	46a1                	li	a3,8
    6044:	bf3d                	j	5f82 <_strtol_l.isra.0+0x6a>
    6046:	03000713          	li	a4,48
    604a:	f2e782e3          	beq	a5,a4,5f6e <_strtol_l.isra.0+0x56>
    604e:	46a9                	li	a3,10
    6050:	bf0d                	j	5f82 <_strtol_l.isra.0+0x6a>

00006052 <_strtol_r>:
    6052:	81418793          	addi	a5,gp,-2028 # 20000344 <_impure_ptr>
    6056:	439c                	lw	a5,0(a5)
    6058:	5398                	lw	a4,32(a5)
    605a:	e709                	bnez	a4,6064 <_strtol_r+0x12>
    605c:	1fffa717          	auipc	a4,0x1fffa
    6060:	16470713          	addi	a4,a4,356 # 200001c0 <__global_locale>
    6064:	eb5ff06f          	j	5f18 <_strtol_l.isra.0>

00006068 <strtol>:
    6068:	81418793          	addi	a5,gp,-2028 # 20000344 <_impure_ptr>
    606c:	439c                	lw	a5,0(a5)
    606e:	86b2                	mv	a3,a2
    6070:	5398                	lw	a4,32(a5)
    6072:	e709                	bnez	a4,607c <strtol+0x14>
    6074:	1fffa717          	auipc	a4,0x1fffa
    6078:	14c70713          	addi	a4,a4,332 # 200001c0 <__global_locale>
    607c:	862e                	mv	a2,a1
    607e:	85aa                	mv	a1,a0
    6080:	853e                	mv	a0,a5
    6082:	e97ff06f          	j	5f18 <_strtol_l.isra.0>

00006086 <_write_r>:
    6086:	1141                	addi	sp,sp,-16
    6088:	c422                	sw	s0,8(sp)
    608a:	842a                	mv	s0,a0
    608c:	852e                	mv	a0,a1
    608e:	85b2                	mv	a1,a2
    6090:	8636                	mv	a2,a3
    6092:	1ffff797          	auipc	a5,0x1ffff
    6096:	9807a323          	sw	zero,-1658(a5) # 20004a18 <errno>
    609a:	c606                	sw	ra,12(sp)
    609c:	98dfe0ef          	jal	ra,4a28 <_write>
    60a0:	57fd                	li	a5,-1
    60a2:	00f51963          	bne	a0,a5,60b4 <_write_r+0x2e>
    60a6:	1ffff797          	auipc	a5,0x1ffff
    60aa:	97278793          	addi	a5,a5,-1678 # 20004a18 <errno>
    60ae:	439c                	lw	a5,0(a5)
    60b0:	c391                	beqz	a5,60b4 <_write_r+0x2e>
    60b2:	c01c                	sw	a5,0(s0)
    60b4:	40b2                	lw	ra,12(sp)
    60b6:	4422                	lw	s0,8(sp)
    60b8:	0141                	addi	sp,sp,16
    60ba:	8082                	ret

000060bc <_close_r>:
    60bc:	1141                	addi	sp,sp,-16
    60be:	c422                	sw	s0,8(sp)
    60c0:	842a                	mv	s0,a0
    60c2:	852e                	mv	a0,a1
    60c4:	1ffff797          	auipc	a5,0x1ffff
    60c8:	9407aa23          	sw	zero,-1708(a5) # 20004a18 <errno>
    60cc:	c606                	sw	ra,12(sp)
    60ce:	7f6040ef          	jal	ra,a8c4 <_close>
    60d2:	57fd                	li	a5,-1
    60d4:	00f51963          	bne	a0,a5,60e6 <_close_r+0x2a>
    60d8:	1ffff797          	auipc	a5,0x1ffff
    60dc:	94078793          	addi	a5,a5,-1728 # 20004a18 <errno>
    60e0:	439c                	lw	a5,0(a5)
    60e2:	c391                	beqz	a5,60e6 <_close_r+0x2a>
    60e4:	c01c                	sw	a5,0(s0)
    60e6:	40b2                	lw	ra,12(sp)
    60e8:	4422                	lw	s0,8(sp)
    60ea:	0141                	addi	sp,sp,16
    60ec:	8082                	ret

000060ee <std>:
    60ee:	1141                	addi	sp,sp,-16
    60f0:	c422                	sw	s0,8(sp)
    60f2:	c606                	sw	ra,12(sp)
    60f4:	842a                	mv	s0,a0
    60f6:	a54e                	sh	a1,12(a0)
    60f8:	a572                	sh	a2,14(a0)
    60fa:	00052023          	sw	zero,0(a0)
    60fe:	00052223          	sw	zero,4(a0)
    6102:	00052423          	sw	zero,8(a0)
    6106:	06052223          	sw	zero,100(a0)
    610a:	00052823          	sw	zero,16(a0)
    610e:	00052a23          	sw	zero,20(a0)
    6112:	00052c23          	sw	zero,24(a0)
    6116:	4621                	li	a2,8
    6118:	4581                	li	a1,0
    611a:	05c50513          	addi	a0,a0,92
    611e:	ab4fa0ef          	jal	ra,3d2 <memset>
    6122:	fffff797          	auipc	a5,0xfffff
    6126:	fb478793          	addi	a5,a5,-76 # 50d6 <__sread>
    612a:	d05c                	sw	a5,36(s0)
    612c:	fffff797          	auipc	a5,0xfffff
    6130:	fdc78793          	addi	a5,a5,-36 # 5108 <__swrite>
    6134:	d41c                	sw	a5,40(s0)
    6136:	fffff797          	auipc	a5,0xfffff
    613a:	01e78793          	addi	a5,a5,30 # 5154 <__sseek>
    613e:	d45c                	sw	a5,44(s0)
    6140:	fffff797          	auipc	a5,0xfffff
    6144:	04678793          	addi	a5,a5,70 # 5186 <__sclose>
    6148:	d000                	sw	s0,32(s0)
    614a:	d81c                	sw	a5,48(s0)
    614c:	40b2                	lw	ra,12(sp)
    614e:	4422                	lw	s0,8(sp)
    6150:	0141                	addi	sp,sp,16
    6152:	8082                	ret

00006154 <_cleanup_r>:
    6154:	00003597          	auipc	a1,0x3
    6158:	83858593          	addi	a1,a1,-1992 # 898c <_fflush_r>
    615c:	aa99                	j	62b2 <_fwalk_reent>

0000615e <__sfmoreglue>:
    615e:	1141                	addi	sp,sp,-16
    6160:	c226                	sw	s1,4(sp)
    6162:	06800613          	li	a2,104
    6166:	fff58493          	addi	s1,a1,-1
    616a:	02c484b3          	mul	s1,s1,a2
    616e:	c04a                	sw	s2,0(sp)
    6170:	892e                	mv	s2,a1
    6172:	c422                	sw	s0,8(sp)
    6174:	c606                	sw	ra,12(sp)
    6176:	07448593          	addi	a1,s1,116
    617a:	316010ef          	jal	ra,7490 <_malloc_r>
    617e:	842a                	mv	s0,a0
    6180:	cd01                	beqz	a0,6198 <__sfmoreglue+0x3a>
    6182:	00052023          	sw	zero,0(a0)
    6186:	01252223          	sw	s2,4(a0)
    618a:	0531                	addi	a0,a0,12
    618c:	c408                	sw	a0,8(s0)
    618e:	06848613          	addi	a2,s1,104
    6192:	4581                	li	a1,0
    6194:	a3efa0ef          	jal	ra,3d2 <memset>
    6198:	8522                	mv	a0,s0
    619a:	40b2                	lw	ra,12(sp)
    619c:	4422                	lw	s0,8(sp)
    619e:	4492                	lw	s1,4(sp)
    61a0:	4902                	lw	s2,0(sp)
    61a2:	0141                	addi	sp,sp,16
    61a4:	8082                	ret

000061a6 <__sinit>:
    61a6:	4d1c                	lw	a5,24(a0)
    61a8:	e7a5                	bnez	a5,6210 <__sinit+0x6a>
    61aa:	1141                	addi	sp,sp,-16
    61ac:	c606                	sw	ra,12(sp)
    61ae:	c422                	sw	s0,8(sp)
    61b0:	00000797          	auipc	a5,0x0
    61b4:	fa478793          	addi	a5,a5,-92 # 6154 <_cleanup_r>
    61b8:	d51c                	sw	a5,40(a0)
    61ba:	81818793          	addi	a5,gp,-2024 # 20000348 <_global_impure_ptr>
    61be:	439c                	lw	a5,0(a5)
    61c0:	04052423          	sw	zero,72(a0)
    61c4:	04052623          	sw	zero,76(a0)
    61c8:	04052823          	sw	zero,80(a0)
    61cc:	00f51463          	bne	a0,a5,61d4 <__sinit+0x2e>
    61d0:	4785                	li	a5,1
    61d2:	cd1c                	sw	a5,24(a0)
    61d4:	842a                	mv	s0,a0
    61d6:	2835                	jal	6212 <__sfp>
    61d8:	c048                	sw	a0,4(s0)
    61da:	8522                	mv	a0,s0
    61dc:	281d                	jal	6212 <__sfp>
    61de:	c408                	sw	a0,8(s0)
    61e0:	8522                	mv	a0,s0
    61e2:	2805                	jal	6212 <__sfp>
    61e4:	c448                	sw	a0,12(s0)
    61e6:	4048                	lw	a0,4(s0)
    61e8:	4601                	li	a2,0
    61ea:	4591                	li	a1,4
    61ec:	f03ff0ef          	jal	ra,60ee <std>
    61f0:	4408                	lw	a0,8(s0)
    61f2:	4605                	li	a2,1
    61f4:	45a5                	li	a1,9
    61f6:	ef9ff0ef          	jal	ra,60ee <std>
    61fa:	4448                	lw	a0,12(s0)
    61fc:	4609                	li	a2,2
    61fe:	45c9                	li	a1,18
    6200:	eefff0ef          	jal	ra,60ee <std>
    6204:	4785                	li	a5,1
    6206:	cc1c                	sw	a5,24(s0)
    6208:	40b2                	lw	ra,12(sp)
    620a:	4422                	lw	s0,8(sp)
    620c:	0141                	addi	sp,sp,16
    620e:	8082                	ret
    6210:	8082                	ret

00006212 <__sfp>:
    6212:	1141                	addi	sp,sp,-16
    6214:	81818793          	addi	a5,gp,-2024 # 20000348 <_global_impure_ptr>
    6218:	c226                	sw	s1,4(sp)
    621a:	4384                	lw	s1,0(a5)
    621c:	c04a                	sw	s2,0(sp)
    621e:	c606                	sw	ra,12(sp)
    6220:	4c9c                	lw	a5,24(s1)
    6222:	c422                	sw	s0,8(sp)
    6224:	892a                	mv	s2,a0
    6226:	e781                	bnez	a5,622e <__sfp+0x1c>
    6228:	8526                	mv	a0,s1
    622a:	f7dff0ef          	jal	ra,61a6 <__sinit>
    622e:	04848493          	addi	s1,s1,72
    6232:	4480                	lw	s0,8(s1)
    6234:	40dc                	lw	a5,4(s1)
    6236:	17fd                	addi	a5,a5,-1
    6238:	0007d663          	bgez	a5,6244 <__sfp+0x32>
    623c:	409c                	lw	a5,0(s1)
    623e:	cfb9                	beqz	a5,629c <__sfp+0x8a>
    6240:	4084                	lw	s1,0(s1)
    6242:	bfc5                	j	6232 <__sfp+0x20>
    6244:	00c41703          	lh	a4,12(s0) # 350000c <__rt_init_end+0x34f375c>
    6248:	e739                	bnez	a4,6296 <__sfp+0x84>
    624a:	77c1                	lui	a5,0xffff0
    624c:	0785                	addi	a5,a5,1
    624e:	06042223          	sw	zero,100(s0)
    6252:	00042023          	sw	zero,0(s0)
    6256:	00042223          	sw	zero,4(s0)
    625a:	00042423          	sw	zero,8(s0)
    625e:	c45c                	sw	a5,12(s0)
    6260:	00042823          	sw	zero,16(s0)
    6264:	00042a23          	sw	zero,20(s0)
    6268:	00042c23          	sw	zero,24(s0)
    626c:	4621                	li	a2,8
    626e:	4581                	li	a1,0
    6270:	05c40513          	addi	a0,s0,92
    6274:	95efa0ef          	jal	ra,3d2 <memset>
    6278:	02042a23          	sw	zero,52(s0)
    627c:	02042c23          	sw	zero,56(s0)
    6280:	04042423          	sw	zero,72(s0)
    6284:	04042623          	sw	zero,76(s0)
    6288:	8522                	mv	a0,s0
    628a:	40b2                	lw	ra,12(sp)
    628c:	4422                	lw	s0,8(sp)
    628e:	4492                	lw	s1,4(sp)
    6290:	4902                	lw	s2,0(sp)
    6292:	0141                	addi	sp,sp,16
    6294:	8082                	ret
    6296:	06840413          	addi	s0,s0,104
    629a:	bf71                	j	6236 <__sfp+0x24>
    629c:	4591                	li	a1,4
    629e:	854a                	mv	a0,s2
    62a0:	ebfff0ef          	jal	ra,615e <__sfmoreglue>
    62a4:	c088                	sw	a0,0(s1)
    62a6:	fd49                	bnez	a0,6240 <__sfp+0x2e>
    62a8:	47b1                	li	a5,12
    62aa:	00f92023          	sw	a5,0(s2)
    62ae:	4401                	li	s0,0
    62b0:	bfe1                	j	6288 <__sfp+0x76>

000062b2 <_fwalk_reent>:
    62b2:	7179                	addi	sp,sp,-48
    62b4:	d422                	sw	s0,40(sp)
    62b6:	d04a                	sw	s2,32(sp)
    62b8:	cc52                	sw	s4,24(sp)
    62ba:	ca56                	sw	s5,20(sp)
    62bc:	c85a                	sw	s6,16(sp)
    62be:	c65e                	sw	s7,12(sp)
    62c0:	d606                	sw	ra,44(sp)
    62c2:	d226                	sw	s1,36(sp)
    62c4:	ce4e                	sw	s3,28(sp)
    62c6:	8a2a                	mv	s4,a0
    62c8:	8aae                	mv	s5,a1
    62ca:	04850413          	addi	s0,a0,72
    62ce:	4901                	li	s2,0
    62d0:	4b05                	li	s6,1
    62d2:	5bfd                	li	s7,-1
    62d4:	ec09                	bnez	s0,62ee <_fwalk_reent+0x3c>
    62d6:	50b2                	lw	ra,44(sp)
    62d8:	5422                	lw	s0,40(sp)
    62da:	854a                	mv	a0,s2
    62dc:	5492                	lw	s1,36(sp)
    62de:	5902                	lw	s2,32(sp)
    62e0:	49f2                	lw	s3,28(sp)
    62e2:	4a62                	lw	s4,24(sp)
    62e4:	4ad2                	lw	s5,20(sp)
    62e6:	4b42                	lw	s6,16(sp)
    62e8:	4bb2                	lw	s7,12(sp)
    62ea:	6145                	addi	sp,sp,48
    62ec:	8082                	ret
    62ee:	4404                	lw	s1,8(s0)
    62f0:	00442983          	lw	s3,4(s0)
    62f4:	19fd                	addi	s3,s3,-1
    62f6:	0009d463          	bgez	s3,62fe <_fwalk_reent+0x4c>
    62fa:	4000                	lw	s0,0(s0)
    62fc:	bfe1                	j	62d4 <_fwalk_reent+0x22>
    62fe:	24de                	lhu	a5,12(s1)
    6300:	00fb7b63          	bgeu	s6,a5,6316 <_fwalk_reent+0x64>
    6304:	00e49783          	lh	a5,14(s1)
    6308:	01778763          	beq	a5,s7,6316 <_fwalk_reent+0x64>
    630c:	85a6                	mv	a1,s1
    630e:	8552                	mv	a0,s4
    6310:	9a82                	jalr	s5
    6312:	00a96933          	or	s2,s2,a0
    6316:	06848493          	addi	s1,s1,104
    631a:	bfe9                	j	62f4 <_fwalk_reent+0x42>

0000631c <rshift>:
    631c:	4910                	lw	a2,16(a0)
    631e:	01450693          	addi	a3,a0,20
    6322:	4055d713          	srai	a4,a1,0x5
    6326:	87b6                	mv	a5,a3
    6328:	02c75663          	bge	a4,a2,6354 <rshift+0x38>
    632c:	060a                	slli	a2,a2,0x2
    632e:	070a                	slli	a4,a4,0x2
    6330:	89fd                	andi	a1,a1,31
    6332:	9636                	add	a2,a2,a3
    6334:	9736                	add	a4,a4,a3
    6336:	c9b9                	beqz	a1,638c <rshift+0x70>
    6338:	00470813          	addi	a6,a4,4
    633c:	4318                	lw	a4,0(a4)
    633e:	02000313          	li	t1,32
    6342:	40b30333          	sub	t1,t1,a1
    6346:	00b75733          	srl	a4,a4,a1
    634a:	00c86e63          	bltu	a6,a2,6366 <rshift+0x4a>
    634e:	c398                	sw	a4,0(a5)
    6350:	c311                	beqz	a4,6354 <rshift+0x38>
    6352:	0791                	addi	a5,a5,4
    6354:	40d78733          	sub	a4,a5,a3
    6358:	8709                	srai	a4,a4,0x2
    635a:	c918                	sw	a4,16(a0)
    635c:	00d79463          	bne	a5,a3,6364 <rshift+0x48>
    6360:	00052a23          	sw	zero,20(a0)
    6364:	8082                	ret
    6366:	00082883          	lw	a7,0(a6)
    636a:	0791                	addi	a5,a5,4
    636c:	0811                	addi	a6,a6,4
    636e:	006898b3          	sll	a7,a7,t1
    6372:	00e8e733          	or	a4,a7,a4
    6376:	fee7ae23          	sw	a4,-4(a5) # fffefffc <_eusrstack+0xdffdfffc>
    637a:	ffc82703          	lw	a4,-4(a6)
    637e:	b7e1                	j	6346 <rshift+0x2a>
    6380:	0711                	addi	a4,a4,4
    6382:	ffc72583          	lw	a1,-4(a4)
    6386:	0791                	addi	a5,a5,4
    6388:	feb7ae23          	sw	a1,-4(a5)
    638c:	fec76ae3          	bltu	a4,a2,6380 <rshift+0x64>
    6390:	b7d1                	j	6354 <rshift+0x38>

00006392 <__hexdig_fun>:
    6392:	fd050793          	addi	a5,a0,-48
    6396:	0ff7f793          	andi	a5,a5,255
    639a:	4725                	li	a4,9
    639c:	00f76763          	bltu	a4,a5,63aa <__hexdig_fun+0x18>
    63a0:	1501                	addi	a0,a0,-32
    63a2:	0ff57793          	andi	a5,a0,255
    63a6:	853e                	mv	a0,a5
    63a8:	8082                	ret
    63aa:	f9f50793          	addi	a5,a0,-97
    63ae:	0ff7f793          	andi	a5,a5,255
    63b2:	4695                	li	a3,5
    63b4:	00f6e563          	bltu	a3,a5,63be <__hexdig_fun+0x2c>
    63b8:	fb950513          	addi	a0,a0,-71
    63bc:	b7dd                	j	63a2 <__hexdig_fun+0x10>
    63be:	fbf50713          	addi	a4,a0,-65
    63c2:	0ff77713          	andi	a4,a4,255
    63c6:	4781                	li	a5,0
    63c8:	fce6efe3          	bltu	a3,a4,63a6 <__hexdig_fun+0x14>
    63cc:	fd950513          	addi	a0,a0,-39
    63d0:	bfc9                	j	63a2 <__hexdig_fun+0x10>

000063d2 <__gethex>:
    63d2:	711d                	addi	sp,sp,-96
    63d4:	c2d6                	sw	s5,68(sp)
    63d6:	8aaa                	mv	s5,a0
    63d8:	8542                	mv	a0,a6
    63da:	c636                	sw	a3,12(sp)
    63dc:	c23a                	sw	a4,4(sp)
    63de:	ce86                	sw	ra,92(sp)
    63e0:	c8ca                	sw	s2,80(sp)
    63e2:	c4d2                	sw	s4,72(sp)
    63e4:	c0da                	sw	s6,64(sp)
    63e6:	de5e                	sw	s7,60(sp)
    63e8:	8b3e                	mv	s6,a5
    63ea:	d66e                	sw	s11,44(sp)
    63ec:	8932                	mv	s2,a2
    63ee:	8dae                	mv	s11,a1
    63f0:	cca2                	sw	s0,88(sp)
    63f2:	caa6                	sw	s1,84(sp)
    63f4:	c6ce                	sw	s3,76(sp)
    63f6:	dc62                	sw	s8,56(sp)
    63f8:	da66                	sw	s9,52(sp)
    63fa:	d86a                	sw	s10,48(sp)
    63fc:	2d9d                	jal	6a72 <__localeconv_l>
    63fe:	00052b83          	lw	s7,0(a0)
    6402:	855e                	mv	a0,s7
    6404:	dd1fe0ef          	jal	ra,51d4 <strlen>
    6408:	00ab87b3          	add	a5,s7,a0
    640c:	000da683          	lw	a3,0(s11)
    6410:	fff7c783          	lbu	a5,-1(a5)
    6414:	5779                	li	a4,-2
    6416:	8f15                	sub	a4,a4,a3
    6418:	c83e                	sw	a5,16(sp)
    641a:	8a2a                	mv	s4,a0
    641c:	00268793          	addi	a5,a3,2
    6420:	03000693          	li	a3,48
    6424:	00f70633          	add	a2,a4,a5
    6428:	84be                	mv	s1,a5
    642a:	0785                	addi	a5,a5,1
    642c:	fff7c503          	lbu	a0,-1(a5)
    6430:	c432                	sw	a2,8(sp)
    6432:	fed509e3          	beq	a0,a3,6424 <__gethex+0x52>
    6436:	f5dff0ef          	jal	ra,6392 <__hexdig_fun>
    643a:	10051e63          	bnez	a0,6556 <__gethex+0x184>
    643e:	8652                	mv	a2,s4
    6440:	85de                	mv	a1,s7
    6442:	8526                	mv	a0,s1
    6444:	da3fe0ef          	jal	ra,51e6 <strncmp>
    6448:	10051c63          	bnez	a0,6560 <__gethex+0x18e>
    644c:	01448c33          	add	s8,s1,s4
    6450:	000c4503          	lbu	a0,0(s8)
    6454:	f3fff0ef          	jal	ra,6392 <__hexdig_fun>
    6458:	10050563          	beqz	a0,6562 <__gethex+0x190>
    645c:	84e2                	mv	s1,s8
    645e:	03000793          	li	a5,48
    6462:	2088                	lbu	a0,0(s1)
    6464:	00f50b63          	beq	a0,a5,647a <__gethex+0xa8>
    6468:	f2bff0ef          	jal	ra,6392 <__hexdig_fun>
    646c:	4785                	li	a5,1
    646e:	00153993          	seqz	s3,a0
    6472:	8ce2                	mv	s9,s8
    6474:	c43e                	sw	a5,8(sp)
    6476:	8c26                	mv	s8,s1
    6478:	a021                	j	6480 <__gethex+0xae>
    647a:	0485                	addi	s1,s1,1
    647c:	b7dd                	j	6462 <__gethex+0x90>
    647e:	0c05                	addi	s8,s8,1
    6480:	000c4503          	lbu	a0,0(s8)
    6484:	f0fff0ef          	jal	ra,6392 <__hexdig_fun>
    6488:	f97d                	bnez	a0,647e <__gethex+0xac>
    648a:	8652                	mv	a2,s4
    648c:	85de                	mv	a1,s7
    648e:	8562                	mv	a0,s8
    6490:	d57fe0ef          	jal	ra,51e6 <strncmp>
    6494:	e911                	bnez	a0,64a8 <__gethex+0xd6>
    6496:	000c9c63          	bnez	s9,64ae <__gethex+0xdc>
    649a:	9c52                	add	s8,s8,s4
    649c:	8ce2                	mv	s9,s8
    649e:	000c4503          	lbu	a0,0(s8)
    64a2:	ef1ff0ef          	jal	ra,6392 <__hexdig_fun>
    64a6:	e95d                	bnez	a0,655c <__gethex+0x18a>
    64a8:	4401                	li	s0,0
    64aa:	000c8563          	beqz	s9,64b4 <__gethex+0xe2>
    64ae:	418c8433          	sub	s0,s9,s8
    64b2:	040a                	slli	s0,s0,0x2
    64b4:	000c4783          	lbu	a5,0(s8)
    64b8:	05000713          	li	a4,80
    64bc:	00e78763          	beq	a5,a4,64ca <__gethex+0xf8>
    64c0:	07000613          	li	a2,112
    64c4:	8ce2                	mv	s9,s8
    64c6:	06c79063          	bne	a5,a2,6526 <__gethex+0x154>
    64ca:	001c4783          	lbu	a5,1(s8)
    64ce:	02b00713          	li	a4,43
    64d2:	08e78b63          	beq	a5,a4,6568 <__gethex+0x196>
    64d6:	02d00713          	li	a4,45
    64da:	08e78b63          	beq	a5,a4,6570 <__gethex+0x19e>
    64de:	001c0c93          	addi	s9,s8,1
    64e2:	4d01                	li	s10,0
    64e4:	000cc503          	lbu	a0,0(s9)
    64e8:	eabff0ef          	jal	ra,6392 <__hexdig_fun>
    64ec:	fff50793          	addi	a5,a0,-1
    64f0:	0ff7f793          	andi	a5,a5,255
    64f4:	45e1                	li	a1,24
    64f6:	08f5e463          	bltu	a1,a5,657e <__gethex+0x1ac>
    64fa:	ff050793          	addi	a5,a0,-16
    64fe:	0c85                	addi	s9,s9,1
    6500:	000cc503          	lbu	a0,0(s9)
    6504:	ca3e                	sw	a5,20(sp)
    6506:	e8dff0ef          	jal	ra,6392 <__hexdig_fun>
    650a:	fff50593          	addi	a1,a0,-1
    650e:	0ff5f593          	andi	a1,a1,255
    6512:	4861                	li	a6,24
    6514:	47d2                	lw	a5,20(sp)
    6516:	48a9                	li	a7,10
    6518:	04b87e63          	bgeu	a6,a1,6574 <__gethex+0x1a2>
    651c:	000d0463          	beqz	s10,6524 <__gethex+0x152>
    6520:	40f007b3          	neg	a5,a5
    6524:	943e                	add	s0,s0,a5
    6526:	019da023          	sw	s9,0(s11)
    652a:	04098c63          	beqz	s3,6582 <__gethex+0x1b0>
    652e:	47a2                	lw	a5,8(sp)
    6530:	4481                	li	s1,0
    6532:	e391                	bnez	a5,6536 <__gethex+0x164>
    6534:	4499                	li	s1,6
    6536:	40f6                	lw	ra,92(sp)
    6538:	4466                	lw	s0,88(sp)
    653a:	8526                	mv	a0,s1
    653c:	4946                	lw	s2,80(sp)
    653e:	44d6                	lw	s1,84(sp)
    6540:	49b6                	lw	s3,76(sp)
    6542:	4a26                	lw	s4,72(sp)
    6544:	4a96                	lw	s5,68(sp)
    6546:	4b06                	lw	s6,64(sp)
    6548:	5bf2                	lw	s7,60(sp)
    654a:	5c62                	lw	s8,56(sp)
    654c:	5cd2                	lw	s9,52(sp)
    654e:	5d42                	lw	s10,48(sp)
    6550:	5db2                	lw	s11,44(sp)
    6552:	6125                	addi	sp,sp,96
    6554:	8082                	ret
    6556:	4981                	li	s3,0
    6558:	4c81                	li	s9,0
    655a:	bf31                	j	6476 <__gethex+0xa4>
    655c:	0c05                	addi	s8,s8,1
    655e:	b781                	j	649e <__gethex+0xcc>
    6560:	8c26                	mv	s8,s1
    6562:	4401                	li	s0,0
    6564:	4985                	li	s3,1
    6566:	b7b9                	j	64b4 <__gethex+0xe2>
    6568:	4d01                	li	s10,0
    656a:	002c0c93          	addi	s9,s8,2
    656e:	bf9d                	j	64e4 <__gethex+0x112>
    6570:	4d05                	li	s10,1
    6572:	bfe5                	j	656a <__gethex+0x198>
    6574:	031787b3          	mul	a5,a5,a7
    6578:	97aa                	add	a5,a5,a0
    657a:	17c1                	addi	a5,a5,-16
    657c:	b749                	j	64fe <__gethex+0x12c>
    657e:	8ce2                	mv	s9,s8
    6580:	b75d                	j	6526 <__gethex+0x154>
    6582:	409c07b3          	sub	a5,s8,s1
    6586:	17fd                	addi	a5,a5,-1
    6588:	4581                	li	a1,0
    658a:	471d                	li	a4,7
    658c:	0af74363          	blt	a4,a5,6632 <__gethex+0x260>
    6590:	8556                	mv	a0,s5
    6592:	23b9                	jal	6ae0 <_Balloc>
    6594:	4605                	li	a2,1
    6596:	01450993          	addi	s3,a0,20
    659a:	414607b3          	sub	a5,a2,s4
    659e:	8daa                	mv	s11,a0
    65a0:	8d4e                	mv	s10,s3
    65a2:	4881                	li	a7,0
    65a4:	4c81                	li	s9,0
    65a6:	ca3e                	sw	a5,20(sp)
    65a8:	0984e863          	bltu	s1,s8,6638 <__gethex+0x266>
    65ac:	004d0513          	addi	a0,s10,4 # 80000004 <_eusrstack+0x5fff0004>
    65b0:	41350533          	sub	a0,a0,s3
    65b4:	8509                	srai	a0,a0,0x2
    65b6:	019d2023          	sw	s9,0(s10)
    65ba:	00ada823          	sw	a0,16(s11)
    65be:	00551493          	slli	s1,a0,0x5
    65c2:	8566                	mv	a0,s9
    65c4:	2725                	jal	6cec <__hi0bits>
    65c6:	00092b83          	lw	s7,0(s2)
    65ca:	8c89                	sub	s1,s1,a0
    65cc:	0c9bd863          	bge	s7,s1,669c <__gethex+0x2ca>
    65d0:	417484b3          	sub	s1,s1,s7
    65d4:	85a6                	mv	a1,s1
    65d6:	856e                	mv	a0,s11
    65d8:	64d000ef          	jal	ra,7424 <__any_on>
    65dc:	8a2a                	mv	s4,a0
    65de:	c905                	beqz	a0,660e <__gethex+0x23c>
    65e0:	fff48613          	addi	a2,s1,-1
    65e4:	40565693          	srai	a3,a2,0x5
    65e8:	068a                	slli	a3,a3,0x2
    65ea:	96ce                	add	a3,a3,s3
    65ec:	4294                	lw	a3,0(a3)
    65ee:	4705                	li	a4,1
    65f0:	00c71733          	sll	a4,a4,a2
    65f4:	8f75                	and	a4,a4,a3
    65f6:	4a05                	li	s4,1
    65f8:	cb19                	beqz	a4,660e <__gethex+0x23c>
    65fa:	00ca5963          	bge	s4,a2,660c <__gethex+0x23a>
    65fe:	ffe48593          	addi	a1,s1,-2
    6602:	856e                	mv	a0,s11
    6604:	621000ef          	jal	ra,7424 <__any_on>
    6608:	4a0d                	li	s4,3
    660a:	e111                	bnez	a0,660e <__gethex+0x23c>
    660c:	4a09                	li	s4,2
    660e:	85a6                	mv	a1,s1
    6610:	856e                	mv	a0,s11
    6612:	d0bff0ef          	jal	ra,631c <rshift>
    6616:	9426                	add	s0,s0,s1
    6618:	00892703          	lw	a4,8(s2)
    661c:	08875f63          	bge	a4,s0,66ba <__gethex+0x2e8>
    6620:	85ee                	mv	a1,s11
    6622:	8556                	mv	a0,s5
    6624:	23a1                	jal	6b6c <_Bfree>
    6626:	4792                	lw	a5,4(sp)
    6628:	0a300493          	li	s1,163
    662c:	0007a023          	sw	zero,0(a5)
    6630:	b719                	j	6536 <__gethex+0x164>
    6632:	0585                	addi	a1,a1,1
    6634:	8785                	srai	a5,a5,0x1
    6636:	bf99                	j	658c <__gethex+0x1ba>
    6638:	fffc0793          	addi	a5,s8,-1
    663c:	c43e                	sw	a5,8(sp)
    663e:	fffc4603          	lbu	a2,-1(s8)
    6642:	47c2                	lw	a5,16(sp)
    6644:	02f60963          	beq	a2,a5,6676 <__gethex+0x2a4>
    6648:	02000793          	li	a5,32
    664c:	00f89763          	bne	a7,a5,665a <__gethex+0x288>
    6650:	019d2023          	sw	s9,0(s10)
    6654:	4881                	li	a7,0
    6656:	0d11                	addi	s10,s10,4
    6658:	4c81                	li	s9,0
    665a:	fffc4503          	lbu	a0,-1(s8)
    665e:	cc46                	sw	a7,24(sp)
    6660:	d33ff0ef          	jal	ra,6392 <__hexdig_fun>
    6664:	48e2                	lw	a7,24(sp)
    6666:	893d                	andi	a0,a0,15
    6668:	4322                	lw	t1,8(sp)
    666a:	01151533          	sll	a0,a0,a7
    666e:	00acecb3          	or	s9,s9,a0
    6672:	0891                	addi	a7,a7,4
    6674:	a015                	j	6698 <__gethex+0x2c6>
    6676:	4752                	lw	a4,20(sp)
    6678:	fffc0793          	addi	a5,s8,-1
    667c:	00e78333          	add	t1,a5,a4
    6680:	fc9364e3          	bltu	t1,s1,6648 <__gethex+0x276>
    6684:	851a                	mv	a0,t1
    6686:	8652                	mv	a2,s4
    6688:	85de                	mv	a1,s7
    668a:	ce46                	sw	a7,28(sp)
    668c:	cc1a                	sw	t1,24(sp)
    668e:	b59fe0ef          	jal	ra,51e6 <strncmp>
    6692:	4362                	lw	t1,24(sp)
    6694:	48f2                	lw	a7,28(sp)
    6696:	f94d                	bnez	a0,6648 <__gethex+0x276>
    6698:	8c1a                	mv	s8,t1
    669a:	b739                	j	65a8 <__gethex+0x1d6>
    669c:	4a01                	li	s4,0
    669e:	f774dde3          	bge	s1,s7,6618 <__gethex+0x246>
    66a2:	409b84b3          	sub	s1,s7,s1
    66a6:	85ee                	mv	a1,s11
    66a8:	8626                	mv	a2,s1
    66aa:	8556                	mv	a0,s5
    66ac:	10f000ef          	jal	ra,6fba <__lshift>
    66b0:	8daa                	mv	s11,a0
    66b2:	8c05                	sub	s0,s0,s1
    66b4:	01450993          	addi	s3,a0,20
    66b8:	b785                	j	6618 <__gethex+0x246>
    66ba:	00492703          	lw	a4,4(s2)
    66be:	0ee45563          	bge	s0,a4,67a8 <__gethex+0x3d6>
    66c2:	40870433          	sub	s0,a4,s0
    66c6:	07744563          	blt	s0,s7,6730 <__gethex+0x35e>
    66ca:	00c92703          	lw	a4,12(s2)
    66ce:	4689                	li	a3,2
    66d0:	04d70a63          	beq	a4,a3,6724 <__gethex+0x352>
    66d4:	468d                	li	a3,3
    66d6:	04d70a63          	beq	a4,a3,672a <__gethex+0x358>
    66da:	4685                	li	a3,1
    66dc:	02d71b63          	bne	a4,a3,6712 <__gethex+0x340>
    66e0:	028b9963          	bne	s7,s0,6712 <__gethex+0x340>
    66e4:	02eb9163          	bne	s7,a4,6706 <__gethex+0x334>
    66e8:	00492703          	lw	a4,4(s2)
    66ec:	47b2                	lw	a5,12(sp)
    66ee:	06200493          	li	s1,98
    66f2:	c398                	sw	a4,0(a5)
    66f4:	4705                	li	a4,1
    66f6:	4792                	lw	a5,4(sp)
    66f8:	00eda823          	sw	a4,16(s11)
    66fc:	00e9a023          	sw	a4,0(s3)
    6700:	01b7a023          	sw	s11,0(a5)
    6704:	bd0d                	j	6536 <__gethex+0x164>
    6706:	fffb8593          	addi	a1,s7,-1
    670a:	856e                	mv	a0,s11
    670c:	519000ef          	jal	ra,7424 <__any_on>
    6710:	fd61                	bnez	a0,66e8 <__gethex+0x316>
    6712:	85ee                	mv	a1,s11
    6714:	8556                	mv	a0,s5
    6716:	2999                	jal	6b6c <_Bfree>
    6718:	4792                	lw	a5,4(sp)
    671a:	05000493          	li	s1,80
    671e:	0007a023          	sw	zero,0(a5)
    6722:	bd11                	j	6536 <__gethex+0x164>
    6724:	fe0b17e3          	bnez	s6,6712 <__gethex+0x340>
    6728:	b7c1                	j	66e8 <__gethex+0x316>
    672a:	fa0b1fe3          	bnez	s6,66e8 <__gethex+0x316>
    672e:	b7d5                	j	6712 <__gethex+0x340>
    6730:	fff40493          	addi	s1,s0,-1
    6734:	060a1863          	bnez	s4,67a4 <__gethex+0x3d2>
    6738:	c491                	beqz	s1,6744 <__gethex+0x372>
    673a:	85a6                	mv	a1,s1
    673c:	856e                	mv	a0,s11
    673e:	4e7000ef          	jal	ra,7424 <__any_on>
    6742:	8a2a                	mv	s4,a0
    6744:	4054d713          	srai	a4,s1,0x5
    6748:	070a                	slli	a4,a4,0x2
    674a:	974e                	add	a4,a4,s3
    674c:	4318                	lw	a4,0(a4)
    674e:	4585                	li	a1,1
    6750:	009595b3          	sll	a1,a1,s1
    6754:	8df9                	and	a1,a1,a4
    6756:	c199                	beqz	a1,675c <__gethex+0x38a>
    6758:	002a6a13          	ori	s4,s4,2
    675c:	85a2                	mv	a1,s0
    675e:	856e                	mv	a0,s11
    6760:	408b8bb3          	sub	s7,s7,s0
    6764:	bb9ff0ef          	jal	ra,631c <rshift>
    6768:	00492403          	lw	s0,4(s2)
    676c:	4489                	li	s1,2
    676e:	080a0b63          	beqz	s4,6804 <__gethex+0x432>
    6772:	00c92703          	lw	a4,12(s2)
    6776:	4689                	li	a3,2
    6778:	02d70a63          	beq	a4,a3,67ac <__gethex+0x3da>
    677c:	468d                	li	a3,3
    677e:	02d70a63          	beq	a4,a3,67b2 <__gethex+0x3e0>
    6782:	4685                	li	a3,1
    6784:	00d71d63          	bne	a4,a3,679e <__gethex+0x3cc>
    6788:	002a7713          	andi	a4,s4,2
    678c:	cb09                	beqz	a4,679e <__gethex+0x3cc>
    678e:	0009a703          	lw	a4,0(s3)
    6792:	00ea6a33          	or	s4,s4,a4
    6796:	001a7a13          	andi	s4,s4,1
    679a:	000a1e63          	bnez	s4,67b6 <__gethex+0x3e4>
    679e:	0104e493          	ori	s1,s1,16
    67a2:	a08d                	j	6804 <__gethex+0x432>
    67a4:	4a05                	li	s4,1
    67a6:	bf79                	j	6744 <__gethex+0x372>
    67a8:	4485                	li	s1,1
    67aa:	b7d1                	j	676e <__gethex+0x39c>
    67ac:	4705                	li	a4,1
    67ae:	41670b33          	sub	s6,a4,s6
    67b2:	fe0b06e3          	beqz	s6,679e <__gethex+0x3cc>
    67b6:	010da983          	lw	s3,16(s11)
    67ba:	014d8713          	addi	a4,s11,20
    67be:	55fd                	li	a1,-1
    67c0:	00299a13          	slli	s4,s3,0x2
    67c4:	01470633          	add	a2,a4,s4
    67c8:	4314                	lw	a3,0(a4)
    67ca:	04b68363          	beq	a3,a1,6810 <__gethex+0x43e>
    67ce:	0685                	addi	a3,a3,1
    67d0:	c314                	sw	a3,0(a4)
    67d2:	4689                	li	a3,2
    67d4:	014d8713          	addi	a4,s11,20
    67d8:	08d49463          	bne	s1,a3,6860 <__gethex+0x48e>
    67dc:	00092683          	lw	a3,0(s2)
    67e0:	16fd                	addi	a3,a3,-1
    67e2:	01769f63          	bne	a3,s7,6800 <__gethex+0x42e>
    67e6:	405bd693          	srai	a3,s7,0x5
    67ea:	068a                	slli	a3,a3,0x2
    67ec:	9736                	add	a4,a4,a3
    67ee:	4318                	lw	a4,0(a4)
    67f0:	4685                	li	a3,1
    67f2:	01769bb3          	sll	s7,a3,s7
    67f6:	00ebfbb3          	and	s7,s7,a4
    67fa:	000b8363          	beqz	s7,6800 <__gethex+0x42e>
    67fe:	4485                	li	s1,1
    6800:	0204e493          	ori	s1,s1,32
    6804:	4792                	lw	a5,4(sp)
    6806:	01b7a023          	sw	s11,0(a5)
    680a:	47b2                	lw	a5,12(sp)
    680c:	c380                	sw	s0,0(a5)
    680e:	b325                	j	6536 <__gethex+0x164>
    6810:	0711                	addi	a4,a4,4
    6812:	fe072e23          	sw	zero,-4(a4)
    6816:	fac769e3          	bltu	a4,a2,67c8 <__gethex+0x3f6>
    681a:	008da703          	lw	a4,8(s11)
    681e:	02e9c563          	blt	s3,a4,6848 <__gethex+0x476>
    6822:	004da583          	lw	a1,4(s11)
    6826:	8556                	mv	a0,s5
    6828:	0585                	addi	a1,a1,1
    682a:	2c5d                	jal	6ae0 <_Balloc>
    682c:	010da603          	lw	a2,16(s11)
    6830:	00cd8593          	addi	a1,s11,12
    6834:	8b2a                	mv	s6,a0
    6836:	0609                	addi	a2,a2,2
    6838:	060a                	slli	a2,a2,0x2
    683a:	0531                	addi	a0,a0,12
    683c:	f54fe0ef          	jal	ra,4f90 <memcpy>
    6840:	85ee                	mv	a1,s11
    6842:	8556                	mv	a0,s5
    6844:	2625                	jal	6b6c <_Bfree>
    6846:	8dda                	mv	s11,s6
    6848:	010da703          	lw	a4,16(s11)
    684c:	00170693          	addi	a3,a4,1
    6850:	0711                	addi	a4,a4,4
    6852:	070a                	slli	a4,a4,0x2
    6854:	00dda823          	sw	a3,16(s11)
    6858:	976e                	add	a4,a4,s11
    685a:	4685                	li	a3,1
    685c:	c354                	sw	a3,4(a4)
    685e:	bf95                	j	67d2 <__gethex+0x400>
    6860:	010da683          	lw	a3,16(s11)
    6864:	00d9dc63          	bge	s3,a3,687c <__gethex+0x4aa>
    6868:	4585                	li	a1,1
    686a:	856e                	mv	a0,s11
    686c:	ab1ff0ef          	jal	ra,631c <rshift>
    6870:	00892703          	lw	a4,8(s2)
    6874:	0405                	addi	s0,s0,1
    6876:	f88754e3          	bge	a4,s0,67fe <__gethex+0x42c>
    687a:	b35d                	j	6620 <__gethex+0x24e>
    687c:	01fbfb93          	andi	s7,s7,31
    6880:	4485                	li	s1,1
    6882:	f60b8fe3          	beqz	s7,6800 <__gethex+0x42e>
    6886:	9752                	add	a4,a4,s4
    6888:	ffc72503          	lw	a0,-4(a4)
    688c:	2185                	jal	6cec <__hi0bits>
    688e:	02000713          	li	a4,32
    6892:	41770bb3          	sub	s7,a4,s7
    6896:	fd7549e3          	blt	a0,s7,6868 <__gethex+0x496>
    689a:	b79d                	j	6800 <__gethex+0x42e>

0000689c <L_shift>:
    689c:	47a1                	li	a5,8
    689e:	40c78633          	sub	a2,a5,a2
    68a2:	060a                	slli	a2,a2,0x2
    68a4:	02000693          	li	a3,32
    68a8:	8e91                	sub	a3,a3,a2
    68aa:	415c                	lw	a5,4(a0)
    68ac:	4118                	lw	a4,0(a0)
    68ae:	0511                	addi	a0,a0,4
    68b0:	00d79833          	sll	a6,a5,a3
    68b4:	01076733          	or	a4,a4,a6
    68b8:	00c7d7b3          	srl	a5,a5,a2
    68bc:	fee52e23          	sw	a4,-4(a0)
    68c0:	c11c                	sw	a5,0(a0)
    68c2:	feb564e3          	bltu	a0,a1,68aa <L_shift+0xe>
    68c6:	8082                	ret

000068c8 <__match>:
    68c8:	411c                	lw	a5,0(a0)
    68ca:	4865                	li	a6,25
    68cc:	0585                	addi	a1,a1,1
    68ce:	fff5c603          	lbu	a2,-1(a1)
    68d2:	0785                	addi	a5,a5,1
    68d4:	e601                	bnez	a2,68dc <__match+0x14>
    68d6:	c11c                	sw	a5,0(a0)
    68d8:	4505                	li	a0,1
    68da:	8082                	ret
    68dc:	2398                	lbu	a4,0(a5)
    68de:	fbf70693          	addi	a3,a4,-65
    68e2:	0ff6f693          	andi	a3,a3,255
    68e6:	00d86463          	bltu	a6,a3,68ee <__match+0x26>
    68ea:	02070713          	addi	a4,a4,32
    68ee:	fcc70fe3          	beq	a4,a2,68cc <__match+0x4>
    68f2:	4501                	li	a0,0
    68f4:	8082                	ret

000068f6 <__hexnan>:
    68f6:	715d                	addi	sp,sp,-80
    68f8:	dc52                	sw	s4,56(sp)
    68fa:	0005aa03          	lw	s4,0(a1)
    68fe:	c2a6                	sw	s1,68(sp)
    6900:	de4e                	sw	s3,60(sp)
    6902:	405a5493          	srai	s1,s4,0x5
    6906:	d85a                	sw	s6,48(sp)
    6908:	048a                	slli	s1,s1,0x2
    690a:	c686                	sw	ra,76(sp)
    690c:	c4a2                	sw	s0,72(sp)
    690e:	c0ca                	sw	s2,64(sp)
    6910:	da56                	sw	s5,52(sp)
    6912:	d65e                	sw	s7,44(sp)
    6914:	d462                	sw	s8,40(sp)
    6916:	d266                	sw	s9,36(sp)
    6918:	d06a                	sw	s10,32(sp)
    691a:	ce6e                	sw	s11,28(sp)
    691c:	01fa7a13          	andi	s4,s4,31
    6920:	8b2a                	mv	s6,a0
    6922:	89b2                	mv	s3,a2
    6924:	94b2                	add	s1,s1,a2
    6926:	000a0363          	beqz	s4,692c <__hexnan+0x36>
    692a:	0491                	addi	s1,s1,4
    692c:	000b2783          	lw	a5,0(s6)
    6930:	ffc48913          	addi	s2,s1,-4
    6934:	fe04ae23          	sw	zero,-4(s1)
    6938:	8dca                	mv	s11,s2
    693a:	844a                	mv	s0,s2
    693c:	4601                	li	a2,0
    693e:	4a81                	li	s5,0
    6940:	4b81                	li	s7,0
    6942:	4c21                	li	s8,8
    6944:	02000c93          	li	s9,32
    6948:	4d1d                	li	s10,7
    694a:	3394                	lbu	a3,1(a5)
    694c:	00178713          	addi	a4,a5,1
    6950:	c03a                	sw	a4,0(sp)
    6952:	cab1                	beqz	a3,69a6 <__hexnan+0xb0>
    6954:	8536                	mv	a0,a3
    6956:	c632                	sw	a2,12(sp)
    6958:	c43e                	sw	a5,8(sp)
    695a:	c236                	sw	a3,4(sp)
    695c:	a37ff0ef          	jal	ra,6392 <__hexdig_fun>
    6960:	4632                	lw	a2,12(sp)
    6962:	e559                	bnez	a0,69f0 <__hexnan+0xfa>
    6964:	4692                	lw	a3,4(sp)
    6966:	47a2                	lw	a5,8(sp)
    6968:	02dce863          	bltu	s9,a3,6998 <__hexnan+0xa2>
    696c:	037ad463          	bge	s5,s7,6994 <__hexnan+0x9e>
    6970:	01b47863          	bgeu	s0,s11,6980 <__hexnan+0x8a>
    6974:	00cd4663          	blt	s10,a2,6980 <__hexnan+0x8a>
    6978:	85ee                	mv	a1,s11
    697a:	8522                	mv	a0,s0
    697c:	f21ff0ef          	jal	ra,689c <L_shift>
    6980:	4621                	li	a2,8
    6982:	0089f963          	bgeu	s3,s0,6994 <__hexnan+0x9e>
    6986:	ffc40d93          	addi	s11,s0,-4
    698a:	fe042e23          	sw	zero,-4(s0)
    698e:	8ade                	mv	s5,s7
    6990:	846e                	mv	s0,s11
    6992:	4601                	li	a2,0
    6994:	4782                	lw	a5,0(sp)
    6996:	bf55                	j	694a <__hexnan+0x54>
    6998:	02900593          	li	a1,41
    699c:	08b69c63          	bne	a3,a1,6a34 <__hexnan+0x13e>
    69a0:	0789                	addi	a5,a5,2
    69a2:	00fb2023          	sw	a5,0(s6)
    69a6:	080b8763          	beqz	s7,6a34 <__hexnan+0x13e>
    69aa:	01b47963          	bgeu	s0,s11,69bc <__hexnan+0xc6>
    69ae:	479d                	li	a5,7
    69b0:	00c7c663          	blt	a5,a2,69bc <__hexnan+0xc6>
    69b4:	85ee                	mv	a1,s11
    69b6:	8522                	mv	a0,s0
    69b8:	ee5ff0ef          	jal	ra,689c <L_shift>
    69bc:	0489fa63          	bgeu	s3,s0,6a10 <__hexnan+0x11a>
    69c0:	87ce                	mv	a5,s3
    69c2:	0411                	addi	s0,s0,4
    69c4:	ffc42703          	lw	a4,-4(s0)
    69c8:	0791                	addi	a5,a5,4
    69ca:	fee7ae23          	sw	a4,-4(a5)
    69ce:	fe897ae3          	bgeu	s2,s0,69c2 <__hexnan+0xcc>
    69d2:	0791                	addi	a5,a5,4
    69d4:	fe07ae23          	sw	zero,-4(a5)
    69d8:	fef97de3          	bgeu	s2,a5,69d2 <__hexnan+0xdc>
    69dc:	00092783          	lw	a5,0(s2)
    69e0:	e791                	bnez	a5,69ec <__hexnan+0xf6>
    69e2:	05391763          	bne	s2,s3,6a30 <__hexnan+0x13a>
    69e6:	4785                	li	a5,1
    69e8:	00f92023          	sw	a5,0(s2)
    69ec:	4515                	li	a0,5
    69ee:	a0a1                	j	6a36 <__hexnan+0x140>
    69f0:	0605                	addi	a2,a2,1
    69f2:	0b85                	addi	s7,s7,1
    69f4:	00cc5863          	bge	s8,a2,6a04 <__hexnan+0x10e>
    69f8:	f889fee3          	bgeu	s3,s0,6994 <__hexnan+0x9e>
    69fc:	fe042e23          	sw	zero,-4(s0)
    6a00:	4605                	li	a2,1
    6a02:	1471                	addi	s0,s0,-4
    6a04:	401c                	lw	a5,0(s0)
    6a06:	893d                	andi	a0,a0,15
    6a08:	0792                	slli	a5,a5,0x4
    6a0a:	8fc9                	or	a5,a5,a0
    6a0c:	c01c                	sw	a5,0(s0)
    6a0e:	b759                	j	6994 <__hexnan+0x9e>
    6a10:	fc0a06e3          	beqz	s4,69dc <__hexnan+0xe6>
    6a14:	02000793          	li	a5,32
    6a18:	414787b3          	sub	a5,a5,s4
    6a1c:	5a7d                	li	s4,-1
    6a1e:	00fa57b3          	srl	a5,s4,a5
    6a22:	ffc4aa03          	lw	s4,-4(s1)
    6a26:	00fa7a33          	and	s4,s4,a5
    6a2a:	ff44ae23          	sw	s4,-4(s1)
    6a2e:	b77d                	j	69dc <__hexnan+0xe6>
    6a30:	1971                	addi	s2,s2,-4
    6a32:	b76d                	j	69dc <__hexnan+0xe6>
    6a34:	4511                	li	a0,4
    6a36:	40b6                	lw	ra,76(sp)
    6a38:	4426                	lw	s0,72(sp)
    6a3a:	4496                	lw	s1,68(sp)
    6a3c:	4906                	lw	s2,64(sp)
    6a3e:	59f2                	lw	s3,60(sp)
    6a40:	5a62                	lw	s4,56(sp)
    6a42:	5ad2                	lw	s5,52(sp)
    6a44:	5b42                	lw	s6,48(sp)
    6a46:	5bb2                	lw	s7,44(sp)
    6a48:	5c22                	lw	s8,40(sp)
    6a4a:	5c92                	lw	s9,36(sp)
    6a4c:	5d02                	lw	s10,32(sp)
    6a4e:	4df2                	lw	s11,28(sp)
    6a50:	6161                	addi	sp,sp,80
    6a52:	8082                	ret

00006a54 <__locale_ctype_ptr_l>:
    6a54:	0ec52503          	lw	a0,236(a0)
    6a58:	8082                	ret

00006a5a <__locale_ctype_ptr>:
    6a5a:	81418793          	addi	a5,gp,-2028 # 20000344 <_impure_ptr>
    6a5e:	439c                	lw	a5,0(a5)
    6a60:	539c                	lw	a5,32(a5)
    6a62:	e789                	bnez	a5,6a6c <__locale_ctype_ptr+0x12>
    6a64:	1fff9797          	auipc	a5,0x1fff9
    6a68:	75c78793          	addi	a5,a5,1884 # 200001c0 <__global_locale>
    6a6c:	0ec7a503          	lw	a0,236(a5)
    6a70:	8082                	ret

00006a72 <__localeconv_l>:
    6a72:	0f050513          	addi	a0,a0,240
    6a76:	8082                	ret

00006a78 <_lseek_r>:
    6a78:	1141                	addi	sp,sp,-16
    6a7a:	c422                	sw	s0,8(sp)
    6a7c:	842a                	mv	s0,a0
    6a7e:	852e                	mv	a0,a1
    6a80:	85b2                	mv	a1,a2
    6a82:	8636                	mv	a2,a3
    6a84:	1fffe797          	auipc	a5,0x1fffe
    6a88:	f807aa23          	sw	zero,-108(a5) # 20004a18 <errno>
    6a8c:	c606                	sw	ra,12(sp)
    6a8e:	667030ef          	jal	ra,a8f4 <_lseek>
    6a92:	57fd                	li	a5,-1
    6a94:	00f51963          	bne	a0,a5,6aa6 <_lseek_r+0x2e>
    6a98:	1fffe797          	auipc	a5,0x1fffe
    6a9c:	f8078793          	addi	a5,a5,-128 # 20004a18 <errno>
    6aa0:	439c                	lw	a5,0(a5)
    6aa2:	c391                	beqz	a5,6aa6 <_lseek_r+0x2e>
    6aa4:	c01c                	sw	a5,0(s0)
    6aa6:	40b2                	lw	ra,12(sp)
    6aa8:	4422                	lw	s0,8(sp)
    6aaa:	0141                	addi	sp,sp,16
    6aac:	8082                	ret

00006aae <__ascii_mbtowc>:
    6aae:	ed91                	bnez	a1,6aca <__ascii_mbtowc+0x1c>
    6ab0:	1141                	addi	sp,sp,-16
    6ab2:	006c                	addi	a1,sp,12
    6ab4:	4501                	li	a0,0
    6ab6:	ca01                	beqz	a2,6ac6 <__ascii_mbtowc+0x18>
    6ab8:	5579                	li	a0,-2
    6aba:	c691                	beqz	a3,6ac6 <__ascii_mbtowc+0x18>
    6abc:	221c                	lbu	a5,0(a2)
    6abe:	c19c                	sw	a5,0(a1)
    6ac0:	2208                	lbu	a0,0(a2)
    6ac2:	00a03533          	snez	a0,a0
    6ac6:	0141                	addi	sp,sp,16
    6ac8:	8082                	ret
    6aca:	4501                	li	a0,0
    6acc:	ca09                	beqz	a2,6ade <__ascii_mbtowc+0x30>
    6ace:	5579                	li	a0,-2
    6ad0:	c699                	beqz	a3,6ade <__ascii_mbtowc+0x30>
    6ad2:	221c                	lbu	a5,0(a2)
    6ad4:	c19c                	sw	a5,0(a1)
    6ad6:	2208                	lbu	a0,0(a2)
    6ad8:	00a03533          	snez	a0,a0
    6adc:	8082                	ret
    6ade:	8082                	ret

00006ae0 <_Balloc>:
    6ae0:	515c                	lw	a5,36(a0)
    6ae2:	1141                	addi	sp,sp,-16
    6ae4:	c422                	sw	s0,8(sp)
    6ae6:	c04a                	sw	s2,0(sp)
    6ae8:	c606                	sw	ra,12(sp)
    6aea:	c226                	sw	s1,4(sp)
    6aec:	842a                	mv	s0,a0
    6aee:	892e                	mv	s2,a1
    6af0:	ef89                	bnez	a5,6b0a <_Balloc+0x2a>
    6af2:	4541                	li	a0,16
    6af4:	7e9010ef          	jal	ra,8adc <malloc>
    6af8:	d048                	sw	a0,36(s0)
    6afa:	00052223          	sw	zero,4(a0)
    6afe:	00052423          	sw	zero,8(a0)
    6b02:	00052023          	sw	zero,0(a0)
    6b06:	00052623          	sw	zero,12(a0)
    6b0a:	5044                	lw	s1,36(s0)
    6b0c:	44dc                	lw	a5,12(s1)
    6b0e:	c79d                	beqz	a5,6b3c <_Balloc+0x5c>
    6b10:	5058                	lw	a4,36(s0)
    6b12:	00291793          	slli	a5,s2,0x2
    6b16:	4758                	lw	a4,12(a4)
    6b18:	97ba                	add	a5,a5,a4
    6b1a:	4388                	lw	a0,0(a5)
    6b1c:	e129                	bnez	a0,6b5e <_Balloc+0x7e>
    6b1e:	4485                	li	s1,1
    6b20:	012494b3          	sll	s1,s1,s2
    6b24:	00548613          	addi	a2,s1,5
    6b28:	060a                	slli	a2,a2,0x2
    6b2a:	4585                	li	a1,1
    6b2c:	8522                	mv	a0,s0
    6b2e:	13d000ef          	jal	ra,746a <_calloc_r>
    6b32:	cd19                	beqz	a0,6b50 <_Balloc+0x70>
    6b34:	01252223          	sw	s2,4(a0)
    6b38:	c504                	sw	s1,8(a0)
    6b3a:	a025                	j	6b62 <_Balloc+0x82>
    6b3c:	02100613          	li	a2,33
    6b40:	4591                	li	a1,4
    6b42:	8522                	mv	a0,s0
    6b44:	127000ef          	jal	ra,746a <_calloc_r>
    6b48:	505c                	lw	a5,36(s0)
    6b4a:	c4c8                	sw	a0,12(s1)
    6b4c:	47dc                	lw	a5,12(a5)
    6b4e:	f3e9                	bnez	a5,6b10 <_Balloc+0x30>
    6b50:	4501                	li	a0,0
    6b52:	40b2                	lw	ra,12(sp)
    6b54:	4422                	lw	s0,8(sp)
    6b56:	4492                	lw	s1,4(sp)
    6b58:	4902                	lw	s2,0(sp)
    6b5a:	0141                	addi	sp,sp,16
    6b5c:	8082                	ret
    6b5e:	4118                	lw	a4,0(a0)
    6b60:	c398                	sw	a4,0(a5)
    6b62:	00052823          	sw	zero,16(a0)
    6b66:	00052623          	sw	zero,12(a0)
    6b6a:	b7e5                	j	6b52 <_Balloc+0x72>

00006b6c <_Bfree>:
    6b6c:	515c                	lw	a5,36(a0)
    6b6e:	1101                	addi	sp,sp,-32
    6b70:	cc22                	sw	s0,24(sp)
    6b72:	ce06                	sw	ra,28(sp)
    6b74:	842a                	mv	s0,a0
    6b76:	ef99                	bnez	a5,6b94 <_Bfree+0x28>
    6b78:	4541                	li	a0,16
    6b7a:	c62e                	sw	a1,12(sp)
    6b7c:	761010ef          	jal	ra,8adc <malloc>
    6b80:	45b2                	lw	a1,12(sp)
    6b82:	d048                	sw	a0,36(s0)
    6b84:	00052223          	sw	zero,4(a0)
    6b88:	00052423          	sw	zero,8(a0)
    6b8c:	00052023          	sw	zero,0(a0)
    6b90:	00052623          	sw	zero,12(a0)
    6b94:	c991                	beqz	a1,6ba8 <_Bfree+0x3c>
    6b96:	5054                	lw	a3,36(s0)
    6b98:	41dc                	lw	a5,4(a1)
    6b9a:	00279713          	slli	a4,a5,0x2
    6b9e:	46dc                	lw	a5,12(a3)
    6ba0:	97ba                	add	a5,a5,a4
    6ba2:	4398                	lw	a4,0(a5)
    6ba4:	c198                	sw	a4,0(a1)
    6ba6:	c38c                	sw	a1,0(a5)
    6ba8:	40f2                	lw	ra,28(sp)
    6baa:	4462                	lw	s0,24(sp)
    6bac:	6105                	addi	sp,sp,32
    6bae:	8082                	ret

00006bb0 <__multadd>:
    6bb0:	7179                	addi	sp,sp,-48
    6bb2:	ce4e                	sw	s3,28(sp)
    6bb4:	89aa                	mv	s3,a0
    6bb6:	6541                	lui	a0,0x10
    6bb8:	d422                	sw	s0,40(sp)
    6bba:	d226                	sw	s1,36(sp)
    6bbc:	842e                	mv	s0,a1
    6bbe:	4984                	lw	s1,16(a1)
    6bc0:	d606                	sw	ra,44(sp)
    6bc2:	d04a                	sw	s2,32(sp)
    6bc4:	05d1                	addi	a1,a1,20
    6bc6:	4801                	li	a6,0
    6bc8:	157d                	addi	a0,a0,-1
    6bca:	419c                	lw	a5,0(a1)
    6bcc:	0591                	addi	a1,a1,4
    6bce:	0805                	addi	a6,a6,1
    6bd0:	00a7f733          	and	a4,a5,a0
    6bd4:	02c70733          	mul	a4,a4,a2
    6bd8:	83c1                	srli	a5,a5,0x10
    6bda:	02c787b3          	mul	a5,a5,a2
    6bde:	9736                	add	a4,a4,a3
    6be0:	01075693          	srli	a3,a4,0x10
    6be4:	8f69                	and	a4,a4,a0
    6be6:	97b6                	add	a5,a5,a3
    6be8:	0107d693          	srli	a3,a5,0x10
    6bec:	07c2                	slli	a5,a5,0x10
    6bee:	97ba                	add	a5,a5,a4
    6bf0:	fef5ae23          	sw	a5,-4(a1)
    6bf4:	fc984be3          	blt	a6,s1,6bca <__multadd+0x1a>
    6bf8:	c2a1                	beqz	a3,6c38 <__multadd+0x88>
    6bfa:	441c                	lw	a5,8(s0)
    6bfc:	02f4c763          	blt	s1,a5,6c2a <__multadd+0x7a>
    6c00:	404c                	lw	a1,4(s0)
    6c02:	854e                	mv	a0,s3
    6c04:	c636                	sw	a3,12(sp)
    6c06:	0585                	addi	a1,a1,1
    6c08:	ed9ff0ef          	jal	ra,6ae0 <_Balloc>
    6c0c:	4810                	lw	a2,16(s0)
    6c0e:	00c40593          	addi	a1,s0,12
    6c12:	892a                	mv	s2,a0
    6c14:	0609                	addi	a2,a2,2
    6c16:	060a                	slli	a2,a2,0x2
    6c18:	0531                	addi	a0,a0,12
    6c1a:	b76fe0ef          	jal	ra,4f90 <memcpy>
    6c1e:	85a2                	mv	a1,s0
    6c20:	854e                	mv	a0,s3
    6c22:	f4bff0ef          	jal	ra,6b6c <_Bfree>
    6c26:	46b2                	lw	a3,12(sp)
    6c28:	844a                	mv	s0,s2
    6c2a:	00448793          	addi	a5,s1,4
    6c2e:	078a                	slli	a5,a5,0x2
    6c30:	97a2                	add	a5,a5,s0
    6c32:	c3d4                	sw	a3,4(a5)
    6c34:	0485                	addi	s1,s1,1
    6c36:	c804                	sw	s1,16(s0)
    6c38:	8522                	mv	a0,s0
    6c3a:	50b2                	lw	ra,44(sp)
    6c3c:	5422                	lw	s0,40(sp)
    6c3e:	5492                	lw	s1,36(sp)
    6c40:	5902                	lw	s2,32(sp)
    6c42:	49f2                	lw	s3,28(sp)
    6c44:	6145                	addi	sp,sp,48
    6c46:	8082                	ret

00006c48 <__s2b>:
    6c48:	7179                	addi	sp,sp,-48
    6c4a:	00868793          	addi	a5,a3,8
    6c4e:	cc52                	sw	s4,24(sp)
    6c50:	8a36                	mv	s4,a3
    6c52:	46a5                	li	a3,9
    6c54:	d422                	sw	s0,40(sp)
    6c56:	d226                	sw	s1,36(sp)
    6c58:	ce4e                	sw	s3,28(sp)
    6c5a:	842e                	mv	s0,a1
    6c5c:	02d7c7b3          	div	a5,a5,a3
    6c60:	d606                	sw	ra,44(sp)
    6c62:	d04a                	sw	s2,32(sp)
    6c64:	ca56                	sw	s5,20(sp)
    6c66:	89aa                	mv	s3,a0
    6c68:	84b2                	mv	s1,a2
    6c6a:	4685                	li	a3,1
    6c6c:	4581                	li	a1,0
    6c6e:	04f6cc63          	blt	a3,a5,6cc6 <__s2b+0x7e>
    6c72:	854e                	mv	a0,s3
    6c74:	c63a                	sw	a4,12(sp)
    6c76:	e6bff0ef          	jal	ra,6ae0 <_Balloc>
    6c7a:	4732                	lw	a4,12(sp)
    6c7c:	4785                	li	a5,1
    6c7e:	c91c                	sw	a5,16(a0)
    6c80:	c958                	sw	a4,20(a0)
    6c82:	47a5                	li	a5,9
    6c84:	0497d463          	bge	a5,s1,6ccc <__s2b+0x84>
    6c88:	00940a93          	addi	s5,s0,9
    6c8c:	8956                	mv	s2,s5
    6c8e:	9426                	add	s0,s0,s1
    6c90:	0905                	addi	s2,s2,1
    6c92:	fff94683          	lbu	a3,-1(s2)
    6c96:	85aa                	mv	a1,a0
    6c98:	4629                	li	a2,10
    6c9a:	fd068693          	addi	a3,a3,-48
    6c9e:	854e                	mv	a0,s3
    6ca0:	f11ff0ef          	jal	ra,6bb0 <__multadd>
    6ca4:	fe8916e3          	bne	s2,s0,6c90 <__s2b+0x48>
    6ca8:	ff848413          	addi	s0,s1,-8
    6cac:	9456                	add	s0,s0,s5
    6cae:	8926                	mv	s2,s1
    6cb0:	03494163          	blt	s2,s4,6cd2 <__s2b+0x8a>
    6cb4:	50b2                	lw	ra,44(sp)
    6cb6:	5422                	lw	s0,40(sp)
    6cb8:	5492                	lw	s1,36(sp)
    6cba:	5902                	lw	s2,32(sp)
    6cbc:	49f2                	lw	s3,28(sp)
    6cbe:	4a62                	lw	s4,24(sp)
    6cc0:	4ad2                	lw	s5,20(sp)
    6cc2:	6145                	addi	sp,sp,48
    6cc4:	8082                	ret
    6cc6:	0686                	slli	a3,a3,0x1
    6cc8:	0585                	addi	a1,a1,1
    6cca:	b755                	j	6c6e <__s2b+0x26>
    6ccc:	0429                	addi	s0,s0,10
    6cce:	44a5                	li	s1,9
    6cd0:	bff9                	j	6cae <__s2b+0x66>
    6cd2:	409907b3          	sub	a5,s2,s1
    6cd6:	97a2                	add	a5,a5,s0
    6cd8:	2394                	lbu	a3,0(a5)
    6cda:	85aa                	mv	a1,a0
    6cdc:	4629                	li	a2,10
    6cde:	fd068693          	addi	a3,a3,-48
    6ce2:	854e                	mv	a0,s3
    6ce4:	ecdff0ef          	jal	ra,6bb0 <__multadd>
    6ce8:	0905                	addi	s2,s2,1
    6cea:	b7d9                	j	6cb0 <__s2b+0x68>

00006cec <__hi0bits>:
    6cec:	7741                	lui	a4,0xffff0
    6cee:	8f69                	and	a4,a4,a0
    6cf0:	87aa                	mv	a5,a0
    6cf2:	4501                	li	a0,0
    6cf4:	e319                	bnez	a4,6cfa <__hi0bits+0xe>
    6cf6:	07c2                	slli	a5,a5,0x10
    6cf8:	4541                	li	a0,16
    6cfa:	ff000737          	lui	a4,0xff000
    6cfe:	8f7d                	and	a4,a4,a5
    6d00:	e319                	bnez	a4,6d06 <__hi0bits+0x1a>
    6d02:	0521                	addi	a0,a0,8
    6d04:	07a2                	slli	a5,a5,0x8
    6d06:	f0000737          	lui	a4,0xf0000
    6d0a:	8f7d                	and	a4,a4,a5
    6d0c:	e319                	bnez	a4,6d12 <__hi0bits+0x26>
    6d0e:	0511                	addi	a0,a0,4
    6d10:	0792                	slli	a5,a5,0x4
    6d12:	c0000737          	lui	a4,0xc0000
    6d16:	8f7d                	and	a4,a4,a5
    6d18:	e319                	bnez	a4,6d1e <__hi0bits+0x32>
    6d1a:	0509                	addi	a0,a0,2
    6d1c:	078a                	slli	a5,a5,0x2
    6d1e:	0007c963          	bltz	a5,6d30 <__hi0bits+0x44>
    6d22:	00179713          	slli	a4,a5,0x1
    6d26:	0505                	addi	a0,a0,1
    6d28:	00074463          	bltz	a4,6d30 <__hi0bits+0x44>
    6d2c:	02000513          	li	a0,32
    6d30:	8082                	ret

00006d32 <__lo0bits>:
    6d32:	411c                	lw	a5,0(a0)
    6d34:	0077f713          	andi	a4,a5,7
    6d38:	c30d                	beqz	a4,6d5a <__lo0bits+0x28>
    6d3a:	0017f693          	andi	a3,a5,1
    6d3e:	4701                	li	a4,0
    6d40:	e699                	bnez	a3,6d4e <__lo0bits+0x1c>
    6d42:	0027f713          	andi	a4,a5,2
    6d46:	c711                	beqz	a4,6d52 <__lo0bits+0x20>
    6d48:	8385                	srli	a5,a5,0x1
    6d4a:	c11c                	sw	a5,0(a0)
    6d4c:	4705                	li	a4,1
    6d4e:	853a                	mv	a0,a4
    6d50:	8082                	ret
    6d52:	8389                	srli	a5,a5,0x2
    6d54:	c11c                	sw	a5,0(a0)
    6d56:	4709                	li	a4,2
    6d58:	bfdd                	j	6d4e <__lo0bits+0x1c>
    6d5a:	01079693          	slli	a3,a5,0x10
    6d5e:	82c1                	srli	a3,a3,0x10
    6d60:	4701                	li	a4,0
    6d62:	e299                	bnez	a3,6d68 <__lo0bits+0x36>
    6d64:	83c1                	srli	a5,a5,0x10
    6d66:	4741                	li	a4,16
    6d68:	0ff7f693          	andi	a3,a5,255
    6d6c:	e299                	bnez	a3,6d72 <__lo0bits+0x40>
    6d6e:	0721                	addi	a4,a4,8
    6d70:	83a1                	srli	a5,a5,0x8
    6d72:	00f7f693          	andi	a3,a5,15
    6d76:	e299                	bnez	a3,6d7c <__lo0bits+0x4a>
    6d78:	0711                	addi	a4,a4,4
    6d7a:	8391                	srli	a5,a5,0x4
    6d7c:	0037f693          	andi	a3,a5,3
    6d80:	e299                	bnez	a3,6d86 <__lo0bits+0x54>
    6d82:	0709                	addi	a4,a4,2
    6d84:	8389                	srli	a5,a5,0x2
    6d86:	0017f693          	andi	a3,a5,1
    6d8a:	e681                	bnez	a3,6d92 <__lo0bits+0x60>
    6d8c:	8385                	srli	a5,a5,0x1
    6d8e:	0705                	addi	a4,a4,1
    6d90:	c399                	beqz	a5,6d96 <__lo0bits+0x64>
    6d92:	c11c                	sw	a5,0(a0)
    6d94:	bf6d                	j	6d4e <__lo0bits+0x1c>
    6d96:	02000713          	li	a4,32
    6d9a:	bf55                	j	6d4e <__lo0bits+0x1c>

00006d9c <__i2b>:
    6d9c:	1141                	addi	sp,sp,-16
    6d9e:	c422                	sw	s0,8(sp)
    6da0:	842e                	mv	s0,a1
    6da2:	4585                	li	a1,1
    6da4:	c606                	sw	ra,12(sp)
    6da6:	d3bff0ef          	jal	ra,6ae0 <_Balloc>
    6daa:	c940                	sw	s0,20(a0)
    6dac:	40b2                	lw	ra,12(sp)
    6dae:	4422                	lw	s0,8(sp)
    6db0:	4705                	li	a4,1
    6db2:	c918                	sw	a4,16(a0)
    6db4:	0141                	addi	sp,sp,16
    6db6:	8082                	ret

00006db8 <__multiply>:
    6db8:	4998                	lw	a4,16(a1)
    6dba:	4a1c                	lw	a5,16(a2)
    6dbc:	7179                	addi	sp,sp,-48
    6dbe:	d226                	sw	s1,36(sp)
    6dc0:	d606                	sw	ra,44(sp)
    6dc2:	d422                	sw	s0,40(sp)
    6dc4:	d04a                	sw	s2,32(sp)
    6dc6:	ce4e                	sw	s3,28(sp)
    6dc8:	84ae                	mv	s1,a1
    6dca:	00f75463          	bge	a4,a5,6dd2 <__multiply+0x1a>
    6dce:	84b2                	mv	s1,a2
    6dd0:	862e                	mv	a2,a1
    6dd2:	0104a983          	lw	s3,16(s1)
    6dd6:	01062903          	lw	s2,16(a2)
    6dda:	449c                	lw	a5,8(s1)
    6ddc:	40cc                	lw	a1,4(s1)
    6dde:	01298433          	add	s0,s3,s2
    6de2:	0087d363          	bge	a5,s0,6de8 <__multiply+0x30>
    6de6:	0585                	addi	a1,a1,1
    6de8:	c632                	sw	a2,12(sp)
    6dea:	cf7ff0ef          	jal	ra,6ae0 <_Balloc>
    6dee:	4632                	lw	a2,12(sp)
    6df0:	01450813          	addi	a6,a0,20 # 10014 <__rt_init_end+0x3764>
    6df4:	00241313          	slli	t1,s0,0x2
    6df8:	9342                	add	t1,t1,a6
    6dfa:	87c2                	mv	a5,a6
    6dfc:	0267ed63          	bltu	a5,t1,6e36 <__multiply+0x7e>
    6e00:	01448593          	addi	a1,s1,20
    6e04:	00299893          	slli	a7,s3,0x2
    6e08:	0651                	addi	a2,a2,20
    6e0a:	00291e13          	slli	t3,s2,0x2
    6e0e:	66c1                	lui	a3,0x10
    6e10:	98ae                	add	a7,a7,a1
    6e12:	9e32                	add	t3,t3,a2
    6e14:	16fd                	addi	a3,a3,-1
    6e16:	03c66463          	bltu	a2,t3,6e3e <__multiply+0x86>
    6e1a:	00805663          	blez	s0,6e26 <__multiply+0x6e>
    6e1e:	1371                	addi	t1,t1,-4
    6e20:	00032783          	lw	a5,0(t1)
    6e24:	cbf1                	beqz	a5,6ef8 <__multiply+0x140>
    6e26:	c900                	sw	s0,16(a0)
    6e28:	50b2                	lw	ra,44(sp)
    6e2a:	5422                	lw	s0,40(sp)
    6e2c:	5492                	lw	s1,36(sp)
    6e2e:	5902                	lw	s2,32(sp)
    6e30:	49f2                	lw	s3,28(sp)
    6e32:	6145                	addi	sp,sp,48
    6e34:	8082                	ret
    6e36:	0007a023          	sw	zero,0(a5)
    6e3a:	0791                	addi	a5,a5,4
    6e3c:	b7c1                	j	6dfc <__multiply+0x44>
    6e3e:	00062f83          	lw	t6,0(a2)
    6e42:	00dfffb3          	and	t6,t6,a3
    6e46:	040f8a63          	beqz	t6,6e9a <__multiply+0xe2>
    6e4a:	8f42                	mv	t5,a6
    6e4c:	82ae                	mv	t0,a1
    6e4e:	4481                	li	s1,0
    6e50:	0002a703          	lw	a4,0(t0)
    6e54:	000f2383          	lw	t2,0(t5)
    6e58:	0f11                	addi	t5,t5,4
    6e5a:	00d77eb3          	and	t4,a4,a3
    6e5e:	03fe8eb3          	mul	t4,t4,t6
    6e62:	00d3f7b3          	and	a5,t2,a3
    6e66:	0103d393          	srli	t2,t2,0x10
    6e6a:	0291                	addi	t0,t0,4
    6e6c:	9ebe                	add	t4,t4,a5
    6e6e:	01075793          	srli	a5,a4,0x10
    6e72:	03f787b3          	mul	a5,a5,t6
    6e76:	9ea6                	add	t4,t4,s1
    6e78:	010ed713          	srli	a4,t4,0x10
    6e7c:	00defeb3          	and	t4,t4,a3
    6e80:	979e                	add	a5,a5,t2
    6e82:	97ba                	add	a5,a5,a4
    6e84:	0107d493          	srli	s1,a5,0x10
    6e88:	07c2                	slli	a5,a5,0x10
    6e8a:	01d7e7b3          	or	a5,a5,t4
    6e8e:	feff2e23          	sw	a5,-4(t5)
    6e92:	fb12efe3          	bltu	t0,a7,6e50 <__multiply+0x98>
    6e96:	009f2023          	sw	s1,0(t5)
    6e9a:	00265283          	lhu	t0,2(a2)
    6e9e:	04028a63          	beqz	t0,6ef2 <__multiply+0x13a>
    6ea2:	00082783          	lw	a5,0(a6)
    6ea6:	8ec2                	mv	t4,a6
    6ea8:	8f2e                	mv	t5,a1
    6eaa:	4f81                	li	t6,0
    6eac:	000f2703          	lw	a4,0(t5)
    6eb0:	002ed383          	lhu	t2,2(t4)
    6eb4:	8ff5                	and	a5,a5,a3
    6eb6:	8f75                	and	a4,a4,a3
    6eb8:	02570733          	mul	a4,a4,t0
    6ebc:	0e91                	addi	t4,t4,4
    6ebe:	0f11                	addi	t5,t5,4
    6ec0:	971e                	add	a4,a4,t2
    6ec2:	977e                	add	a4,a4,t6
    6ec4:	01071f93          	slli	t6,a4,0x10
    6ec8:	00ffe7b3          	or	a5,t6,a5
    6ecc:	fefeae23          	sw	a5,-4(t4)
    6ed0:	ffef5783          	lhu	a5,-2(t5)
    6ed4:	000eaf83          	lw	t6,0(t4)
    6ed8:	8341                	srli	a4,a4,0x10
    6eda:	025787b3          	mul	a5,a5,t0
    6ede:	00dfffb3          	and	t6,t6,a3
    6ee2:	97fe                	add	a5,a5,t6
    6ee4:	97ba                	add	a5,a5,a4
    6ee6:	0107df93          	srli	t6,a5,0x10
    6eea:	fd1f61e3          	bltu	t5,a7,6eac <__multiply+0xf4>
    6eee:	00fea023          	sw	a5,0(t4)
    6ef2:	0611                	addi	a2,a2,4
    6ef4:	0811                	addi	a6,a6,4
    6ef6:	b705                	j	6e16 <__multiply+0x5e>
    6ef8:	147d                	addi	s0,s0,-1
    6efa:	b705                	j	6e1a <__multiply+0x62>

00006efc <__pow5mult>:
    6efc:	1101                	addi	sp,sp,-32
    6efe:	ca26                	sw	s1,20(sp)
    6f00:	c84a                	sw	s2,16(sp)
    6f02:	c64e                	sw	s3,12(sp)
    6f04:	ce06                	sw	ra,28(sp)
    6f06:	cc22                	sw	s0,24(sp)
    6f08:	c452                	sw	s4,8(sp)
    6f0a:	00367793          	andi	a5,a2,3
    6f0e:	892a                	mv	s2,a0
    6f10:	84b2                	mv	s1,a2
    6f12:	89ae                	mv	s3,a1
    6f14:	cf89                	beqz	a5,6f2e <__pow5mult+0x32>
    6f16:	17fd                	addi	a5,a5,-1
    6f18:	00005717          	auipc	a4,0x5
    6f1c:	5f870713          	addi	a4,a4,1528 # c510 <p05.3319>
    6f20:	078a                	slli	a5,a5,0x2
    6f22:	97ba                	add	a5,a5,a4
    6f24:	4390                	lw	a2,0(a5)
    6f26:	4681                	li	a3,0
    6f28:	c89ff0ef          	jal	ra,6bb0 <__multadd>
    6f2c:	89aa                	mv	s3,a0
    6f2e:	8489                	srai	s1,s1,0x2
    6f30:	cca5                	beqz	s1,6fa8 <__pow5mult+0xac>
    6f32:	02492783          	lw	a5,36(s2)
    6f36:	ef91                	bnez	a5,6f52 <__pow5mult+0x56>
    6f38:	4541                	li	a0,16
    6f3a:	3a3010ef          	jal	ra,8adc <malloc>
    6f3e:	02a92223          	sw	a0,36(s2)
    6f42:	00052223          	sw	zero,4(a0)
    6f46:	00052423          	sw	zero,8(a0)
    6f4a:	00052023          	sw	zero,0(a0)
    6f4e:	00052623          	sw	zero,12(a0)
    6f52:	02492a03          	lw	s4,36(s2)
    6f56:	008a2403          	lw	s0,8(s4)
    6f5a:	e819                	bnez	s0,6f70 <__pow5mult+0x74>
    6f5c:	27100593          	li	a1,625
    6f60:	854a                	mv	a0,s2
    6f62:	e3bff0ef          	jal	ra,6d9c <__i2b>
    6f66:	00aa2423          	sw	a0,8(s4)
    6f6a:	842a                	mv	s0,a0
    6f6c:	00052023          	sw	zero,0(a0)
    6f70:	0014f793          	andi	a5,s1,1
    6f74:	cf81                	beqz	a5,6f8c <__pow5mult+0x90>
    6f76:	85ce                	mv	a1,s3
    6f78:	8622                	mv	a2,s0
    6f7a:	854a                	mv	a0,s2
    6f7c:	e3dff0ef          	jal	ra,6db8 <__multiply>
    6f80:	8a2a                	mv	s4,a0
    6f82:	85ce                	mv	a1,s3
    6f84:	854a                	mv	a0,s2
    6f86:	be7ff0ef          	jal	ra,6b6c <_Bfree>
    6f8a:	89d2                	mv	s3,s4
    6f8c:	8485                	srai	s1,s1,0x1
    6f8e:	cc89                	beqz	s1,6fa8 <__pow5mult+0xac>
    6f90:	4008                	lw	a0,0(s0)
    6f92:	e909                	bnez	a0,6fa4 <__pow5mult+0xa8>
    6f94:	8622                	mv	a2,s0
    6f96:	85a2                	mv	a1,s0
    6f98:	854a                	mv	a0,s2
    6f9a:	e1fff0ef          	jal	ra,6db8 <__multiply>
    6f9e:	c008                	sw	a0,0(s0)
    6fa0:	00052023          	sw	zero,0(a0)
    6fa4:	842a                	mv	s0,a0
    6fa6:	b7e9                	j	6f70 <__pow5mult+0x74>
    6fa8:	40f2                	lw	ra,28(sp)
    6faa:	4462                	lw	s0,24(sp)
    6fac:	854e                	mv	a0,s3
    6fae:	44d2                	lw	s1,20(sp)
    6fb0:	4942                	lw	s2,16(sp)
    6fb2:	49b2                	lw	s3,12(sp)
    6fb4:	4a22                	lw	s4,8(sp)
    6fb6:	6105                	addi	sp,sp,32
    6fb8:	8082                	ret

00006fba <__lshift>:
    6fba:	7179                	addi	sp,sp,-48
    6fbc:	d226                	sw	s1,36(sp)
    6fbe:	84ae                	mv	s1,a1
    6fc0:	ce4e                	sw	s3,28(sp)
    6fc2:	0104a983          	lw	s3,16(s1)
    6fc6:	d422                	sw	s0,40(sp)
    6fc8:	41cc                	lw	a1,4(a1)
    6fca:	40565413          	srai	s0,a2,0x5
    6fce:	449c                	lw	a5,8(s1)
    6fd0:	99a2                	add	s3,s3,s0
    6fd2:	d04a                	sw	s2,32(sp)
    6fd4:	ca56                	sw	s5,20(sp)
    6fd6:	d606                	sw	ra,44(sp)
    6fd8:	cc52                	sw	s4,24(sp)
    6fda:	8aaa                	mv	s5,a0
    6fdc:	00198913          	addi	s2,s3,1
    6fe0:	0927c463          	blt	a5,s2,7068 <__lshift+0xae>
    6fe4:	8556                	mv	a0,s5
    6fe6:	c632                	sw	a2,12(sp)
    6fe8:	af9ff0ef          	jal	ra,6ae0 <_Balloc>
    6fec:	4632                	lw	a2,12(sp)
    6fee:	01450793          	addi	a5,a0,20
    6ff2:	8a2a                	mv	s4,a0
    6ff4:	86be                	mv	a3,a5
    6ff6:	4701                	li	a4,0
    6ff8:	0691                	addi	a3,a3,4
    6ffa:	06874a63          	blt	a4,s0,706e <__lshift+0xb4>
    6ffe:	00045363          	bgez	s0,7004 <__lshift+0x4a>
    7002:	4401                	li	s0,0
    7004:	4894                	lw	a3,16(s1)
    7006:	040a                	slli	s0,s0,0x2
    7008:	00878733          	add	a4,a5,s0
    700c:	068a                	slli	a3,a3,0x2
    700e:	01448793          	addi	a5,s1,20
    7012:	8a7d                	andi	a2,a2,31
    7014:	96be                	add	a3,a3,a5
    7016:	c225                	beqz	a2,7076 <__lshift+0xbc>
    7018:	02000813          	li	a6,32
    701c:	40c80833          	sub	a6,a6,a2
    7020:	4581                	li	a1,0
    7022:	4388                	lw	a0,0(a5)
    7024:	0711                	addi	a4,a4,4
    7026:	0791                	addi	a5,a5,4
    7028:	00c51533          	sll	a0,a0,a2
    702c:	8dc9                	or	a1,a1,a0
    702e:	feb72e23          	sw	a1,-4(a4)
    7032:	ffc7a583          	lw	a1,-4(a5)
    7036:	0105d5b3          	srl	a1,a1,a6
    703a:	fed7e4e3          	bltu	a5,a3,7022 <__lshift+0x68>
    703e:	c30c                	sw	a1,0(a4)
    7040:	c199                	beqz	a1,7046 <__lshift+0x8c>
    7042:	00298913          	addi	s2,s3,2
    7046:	197d                	addi	s2,s2,-1
    7048:	012a2823          	sw	s2,16(s4)
    704c:	8556                	mv	a0,s5
    704e:	85a6                	mv	a1,s1
    7050:	b1dff0ef          	jal	ra,6b6c <_Bfree>
    7054:	50b2                	lw	ra,44(sp)
    7056:	5422                	lw	s0,40(sp)
    7058:	8552                	mv	a0,s4
    705a:	5492                	lw	s1,36(sp)
    705c:	5902                	lw	s2,32(sp)
    705e:	49f2                	lw	s3,28(sp)
    7060:	4a62                	lw	s4,24(sp)
    7062:	4ad2                	lw	s5,20(sp)
    7064:	6145                	addi	sp,sp,48
    7066:	8082                	ret
    7068:	0585                	addi	a1,a1,1
    706a:	0786                	slli	a5,a5,0x1
    706c:	bf95                	j	6fe0 <__lshift+0x26>
    706e:	fe06ae23          	sw	zero,-4(a3) # fffc <__rt_init_end+0x374c>
    7072:	0705                	addi	a4,a4,1
    7074:	b751                	j	6ff8 <__lshift+0x3e>
    7076:	0791                	addi	a5,a5,4
    7078:	ffc7a603          	lw	a2,-4(a5)
    707c:	0711                	addi	a4,a4,4
    707e:	fec72e23          	sw	a2,-4(a4)
    7082:	fed7eae3          	bltu	a5,a3,7076 <__lshift+0xbc>
    7086:	b7c1                	j	7046 <__lshift+0x8c>

00007088 <__mcmp>:
    7088:	491c                	lw	a5,16(a0)
    708a:	4998                	lw	a4,16(a1)
    708c:	8f99                	sub	a5,a5,a4
    708e:	e38d                	bnez	a5,70b0 <__mcmp+0x28>
    7090:	070a                	slli	a4,a4,0x2
    7092:	0551                	addi	a0,a0,20
    7094:	05d1                	addi	a1,a1,20
    7096:	00e506b3          	add	a3,a0,a4
    709a:	95ba                	add	a1,a1,a4
    709c:	16f1                	addi	a3,a3,-4
    709e:	15f1                	addi	a1,a1,-4
    70a0:	4290                	lw	a2,0(a3)
    70a2:	4198                	lw	a4,0(a1)
    70a4:	00e60863          	beq	a2,a4,70b4 <__mcmp+0x2c>
    70a8:	57fd                	li	a5,-1
    70aa:	00e66363          	bltu	a2,a4,70b0 <__mcmp+0x28>
    70ae:	4785                	li	a5,1
    70b0:	853e                	mv	a0,a5
    70b2:	8082                	ret
    70b4:	fed564e3          	bltu	a0,a3,709c <__mcmp+0x14>
    70b8:	bfe5                	j	70b0 <__mcmp+0x28>

000070ba <__mdiff>:
    70ba:	1101                	addi	sp,sp,-32
    70bc:	ca26                	sw	s1,20(sp)
    70be:	84ae                	mv	s1,a1
    70c0:	c64e                	sw	s3,12(sp)
    70c2:	85b2                	mv	a1,a2
    70c4:	89aa                	mv	s3,a0
    70c6:	8526                	mv	a0,s1
    70c8:	cc22                	sw	s0,24(sp)
    70ca:	ce06                	sw	ra,28(sp)
    70cc:	c84a                	sw	s2,16(sp)
    70ce:	8432                	mv	s0,a2
    70d0:	fb9ff0ef          	jal	ra,7088 <__mcmp>
    70d4:	e105                	bnez	a0,70f4 <__mdiff+0x3a>
    70d6:	4581                	li	a1,0
    70d8:	854e                	mv	a0,s3
    70da:	a07ff0ef          	jal	ra,6ae0 <_Balloc>
    70de:	4785                	li	a5,1
    70e0:	c91c                	sw	a5,16(a0)
    70e2:	00052a23          	sw	zero,20(a0)
    70e6:	40f2                	lw	ra,28(sp)
    70e8:	4462                	lw	s0,24(sp)
    70ea:	44d2                	lw	s1,20(sp)
    70ec:	4942                	lw	s2,16(sp)
    70ee:	49b2                	lw	s3,12(sp)
    70f0:	6105                	addi	sp,sp,32
    70f2:	8082                	ret
    70f4:	4905                	li	s2,1
    70f6:	00054663          	bltz	a0,7102 <__mdiff+0x48>
    70fa:	87a2                	mv	a5,s0
    70fc:	4901                	li	s2,0
    70fe:	8426                	mv	s0,s1
    7100:	84be                	mv	s1,a5
    7102:	404c                	lw	a1,4(s0)
    7104:	854e                	mv	a0,s3
    7106:	9dbff0ef          	jal	ra,6ae0 <_Balloc>
    710a:	01042303          	lw	t1,16(s0)
    710e:	0104a883          	lw	a7,16(s1)
    7112:	01440613          	addi	a2,s0,20
    7116:	00231e13          	slli	t3,t1,0x2
    711a:	01448813          	addi	a6,s1,20
    711e:	088a                	slli	a7,a7,0x2
    7120:	6ec1                	lui	t4,0x10
    7122:	01252623          	sw	s2,12(a0)
    7126:	9e32                	add	t3,t3,a2
    7128:	98c2                	add	a7,a7,a6
    712a:	01450693          	addi	a3,a0,20
    712e:	4f01                	li	t5,0
    7130:	1efd                	addi	t4,t4,-1
    7132:	4218                	lw	a4,0(a2)
    7134:	00082f83          	lw	t6,0(a6)
    7138:	0691                	addi	a3,a3,4
    713a:	01d775b3          	and	a1,a4,t4
    713e:	01dff7b3          	and	a5,t6,t4
    7142:	95fa                	add	a1,a1,t5
    7144:	8d9d                	sub	a1,a1,a5
    7146:	010fdf93          	srli	t6,t6,0x10
    714a:	01075793          	srli	a5,a4,0x10
    714e:	41f787b3          	sub	a5,a5,t6
    7152:	4105d713          	srai	a4,a1,0x10
    7156:	97ba                	add	a5,a5,a4
    7158:	4107df13          	srai	t5,a5,0x10
    715c:	01d5f5b3          	and	a1,a1,t4
    7160:	07c2                	slli	a5,a5,0x10
    7162:	8fcd                	or	a5,a5,a1
    7164:	0811                	addi	a6,a6,4
    7166:	fef6ae23          	sw	a5,-4(a3)
    716a:	0611                	addi	a2,a2,4
    716c:	fd1863e3          	bltu	a6,a7,7132 <__mdiff+0x78>
    7170:	65c1                	lui	a1,0x10
    7172:	15fd                	addi	a1,a1,-1
    7174:	01c66863          	bltu	a2,t3,7184 <__mdiff+0xca>
    7178:	16f1                	addi	a3,a3,-4
    717a:	429c                	lw	a5,0(a3)
    717c:	c795                	beqz	a5,71a8 <__mdiff+0xee>
    717e:	00652823          	sw	t1,16(a0)
    7182:	b795                	j	70e6 <__mdiff+0x2c>
    7184:	421c                	lw	a5,0(a2)
    7186:	0691                	addi	a3,a3,4
    7188:	0611                	addi	a2,a2,4
    718a:	00b7f733          	and	a4,a5,a1
    718e:	977a                	add	a4,a4,t5
    7190:	41075813          	srai	a6,a4,0x10
    7194:	83c1                	srli	a5,a5,0x10
    7196:	97c2                	add	a5,a5,a6
    7198:	4107df13          	srai	t5,a5,0x10
    719c:	8f6d                	and	a4,a4,a1
    719e:	07c2                	slli	a5,a5,0x10
    71a0:	8fd9                	or	a5,a5,a4
    71a2:	fef6ae23          	sw	a5,-4(a3)
    71a6:	b7f9                	j	7174 <__mdiff+0xba>
    71a8:	137d                	addi	t1,t1,-1
    71aa:	b7f9                	j	7178 <__mdiff+0xbe>

000071ac <__ulp>:
    71ac:	7ff007b7          	lui	a5,0x7ff00
    71b0:	8dfd                	and	a1,a1,a5
    71b2:	fcc007b7          	lui	a5,0xfcc00
    71b6:	95be                	add	a1,a1,a5
    71b8:	00b05563          	blez	a1,71c2 <__ulp+0x16>
    71bc:	4781                	li	a5,0
    71be:	853e                	mv	a0,a5
    71c0:	8082                	ret
    71c2:	40b005b3          	neg	a1,a1
    71c6:	4145d793          	srai	a5,a1,0x14
    71ca:	474d                	li	a4,19
    71cc:	00f74763          	blt	a4,a5,71da <__ulp+0x2e>
    71d0:	000805b7          	lui	a1,0x80
    71d4:	40f5d5b3          	sra	a1,a1,a5
    71d8:	b7d5                	j	71bc <__ulp+0x10>
    71da:	fec78713          	addi	a4,a5,-20 # fcbfffec <_eusrstack+0xdcbeffec>
    71de:	46f9                	li	a3,30
    71e0:	4581                	li	a1,0
    71e2:	4785                	li	a5,1
    71e4:	fce6cde3          	blt	a3,a4,71be <__ulp+0x12>
    71e8:	800007b7          	lui	a5,0x80000
    71ec:	00e7d7b3          	srl	a5,a5,a4
    71f0:	b7f9                	j	71be <__ulp+0x12>

000071f2 <__b2d>:
    71f2:	7179                	addi	sp,sp,-48
    71f4:	d226                	sw	s1,36(sp)
    71f6:	4904                	lw	s1,16(a0)
    71f8:	ce4e                	sw	s3,28(sp)
    71fa:	01450993          	addi	s3,a0,20
    71fe:	048a                	slli	s1,s1,0x2
    7200:	94ce                	add	s1,s1,s3
    7202:	d422                	sw	s0,40(sp)
    7204:	ffc4a403          	lw	s0,-4(s1)
    7208:	d04a                	sw	s2,32(sp)
    720a:	c62e                	sw	a1,12(sp)
    720c:	8522                	mv	a0,s0
    720e:	d606                	sw	ra,44(sp)
    7210:	addff0ef          	jal	ra,6cec <__hi0bits>
    7214:	45b2                	lw	a1,12(sp)
    7216:	02000793          	li	a5,32
    721a:	8f89                	sub	a5,a5,a0
    721c:	c19c                	sw	a5,0(a1)
    721e:	47a9                	li	a5,10
    7220:	ffc48913          	addi	s2,s1,-4
    7224:	02a7cd63          	blt	a5,a0,725e <__b2d+0x6c>
    7228:	47ad                	li	a5,11
    722a:	8f89                	sub	a5,a5,a0
    722c:	3ff00737          	lui	a4,0x3ff00
    7230:	00f456b3          	srl	a3,s0,a5
    7234:	8ed9                	or	a3,a3,a4
    7236:	4701                	li	a4,0
    7238:	0129f463          	bgeu	s3,s2,7240 <__b2d+0x4e>
    723c:	ff84a703          	lw	a4,-8(s1)
    7240:	0555                	addi	a0,a0,21
    7242:	00a41533          	sll	a0,s0,a0
    7246:	00f757b3          	srl	a5,a4,a5
    724a:	8fc9                	or	a5,a5,a0
    724c:	50b2                	lw	ra,44(sp)
    724e:	5422                	lw	s0,40(sp)
    7250:	5492                	lw	s1,36(sp)
    7252:	5902                	lw	s2,32(sp)
    7254:	49f2                	lw	s3,28(sp)
    7256:	853e                	mv	a0,a5
    7258:	85b6                	mv	a1,a3
    725a:	6145                	addi	sp,sp,48
    725c:	8082                	ret
    725e:	4781                	li	a5,0
    7260:	0129f663          	bgeu	s3,s2,726c <__b2d+0x7a>
    7264:	ff84a783          	lw	a5,-8(s1)
    7268:	ff848913          	addi	s2,s1,-8
    726c:	1555                	addi	a0,a0,-11
    726e:	c905                	beqz	a0,729e <__b2d+0xac>
    7270:	02000713          	li	a4,32
    7274:	40a70633          	sub	a2,a4,a0
    7278:	00c7d733          	srl	a4,a5,a2
    727c:	00a41433          	sll	s0,s0,a0
    7280:	8c59                	or	s0,s0,a4
    7282:	3ff006b7          	lui	a3,0x3ff00
    7286:	8ec1                	or	a3,a3,s0
    7288:	4701                	li	a4,0
    728a:	0129f463          	bgeu	s3,s2,7292 <__b2d+0xa0>
    728e:	ffc92703          	lw	a4,-4(s2)
    7292:	00a797b3          	sll	a5,a5,a0
    7296:	00c75733          	srl	a4,a4,a2
    729a:	8fd9                	or	a5,a5,a4
    729c:	bf45                	j	724c <__b2d+0x5a>
    729e:	3ff006b7          	lui	a3,0x3ff00
    72a2:	8ec1                	or	a3,a3,s0
    72a4:	b765                	j	724c <__b2d+0x5a>

000072a6 <__d2b>:
    72a6:	7179                	addi	sp,sp,-48
    72a8:	d422                	sw	s0,40(sp)
    72aa:	842e                	mv	s0,a1
    72ac:	4585                	li	a1,1
    72ae:	d226                	sw	s1,36(sp)
    72b0:	d04a                	sw	s2,32(sp)
    72b2:	84b2                	mv	s1,a2
    72b4:	ce4e                	sw	s3,28(sp)
    72b6:	cc52                	sw	s4,24(sp)
    72b8:	893a                	mv	s2,a4
    72ba:	d606                	sw	ra,44(sp)
    72bc:	8a36                	mv	s4,a3
    72be:	823ff0ef          	jal	ra,6ae0 <_Balloc>
    72c2:	00100737          	lui	a4,0x100
    72c6:	fff70793          	addi	a5,a4,-1 # fffff <__rt_init_end+0xf374f>
    72ca:	8fe5                	and	a5,a5,s1
    72cc:	80d1                	srli	s1,s1,0x14
    72ce:	7ff4f493          	andi	s1,s1,2047
    72d2:	89aa                	mv	s3,a0
    72d4:	e0b5                	bnez	s1,7338 <__d2b+0x92>
    72d6:	c63e                	sw	a5,12(sp)
    72d8:	c42d                	beqz	s0,7342 <__d2b+0x9c>
    72da:	0028                	addi	a0,sp,8
    72dc:	c422                	sw	s0,8(sp)
    72de:	a55ff0ef          	jal	ra,6d32 <__lo0bits>
    72e2:	46a2                	lw	a3,8(sp)
    72e4:	cd21                	beqz	a0,733c <__d2b+0x96>
    72e6:	4732                	lw	a4,12(sp)
    72e8:	02000793          	li	a5,32
    72ec:	8f89                	sub	a5,a5,a0
    72ee:	00f717b3          	sll	a5,a4,a5
    72f2:	8fd5                	or	a5,a5,a3
    72f4:	00a75733          	srl	a4,a4,a0
    72f8:	00f9aa23          	sw	a5,20(s3)
    72fc:	c63a                	sw	a4,12(sp)
    72fe:	4432                	lw	s0,12(sp)
    7300:	0089ac23          	sw	s0,24(s3)
    7304:	00803433          	snez	s0,s0
    7308:	0405                	addi	s0,s0,1
    730a:	0089a823          	sw	s0,16(s3)
    730e:	c4b9                	beqz	s1,735c <__d2b+0xb6>
    7310:	bcd48493          	addi	s1,s1,-1075
    7314:	94aa                	add	s1,s1,a0
    7316:	03500793          	li	a5,53
    731a:	009a2023          	sw	s1,0(s4)
    731e:	40a78533          	sub	a0,a5,a0
    7322:	00a92023          	sw	a0,0(s2)
    7326:	50b2                	lw	ra,44(sp)
    7328:	5422                	lw	s0,40(sp)
    732a:	854e                	mv	a0,s3
    732c:	5492                	lw	s1,36(sp)
    732e:	5902                	lw	s2,32(sp)
    7330:	49f2                	lw	s3,28(sp)
    7332:	4a62                	lw	s4,24(sp)
    7334:	6145                	addi	sp,sp,48
    7336:	8082                	ret
    7338:	8fd9                	or	a5,a5,a4
    733a:	bf71                	j	72d6 <__d2b+0x30>
    733c:	00d9aa23          	sw	a3,20(s3)
    7340:	bf7d                	j	72fe <__d2b+0x58>
    7342:	0068                	addi	a0,sp,12
    7344:	9efff0ef          	jal	ra,6d32 <__lo0bits>
    7348:	47b2                	lw	a5,12(sp)
    734a:	02050513          	addi	a0,a0,32
    734e:	4405                	li	s0,1
    7350:	00f9aa23          	sw	a5,20(s3)
    7354:	4785                	li	a5,1
    7356:	00f9a823          	sw	a5,16(s3)
    735a:	bf55                	j	730e <__d2b+0x68>
    735c:	00241793          	slli	a5,s0,0x2
    7360:	bce50513          	addi	a0,a0,-1074
    7364:	97ce                	add	a5,a5,s3
    7366:	00aa2023          	sw	a0,0(s4)
    736a:	4b88                	lw	a0,16(a5)
    736c:	0416                	slli	s0,s0,0x5
    736e:	97fff0ef          	jal	ra,6cec <__hi0bits>
    7372:	8c09                	sub	s0,s0,a0
    7374:	00892023          	sw	s0,0(s2)
    7378:	b77d                	j	7326 <__d2b+0x80>

0000737a <__ratio>:
    737a:	7179                	addi	sp,sp,-48
    737c:	d04a                	sw	s2,32(sp)
    737e:	892e                	mv	s2,a1
    7380:	002c                	addi	a1,sp,8
    7382:	d606                	sw	ra,44(sp)
    7384:	d422                	sw	s0,40(sp)
    7386:	d226                	sw	s1,36(sp)
    7388:	ce4e                	sw	s3,28(sp)
    738a:	cc52                	sw	s4,24(sp)
    738c:	8a2a                	mv	s4,a0
    738e:	e65ff0ef          	jal	ra,71f2 <__b2d>
    7392:	89aa                	mv	s3,a0
    7394:	84ae                	mv	s1,a1
    7396:	842e                	mv	s0,a1
    7398:	854a                	mv	a0,s2
    739a:	006c                	addi	a1,sp,12
    739c:	e57ff0ef          	jal	ra,71f2 <__b2d>
    73a0:	01092783          	lw	a5,16(s2)
    73a4:	010a2703          	lw	a4,16(s4)
    73a8:	46a2                	lw	a3,8(sp)
    73aa:	8f1d                	sub	a4,a4,a5
    73ac:	47b2                	lw	a5,12(sp)
    73ae:	0716                	slli	a4,a4,0x5
    73b0:	8e9d                	sub	a3,a3,a5
    73b2:	00d707b3          	add	a5,a4,a3
    73b6:	02f05563          	blez	a5,73e0 <__ratio+0x66>
    73ba:	07d2                	slli	a5,a5,0x14
    73bc:	862e                	mv	a2,a1
    73be:	00978433          	add	s0,a5,s1
    73c2:	8732                	mv	a4,a2
    73c4:	85a2                	mv	a1,s0
    73c6:	862a                	mv	a2,a0
    73c8:	86ba                	mv	a3,a4
    73ca:	854e                	mv	a0,s3
    73cc:	7e3010ef          	jal	ra,93ae <__divdf3>
    73d0:	50b2                	lw	ra,44(sp)
    73d2:	5422                	lw	s0,40(sp)
    73d4:	5492                	lw	s1,36(sp)
    73d6:	5902                	lw	s2,32(sp)
    73d8:	49f2                	lw	s3,28(sp)
    73da:	4a62                	lw	s4,24(sp)
    73dc:	6145                	addi	sp,sp,48
    73de:	8082                	ret
    73e0:	fff00737          	lui	a4,0xfff00
    73e4:	02e787b3          	mul	a5,a5,a4
    73e8:	00b78633          	add	a2,a5,a1
    73ec:	bfd9                	j	73c2 <__ratio+0x48>

000073ee <__copybits>:
    73ee:	fff58793          	addi	a5,a1,-1 # 7ffff <__rt_init_end+0x7374f>
    73f2:	4a18                	lw	a4,16(a2)
    73f4:	8795                	srai	a5,a5,0x5
    73f6:	0785                	addi	a5,a5,1
    73f8:	078a                	slli	a5,a5,0x2
    73fa:	01460693          	addi	a3,a2,20
    73fe:	070a                	slli	a4,a4,0x2
    7400:	97aa                	add	a5,a5,a0
    7402:	9736                	add	a4,a4,a3
    7404:	00e6e563          	bltu	a3,a4,740e <__copybits+0x20>
    7408:	00f56a63          	bltu	a0,a5,741c <__copybits+0x2e>
    740c:	8082                	ret
    740e:	0691                	addi	a3,a3,4
    7410:	ffc6a603          	lw	a2,-4(a3) # 3feffffc <_eusrstack+0x1feefffc>
    7414:	0511                	addi	a0,a0,4
    7416:	fec52e23          	sw	a2,-4(a0)
    741a:	b7ed                	j	7404 <__copybits+0x16>
    741c:	0511                	addi	a0,a0,4
    741e:	fe052e23          	sw	zero,-4(a0)
    7422:	b7dd                	j	7408 <__copybits+0x1a>

00007424 <__any_on>:
    7424:	4914                	lw	a3,16(a0)
    7426:	4055d793          	srai	a5,a1,0x5
    742a:	01450713          	addi	a4,a0,20
    742e:	02f6c763          	blt	a3,a5,745c <__any_on+0x38>
    7432:	00d7df63          	bge	a5,a3,7450 <__any_on+0x2c>
    7436:	89fd                	andi	a1,a1,31
    7438:	cd81                	beqz	a1,7450 <__any_on+0x2c>
    743a:	00279693          	slli	a3,a5,0x2
    743e:	96ba                	add	a3,a3,a4
    7440:	4290                	lw	a2,0(a3)
    7442:	4505                	li	a0,1
    7444:	00b656b3          	srl	a3,a2,a1
    7448:	00b695b3          	sll	a1,a3,a1
    744c:	00b61e63          	bne	a2,a1,7468 <__any_on+0x44>
    7450:	078a                	slli	a5,a5,0x2
    7452:	97ba                	add	a5,a5,a4
    7454:	00f76663          	bltu	a4,a5,7460 <__any_on+0x3c>
    7458:	4501                	li	a0,0
    745a:	8082                	ret
    745c:	87b6                	mv	a5,a3
    745e:	bfcd                	j	7450 <__any_on+0x2c>
    7460:	17f1                	addi	a5,a5,-4
    7462:	4394                	lw	a3,0(a5)
    7464:	dae5                	beqz	a3,7454 <__any_on+0x30>
    7466:	4505                	li	a0,1
    7468:	8082                	ret

0000746a <_calloc_r>:
    746a:	02c58633          	mul	a2,a1,a2
    746e:	1101                	addi	sp,sp,-32
    7470:	cc22                	sw	s0,24(sp)
    7472:	ce06                	sw	ra,28(sp)
    7474:	85b2                	mv	a1,a2
    7476:	c632                	sw	a2,12(sp)
    7478:	2821                	jal	7490 <_malloc_r>
    747a:	842a                	mv	s0,a0
    747c:	c509                	beqz	a0,7486 <_calloc_r+0x1c>
    747e:	4632                	lw	a2,12(sp)
    7480:	4581                	li	a1,0
    7482:	f51f80ef          	jal	ra,3d2 <memset>
    7486:	8522                	mv	a0,s0
    7488:	40f2                	lw	ra,28(sp)
    748a:	4462                	lw	s0,24(sp)
    748c:	6105                	addi	sp,sp,32
    748e:	8082                	ret

00007490 <_malloc_r>:
    7490:	1101                	addi	sp,sp,-32
    7492:	ca26                	sw	s1,20(sp)
    7494:	00358493          	addi	s1,a1,3
    7498:	98f1                	andi	s1,s1,-4
    749a:	ce06                	sw	ra,28(sp)
    749c:	cc22                	sw	s0,24(sp)
    749e:	c84a                	sw	s2,16(sp)
    74a0:	c64e                	sw	s3,12(sp)
    74a2:	04a1                	addi	s1,s1,8
    74a4:	47b1                	li	a5,12
    74a6:	04f4f563          	bgeu	s1,a5,74f0 <_malloc_r+0x60>
    74aa:	44b1                	li	s1,12
    74ac:	04b4e463          	bltu	s1,a1,74f4 <_malloc_r+0x64>
    74b0:	892a                	mv	s2,a0
    74b2:	64e010ef          	jal	ra,8b00 <__malloc_lock>
    74b6:	8d818793          	addi	a5,gp,-1832 # 20000408 <__malloc_free_list>
    74ba:	4398                	lw	a4,0(a5)
    74bc:	843a                	mv	s0,a4
    74be:	e429                	bnez	s0,7508 <_malloc_r+0x78>
    74c0:	8dc18793          	addi	a5,gp,-1828 # 2000040c <__malloc_sbrk_start>
    74c4:	439c                	lw	a5,0(a5)
    74c6:	e799                	bnez	a5,74d4 <_malloc_r+0x44>
    74c8:	4581                	li	a1,0
    74ca:	854a                	mv	a0,s2
    74cc:	739000ef          	jal	ra,8404 <_sbrk_r>
    74d0:	8ca1ae23          	sw	a0,-1828(gp) # 2000040c <__malloc_sbrk_start>
    74d4:	85a6                	mv	a1,s1
    74d6:	854a                	mv	a0,s2
    74d8:	72d000ef          	jal	ra,8404 <_sbrk_r>
    74dc:	59fd                	li	s3,-1
    74de:	07351963          	bne	a0,s3,7550 <_malloc_r+0xc0>
    74e2:	47b1                	li	a5,12
    74e4:	00f92023          	sw	a5,0(s2)
    74e8:	854a                	mv	a0,s2
    74ea:	618010ef          	jal	ra,8b02 <__malloc_unlock>
    74ee:	a029                	j	74f8 <_malloc_r+0x68>
    74f0:	fa04dee3          	bgez	s1,74ac <_malloc_r+0x1c>
    74f4:	47b1                	li	a5,12
    74f6:	c11c                	sw	a5,0(a0)
    74f8:	4501                	li	a0,0
    74fa:	40f2                	lw	ra,28(sp)
    74fc:	4462                	lw	s0,24(sp)
    74fe:	44d2                	lw	s1,20(sp)
    7500:	4942                	lw	s2,16(sp)
    7502:	49b2                	lw	s3,12(sp)
    7504:	6105                	addi	sp,sp,32
    7506:	8082                	ret
    7508:	401c                	lw	a5,0(s0)
    750a:	8f85                	sub	a5,a5,s1
    750c:	0207cf63          	bltz	a5,754a <_malloc_r+0xba>
    7510:	46ad                	li	a3,11
    7512:	00f6f663          	bgeu	a3,a5,751e <_malloc_r+0x8e>
    7516:	c01c                	sw	a5,0(s0)
    7518:	943e                	add	s0,s0,a5
    751a:	c004                	sw	s1,0(s0)
    751c:	a031                	j	7528 <_malloc_r+0x98>
    751e:	405c                	lw	a5,4(s0)
    7520:	02871363          	bne	a4,s0,7546 <_malloc_r+0xb6>
    7524:	8cf1ac23          	sw	a5,-1832(gp) # 20000408 <__malloc_free_list>
    7528:	854a                	mv	a0,s2
    752a:	5d8010ef          	jal	ra,8b02 <__malloc_unlock>
    752e:	00b40513          	addi	a0,s0,11
    7532:	00440793          	addi	a5,s0,4
    7536:	9961                	andi	a0,a0,-8
    7538:	40f50733          	sub	a4,a0,a5
    753c:	df5d                	beqz	a4,74fa <_malloc_r+0x6a>
    753e:	943a                	add	s0,s0,a4
    7540:	8f89                	sub	a5,a5,a0
    7542:	c01c                	sw	a5,0(s0)
    7544:	bf5d                	j	74fa <_malloc_r+0x6a>
    7546:	c35c                	sw	a5,4(a4)
    7548:	b7c5                	j	7528 <_malloc_r+0x98>
    754a:	8722                	mv	a4,s0
    754c:	4040                	lw	s0,4(s0)
    754e:	bf85                	j	74be <_malloc_r+0x2e>
    7550:	00350413          	addi	s0,a0,3
    7554:	9871                	andi	s0,s0,-4
    7556:	fc8502e3          	beq	a0,s0,751a <_malloc_r+0x8a>
    755a:	40a405b3          	sub	a1,s0,a0
    755e:	854a                	mv	a0,s2
    7560:	6a5000ef          	jal	ra,8404 <_sbrk_r>
    7564:	fb351be3          	bne	a0,s3,751a <_malloc_r+0x8a>
    7568:	bfad                	j	74e2 <_malloc_r+0x52>

0000756a <_sungetc_r>:
    756a:	1141                	addi	sp,sp,-16
    756c:	c606                	sw	ra,12(sp)
    756e:	c422                	sw	s0,8(sp)
    7570:	c226                	sw	s1,4(sp)
    7572:	c04a                	sw	s2,0(sp)
    7574:	57fd                	li	a5,-1
    7576:	00f59a63          	bne	a1,a5,758a <_sungetc_r+0x20>
    757a:	54fd                	li	s1,-1
    757c:	40b2                	lw	ra,12(sp)
    757e:	4422                	lw	s0,8(sp)
    7580:	8526                	mv	a0,s1
    7582:	4902                	lw	s2,0(sp)
    7584:	4492                	lw	s1,4(sp)
    7586:	0141                	addi	sp,sp,16
    7588:	8082                	ret
    758a:	265e                	lhu	a5,12(a2)
    758c:	0ff5f913          	andi	s2,a1,255
    7590:	0ff5f493          	andi	s1,a1,255
    7594:	fdf7f793          	andi	a5,a5,-33
    7598:	a65e                	sh	a5,12(a2)
    759a:	5a5c                	lw	a5,52(a2)
    759c:	4258                	lw	a4,4(a2)
    759e:	c785                	beqz	a5,75c6 <_sungetc_r+0x5c>
    75a0:	5e1c                	lw	a5,56(a2)
    75a2:	8432                	mv	s0,a2
    75a4:	00f75c63          	bge	a4,a5,75bc <_sungetc_r+0x52>
    75a8:	401c                	lw	a5,0(s0)
    75aa:	fff78713          	addi	a4,a5,-1 # 7fffffff <_eusrstack+0x5ffeffff>
    75ae:	c018                	sw	a4,0(s0)
    75b0:	ff278fa3          	sb	s2,-1(a5)
    75b4:	405c                	lw	a5,4(s0)
    75b6:	0785                	addi	a5,a5,1
    75b8:	c05c                	sw	a5,4(s0)
    75ba:	b7c9                	j	757c <_sungetc_r+0x12>
    75bc:	85b2                	mv	a1,a2
    75be:	040010ef          	jal	ra,85fe <__submore>
    75c2:	d17d                	beqz	a0,75a8 <_sungetc_r+0x3e>
    75c4:	bf5d                	j	757a <_sungetc_r+0x10>
    75c6:	4a14                	lw	a3,16(a2)
    75c8:	421c                	lw	a5,0(a2)
    75ca:	ce81                	beqz	a3,75e2 <_sungetc_r+0x78>
    75cc:	00f6fb63          	bgeu	a3,a5,75e2 <_sungetc_r+0x78>
    75d0:	fff7c683          	lbu	a3,-1(a5)
    75d4:	00969763          	bne	a3,s1,75e2 <_sungetc_r+0x78>
    75d8:	17fd                	addi	a5,a5,-1
    75da:	0705                	addi	a4,a4,1
    75dc:	c21c                	sw	a5,0(a2)
    75de:	c258                	sw	a4,4(a2)
    75e0:	bf71                	j	757c <_sungetc_r+0x12>
    75e2:	de5c                	sw	a5,60(a2)
    75e4:	04460793          	addi	a5,a2,68
    75e8:	da5c                	sw	a5,52(a2)
    75ea:	478d                	li	a5,3
    75ec:	de1c                	sw	a5,56(a2)
    75ee:	04660793          	addi	a5,a2,70
    75f2:	c21c                	sw	a5,0(a2)
    75f4:	4785                	li	a5,1
    75f6:	c238                	sw	a4,64(a2)
    75f8:	05260323          	sb	s2,70(a2)
    75fc:	c25c                	sw	a5,4(a2)
    75fe:	bfbd                	j	757c <_sungetc_r+0x12>

00007600 <__ssrefill_r>:
    7600:	1141                	addi	sp,sp,-16
    7602:	c422                	sw	s0,8(sp)
    7604:	842e                	mv	s0,a1
    7606:	59cc                	lw	a1,52(a1)
    7608:	c606                	sw	ra,12(sp)
    760a:	c19d                	beqz	a1,7630 <__ssrefill_r+0x30>
    760c:	04440793          	addi	a5,s0,68
    7610:	00f58463          	beq	a1,a5,7618 <__ssrefill_r+0x18>
    7614:	4f0010ef          	jal	ra,8b04 <_free_r>
    7618:	403c                	lw	a5,64(s0)
    761a:	02042a23          	sw	zero,52(s0)
    761e:	c05c                	sw	a5,4(s0)
    7620:	cb81                	beqz	a5,7630 <__ssrefill_r+0x30>
    7622:	5c5c                	lw	a5,60(s0)
    7624:	4501                	li	a0,0
    7626:	c01c                	sw	a5,0(s0)
    7628:	40b2                	lw	ra,12(sp)
    762a:	4422                	lw	s0,8(sp)
    762c:	0141                	addi	sp,sp,16
    762e:	8082                	ret
    7630:	481c                	lw	a5,16(s0)
    7632:	00042223          	sw	zero,4(s0)
    7636:	557d                	li	a0,-1
    7638:	c01c                	sw	a5,0(s0)
    763a:	245e                	lhu	a5,12(s0)
    763c:	0207e793          	ori	a5,a5,32
    7640:	a45e                	sh	a5,12(s0)
    7642:	b7dd                	j	7628 <__ssrefill_r+0x28>

00007644 <__ssvfiscanf_r>:
    7644:	d2010113          	addi	sp,sp,-736
    7648:	00000797          	auipc	a5,0x0
    764c:	f2278793          	addi	a5,a5,-222 # 756a <_sungetc_r>
    7650:	2d312623          	sw	s3,716(sp)
    7654:	28f12c23          	sw	a5,664(sp)
    7658:	01c10993          	addi	s3,sp,28
    765c:	00000797          	auipc	a5,0x0
    7660:	fa478793          	addi	a5,a5,-92 # 7600 <__ssrefill_r>
    7664:	2c812c23          	sw	s0,728(sp)
    7668:	2c912a23          	sw	s1,724(sp)
    766c:	2d212823          	sw	s2,720(sp)
    7670:	2d412423          	sw	s4,712(sp)
    7674:	2d512223          	sw	s5,708(sp)
    7678:	2d612023          	sw	s6,704(sp)
    767c:	2b712e23          	sw	s7,700(sp)
    7680:	2b812c23          	sw	s8,696(sp)
    7684:	2c112e23          	sw	ra,732(sp)
    7688:	2b912a23          	sw	s9,692(sp)
    768c:	2ba12823          	sw	s10,688(sp)
    7690:	2bb12623          	sw	s11,684(sp)
    7694:	84aa                	mv	s1,a0
    7696:	842e                	mv	s0,a1
    7698:	12012423          	sw	zero,296(sp)
    769c:	12012623          	sw	zero,300(sp)
    76a0:	13312823          	sw	s3,304(sp)
    76a4:	28f12e23          	sw	a5,668(sp)
    76a8:	cc36                	sw	a3,24(sp)
    76aa:	02500a13          	li	s4,37
    76ae:	02a00b13          	li	s6,42
    76b2:	4ba5                	li	s7,9
    76b4:	4929                	li	s2,10
    76b6:	00005a97          	auipc	s5,0x5
    76ba:	e66a8a93          	addi	s5,s5,-410 # c51c <p05.3319+0xc>
    76be:	ffff9c17          	auipc	s8,0xffff9
    76c2:	942c0c13          	addi	s8,s8,-1726 # 0 <_sinit>
    76c6:	221c                	lbu	a5,0(a2)
    76c8:	c632                	sw	a2,12(sp)
    76ca:	30078e63          	beqz	a5,79e6 <__ssvfiscanf_r+0x3a2>
    76ce:	b8cff0ef          	jal	ra,6a5a <__locale_ctype_ptr>
    76d2:	4632                	lw	a2,12(sp)
    76d4:	00064d83          	lbu	s11,0(a2)
    76d8:	00160c93          	addi	s9,a2,1
    76dc:	956e                	add	a0,a0,s11
    76de:	311c                	lbu	a5,1(a0)
    76e0:	8ba1                	andi	a5,a5,8
    76e2:	c3a1                	beqz	a5,7722 <__ssvfiscanf_r+0xde>
    76e4:	405c                	lw	a5,4(s0)
    76e6:	02f05763          	blez	a5,7714 <__ssvfiscanf_r+0xd0>
    76ea:	b70ff0ef          	jal	ra,6a5a <__locale_ctype_ptr>
    76ee:	401c                	lw	a5,0(s0)
    76f0:	2398                	lbu	a4,0(a5)
    76f2:	953a                	add	a0,a0,a4
    76f4:	3118                	lbu	a4,1(a0)
    76f6:	8b21                	andi	a4,a4,8
    76f8:	e319                	bnez	a4,76fe <__ssvfiscanf_r+0xba>
    76fa:	8666                	mv	a2,s9
    76fc:	b7e9                	j	76c6 <__ssvfiscanf_r+0x82>
    76fe:	12c12703          	lw	a4,300(sp)
    7702:	0785                	addi	a5,a5,1
    7704:	c01c                	sw	a5,0(s0)
    7706:	0705                	addi	a4,a4,1
    7708:	12e12623          	sw	a4,300(sp)
    770c:	4058                	lw	a4,4(s0)
    770e:	177d                	addi	a4,a4,-1
    7710:	c058                	sw	a4,4(s0)
    7712:	bfc9                	j	76e4 <__ssvfiscanf_r+0xa0>
    7714:	29c12783          	lw	a5,668(sp)
    7718:	85a2                	mv	a1,s0
    771a:	8526                	mv	a0,s1
    771c:	9782                	jalr	a5
    771e:	d571                	beqz	a0,76ea <__ssvfiscanf_r+0xa6>
    7720:	bfe9                	j	76fa <__ssvfiscanf_r+0xb6>
    7722:	174d9863          	bne	s11,s4,7892 <__ssvfiscanf_r+0x24e>
    7726:	12012223          	sw	zero,292(sp)
    772a:	10012e23          	sw	zero,284(sp)
    772e:	321c                	lbu	a5,1(a2)
    7730:	01679763          	bne	a5,s6,773e <__ssvfiscanf_r+0xfa>
    7734:	47c1                	li	a5,16
    7736:	10f12e23          	sw	a5,284(sp)
    773a:	00260c93          	addi	s9,a2,2
    773e:	000cc583          	lbu	a1,0(s9)
    7742:	8d66                	mv	s10,s9
    7744:	0c85                	addi	s9,s9,1
    7746:	fd058793          	addi	a5,a1,-48
    774a:	06fbf063          	bgeu	s7,a5,77aa <__ssvfiscanf_r+0x166>
    774e:	460d                	li	a2,3
    7750:	8556                	mv	a0,s5
    7752:	396010ef          	jal	ra,8ae8 <memchr>
    7756:	cd01                	beqz	a0,776e <__ssvfiscanf_r+0x12a>
    7758:	41550533          	sub	a0,a0,s5
    775c:	4785                	li	a5,1
    775e:	00a797b3          	sll	a5,a5,a0
    7762:	11c12503          	lw	a0,284(sp)
    7766:	8d66                	mv	s10,s9
    7768:	8d5d                	or	a0,a0,a5
    776a:	10a12e23          	sw	a0,284(sp)
    776e:	000d4783          	lbu	a5,0(s10)
    7772:	06700713          	li	a4,103
    7776:	001d0c93          	addi	s9,s10,1
    777a:	08f76663          	bltu	a4,a5,7806 <__ssvfiscanf_r+0x1c2>
    777e:	06500713          	li	a4,101
    7782:	1ae7fd63          	bgeu	a5,a4,793c <__ssvfiscanf_r+0x2f8>
    7786:	04700713          	li	a4,71
    778a:	02f76a63          	bltu	a4,a5,77be <__ssvfiscanf_r+0x17a>
    778e:	04500713          	li	a4,69
    7792:	1ae7f563          	bgeu	a5,a4,793c <__ssvfiscanf_r+0x2f8>
    7796:	12078963          	beqz	a5,78c8 <__ssvfiscanf_r+0x284>
    779a:	0f478c63          	beq	a5,s4,7892 <__ssvfiscanf_r+0x24e>
    779e:	478d                	li	a5,3
    77a0:	12f12a23          	sw	a5,308(sp)
    77a4:	13212023          	sw	s2,288(sp)
    77a8:	a061                	j	7830 <__ssvfiscanf_r+0x1ec>
    77aa:	12412783          	lw	a5,292(sp)
    77ae:	02f907b3          	mul	a5,s2,a5
    77b2:	fd078793          	addi	a5,a5,-48
    77b6:	97ae                	add	a5,a5,a1
    77b8:	12f12223          	sw	a5,292(sp)
    77bc:	b749                	j	773e <__ssvfiscanf_r+0xfa>
    77be:	05b00713          	li	a4,91
    77c2:	12e78163          	beq	a5,a4,78e4 <__ssvfiscanf_r+0x2a0>
    77c6:	02f76563          	bltu	a4,a5,77f0 <__ssvfiscanf_r+0x1ac>
    77ca:	05800713          	li	a4,88
    77ce:	fce798e3          	bne	a5,a4,779e <__ssvfiscanf_r+0x15a>
    77d2:	11c12703          	lw	a4,284(sp)
    77d6:	20076713          	ori	a4,a4,512
    77da:	10e12e23          	sw	a4,284(sp)
    77de:	4741                	li	a4,16
    77e0:	12e12023          	sw	a4,288(sp)
    77e4:	06e00713          	li	a4,110
    77e8:	00f737b3          	sltu	a5,a4,a5
    77ec:	078d                	addi	a5,a5,3
    77ee:	a83d                	j	782c <__ssvfiscanf_r+0x1e8>
    77f0:	06300713          	li	a4,99
    77f4:	10e78563          	beq	a5,a4,78fe <__ssvfiscanf_r+0x2ba>
    77f8:	06400713          	li	a4,100
    77fc:	fae791e3          	bne	a5,a4,779e <__ssvfiscanf_r+0x15a>
    7800:	13212023          	sw	s2,288(sp)
    7804:	b7c5                	j	77e4 <__ssvfiscanf_r+0x1a0>
    7806:	07000713          	li	a4,112
    780a:	0ce78163          	beq	a5,a4,78cc <__ssvfiscanf_r+0x288>
    780e:	06f76463          	bltu	a4,a5,7876 <__ssvfiscanf_r+0x232>
    7812:	06e00713          	li	a4,110
    7816:	0ee78d63          	beq	a5,a4,7910 <__ssvfiscanf_r+0x2cc>
    781a:	0cf76063          	bltu	a4,a5,78da <__ssvfiscanf_r+0x296>
    781e:	06900713          	li	a4,105
    7822:	f6e79ee3          	bne	a5,a4,779e <__ssvfiscanf_r+0x15a>
    7826:	12012023          	sw	zero,288(sp)
    782a:	478d                	li	a5,3
    782c:	12f12a23          	sw	a5,308(sp)
    7830:	405c                	lw	a5,4(s0)
    7832:	10f05763          	blez	a5,7940 <__ssvfiscanf_r+0x2fc>
    7836:	11c12783          	lw	a5,284(sp)
    783a:	0407f793          	andi	a5,a5,64
    783e:	eb91                	bnez	a5,7852 <__ssvfiscanf_r+0x20e>
    7840:	a1aff0ef          	jal	ra,6a5a <__locale_ctype_ptr>
    7844:	401c                	lw	a5,0(s0)
    7846:	2398                	lbu	a4,0(a5)
    7848:	953a                	add	a0,a0,a4
    784a:	3118                	lbu	a4,1(a0)
    784c:	8b21                	andi	a4,a4,8
    784e:	10071163          	bnez	a4,7950 <__ssvfiscanf_r+0x30c>
    7852:	13412783          	lw	a5,308(sp)
    7856:	4709                	li	a4,2
    7858:	12f74163          	blt	a4,a5,797a <__ssvfiscanf_r+0x336>
    785c:	0834                	addi	a3,sp,24
    785e:	8622                	mv	a2,s0
    7860:	0a6c                	addi	a1,sp,284
    7862:	8526                	mv	a0,s1
    7864:	031000ef          	jal	ra,8094 <_scanf_chars>
    7868:	4785                	li	a5,1
    786a:	16f50e63          	beq	a0,a5,79e6 <__ssvfiscanf_r+0x3a2>
    786e:	4789                	li	a5,2
    7870:	e8f515e3          	bne	a0,a5,76fa <__ssvfiscanf_r+0xb6>
    7874:	a0b9                	j	78c2 <__ssvfiscanf_r+0x27e>
    7876:	07500713          	li	a4,117
    787a:	f8e783e3          	beq	a5,a4,7800 <__ssvfiscanf_r+0x1bc>
    787e:	07800713          	li	a4,120
    7882:	f4e788e3          	beq	a5,a4,77d2 <__ssvfiscanf_r+0x18e>
    7886:	07300713          	li	a4,115
    788a:	f0e79ae3          	bne	a5,a4,779e <__ssvfiscanf_r+0x15a>
    788e:	4789                	li	a5,2
    7890:	bf71                	j	782c <__ssvfiscanf_r+0x1e8>
    7892:	405c                	lw	a5,4(s0)
    7894:	02f05163          	blez	a5,78b6 <__ssvfiscanf_r+0x272>
    7898:	401c                	lw	a5,0(s0)
    789a:	2398                	lbu	a4,0(a5)
    789c:	15b71563          	bne	a4,s11,79e6 <__ssvfiscanf_r+0x3a2>
    78a0:	0785                	addi	a5,a5,1
    78a2:	4058                	lw	a4,4(s0)
    78a4:	c01c                	sw	a5,0(s0)
    78a6:	12c12783          	lw	a5,300(sp)
    78aa:	177d                	addi	a4,a4,-1
    78ac:	c058                	sw	a4,4(s0)
    78ae:	0785                	addi	a5,a5,1
    78b0:	12f12623          	sw	a5,300(sp)
    78b4:	b599                	j	76fa <__ssvfiscanf_r+0xb6>
    78b6:	29c12783          	lw	a5,668(sp)
    78ba:	85a2                	mv	a1,s0
    78bc:	8526                	mv	a0,s1
    78be:	9782                	jalr	a5
    78c0:	dd61                	beqz	a0,7898 <__ssvfiscanf_r+0x254>
    78c2:	12812503          	lw	a0,296(sp)
    78c6:	ed79                	bnez	a0,79a4 <__ssvfiscanf_r+0x360>
    78c8:	557d                	li	a0,-1
    78ca:	a0cd                	j	79ac <__ssvfiscanf_r+0x368>
    78cc:	11c12703          	lw	a4,284(sp)
    78d0:	02076713          	ori	a4,a4,32
    78d4:	10e12e23          	sw	a4,284(sp)
    78d8:	bded                	j	77d2 <__ssvfiscanf_r+0x18e>
    78da:	47a1                	li	a5,8
    78dc:	12f12023          	sw	a5,288(sp)
    78e0:	4791                	li	a5,4
    78e2:	b7a9                	j	782c <__ssvfiscanf_r+0x1e8>
    78e4:	85e6                	mv	a1,s9
    78e6:	854e                	mv	a0,s3
    78e8:	34f000ef          	jal	ra,8436 <__sccl>
    78ec:	11c12783          	lw	a5,284(sp)
    78f0:	8caa                	mv	s9,a0
    78f2:	0407e793          	ori	a5,a5,64
    78f6:	10f12e23          	sw	a5,284(sp)
    78fa:	4785                	li	a5,1
    78fc:	bf05                	j	782c <__ssvfiscanf_r+0x1e8>
    78fe:	11c12783          	lw	a5,284(sp)
    7902:	12012a23          	sw	zero,308(sp)
    7906:	0407e793          	ori	a5,a5,64
    790a:	10f12e23          	sw	a5,284(sp)
    790e:	b70d                	j	7830 <__ssvfiscanf_r+0x1ec>
    7910:	11c12783          	lw	a5,284(sp)
    7914:	0107f713          	andi	a4,a5,16
    7918:	de0711e3          	bnez	a4,76fa <__ssvfiscanf_r+0xb6>
    791c:	4762                	lw	a4,24(sp)
    791e:	0017f593          	andi	a1,a5,1
    7922:	12c12683          	lw	a3,300(sp)
    7926:	00470613          	addi	a2,a4,4 # fff00004 <_eusrstack+0xdfef0004>
    792a:	c589                	beqz	a1,7934 <__ssvfiscanf_r+0x2f0>
    792c:	cc32                	sw	a2,24(sp)
    792e:	431c                	lw	a5,0(a4)
    7930:	a396                	sh	a3,0(a5)
    7932:	b3e1                	j	76fa <__ssvfiscanf_r+0xb6>
    7934:	cc32                	sw	a2,24(sp)
    7936:	431c                	lw	a5,0(a4)
    7938:	c394                	sw	a3,0(a5)
    793a:	b3c1                	j	76fa <__ssvfiscanf_r+0xb6>
    793c:	4795                	li	a5,5
    793e:	b5fd                	j	782c <__ssvfiscanf_r+0x1e8>
    7940:	29c12783          	lw	a5,668(sp)
    7944:	85a2                	mv	a1,s0
    7946:	8526                	mv	a0,s1
    7948:	9782                	jalr	a5
    794a:	ee0506e3          	beqz	a0,7836 <__ssvfiscanf_r+0x1f2>
    794e:	bf95                	j	78c2 <__ssvfiscanf_r+0x27e>
    7950:	12c12703          	lw	a4,300(sp)
    7954:	0705                	addi	a4,a4,1
    7956:	12e12623          	sw	a4,300(sp)
    795a:	4058                	lw	a4,4(s0)
    795c:	177d                	addi	a4,a4,-1
    795e:	c058                	sw	a4,4(s0)
    7960:	00e05563          	blez	a4,796a <__ssvfiscanf_r+0x326>
    7964:	0785                	addi	a5,a5,1
    7966:	c01c                	sw	a5,0(s0)
    7968:	bde1                	j	7840 <__ssvfiscanf_r+0x1fc>
    796a:	29c12783          	lw	a5,668(sp)
    796e:	85a2                	mv	a1,s0
    7970:	8526                	mv	a0,s1
    7972:	9782                	jalr	a5
    7974:	ec0506e3          	beqz	a0,7840 <__ssvfiscanf_r+0x1fc>
    7978:	b7a9                	j	78c2 <__ssvfiscanf_r+0x27e>
    797a:	4711                	li	a4,4
    797c:	00f74963          	blt	a4,a5,798e <__ssvfiscanf_r+0x34a>
    7980:	0834                	addi	a3,sp,24
    7982:	8622                	mv	a2,s0
    7984:	0a6c                	addi	a1,sp,284
    7986:	8526                	mv	a0,s1
    7988:	7ee000ef          	jal	ra,8176 <_scanf_i>
    798c:	bdf1                	j	7868 <__ssvfiscanf_r+0x224>
    798e:	d60c06e3          	beqz	s8,76fa <__ssvfiscanf_r+0xb6>
    7992:	0834                	addi	a3,sp,24
    7994:	8622                	mv	a2,s0
    7996:	0a6c                	addi	a1,sp,284
    7998:	8526                	mv	a0,s1
    799a:	00000097          	auipc	ra,0x0
    799e:	000000e7          	jalr	zero # 0 <_sinit>
    79a2:	b5d9                	j	7868 <__ssvfiscanf_r+0x224>
    79a4:	245e                	lhu	a5,12(s0)
    79a6:	0407f793          	andi	a5,a5,64
    79aa:	ff99                	bnez	a5,78c8 <__ssvfiscanf_r+0x284>
    79ac:	2dc12083          	lw	ra,732(sp)
    79b0:	2d812403          	lw	s0,728(sp)
    79b4:	2d412483          	lw	s1,724(sp)
    79b8:	2d012903          	lw	s2,720(sp)
    79bc:	2cc12983          	lw	s3,716(sp)
    79c0:	2c812a03          	lw	s4,712(sp)
    79c4:	2c412a83          	lw	s5,708(sp)
    79c8:	2c012b03          	lw	s6,704(sp)
    79cc:	2bc12b83          	lw	s7,700(sp)
    79d0:	2b812c03          	lw	s8,696(sp)
    79d4:	2b412c83          	lw	s9,692(sp)
    79d8:	2b012d03          	lw	s10,688(sp)
    79dc:	2ac12d83          	lw	s11,684(sp)
    79e0:	2e010113          	addi	sp,sp,736
    79e4:	8082                	ret
    79e6:	12812503          	lw	a0,296(sp)
    79ea:	b7c9                	j	79ac <__ssvfiscanf_r+0x368>

000079ec <__sfputc_r>:
    79ec:	461c                	lw	a5,8(a2)
    79ee:	17fd                	addi	a5,a5,-1
    79f0:	c61c                	sw	a5,8(a2)
    79f2:	0007da63          	bgez	a5,7a06 <__sfputc_r+0x1a>
    79f6:	4e18                	lw	a4,24(a2)
    79f8:	00e7c563          	blt	a5,a4,7a02 <__sfputc_r+0x16>
    79fc:	47a9                	li	a5,10
    79fe:	00f59463          	bne	a1,a5,7a06 <__sfputc_r+0x1a>
    7a02:	4810006f          	j	8682 <__swbuf_r>
    7a06:	421c                	lw	a5,0(a2)
    7a08:	852e                	mv	a0,a1
    7a0a:	00178713          	addi	a4,a5,1
    7a0e:	c218                	sw	a4,0(a2)
    7a10:	a38c                	sb	a1,0(a5)
    7a12:	8082                	ret

00007a14 <__sfputs_r>:
    7a14:	1101                	addi	sp,sp,-32
    7a16:	cc22                	sw	s0,24(sp)
    7a18:	ca26                	sw	s1,20(sp)
    7a1a:	c84a                	sw	s2,16(sp)
    7a1c:	c64e                	sw	s3,12(sp)
    7a1e:	c452                	sw	s4,8(sp)
    7a20:	ce06                	sw	ra,28(sp)
    7a22:	892a                	mv	s2,a0
    7a24:	89ae                	mv	s3,a1
    7a26:	8432                	mv	s0,a2
    7a28:	00d604b3          	add	s1,a2,a3
    7a2c:	5a7d                	li	s4,-1
    7a2e:	00941463          	bne	s0,s1,7a36 <__sfputs_r+0x22>
    7a32:	4501                	li	a0,0
    7a34:	a809                	j	7a46 <__sfputs_r+0x32>
    7a36:	200c                	lbu	a1,0(s0)
    7a38:	864e                	mv	a2,s3
    7a3a:	854a                	mv	a0,s2
    7a3c:	fb1ff0ef          	jal	ra,79ec <__sfputc_r>
    7a40:	0405                	addi	s0,s0,1
    7a42:	ff4516e3          	bne	a0,s4,7a2e <__sfputs_r+0x1a>
    7a46:	40f2                	lw	ra,28(sp)
    7a48:	4462                	lw	s0,24(sp)
    7a4a:	44d2                	lw	s1,20(sp)
    7a4c:	4942                	lw	s2,16(sp)
    7a4e:	49b2                	lw	s3,12(sp)
    7a50:	4a22                	lw	s4,8(sp)
    7a52:	6105                	addi	sp,sp,32
    7a54:	8082                	ret

00007a56 <_vfiprintf_r>:
    7a56:	7135                	addi	sp,sp,-160
    7a58:	cd22                	sw	s0,152(sp)
    7a5a:	cb26                	sw	s1,148(sp)
    7a5c:	c94a                	sw	s2,144(sp)
    7a5e:	c74e                	sw	s3,140(sp)
    7a60:	cf06                	sw	ra,156(sp)
    7a62:	c552                	sw	s4,136(sp)
    7a64:	c356                	sw	s5,132(sp)
    7a66:	c15a                	sw	s6,128(sp)
    7a68:	dede                	sw	s7,124(sp)
    7a6a:	dce2                	sw	s8,120(sp)
    7a6c:	dae6                	sw	s9,116(sp)
    7a6e:	89aa                	mv	s3,a0
    7a70:	84ae                	mv	s1,a1
    7a72:	8932                	mv	s2,a2
    7a74:	8436                	mv	s0,a3
    7a76:	c509                	beqz	a0,7a80 <_vfiprintf_r+0x2a>
    7a78:	4d1c                	lw	a5,24(a0)
    7a7a:	e399                	bnez	a5,7a80 <_vfiprintf_r+0x2a>
    7a7c:	f2afe0ef          	jal	ra,61a6 <__sinit>
    7a80:	00005797          	auipc	a5,0x5
    7a84:	95078793          	addi	a5,a5,-1712 # c3d0 <__sf_fake_stdin>
    7a88:	0cf49963          	bne	s1,a5,7b5a <_vfiprintf_r+0x104>
    7a8c:	0049a483          	lw	s1,4(s3)
    7a90:	24de                	lhu	a5,12(s1)
    7a92:	8ba1                	andi	a5,a5,8
    7a94:	c7ed                	beqz	a5,7b7e <_vfiprintf_r+0x128>
    7a96:	489c                	lw	a5,16(s1)
    7a98:	c3fd                	beqz	a5,7b7e <_vfiprintf_r+0x128>
    7a9a:	02000793          	li	a5,32
    7a9e:	02f104a3          	sb	a5,41(sp)
    7aa2:	03000793          	li	a5,48
    7aa6:	d202                	sw	zero,36(sp)
    7aa8:	02f10523          	sb	a5,42(sp)
    7aac:	c622                	sw	s0,12(sp)
    7aae:	02500b93          	li	s7,37
    7ab2:	00005a97          	auipc	s5,0x5
    7ab6:	a6ea8a93          	addi	s5,s5,-1426 # c520 <p05.3319+0x10>
    7aba:	4c05                	li	s8,1
    7abc:	4b29                	li	s6,10
    7abe:	844a                	mv	s0,s2
    7ac0:	201c                	lbu	a5,0(s0)
    7ac2:	c399                	beqz	a5,7ac8 <_vfiprintf_r+0x72>
    7ac4:	0f779063          	bne	a5,s7,7ba4 <_vfiprintf_r+0x14e>
    7ac8:	41240cb3          	sub	s9,s0,s2
    7acc:	000c8e63          	beqz	s9,7ae8 <_vfiprintf_r+0x92>
    7ad0:	86e6                	mv	a3,s9
    7ad2:	864a                	mv	a2,s2
    7ad4:	85a6                	mv	a1,s1
    7ad6:	854e                	mv	a0,s3
    7ad8:	f3dff0ef          	jal	ra,7a14 <__sfputs_r>
    7adc:	57fd                	li	a5,-1
    7ade:	1ef50263          	beq	a0,a5,7cc2 <_vfiprintf_r+0x26c>
    7ae2:	5692                	lw	a3,36(sp)
    7ae4:	96e6                	add	a3,a3,s9
    7ae6:	d236                	sw	a3,36(sp)
    7ae8:	201c                	lbu	a5,0(s0)
    7aea:	1c078c63          	beqz	a5,7cc2 <_vfiprintf_r+0x26c>
    7aee:	57fd                	li	a5,-1
    7af0:	00140913          	addi	s2,s0,1
    7af4:	c802                	sw	zero,16(sp)
    7af6:	ce02                	sw	zero,28(sp)
    7af8:	ca3e                	sw	a5,20(sp)
    7afa:	cc02                	sw	zero,24(sp)
    7afc:	040109a3          	sb	zero,83(sp)
    7b00:	d482                	sw	zero,104(sp)
    7b02:	00094583          	lbu	a1,0(s2)
    7b06:	4615                	li	a2,5
    7b08:	8556                	mv	a0,s5
    7b0a:	7df000ef          	jal	ra,8ae8 <memchr>
    7b0e:	00190413          	addi	s0,s2,1
    7b12:	47c2                	lw	a5,16(sp)
    7b14:	e951                	bnez	a0,7ba8 <_vfiprintf_r+0x152>
    7b16:	0107f713          	andi	a4,a5,16
    7b1a:	c709                	beqz	a4,7b24 <_vfiprintf_r+0xce>
    7b1c:	02000713          	li	a4,32
    7b20:	04e109a3          	sb	a4,83(sp)
    7b24:	0087f713          	andi	a4,a5,8
    7b28:	c709                	beqz	a4,7b32 <_vfiprintf_r+0xdc>
    7b2a:	02b00713          	li	a4,43
    7b2e:	04e109a3          	sb	a4,83(sp)
    7b32:	00094683          	lbu	a3,0(s2)
    7b36:	02a00713          	li	a4,42
    7b3a:	06e68f63          	beq	a3,a4,7bb8 <_vfiprintf_r+0x162>
    7b3e:	47f2                	lw	a5,28(sp)
    7b40:	844a                	mv	s0,s2
    7b42:	4681                	li	a3,0
    7b44:	4625                	li	a2,9
    7b46:	2018                	lbu	a4,0(s0)
    7b48:	00140593          	addi	a1,s0,1
    7b4c:	fd070713          	addi	a4,a4,-48
    7b50:	0ae67763          	bgeu	a2,a4,7bfe <_vfiprintf_r+0x1a8>
    7b54:	cab5                	beqz	a3,7bc8 <_vfiprintf_r+0x172>
    7b56:	ce3e                	sw	a5,28(sp)
    7b58:	a885                	j	7bc8 <_vfiprintf_r+0x172>
    7b5a:	00005797          	auipc	a5,0x5
    7b5e:	89678793          	addi	a5,a5,-1898 # c3f0 <__sf_fake_stdout>
    7b62:	00f49563          	bne	s1,a5,7b6c <_vfiprintf_r+0x116>
    7b66:	0089a483          	lw	s1,8(s3)
    7b6a:	b71d                	j	7a90 <_vfiprintf_r+0x3a>
    7b6c:	00005797          	auipc	a5,0x5
    7b70:	84478793          	addi	a5,a5,-1980 # c3b0 <__sf_fake_stderr>
    7b74:	f0f49ee3          	bne	s1,a5,7a90 <_vfiprintf_r+0x3a>
    7b78:	00c9a483          	lw	s1,12(s3)
    7b7c:	bf11                	j	7a90 <_vfiprintf_r+0x3a>
    7b7e:	85a6                	mv	a1,s1
    7b80:	854e                	mv	a0,s3
    7b82:	3dd000ef          	jal	ra,875e <__swsetup_r>
    7b86:	d911                	beqz	a0,7a9a <_vfiprintf_r+0x44>
    7b88:	557d                	li	a0,-1
    7b8a:	40fa                	lw	ra,156(sp)
    7b8c:	446a                	lw	s0,152(sp)
    7b8e:	44da                	lw	s1,148(sp)
    7b90:	494a                	lw	s2,144(sp)
    7b92:	49ba                	lw	s3,140(sp)
    7b94:	4a2a                	lw	s4,136(sp)
    7b96:	4a9a                	lw	s5,132(sp)
    7b98:	4b0a                	lw	s6,128(sp)
    7b9a:	5bf6                	lw	s7,124(sp)
    7b9c:	5c66                	lw	s8,120(sp)
    7b9e:	5cd6                	lw	s9,116(sp)
    7ba0:	610d                	addi	sp,sp,160
    7ba2:	8082                	ret
    7ba4:	0405                	addi	s0,s0,1
    7ba6:	bf29                	j	7ac0 <_vfiprintf_r+0x6a>
    7ba8:	41550533          	sub	a0,a0,s5
    7bac:	00ac1533          	sll	a0,s8,a0
    7bb0:	8fc9                	or	a5,a5,a0
    7bb2:	c83e                	sw	a5,16(sp)
    7bb4:	8922                	mv	s2,s0
    7bb6:	b7b1                	j	7b02 <_vfiprintf_r+0xac>
    7bb8:	4732                	lw	a4,12(sp)
    7bba:	00470693          	addi	a3,a4,4
    7bbe:	4318                	lw	a4,0(a4)
    7bc0:	c636                	sw	a3,12(sp)
    7bc2:	02074763          	bltz	a4,7bf0 <_vfiprintf_r+0x19a>
    7bc6:	ce3a                	sw	a4,28(sp)
    7bc8:	2018                	lbu	a4,0(s0)
    7bca:	02e00793          	li	a5,46
    7bce:	04f71d63          	bne	a4,a5,7c28 <_vfiprintf_r+0x1d2>
    7bd2:	3018                	lbu	a4,1(s0)
    7bd4:	02a00793          	li	a5,42
    7bd8:	02f71b63          	bne	a4,a5,7c0e <_vfiprintf_r+0x1b8>
    7bdc:	47b2                	lw	a5,12(sp)
    7bde:	0409                	addi	s0,s0,2
    7be0:	00478713          	addi	a4,a5,4
    7be4:	439c                	lw	a5,0(a5)
    7be6:	c63a                	sw	a4,12(sp)
    7be8:	0207c163          	bltz	a5,7c0a <_vfiprintf_r+0x1b4>
    7bec:	ca3e                	sw	a5,20(sp)
    7bee:	a82d                	j	7c28 <_vfiprintf_r+0x1d2>
    7bf0:	40e00733          	neg	a4,a4
    7bf4:	0027e793          	ori	a5,a5,2
    7bf8:	ce3a                	sw	a4,28(sp)
    7bfa:	c83e                	sw	a5,16(sp)
    7bfc:	b7f1                	j	7bc8 <_vfiprintf_r+0x172>
    7bfe:	036787b3          	mul	a5,a5,s6
    7c02:	4685                	li	a3,1
    7c04:	842e                	mv	s0,a1
    7c06:	97ba                	add	a5,a5,a4
    7c08:	bf3d                	j	7b46 <_vfiprintf_r+0xf0>
    7c0a:	57fd                	li	a5,-1
    7c0c:	b7c5                	j	7bec <_vfiprintf_r+0x196>
    7c0e:	0405                	addi	s0,s0,1
    7c10:	ca02                	sw	zero,20(sp)
    7c12:	4681                	li	a3,0
    7c14:	4781                	li	a5,0
    7c16:	4625                	li	a2,9
    7c18:	2018                	lbu	a4,0(s0)
    7c1a:	00140593          	addi	a1,s0,1
    7c1e:	fd070713          	addi	a4,a4,-48
    7c22:	06e67663          	bgeu	a2,a4,7c8e <_vfiprintf_r+0x238>
    7c26:	f2f9                	bnez	a3,7bec <_vfiprintf_r+0x196>
    7c28:	200c                	lbu	a1,0(s0)
    7c2a:	460d                	li	a2,3
    7c2c:	00005517          	auipc	a0,0x5
    7c30:	8f050513          	addi	a0,a0,-1808 # c51c <p05.3319+0xc>
    7c34:	6b5000ef          	jal	ra,8ae8 <memchr>
    7c38:	cd11                	beqz	a0,7c54 <_vfiprintf_r+0x1fe>
    7c3a:	00005797          	auipc	a5,0x5
    7c3e:	8e278793          	addi	a5,a5,-1822 # c51c <p05.3319+0xc>
    7c42:	8d1d                	sub	a0,a0,a5
    7c44:	04000793          	li	a5,64
    7c48:	00a797b3          	sll	a5,a5,a0
    7c4c:	4542                	lw	a0,16(sp)
    7c4e:	0405                	addi	s0,s0,1
    7c50:	8d5d                	or	a0,a0,a5
    7c52:	c82a                	sw	a0,16(sp)
    7c54:	200c                	lbu	a1,0(s0)
    7c56:	4619                	li	a2,6
    7c58:	00005517          	auipc	a0,0x5
    7c5c:	8d050513          	addi	a0,a0,-1840 # c528 <p05.3319+0x18>
    7c60:	00140913          	addi	s2,s0,1
    7c64:	02b10423          	sb	a1,40(sp)
    7c68:	681000ef          	jal	ra,8ae8 <memchr>
    7c6c:	c135                	beqz	a0,7cd0 <_vfiprintf_r+0x27a>
    7c6e:	ffff8797          	auipc	a5,0xffff8
    7c72:	39278793          	addi	a5,a5,914 # 0 <_sinit>
    7c76:	e795                	bnez	a5,7ca2 <_vfiprintf_r+0x24c>
    7c78:	4742                	lw	a4,16(sp)
    7c7a:	47b2                	lw	a5,12(sp)
    7c7c:	10077713          	andi	a4,a4,256
    7c80:	cf09                	beqz	a4,7c9a <_vfiprintf_r+0x244>
    7c82:	0791                	addi	a5,a5,4
    7c84:	c63e                	sw	a5,12(sp)
    7c86:	5792                	lw	a5,36(sp)
    7c88:	97d2                	add	a5,a5,s4
    7c8a:	d23e                	sw	a5,36(sp)
    7c8c:	bd0d                	j	7abe <_vfiprintf_r+0x68>
    7c8e:	036787b3          	mul	a5,a5,s6
    7c92:	4685                	li	a3,1
    7c94:	842e                	mv	s0,a1
    7c96:	97ba                	add	a5,a5,a4
    7c98:	b741                	j	7c18 <_vfiprintf_r+0x1c2>
    7c9a:	079d                	addi	a5,a5,7
    7c9c:	9be1                	andi	a5,a5,-8
    7c9e:	07a1                	addi	a5,a5,8
    7ca0:	b7d5                	j	7c84 <_vfiprintf_r+0x22e>
    7ca2:	0078                	addi	a4,sp,12
    7ca4:	00000697          	auipc	a3,0x0
    7ca8:	d7068693          	addi	a3,a3,-656 # 7a14 <__sfputs_r>
    7cac:	8626                	mv	a2,s1
    7cae:	080c                	addi	a1,sp,16
    7cb0:	854e                	mv	a0,s3
    7cb2:	00000097          	auipc	ra,0x0
    7cb6:	000000e7          	jalr	zero # 0 <_sinit>
    7cba:	57fd                	li	a5,-1
    7cbc:	8a2a                	mv	s4,a0
    7cbe:	fcf514e3          	bne	a0,a5,7c86 <_vfiprintf_r+0x230>
    7cc2:	24de                	lhu	a5,12(s1)
    7cc4:	0407f793          	andi	a5,a5,64
    7cc8:	ec0790e3          	bnez	a5,7b88 <_vfiprintf_r+0x132>
    7ccc:	5512                	lw	a0,36(sp)
    7cce:	bd75                	j	7b8a <_vfiprintf_r+0x134>
    7cd0:	0078                	addi	a4,sp,12
    7cd2:	00000697          	auipc	a3,0x0
    7cd6:	d4268693          	addi	a3,a3,-702 # 7a14 <__sfputs_r>
    7cda:	8626                	mv	a2,s1
    7cdc:	080c                	addi	a1,sp,16
    7cde:	854e                	mv	a0,s3
    7ce0:	2a01                	jal	7df0 <_printf_i>
    7ce2:	bfe1                	j	7cba <_vfiprintf_r+0x264>

00007ce4 <_printf_common>:
    7ce4:	7179                	addi	sp,sp,-48
    7ce6:	ca56                	sw	s5,20(sp)
    7ce8:	499c                	lw	a5,16(a1)
    7cea:	8aba                	mv	s5,a4
    7cec:	4598                	lw	a4,8(a1)
    7cee:	d422                	sw	s0,40(sp)
    7cf0:	d226                	sw	s1,36(sp)
    7cf2:	ce4e                	sw	s3,28(sp)
    7cf4:	cc52                	sw	s4,24(sp)
    7cf6:	d606                	sw	ra,44(sp)
    7cf8:	d04a                	sw	s2,32(sp)
    7cfa:	c85a                	sw	s6,16(sp)
    7cfc:	c65e                	sw	s7,12(sp)
    7cfe:	89aa                	mv	s3,a0
    7d00:	842e                	mv	s0,a1
    7d02:	84b2                	mv	s1,a2
    7d04:	8a36                	mv	s4,a3
    7d06:	00e7d363          	bge	a5,a4,7d0c <_printf_common+0x28>
    7d0a:	87ba                	mv	a5,a4
    7d0c:	c09c                	sw	a5,0(s1)
    7d0e:	04344703          	lbu	a4,67(s0)
    7d12:	c319                	beqz	a4,7d18 <_printf_common+0x34>
    7d14:	0785                	addi	a5,a5,1
    7d16:	c09c                	sw	a5,0(s1)
    7d18:	401c                	lw	a5,0(s0)
    7d1a:	0207f793          	andi	a5,a5,32
    7d1e:	c781                	beqz	a5,7d26 <_printf_common+0x42>
    7d20:	409c                	lw	a5,0(s1)
    7d22:	0789                	addi	a5,a5,2
    7d24:	c09c                	sw	a5,0(s1)
    7d26:	00042903          	lw	s2,0(s0)
    7d2a:	00697913          	andi	s2,s2,6
    7d2e:	00091a63          	bnez	s2,7d42 <_printf_common+0x5e>
    7d32:	01940b13          	addi	s6,s0,25
    7d36:	5bfd                	li	s7,-1
    7d38:	445c                	lw	a5,12(s0)
    7d3a:	4098                	lw	a4,0(s1)
    7d3c:	8f99                	sub	a5,a5,a4
    7d3e:	04f94c63          	blt	s2,a5,7d96 <_printf_common+0xb2>
    7d42:	401c                	lw	a5,0(s0)
    7d44:	04344683          	lbu	a3,67(s0)
    7d48:	0207f793          	andi	a5,a5,32
    7d4c:	00d036b3          	snez	a3,a3
    7d50:	eba5                	bnez	a5,7dc0 <_printf_common+0xdc>
    7d52:	04340613          	addi	a2,s0,67
    7d56:	85d2                	mv	a1,s4
    7d58:	854e                	mv	a0,s3
    7d5a:	9a82                	jalr	s5
    7d5c:	57fd                	li	a5,-1
    7d5e:	04f50363          	beq	a0,a5,7da4 <_printf_common+0xc0>
    7d62:	401c                	lw	a5,0(s0)
    7d64:	4611                	li	a2,4
    7d66:	4098                	lw	a4,0(s1)
    7d68:	8b99                	andi	a5,a5,6
    7d6a:	4454                	lw	a3,12(s0)
    7d6c:	4481                	li	s1,0
    7d6e:	00c79763          	bne	a5,a2,7d7c <_printf_common+0x98>
    7d72:	40e684b3          	sub	s1,a3,a4
    7d76:	0004d363          	bgez	s1,7d7c <_printf_common+0x98>
    7d7a:	4481                	li	s1,0
    7d7c:	441c                	lw	a5,8(s0)
    7d7e:	4818                	lw	a4,16(s0)
    7d80:	00f75463          	bge	a4,a5,7d88 <_printf_common+0xa4>
    7d84:	8f99                	sub	a5,a5,a4
    7d86:	94be                	add	s1,s1,a5
    7d88:	4901                	li	s2,0
    7d8a:	0469                	addi	s0,s0,26
    7d8c:	5b7d                	li	s6,-1
    7d8e:	05249863          	bne	s1,s2,7dde <_printf_common+0xfa>
    7d92:	4501                	li	a0,0
    7d94:	a809                	j	7da6 <_printf_common+0xc2>
    7d96:	4685                	li	a3,1
    7d98:	865a                	mv	a2,s6
    7d9a:	85d2                	mv	a1,s4
    7d9c:	854e                	mv	a0,s3
    7d9e:	9a82                	jalr	s5
    7da0:	01751e63          	bne	a0,s7,7dbc <_printf_common+0xd8>
    7da4:	557d                	li	a0,-1
    7da6:	50b2                	lw	ra,44(sp)
    7da8:	5422                	lw	s0,40(sp)
    7daa:	5492                	lw	s1,36(sp)
    7dac:	5902                	lw	s2,32(sp)
    7dae:	49f2                	lw	s3,28(sp)
    7db0:	4a62                	lw	s4,24(sp)
    7db2:	4ad2                	lw	s5,20(sp)
    7db4:	4b42                	lw	s6,16(sp)
    7db6:	4bb2                	lw	s7,12(sp)
    7db8:	6145                	addi	sp,sp,48
    7dba:	8082                	ret
    7dbc:	0905                	addi	s2,s2,1
    7dbe:	bfad                	j	7d38 <_printf_common+0x54>
    7dc0:	00d40733          	add	a4,s0,a3
    7dc4:	03000613          	li	a2,48
    7dc8:	04c701a3          	sb	a2,67(a4)
    7dcc:	04544703          	lbu	a4,69(s0)
    7dd0:	00168793          	addi	a5,a3,1
    7dd4:	97a2                	add	a5,a5,s0
    7dd6:	0689                	addi	a3,a3,2
    7dd8:	04e781a3          	sb	a4,67(a5)
    7ddc:	bf9d                	j	7d52 <_printf_common+0x6e>
    7dde:	4685                	li	a3,1
    7de0:	8622                	mv	a2,s0
    7de2:	85d2                	mv	a1,s4
    7de4:	854e                	mv	a0,s3
    7de6:	9a82                	jalr	s5
    7de8:	fb650ee3          	beq	a0,s6,7da4 <_printf_common+0xc0>
    7dec:	0905                	addi	s2,s2,1
    7dee:	b745                	j	7d8e <_printf_common+0xaa>

00007df0 <_printf_i>:
    7df0:	7179                	addi	sp,sp,-48
    7df2:	d422                	sw	s0,40(sp)
    7df4:	d226                	sw	s1,36(sp)
    7df6:	d04a                	sw	s2,32(sp)
    7df8:	ce4e                	sw	s3,28(sp)
    7dfa:	d606                	sw	ra,44(sp)
    7dfc:	cc52                	sw	s4,24(sp)
    7dfe:	ca56                	sw	s5,20(sp)
    7e00:	c85a                	sw	s6,16(sp)
    7e02:	89b6                	mv	s3,a3
    7e04:	2d94                	lbu	a3,24(a1)
    7e06:	06900793          	li	a5,105
    7e0a:	8932                	mv	s2,a2
    7e0c:	84aa                	mv	s1,a0
    7e0e:	842e                	mv	s0,a1
    7e10:	04358613          	addi	a2,a1,67
    7e14:	02f68d63          	beq	a3,a5,7e4e <_printf_i+0x5e>
    7e18:	06d7e263          	bltu	a5,a3,7e7c <_printf_i+0x8c>
    7e1c:	05800793          	li	a5,88
    7e20:	18f68763          	beq	a3,a5,7fae <_printf_i+0x1be>
    7e24:	00d7ed63          	bltu	a5,a3,7e3e <_printf_i+0x4e>
    7e28:	20068f63          	beqz	a3,8046 <_printf_i+0x256>
    7e2c:	04300793          	li	a5,67
    7e30:	0af68f63          	beq	a3,a5,7eee <_printf_i+0xfe>
    7e34:	04240a93          	addi	s5,s0,66
    7e38:	04d40123          	sb	a3,66(s0)
    7e3c:	a0d1                	j	7f00 <_printf_i+0x110>
    7e3e:	06300793          	li	a5,99
    7e42:	0af68663          	beq	a3,a5,7eee <_printf_i+0xfe>
    7e46:	06400793          	li	a5,100
    7e4a:	fef695e3          	bne	a3,a5,7e34 <_printf_i+0x44>
    7e4e:	401c                	lw	a5,0(s0)
    7e50:	4308                	lw	a0,0(a4)
    7e52:	0807f693          	andi	a3,a5,128
    7e56:	00450593          	addi	a1,a0,4
    7e5a:	c6cd                	beqz	a3,7f04 <_printf_i+0x114>
    7e5c:	411c                	lw	a5,0(a0)
    7e5e:	c30c                	sw	a1,0(a4)
    7e60:	0007d863          	bgez	a5,7e70 <_printf_i+0x80>
    7e64:	02d00713          	li	a4,45
    7e68:	40f007b3          	neg	a5,a5
    7e6c:	04e401a3          	sb	a4,67(s0)
    7e70:	00004697          	auipc	a3,0x4
    7e74:	6c068693          	addi	a3,a3,1728 # c530 <p05.3319+0x20>
    7e78:	4729                	li	a4,10
    7e7a:	a86d                	j	7f34 <_printf_i+0x144>
    7e7c:	07000793          	li	a5,112
    7e80:	16f68363          	beq	a3,a5,7fe6 <_printf_i+0x1f6>
    7e84:	02d7e563          	bltu	a5,a3,7eae <_printf_i+0xbe>
    7e88:	06e00793          	li	a5,110
    7e8c:	18f68a63          	beq	a3,a5,8020 <_printf_i+0x230>
    7e90:	06f00793          	li	a5,111
    7e94:	faf690e3          	bne	a3,a5,7e34 <_printf_i+0x44>
    7e98:	400c                	lw	a1,0(s0)
    7e9a:	431c                	lw	a5,0(a4)
    7e9c:	0805f813          	andi	a6,a1,128
    7ea0:	00478513          	addi	a0,a5,4
    7ea4:	06080863          	beqz	a6,7f14 <_printf_i+0x124>
    7ea8:	c308                	sw	a0,0(a4)
    7eaa:	439c                	lw	a5,0(a5)
    7eac:	a88d                	j	7f1e <_printf_i+0x12e>
    7eae:	07500793          	li	a5,117
    7eb2:	fef683e3          	beq	a3,a5,7e98 <_printf_i+0xa8>
    7eb6:	07800793          	li	a5,120
    7eba:	12f68a63          	beq	a3,a5,7fee <_printf_i+0x1fe>
    7ebe:	07300793          	li	a5,115
    7ec2:	f6f699e3          	bne	a3,a5,7e34 <_printf_i+0x44>
    7ec6:	431c                	lw	a5,0(a4)
    7ec8:	41d0                	lw	a2,4(a1)
    7eca:	4581                	li	a1,0
    7ecc:	00478693          	addi	a3,a5,4
    7ed0:	c314                	sw	a3,0(a4)
    7ed2:	0007aa83          	lw	s5,0(a5)
    7ed6:	8556                	mv	a0,s5
    7ed8:	411000ef          	jal	ra,8ae8 <memchr>
    7edc:	c501                	beqz	a0,7ee4 <_printf_i+0xf4>
    7ede:	41550533          	sub	a0,a0,s5
    7ee2:	c048                	sw	a0,4(s0)
    7ee4:	405c                	lw	a5,4(s0)
    7ee6:	c81c                	sw	a5,16(s0)
    7ee8:	040401a3          	sb	zero,67(s0)
    7eec:	a861                	j	7f84 <_printf_i+0x194>
    7eee:	431c                	lw	a5,0(a4)
    7ef0:	04240a93          	addi	s5,s0,66
    7ef4:	00478693          	addi	a3,a5,4
    7ef8:	439c                	lw	a5,0(a5)
    7efa:	c314                	sw	a3,0(a4)
    7efc:	04f40123          	sb	a5,66(s0)
    7f00:	4785                	li	a5,1
    7f02:	b7d5                	j	7ee6 <_printf_i+0xf6>
    7f04:	0407f693          	andi	a3,a5,64
    7f08:	411c                	lw	a5,0(a0)
    7f0a:	c30c                	sw	a1,0(a4)
    7f0c:	dab1                	beqz	a3,7e60 <_printf_i+0x70>
    7f0e:	07c2                	slli	a5,a5,0x10
    7f10:	87c1                	srai	a5,a5,0x10
    7f12:	b7b9                	j	7e60 <_printf_i+0x70>
    7f14:	0405f593          	andi	a1,a1,64
    7f18:	c308                	sw	a0,0(a4)
    7f1a:	d9c1                	beqz	a1,7eaa <_printf_i+0xba>
    7f1c:	239e                	lhu	a5,0(a5)
    7f1e:	06f00713          	li	a4,111
    7f22:	0ee68763          	beq	a3,a4,8010 <_printf_i+0x220>
    7f26:	00004697          	auipc	a3,0x4
    7f2a:	60a68693          	addi	a3,a3,1546 # c530 <p05.3319+0x20>
    7f2e:	4729                	li	a4,10
    7f30:	040401a3          	sb	zero,67(s0)
    7f34:	404c                	lw	a1,4(s0)
    7f36:	c40c                	sw	a1,8(s0)
    7f38:	0005c563          	bltz	a1,7f42 <_printf_i+0x152>
    7f3c:	4008                	lw	a0,0(s0)
    7f3e:	996d                	andi	a0,a0,-5
    7f40:	c008                	sw	a0,0(s0)
    7f42:	e399                	bnez	a5,7f48 <_printf_i+0x158>
    7f44:	8ab2                	mv	s5,a2
    7f46:	cd89                	beqz	a1,7f60 <_printf_i+0x170>
    7f48:	8ab2                	mv	s5,a2
    7f4a:	02e7f5b3          	remu	a1,a5,a4
    7f4e:	1afd                	addi	s5,s5,-1
    7f50:	95b6                	add	a1,a1,a3
    7f52:	218c                	lbu	a1,0(a1)
    7f54:	00ba8023          	sb	a1,0(s5)
    7f58:	02e7d5b3          	divu	a1,a5,a4
    7f5c:	0ce7f063          	bgeu	a5,a4,801c <_printf_i+0x22c>
    7f60:	47a1                	li	a5,8
    7f62:	00f71e63          	bne	a4,a5,7f7e <_printf_i+0x18e>
    7f66:	401c                	lw	a5,0(s0)
    7f68:	8b85                	andi	a5,a5,1
    7f6a:	cb91                	beqz	a5,7f7e <_printf_i+0x18e>
    7f6c:	4058                	lw	a4,4(s0)
    7f6e:	481c                	lw	a5,16(s0)
    7f70:	00e7c763          	blt	a5,a4,7f7e <_printf_i+0x18e>
    7f74:	03000793          	li	a5,48
    7f78:	fefa8fa3          	sb	a5,-1(s5)
    7f7c:	1afd                	addi	s5,s5,-1
    7f7e:	41560633          	sub	a2,a2,s5
    7f82:	c810                	sw	a2,16(s0)
    7f84:	874e                	mv	a4,s3
    7f86:	86ca                	mv	a3,s2
    7f88:	0070                	addi	a2,sp,12
    7f8a:	85a2                	mv	a1,s0
    7f8c:	8526                	mv	a0,s1
    7f8e:	d57ff0ef          	jal	ra,7ce4 <_printf_common>
    7f92:	5a7d                	li	s4,-1
    7f94:	0b451d63          	bne	a0,s4,804e <_printf_i+0x25e>
    7f98:	557d                	li	a0,-1
    7f9a:	50b2                	lw	ra,44(sp)
    7f9c:	5422                	lw	s0,40(sp)
    7f9e:	5492                	lw	s1,36(sp)
    7fa0:	5902                	lw	s2,32(sp)
    7fa2:	49f2                	lw	s3,28(sp)
    7fa4:	4a62                	lw	s4,24(sp)
    7fa6:	4ad2                	lw	s5,20(sp)
    7fa8:	4b42                	lw	s6,16(sp)
    7faa:	6145                	addi	sp,sp,48
    7fac:	8082                	ret
    7fae:	04d582a3          	sb	a3,69(a1)
    7fb2:	00004697          	auipc	a3,0x4
    7fb6:	57e68693          	addi	a3,a3,1406 # c530 <p05.3319+0x20>
    7fba:	400c                	lw	a1,0(s0)
    7fbc:	4308                	lw	a0,0(a4)
    7fbe:	0805f813          	andi	a6,a1,128
    7fc2:	411c                	lw	a5,0(a0)
    7fc4:	0511                	addi	a0,a0,4
    7fc6:	02080d63          	beqz	a6,8000 <_printf_i+0x210>
    7fca:	c308                	sw	a0,0(a4)
    7fcc:	0015f713          	andi	a4,a1,1
    7fd0:	c701                	beqz	a4,7fd8 <_printf_i+0x1e8>
    7fd2:	0205e593          	ori	a1,a1,32
    7fd6:	c00c                	sw	a1,0(s0)
    7fd8:	4741                	li	a4,16
    7fda:	fbb9                	bnez	a5,7f30 <_printf_i+0x140>
    7fdc:	400c                	lw	a1,0(s0)
    7fde:	fdf5f593          	andi	a1,a1,-33
    7fe2:	c00c                	sw	a1,0(s0)
    7fe4:	b7b1                	j	7f30 <_printf_i+0x140>
    7fe6:	419c                	lw	a5,0(a1)
    7fe8:	0207e793          	ori	a5,a5,32
    7fec:	c19c                	sw	a5,0(a1)
    7fee:	07800793          	li	a5,120
    7ff2:	04f402a3          	sb	a5,69(s0)
    7ff6:	00004697          	auipc	a3,0x4
    7ffa:	54e68693          	addi	a3,a3,1358 # c544 <p05.3319+0x34>
    7ffe:	bf75                	j	7fba <_printf_i+0x1ca>
    8000:	0405f813          	andi	a6,a1,64
    8004:	c308                	sw	a0,0(a4)
    8006:	fc0803e3          	beqz	a6,7fcc <_printf_i+0x1dc>
    800a:	07c2                	slli	a5,a5,0x10
    800c:	83c1                	srli	a5,a5,0x10
    800e:	bf7d                	j	7fcc <_printf_i+0x1dc>
    8010:	00004697          	auipc	a3,0x4
    8014:	52068693          	addi	a3,a3,1312 # c530 <p05.3319+0x20>
    8018:	4721                	li	a4,8
    801a:	bf19                	j	7f30 <_printf_i+0x140>
    801c:	87ae                	mv	a5,a1
    801e:	b735                	j	7f4a <_printf_i+0x15a>
    8020:	4194                	lw	a3,0(a1)
    8022:	431c                	lw	a5,0(a4)
    8024:	49cc                	lw	a1,20(a1)
    8026:	0806f813          	andi	a6,a3,128
    802a:	00478513          	addi	a0,a5,4
    802e:	00080663          	beqz	a6,803a <_printf_i+0x24a>
    8032:	c308                	sw	a0,0(a4)
    8034:	439c                	lw	a5,0(a5)
    8036:	c38c                	sw	a1,0(a5)
    8038:	a039                	j	8046 <_printf_i+0x256>
    803a:	c308                	sw	a0,0(a4)
    803c:	0406f693          	andi	a3,a3,64
    8040:	439c                	lw	a5,0(a5)
    8042:	daf5                	beqz	a3,8036 <_printf_i+0x246>
    8044:	a38e                	sh	a1,0(a5)
    8046:	00042823          	sw	zero,16(s0)
    804a:	8ab2                	mv	s5,a2
    804c:	bf25                	j	7f84 <_printf_i+0x194>
    804e:	4814                	lw	a3,16(s0)
    8050:	8656                	mv	a2,s5
    8052:	85ca                	mv	a1,s2
    8054:	8526                	mv	a0,s1
    8056:	9982                	jalr	s3
    8058:	f54500e3          	beq	a0,s4,7f98 <_printf_i+0x1a8>
    805c:	401c                	lw	a5,0(s0)
    805e:	8b89                	andi	a5,a5,2
    8060:	e78d                	bnez	a5,808a <_printf_i+0x29a>
    8062:	47b2                	lw	a5,12(sp)
    8064:	4448                	lw	a0,12(s0)
    8066:	f2f55ae3          	bge	a0,a5,7f9a <_printf_i+0x1aa>
    806a:	853e                	mv	a0,a5
    806c:	b73d                	j	7f9a <_printf_i+0x1aa>
    806e:	4685                	li	a3,1
    8070:	8656                	mv	a2,s5
    8072:	85ca                	mv	a1,s2
    8074:	8526                	mv	a0,s1
    8076:	9982                	jalr	s3
    8078:	f36500e3          	beq	a0,s6,7f98 <_printf_i+0x1a8>
    807c:	0a05                	addi	s4,s4,1
    807e:	445c                	lw	a5,12(s0)
    8080:	4732                	lw	a4,12(sp)
    8082:	8f99                	sub	a5,a5,a4
    8084:	fefa45e3          	blt	s4,a5,806e <_printf_i+0x27e>
    8088:	bfe9                	j	8062 <_printf_i+0x272>
    808a:	4a01                	li	s4,0
    808c:	01940a93          	addi	s5,s0,25
    8090:	5b7d                	li	s6,-1
    8092:	b7f5                	j	807e <_printf_i+0x28e>

00008094 <_scanf_chars>:
    8094:	459c                	lw	a5,8(a1)
    8096:	1101                	addi	sp,sp,-32
    8098:	cc22                	sw	s0,24(sp)
    809a:	ca26                	sw	s1,20(sp)
    809c:	c452                	sw	s4,8(sp)
    809e:	ce06                	sw	ra,28(sp)
    80a0:	c84a                	sw	s2,16(sp)
    80a2:	c64e                	sw	s3,12(sp)
    80a4:	c256                	sw	s5,4(sp)
    80a6:	c05a                	sw	s6,0(sp)
    80a8:	8a2a                	mv	s4,a0
    80aa:	842e                	mv	s0,a1
    80ac:	84b2                	mv	s1,a2
    80ae:	e791                	bnez	a5,80ba <_scanf_chars+0x26>
    80b0:	4d98                	lw	a4,24(a1)
    80b2:	4785                	li	a5,1
    80b4:	c311                	beqz	a4,80b8 <_scanf_chars+0x24>
    80b6:	57fd                	li	a5,-1
    80b8:	c41c                	sw	a5,8(s0)
    80ba:	401c                	lw	a5,0(s0)
    80bc:	8bc1                	andi	a5,a5,16
    80be:	e799                	bnez	a5,80cc <_scanf_chars+0x38>
    80c0:	429c                	lw	a5,0(a3)
    80c2:	00478713          	addi	a4,a5,4
    80c6:	c298                	sw	a4,0(a3)
    80c8:	0007a983          	lw	s3,0(a5)
    80cc:	4901                	li	s2,0
    80ce:	4a85                	li	s5,1
    80d0:	4b09                	li	s6,2
    80d2:	4c08                	lw	a0,24(s0)
    80d4:	c50d                	beqz	a0,80fe <_scanf_chars+0x6a>
    80d6:	07551f63          	bne	a0,s5,8154 <_scanf_chars+0xc0>
    80da:	409c                	lw	a5,0(s1)
    80dc:	2398                	lbu	a4,0(a5)
    80de:	485c                	lw	a5,20(s0)
    80e0:	97ba                	add	a5,a5,a4
    80e2:	239c                	lbu	a5,0(a5)
    80e4:	ef89                	bnez	a5,80fe <_scanf_chars+0x6a>
    80e6:	04091763          	bnez	s2,8134 <_scanf_chars+0xa0>
    80ea:	40f2                	lw	ra,28(sp)
    80ec:	4462                	lw	s0,24(sp)
    80ee:	44d2                	lw	s1,20(sp)
    80f0:	4942                	lw	s2,16(sp)
    80f2:	49b2                	lw	s3,12(sp)
    80f4:	4a22                	lw	s4,8(sp)
    80f6:	4a92                	lw	s5,4(sp)
    80f8:	4b02                	lw	s6,0(sp)
    80fa:	6105                	addi	sp,sp,32
    80fc:	8082                	ret
    80fe:	401c                	lw	a5,0(s0)
    8100:	0905                	addi	s2,s2,1
    8102:	8bc1                	andi	a5,a5,16
    8104:	e791                	bnez	a5,8110 <_scanf_chars+0x7c>
    8106:	409c                	lw	a5,0(s1)
    8108:	0985                	addi	s3,s3,1
    810a:	239c                	lbu	a5,0(a5)
    810c:	fef98fa3          	sb	a5,-1(s3)
    8110:	4098                	lw	a4,0(s1)
    8112:	40dc                	lw	a5,4(s1)
    8114:	0705                	addi	a4,a4,1
    8116:	c098                	sw	a4,0(s1)
    8118:	4418                	lw	a4,8(s0)
    811a:	17fd                	addi	a5,a5,-1
    811c:	c0dc                	sw	a5,4(s1)
    811e:	177d                	addi	a4,a4,-1
    8120:	c418                	sw	a4,8(s0)
    8122:	cb09                	beqz	a4,8134 <_scanf_chars+0xa0>
    8124:	faf047e3          	bgtz	a5,80d2 <_scanf_chars+0x3e>
    8128:	18042783          	lw	a5,384(s0)
    812c:	85a6                	mv	a1,s1
    812e:	8552                	mv	a0,s4
    8130:	9782                	jalr	a5
    8132:	d145                	beqz	a0,80d2 <_scanf_chars+0x3e>
    8134:	401c                	lw	a5,0(s0)
    8136:	8bc1                	andi	a5,a5,16
    8138:	eb81                	bnez	a5,8148 <_scanf_chars+0xb4>
    813a:	445c                	lw	a5,12(s0)
    813c:	0785                	addi	a5,a5,1
    813e:	c45c                	sw	a5,12(s0)
    8140:	4c1c                	lw	a5,24(s0)
    8142:	c399                	beqz	a5,8148 <_scanf_chars+0xb4>
    8144:	00098023          	sb	zero,0(s3)
    8148:	481c                	lw	a5,16(s0)
    814a:	4501                	li	a0,0
    814c:	993e                	add	s2,s2,a5
    814e:	01242823          	sw	s2,16(s0)
    8152:	bf61                	j	80ea <_scanf_chars+0x56>
    8154:	01651a63          	bne	a0,s6,8168 <_scanf_chars+0xd4>
    8158:	903fe0ef          	jal	ra,6a5a <__locale_ctype_ptr>
    815c:	409c                	lw	a5,0(s1)
    815e:	239c                	lbu	a5,0(a5)
    8160:	953e                	add	a0,a0,a5
    8162:	311c                	lbu	a5,1(a0)
    8164:	8ba1                	andi	a5,a5,8
    8166:	dfc1                	beqz	a5,80fe <_scanf_chars+0x6a>
    8168:	fc0916e3          	bnez	s2,8134 <_scanf_chars+0xa0>
    816c:	4c08                	lw	a0,24(s0)
    816e:	4785                	li	a5,1
    8170:	fcf512e3          	bne	a0,a5,8134 <_scanf_chars+0xa0>
    8174:	bf9d                	j	80ea <_scanf_chars+0x56>

00008176 <_scanf_i>:
    8176:	715d                	addi	sp,sp,-80
    8178:	00004797          	auipc	a5,0x4
    817c:	3f478793          	addi	a5,a5,1012 # c56c <p05.3319+0x5c>
    8180:	c0ca                	sw	s2,64(sp)
    8182:	c23e                	sw	a5,4(sp)
    8184:	8936                	mv	s2,a3
    8186:	00004797          	auipc	a5,0x4
    818a:	3ea78793          	addi	a5,a5,1002 # c570 <p05.3319+0x60>
    818e:	4d94                	lw	a3,24(a1)
    8190:	c43e                	sw	a5,8(sp)
    8192:	00004797          	auipc	a5,0x4
    8196:	3e278793          	addi	a5,a5,994 # c574 <p05.3319+0x64>
    819a:	c4a2                	sw	s0,72(sp)
    819c:	de4e                	sw	s3,60(sp)
    819e:	d85a                	sw	s6,48(sp)
    81a0:	ce6e                	sw	s11,28(sp)
    81a2:	c63e                	sw	a5,12(sp)
    81a4:	c686                	sw	ra,76(sp)
    81a6:	c2a6                	sw	s1,68(sp)
    81a8:	dc52                	sw	s4,56(sp)
    81aa:	da56                	sw	s5,52(sp)
    81ac:	d65e                	sw	s7,44(sp)
    81ae:	d462                	sw	s8,40(sp)
    81b0:	d266                	sw	s9,36(sp)
    81b2:	d06a                	sw	s10,32(sp)
    81b4:	478d                	li	a5,3
    81b6:	89aa                	mv	s3,a0
    81b8:	842e                	mv	s0,a1
    81ba:	8db2                	mv	s11,a2
    81bc:	00000b17          	auipc	s6,0x0
    81c0:	42cb0b13          	addi	s6,s6,1068 # 85e8 <_strtoul_r>
    81c4:	00f69663          	bne	a3,a5,81d0 <_scanf_i+0x5a>
    81c8:	ffffeb17          	auipc	s6,0xffffe
    81cc:	e8ab0b13          	addi	s6,s6,-374 # 6052 <_strtol_r>
    81d0:	441c                	lw	a5,8(s0)
    81d2:	15c00693          	li	a3,348
    81d6:	4a01                	li	s4,0
    81d8:	fff78613          	addi	a2,a5,-1
    81dc:	00c6f763          	bgeu	a3,a2,81ea <_scanf_i+0x74>
    81e0:	ea378a13          	addi	s4,a5,-349
    81e4:	15d00793          	li	a5,349
    81e8:	c41c                	sw	a5,8(s0)
    81ea:	401c                	lw	a5,0(s0)
    81ec:	6685                	lui	a3,0x1
    81ee:	d0068693          	addi	a3,a3,-768 # d00 <rt_strncpy+0x12>
    81f2:	01c40493          	addi	s1,s0,28
    81f6:	8fd5                	or	a5,a5,a3
    81f8:	c01c                	sw	a5,0(s0)
    81fa:	00410c13          	addi	s8,sp,4
    81fe:	8aa6                	mv	s5,s1
    8200:	4b81                	li	s7,0
    8202:	20000c93          	li	s9,512
    8206:	000da783          	lw	a5,0(s11)
    820a:	000c2503          	lw	a0,0(s8)
    820e:	4609                	li	a2,2
    8210:	238c                	lbu	a1,0(a5)
    8212:	0d7000ef          	jal	ra,8ae8 <memchr>
    8216:	cd39                	beqz	a0,8274 <_scanf_i+0xfe>
    8218:	4785                	li	a5,1
    821a:	0cfb9e63          	bne	s7,a5,82f6 <_scanf_i+0x180>
    821e:	405c                	lw	a5,4(s0)
    8220:	e799                	bnez	a5,822e <_scanf_i+0xb8>
    8222:	401c                	lw	a5,0(s0)
    8224:	4721                	li	a4,8
    8226:	c058                	sw	a4,4(s0)
    8228:	2007e793          	ori	a5,a5,512
    822c:	c01c                	sw	a5,0(s0)
    822e:	401c                	lw	a5,0(s0)
    8230:	aff7f793          	andi	a5,a5,-1281
    8234:	c01c                	sw	a5,0(s0)
    8236:	441c                	lw	a5,8(s0)
    8238:	fff78613          	addi	a2,a5,-1
    823c:	c410                	sw	a2,8(s0)
    823e:	cb9d                	beqz	a5,8274 <_scanf_i+0xfe>
    8240:	000da603          	lw	a2,0(s11)
    8244:	001a8d13          	addi	s10,s5,1
    8248:	00160793          	addi	a5,a2,1
    824c:	00fda023          	sw	a5,0(s11)
    8250:	2210                	lbu	a2,0(a2)
    8252:	00ca8023          	sb	a2,0(s5)
    8256:	004da603          	lw	a2,4(s11)
    825a:	8aea                	mv	s5,s10
    825c:	167d                	addi	a2,a2,-1
    825e:	00cda223          	sw	a2,4(s11)
    8262:	00c04963          	bgtz	a2,8274 <_scanf_i+0xfe>
    8266:	18042603          	lw	a2,384(s0)
    826a:	85ee                	mv	a1,s11
    826c:	854e                	mv	a0,s3
    826e:	9602                	jalr	a2
    8270:	10051863          	bnez	a0,8380 <_scanf_i+0x20a>
    8274:	0b85                	addi	s7,s7,1
    8276:	478d                	li	a5,3
    8278:	0c11                	addi	s8,s8,4
    827a:	f8fb96e3          	bne	s7,a5,8206 <_scanf_i+0x90>
    827e:	405c                	lw	a5,4(s0)
    8280:	e399                	bnez	a5,8286 <_scanf_i+0x110>
    8282:	47a9                	li	a5,10
    8284:	c05c                	sw	a5,4(s0)
    8286:	405c                	lw	a5,4(s0)
    8288:	4848                	lw	a0,20(s0)
    828a:	00004597          	auipc	a1,0x4
    828e:	2de58593          	addi	a1,a1,734 # c568 <p05.3319+0x58>
    8292:	8d9d                	sub	a1,a1,a5
    8294:	7bfd                	lui	s7,0xfffff
    8296:	6c05                	lui	s8,0x1
    8298:	8d56                	mv	s10,s5
    829a:	2a71                	jal	8436 <__sccl>
    829c:	4a81                	li	s5,0
    829e:	03000c93          	li	s9,48
    82a2:	6ffb8b93          	addi	s7,s7,1791 # fffff6ff <_eusrstack+0xdffef6ff>
    82a6:	800c0c13          	addi	s8,s8,-2048 # 800 <__stack_size>
    82aa:	4414                	lw	a3,8(s0)
    82ac:	4010                	lw	a2,0(s0)
    82ae:	cebd                	beqz	a3,832c <_scanf_i+0x1b6>
    82b0:	000da503          	lw	a0,0(s11)
    82b4:	484c                	lw	a1,20(s0)
    82b6:	00054803          	lbu	a6,0(a0)
    82ba:	95c2                	add	a1,a1,a6
    82bc:	218c                	lbu	a1,0(a1)
    82be:	c5bd                	beqz	a1,832c <_scanf_i+0x1b6>
    82c0:	05981863          	bne	a6,s9,8310 <_scanf_i+0x19a>
    82c4:	018675b3          	and	a1,a2,s8
    82c8:	c5a1                	beqz	a1,8310 <_scanf_i+0x19a>
    82ca:	0a85                	addi	s5,s5,1
    82cc:	000a0563          	beqz	s4,82d6 <_scanf_i+0x160>
    82d0:	0685                	addi	a3,a3,1
    82d2:	1a7d                	addi	s4,s4,-1
    82d4:	c414                	sw	a3,8(s0)
    82d6:	004da683          	lw	a3,4(s11)
    82da:	16fd                	addi	a3,a3,-1
    82dc:	00dda223          	sw	a3,4(s11)
    82e0:	04d05063          	blez	a3,8320 <_scanf_i+0x1aa>
    82e4:	000da683          	lw	a3,0(s11)
    82e8:	0685                	addi	a3,a3,1
    82ea:	00dda023          	sw	a3,0(s11)
    82ee:	4414                	lw	a3,8(s0)
    82f0:	16fd                	addi	a3,a3,-1
    82f2:	c414                	sw	a3,8(s0)
    82f4:	bf5d                	j	82aa <_scanf_i+0x134>
    82f6:	4789                	li	a5,2
    82f8:	f2fb9fe3          	bne	s7,a5,8236 <_scanf_i+0xc0>
    82fc:	401c                	lw	a5,0(s0)
    82fe:	6007f613          	andi	a2,a5,1536
    8302:	f79619e3          	bne	a2,s9,8274 <_scanf_i+0xfe>
    8306:	4741                	li	a4,16
    8308:	c058                	sw	a4,4(s0)
    830a:	1007e793          	ori	a5,a5,256
    830e:	b71d                	j	8234 <_scanf_i+0xbe>
    8310:	01767633          	and	a2,a2,s7
    8314:	c010                	sw	a2,0(s0)
    8316:	2114                	lbu	a3,0(a0)
    8318:	0d05                	addi	s10,s10,1
    831a:	fedd0fa3          	sb	a3,-1(s10)
    831e:	bf65                	j	82d6 <_scanf_i+0x160>
    8320:	18042683          	lw	a3,384(s0)
    8324:	85ee                	mv	a1,s11
    8326:	854e                	mv	a0,s3
    8328:	9682                	jalr	a3
    832a:	d171                	beqz	a0,82ee <_scanf_i+0x178>
    832c:	4014                	lw	a3,0(s0)
    832e:	1006f693          	andi	a3,a3,256
    8332:	c285                	beqz	a3,8352 <_scanf_i+0x1dc>
    8334:	01a4fc63          	bgeu	s1,s10,834c <_scanf_i+0x1d6>
    8338:	fffd4583          	lbu	a1,-1(s10)
    833c:	17c42683          	lw	a3,380(s0)
    8340:	fffd0a13          	addi	s4,s10,-1
    8344:	866e                	mv	a2,s11
    8346:	854e                	mv	a0,s3
    8348:	9682                	jalr	a3
    834a:	8d52                	mv	s10,s4
    834c:	4505                	li	a0,1
    834e:	049d0e63          	beq	s10,s1,83aa <_scanf_i+0x234>
    8352:	4018                	lw	a4,0(s0)
    8354:	8b41                	andi	a4,a4,16
    8356:	e339                	bnez	a4,839c <_scanf_i+0x226>
    8358:	000d0023          	sb	zero,0(s10)
    835c:	4054                	lw	a3,4(s0)
    835e:	4601                	li	a2,0
    8360:	85a6                	mv	a1,s1
    8362:	854e                	mv	a0,s3
    8364:	9b02                	jalr	s6
    8366:	4014                	lw	a3,0(s0)
    8368:	00092703          	lw	a4,0(s2)
    836c:	0206f613          	andi	a2,a3,32
    8370:	ca11                	beqz	a2,8384 <_scanf_i+0x20e>
    8372:	00470693          	addi	a3,a4,4
    8376:	00d92023          	sw	a3,0(s2)
    837a:	4318                	lw	a4,0(a4)
    837c:	c308                	sw	a0,0(a4)
    837e:	a821                	j	8396 <_scanf_i+0x220>
    8380:	4a81                	li	s5,0
    8382:	b76d                	j	832c <_scanf_i+0x1b6>
    8384:	0016f593          	andi	a1,a3,1
    8388:	00470613          	addi	a2,a4,4
    838c:	cd95                	beqz	a1,83c8 <_scanf_i+0x252>
    838e:	00c92023          	sw	a2,0(s2)
    8392:	4318                	lw	a4,0(a4)
    8394:	a30a                	sh	a0,0(a4)
    8396:	4458                	lw	a4,12(s0)
    8398:	0705                	addi	a4,a4,1
    839a:	c458                	sw	a4,12(s0)
    839c:	481c                	lw	a5,16(s0)
    839e:	409d04b3          	sub	s1,s10,s1
    83a2:	94d6                	add	s1,s1,s5
    83a4:	94be                	add	s1,s1,a5
    83a6:	c804                	sw	s1,16(s0)
    83a8:	4501                	li	a0,0
    83aa:	40b6                	lw	ra,76(sp)
    83ac:	4426                	lw	s0,72(sp)
    83ae:	4496                	lw	s1,68(sp)
    83b0:	4906                	lw	s2,64(sp)
    83b2:	59f2                	lw	s3,60(sp)
    83b4:	5a62                	lw	s4,56(sp)
    83b6:	5ad2                	lw	s5,52(sp)
    83b8:	5b42                	lw	s6,48(sp)
    83ba:	5bb2                	lw	s7,44(sp)
    83bc:	5c22                	lw	s8,40(sp)
    83be:	5c92                	lw	s9,36(sp)
    83c0:	5d02                	lw	s10,32(sp)
    83c2:	4df2                	lw	s11,28(sp)
    83c4:	6161                	addi	sp,sp,80
    83c6:	8082                	ret
    83c8:	00c92023          	sw	a2,0(s2)
    83cc:	b77d                	j	837a <_scanf_i+0x204>

000083ce <_read_r>:
    83ce:	1141                	addi	sp,sp,-16
    83d0:	c422                	sw	s0,8(sp)
    83d2:	842a                	mv	s0,a0
    83d4:	852e                	mv	a0,a1
    83d6:	85b2                	mv	a1,a2
    83d8:	8636                	mv	a2,a3
    83da:	1fffc797          	auipc	a5,0x1fffc
    83de:	6207af23          	sw	zero,1598(a5) # 20004a18 <errno>
    83e2:	c606                	sw	ra,12(sp)
    83e4:	520020ef          	jal	ra,a904 <_read>
    83e8:	57fd                	li	a5,-1
    83ea:	00f51963          	bne	a0,a5,83fc <_read_r+0x2e>
    83ee:	1fffc797          	auipc	a5,0x1fffc
    83f2:	62a78793          	addi	a5,a5,1578 # 20004a18 <errno>
    83f6:	439c                	lw	a5,0(a5)
    83f8:	c391                	beqz	a5,83fc <_read_r+0x2e>
    83fa:	c01c                	sw	a5,0(s0)
    83fc:	40b2                	lw	ra,12(sp)
    83fe:	4422                	lw	s0,8(sp)
    8400:	0141                	addi	sp,sp,16
    8402:	8082                	ret

00008404 <_sbrk_r>:
    8404:	1141                	addi	sp,sp,-16
    8406:	c422                	sw	s0,8(sp)
    8408:	842a                	mv	s0,a0
    840a:	852e                	mv	a0,a1
    840c:	1fffc797          	auipc	a5,0x1fffc
    8410:	6007a623          	sw	zero,1548(a5) # 20004a18 <errno>
    8414:	c606                	sw	ra,12(sp)
    8416:	e50fc0ef          	jal	ra,4a66 <_sbrk>
    841a:	57fd                	li	a5,-1
    841c:	00f51963          	bne	a0,a5,842e <_sbrk_r+0x2a>
    8420:	1fffc797          	auipc	a5,0x1fffc
    8424:	5f878793          	addi	a5,a5,1528 # 20004a18 <errno>
    8428:	439c                	lw	a5,0(a5)
    842a:	c391                	beqz	a5,842e <_sbrk_r+0x2a>
    842c:	c01c                	sw	a5,0(s0)
    842e:	40b2                	lw	ra,12(sp)
    8430:	4422                	lw	s0,8(sp)
    8432:	0141                	addi	sp,sp,16
    8434:	8082                	ret

00008436 <__sccl>:
    8436:	219c                	lbu	a5,0(a1)
    8438:	05e00713          	li	a4,94
    843c:	04e78663          	beq	a5,a4,8488 <__sccl+0x52>
    8440:	00158713          	addi	a4,a1,1
    8444:	4681                	li	a3,0
    8446:	4601                	li	a2,0
    8448:	10000593          	li	a1,256
    844c:	00c50833          	add	a6,a0,a2
    8450:	00d80023          	sb	a3,0(a6)
    8454:	0605                	addi	a2,a2,1
    8456:	feb61be3          	bne	a2,a1,844c <__sccl+0x16>
    845a:	fff70613          	addi	a2,a4,-1
    845e:	c39d                	beqz	a5,8484 <__sccl+0x4e>
    8460:	0016c693          	xori	a3,a3,1
    8464:	02d00893          	li	a7,45
    8468:	05d00813          	li	a6,93
    846c:	00f50633          	add	a2,a0,a5
    8470:	a214                	sb	a3,0(a2)
    8472:	230c                	lbu	a1,0(a4)
    8474:	00170613          	addi	a2,a4,1
    8478:	03158363          	beq	a1,a7,849e <__sccl+0x68>
    847c:	01058463          	beq	a1,a6,8484 <__sccl+0x4e>
    8480:	e989                	bnez	a1,8492 <__sccl+0x5c>
    8482:	863a                	mv	a2,a4
    8484:	8532                	mv	a0,a2
    8486:	8082                	ret
    8488:	00258713          	addi	a4,a1,2
    848c:	319c                	lbu	a5,1(a1)
    848e:	4685                	li	a3,1
    8490:	bf5d                	j	8446 <__sccl+0x10>
    8492:	87ae                	mv	a5,a1
    8494:	8732                	mv	a4,a2
    8496:	bfd9                	j	846c <__sccl+0x36>
    8498:	02d00793          	li	a5,45
    849c:	bfe5                	j	8494 <__sccl+0x5e>
    849e:	330c                	lbu	a1,1(a4)
    84a0:	ff058ce3          	beq	a1,a6,8498 <__sccl+0x62>
    84a4:	fef5cae3          	blt	a1,a5,8498 <__sccl+0x62>
    84a8:	0709                	addi	a4,a4,2
    84aa:	0785                	addi	a5,a5,1
    84ac:	00f50633          	add	a2,a0,a5
    84b0:	a214                	sb	a3,0(a2)
    84b2:	feb7cce3          	blt	a5,a1,84aa <__sccl+0x74>
    84b6:	bf75                	j	8472 <__sccl+0x3c>

000084b8 <_strtoul_l.isra.0>:
    84b8:	7179                	addi	sp,sp,-48
    84ba:	d04a                	sw	s2,32(sp)
    84bc:	ce4e                	sw	s3,28(sp)
    84be:	d606                	sw	ra,44(sp)
    84c0:	d422                	sw	s0,40(sp)
    84c2:	d226                	sw	s1,36(sp)
    84c4:	89aa                	mv	s3,a0
    84c6:	892e                	mv	s2,a1
    84c8:	00190493          	addi	s1,s2,1
    84cc:	fff4c403          	lbu	s0,-1(s1)
    84d0:	853a                	mv	a0,a4
    84d2:	c636                	sw	a3,12(sp)
    84d4:	c432                	sw	a2,8(sp)
    84d6:	c22e                	sw	a1,4(sp)
    84d8:	c03a                	sw	a4,0(sp)
    84da:	d7afe0ef          	jal	ra,6a54 <__locale_ctype_ptr_l>
    84de:	9522                	add	a0,a0,s0
    84e0:	311c                	lbu	a5,1(a0)
    84e2:	4702                	lw	a4,0(sp)
    84e4:	4592                	lw	a1,4(sp)
    84e6:	8ba1                	andi	a5,a5,8
    84e8:	4622                	lw	a2,8(sp)
    84ea:	46b2                	lw	a3,12(sp)
    84ec:	efa5                	bnez	a5,8564 <_strtoul_l.isra.0+0xac>
    84ee:	02d00793          	li	a5,45
    84f2:	06f41b63          	bne	s0,a5,8568 <_strtoul_l.isra.0+0xb0>
    84f6:	209c                	lbu	a5,0(s1)
    84f8:	4305                	li	t1,1
    84fa:	00290493          	addi	s1,s2,2
    84fe:	cef9                	beqz	a3,85dc <_strtoul_l.isra.0+0x124>
    8500:	4741                	li	a4,16
    8502:	02e69063          	bne	a3,a4,8522 <_strtoul_l.isra.0+0x6a>
    8506:	03000713          	li	a4,48
    850a:	00e79c63          	bne	a5,a4,8522 <_strtoul_l.isra.0+0x6a>
    850e:	209c                	lbu	a5,0(s1)
    8510:	05800713          	li	a4,88
    8514:	0df7f793          	andi	a5,a5,223
    8518:	0ae79d63          	bne	a5,a4,85d2 <_strtoul_l.isra.0+0x11a>
    851c:	309c                	lbu	a5,1(s1)
    851e:	46c1                	li	a3,16
    8520:	0489                	addi	s1,s1,2
    8522:	577d                	li	a4,-1
    8524:	02d75e33          	divu	t3,a4,a3
    8528:	4801                	li	a6,0
    852a:	4501                	li	a0,0
    852c:	4f25                	li	t5,9
    852e:	4ee5                	li	t4,25
    8530:	02d778b3          	remu	a7,a4,a3
    8534:	fd078713          	addi	a4,a5,-48
    8538:	04ef6363          	bltu	t5,a4,857e <_strtoul_l.isra.0+0xc6>
    853c:	87ba                	mv	a5,a4
    853e:	06d7d063          	bge	a5,a3,859e <_strtoul_l.isra.0+0xe6>
    8542:	04084c63          	bltz	a6,859a <_strtoul_l.isra.0+0xe2>
    8546:	587d                	li	a6,-1
    8548:	00ae6a63          	bltu	t3,a0,855c <_strtoul_l.isra.0+0xa4>
    854c:	00ae1463          	bne	t3,a0,8554 <_strtoul_l.isra.0+0x9c>
    8550:	00f8c663          	blt	a7,a5,855c <_strtoul_l.isra.0+0xa4>
    8554:	4805                	li	a6,1
    8556:	02a68533          	mul	a0,a3,a0
    855a:	953e                	add	a0,a0,a5
    855c:	0485                	addi	s1,s1,1
    855e:	fff4c783          	lbu	a5,-1(s1)
    8562:	bfc9                	j	8534 <_strtoul_l.isra.0+0x7c>
    8564:	8926                	mv	s2,s1
    8566:	b78d                	j	84c8 <_strtoul_l.isra.0+0x10>
    8568:	02b00793          	li	a5,43
    856c:	00f40563          	beq	s0,a5,8576 <_strtoul_l.isra.0+0xbe>
    8570:	87a2                	mv	a5,s0
    8572:	4301                	li	t1,0
    8574:	b769                	j	84fe <_strtoul_l.isra.0+0x46>
    8576:	209c                	lbu	a5,0(s1)
    8578:	00290493          	addi	s1,s2,2
    857c:	bfdd                	j	8572 <_strtoul_l.isra.0+0xba>
    857e:	fbf78713          	addi	a4,a5,-65
    8582:	00eee563          	bltu	t4,a4,858c <_strtoul_l.isra.0+0xd4>
    8586:	fc978793          	addi	a5,a5,-55
    858a:	bf55                	j	853e <_strtoul_l.isra.0+0x86>
    858c:	f9f78713          	addi	a4,a5,-97
    8590:	00eee763          	bltu	t4,a4,859e <_strtoul_l.isra.0+0xe6>
    8594:	fa978793          	addi	a5,a5,-87
    8598:	b75d                	j	853e <_strtoul_l.isra.0+0x86>
    859a:	587d                	li	a6,-1
    859c:	b7c1                	j	855c <_strtoul_l.isra.0+0xa4>
    859e:	00085f63          	bgez	a6,85bc <_strtoul_l.isra.0+0x104>
    85a2:	02200793          	li	a5,34
    85a6:	00f9a023          	sw	a5,0(s3)
    85aa:	557d                	li	a0,-1
    85ac:	ee19                	bnez	a2,85ca <_strtoul_l.isra.0+0x112>
    85ae:	50b2                	lw	ra,44(sp)
    85b0:	5422                	lw	s0,40(sp)
    85b2:	5492                	lw	s1,36(sp)
    85b4:	5902                	lw	s2,32(sp)
    85b6:	49f2                	lw	s3,28(sp)
    85b8:	6145                	addi	sp,sp,48
    85ba:	8082                	ret
    85bc:	00030463          	beqz	t1,85c4 <_strtoul_l.isra.0+0x10c>
    85c0:	40a00533          	neg	a0,a0
    85c4:	d66d                	beqz	a2,85ae <_strtoul_l.isra.0+0xf6>
    85c6:	00080463          	beqz	a6,85ce <_strtoul_l.isra.0+0x116>
    85ca:	fff48593          	addi	a1,s1,-1
    85ce:	c20c                	sw	a1,0(a2)
    85d0:	bff9                	j	85ae <_strtoul_l.isra.0+0xf6>
    85d2:	03000793          	li	a5,48
    85d6:	f6b1                	bnez	a3,8522 <_strtoul_l.isra.0+0x6a>
    85d8:	46a1                	li	a3,8
    85da:	b7a1                	j	8522 <_strtoul_l.isra.0+0x6a>
    85dc:	03000713          	li	a4,48
    85e0:	f2e787e3          	beq	a5,a4,850e <_strtoul_l.isra.0+0x56>
    85e4:	46a9                	li	a3,10
    85e6:	bf35                	j	8522 <_strtoul_l.isra.0+0x6a>

000085e8 <_strtoul_r>:
    85e8:	81418793          	addi	a5,gp,-2028 # 20000344 <_impure_ptr>
    85ec:	439c                	lw	a5,0(a5)
    85ee:	5398                	lw	a4,32(a5)
    85f0:	e709                	bnez	a4,85fa <_strtoul_r+0x12>
    85f2:	1fff8717          	auipc	a4,0x1fff8
    85f6:	bce70713          	addi	a4,a4,-1074 # 200001c0 <__global_locale>
    85fa:	ebfff06f          	j	84b8 <_strtoul_l.isra.0>

000085fe <__submore>:
    85fe:	1101                	addi	sp,sp,-32
    8600:	cc22                	sw	s0,24(sp)
    8602:	842e                	mv	s0,a1
    8604:	59cc                	lw	a1,52(a1)
    8606:	ce06                	sw	ra,28(sp)
    8608:	ca26                	sw	s1,20(sp)
    860a:	c84a                	sw	s2,16(sp)
    860c:	c64e                	sw	s3,12(sp)
    860e:	c452                	sw	s4,8(sp)
    8610:	04440793          	addi	a5,s0,68
    8614:	04f59263          	bne	a1,a5,8658 <__submore+0x5a>
    8618:	40000593          	li	a1,1024
    861c:	e75fe0ef          	jal	ra,7490 <_malloc_r>
    8620:	e911                	bnez	a0,8634 <__submore+0x36>
    8622:	557d                	li	a0,-1
    8624:	40f2                	lw	ra,28(sp)
    8626:	4462                	lw	s0,24(sp)
    8628:	44d2                	lw	s1,20(sp)
    862a:	4942                	lw	s2,16(sp)
    862c:	49b2                	lw	s3,12(sp)
    862e:	4a22                	lw	s4,8(sp)
    8630:	6105                	addi	sp,sp,32
    8632:	8082                	ret
    8634:	40000793          	li	a5,1024
    8638:	dc1c                	sw	a5,56(s0)
    863a:	04644783          	lbu	a5,70(s0)
    863e:	d848                	sw	a0,52(s0)
    8640:	3fd50513          	addi	a0,a0,1021
    8644:	a13c                	sb	a5,2(a0)
    8646:	04544783          	lbu	a5,69(s0)
    864a:	b11c                	sb	a5,1(a0)
    864c:	04444783          	lbu	a5,68(s0)
    8650:	a11c                	sb	a5,0(a0)
    8652:	c008                	sw	a0,0(s0)
    8654:	4501                	li	a0,0
    8656:	b7f9                	j	8624 <__submore+0x26>
    8658:	03842903          	lw	s2,56(s0)
    865c:	00191993          	slli	s3,s2,0x1
    8660:	864e                	mv	a2,s3
    8662:	23a9                	jal	8bac <_realloc_r>
    8664:	84aa                	mv	s1,a0
    8666:	dd55                	beqz	a0,8622 <__submore+0x24>
    8668:	01250a33          	add	s4,a0,s2
    866c:	85aa                	mv	a1,a0
    866e:	864a                	mv	a2,s2
    8670:	8552                	mv	a0,s4
    8672:	91ffc0ef          	jal	ra,4f90 <memcpy>
    8676:	01442023          	sw	s4,0(s0)
    867a:	d844                	sw	s1,52(s0)
    867c:	03342c23          	sw	s3,56(s0)
    8680:	bfd1                	j	8654 <__submore+0x56>

00008682 <__swbuf_r>:
    8682:	1101                	addi	sp,sp,-32
    8684:	cc22                	sw	s0,24(sp)
    8686:	ca26                	sw	s1,20(sp)
    8688:	c84a                	sw	s2,16(sp)
    868a:	ce06                	sw	ra,28(sp)
    868c:	c64e                	sw	s3,12(sp)
    868e:	84aa                	mv	s1,a0
    8690:	892e                	mv	s2,a1
    8692:	8432                	mv	s0,a2
    8694:	c509                	beqz	a0,869e <__swbuf_r+0x1c>
    8696:	4d1c                	lw	a5,24(a0)
    8698:	e399                	bnez	a5,869e <__swbuf_r+0x1c>
    869a:	b0dfd0ef          	jal	ra,61a6 <__sinit>
    869e:	00004797          	auipc	a5,0x4
    86a2:	d3278793          	addi	a5,a5,-718 # c3d0 <__sf_fake_stdin>
    86a6:	06f41763          	bne	s0,a5,8714 <__swbuf_r+0x92>
    86aa:	40c0                	lw	s0,4(s1)
    86ac:	4c1c                	lw	a5,24(s0)
    86ae:	c41c                	sw	a5,8(s0)
    86b0:	245e                	lhu	a5,12(s0)
    86b2:	8ba1                	andi	a5,a5,8
    86b4:	c3c1                	beqz	a5,8734 <__swbuf_r+0xb2>
    86b6:	481c                	lw	a5,16(s0)
    86b8:	cfb5                	beqz	a5,8734 <__swbuf_r+0xb2>
    86ba:	481c                	lw	a5,16(s0)
    86bc:	4008                	lw	a0,0(s0)
    86be:	0ff97993          	andi	s3,s2,255
    86c2:	0ff97913          	andi	s2,s2,255
    86c6:	8d1d                	sub	a0,a0,a5
    86c8:	485c                	lw	a5,20(s0)
    86ca:	00f54663          	blt	a0,a5,86d6 <__swbuf_r+0x54>
    86ce:	85a2                	mv	a1,s0
    86d0:	8526                	mv	a0,s1
    86d2:	2c6d                	jal	898c <_fflush_r>
    86d4:	e525                	bnez	a0,873c <__swbuf_r+0xba>
    86d6:	441c                	lw	a5,8(s0)
    86d8:	0505                	addi	a0,a0,1
    86da:	17fd                	addi	a5,a5,-1
    86dc:	c41c                	sw	a5,8(s0)
    86de:	401c                	lw	a5,0(s0)
    86e0:	00178713          	addi	a4,a5,1
    86e4:	c018                	sw	a4,0(s0)
    86e6:	01378023          	sb	s3,0(a5)
    86ea:	485c                	lw	a5,20(s0)
    86ec:	00a78863          	beq	a5,a0,86fc <__swbuf_r+0x7a>
    86f0:	245e                	lhu	a5,12(s0)
    86f2:	8b85                	andi	a5,a5,1
    86f4:	cb81                	beqz	a5,8704 <__swbuf_r+0x82>
    86f6:	47a9                	li	a5,10
    86f8:	00f91663          	bne	s2,a5,8704 <__swbuf_r+0x82>
    86fc:	85a2                	mv	a1,s0
    86fe:	8526                	mv	a0,s1
    8700:	2471                	jal	898c <_fflush_r>
    8702:	ed0d                	bnez	a0,873c <__swbuf_r+0xba>
    8704:	40f2                	lw	ra,28(sp)
    8706:	4462                	lw	s0,24(sp)
    8708:	854a                	mv	a0,s2
    870a:	44d2                	lw	s1,20(sp)
    870c:	4942                	lw	s2,16(sp)
    870e:	49b2                	lw	s3,12(sp)
    8710:	6105                	addi	sp,sp,32
    8712:	8082                	ret
    8714:	00004797          	auipc	a5,0x4
    8718:	cdc78793          	addi	a5,a5,-804 # c3f0 <__sf_fake_stdout>
    871c:	00f41463          	bne	s0,a5,8724 <__swbuf_r+0xa2>
    8720:	4480                	lw	s0,8(s1)
    8722:	b769                	j	86ac <__swbuf_r+0x2a>
    8724:	00004797          	auipc	a5,0x4
    8728:	c8c78793          	addi	a5,a5,-884 # c3b0 <__sf_fake_stderr>
    872c:	f8f410e3          	bne	s0,a5,86ac <__swbuf_r+0x2a>
    8730:	44c0                	lw	s0,12(s1)
    8732:	bfad                	j	86ac <__swbuf_r+0x2a>
    8734:	85a2                	mv	a1,s0
    8736:	8526                	mv	a0,s1
    8738:	201d                	jal	875e <__swsetup_r>
    873a:	d141                	beqz	a0,86ba <__swbuf_r+0x38>
    873c:	597d                	li	s2,-1
    873e:	b7d9                	j	8704 <__swbuf_r+0x82>

00008740 <__ascii_wctomb>:
    8740:	cd89                	beqz	a1,875a <__ascii_wctomb+0x1a>
    8742:	0ff00793          	li	a5,255
    8746:	00c7f763          	bgeu	a5,a2,8754 <__ascii_wctomb+0x14>
    874a:	08a00793          	li	a5,138
    874e:	c11c                	sw	a5,0(a0)
    8750:	557d                	li	a0,-1
    8752:	8082                	ret
    8754:	a190                	sb	a2,0(a1)
    8756:	4505                	li	a0,1
    8758:	8082                	ret
    875a:	4501                	li	a0,0
    875c:	8082                	ret

0000875e <__swsetup_r>:
    875e:	1141                	addi	sp,sp,-16
    8760:	81418793          	addi	a5,gp,-2028 # 20000344 <_impure_ptr>
    8764:	c226                	sw	s1,4(sp)
    8766:	4384                	lw	s1,0(a5)
    8768:	c422                	sw	s0,8(sp)
    876a:	c04a                	sw	s2,0(sp)
    876c:	c606                	sw	ra,12(sp)
    876e:	892a                	mv	s2,a0
    8770:	842e                	mv	s0,a1
    8772:	c491                	beqz	s1,877e <__swsetup_r+0x20>
    8774:	4c9c                	lw	a5,24(s1)
    8776:	e781                	bnez	a5,877e <__swsetup_r+0x20>
    8778:	8526                	mv	a0,s1
    877a:	a2dfd0ef          	jal	ra,61a6 <__sinit>
    877e:	00004797          	auipc	a5,0x4
    8782:	c5278793          	addi	a5,a5,-942 # c3d0 <__sf_fake_stdin>
    8786:	02f41b63          	bne	s0,a5,87bc <__swsetup_r+0x5e>
    878a:	40c0                	lw	s0,4(s1)
    878c:	00c41703          	lh	a4,12(s0)
    8790:	01071793          	slli	a5,a4,0x10
    8794:	83c1                	srli	a5,a5,0x10
    8796:	0087f693          	andi	a3,a5,8
    879a:	eaad                	bnez	a3,880c <__swsetup_r+0xae>
    879c:	0107f693          	andi	a3,a5,16
    87a0:	ee95                	bnez	a3,87dc <__swsetup_r+0x7e>
    87a2:	47a5                	li	a5,9
    87a4:	00f92023          	sw	a5,0(s2)
    87a8:	04076713          	ori	a4,a4,64
    87ac:	a45a                	sh	a4,12(s0)
    87ae:	557d                	li	a0,-1
    87b0:	40b2                	lw	ra,12(sp)
    87b2:	4422                	lw	s0,8(sp)
    87b4:	4492                	lw	s1,4(sp)
    87b6:	4902                	lw	s2,0(sp)
    87b8:	0141                	addi	sp,sp,16
    87ba:	8082                	ret
    87bc:	00004797          	auipc	a5,0x4
    87c0:	c3478793          	addi	a5,a5,-972 # c3f0 <__sf_fake_stdout>
    87c4:	00f41463          	bne	s0,a5,87cc <__swsetup_r+0x6e>
    87c8:	4480                	lw	s0,8(s1)
    87ca:	b7c9                	j	878c <__swsetup_r+0x2e>
    87cc:	00004797          	auipc	a5,0x4
    87d0:	be478793          	addi	a5,a5,-1052 # c3b0 <__sf_fake_stderr>
    87d4:	faf41ce3          	bne	s0,a5,878c <__swsetup_r+0x2e>
    87d8:	44c0                	lw	s0,12(s1)
    87da:	bf4d                	j	878c <__swsetup_r+0x2e>
    87dc:	8b91                	andi	a5,a5,4
    87de:	c39d                	beqz	a5,8804 <__swsetup_r+0xa6>
    87e0:	584c                	lw	a1,52(s0)
    87e2:	c989                	beqz	a1,87f4 <__swsetup_r+0x96>
    87e4:	04440793          	addi	a5,s0,68
    87e8:	00f58463          	beq	a1,a5,87f0 <__swsetup_r+0x92>
    87ec:	854a                	mv	a0,s2
    87ee:	2e19                	jal	8b04 <_free_r>
    87f0:	02042a23          	sw	zero,52(s0)
    87f4:	245e                	lhu	a5,12(s0)
    87f6:	00042223          	sw	zero,4(s0)
    87fa:	fdb7f793          	andi	a5,a5,-37
    87fe:	a45e                	sh	a5,12(s0)
    8800:	481c                	lw	a5,16(s0)
    8802:	c01c                	sw	a5,0(s0)
    8804:	245e                	lhu	a5,12(s0)
    8806:	0087e793          	ori	a5,a5,8
    880a:	a45e                	sh	a5,12(s0)
    880c:	481c                	lw	a5,16(s0)
    880e:	eb99                	bnez	a5,8824 <__swsetup_r+0xc6>
    8810:	245e                	lhu	a5,12(s0)
    8812:	20000713          	li	a4,512
    8816:	2807f793          	andi	a5,a5,640
    881a:	00e78563          	beq	a5,a4,8824 <__swsetup_r+0xc6>
    881e:	85a2                	mv	a1,s0
    8820:	854a                	mv	a0,s2
    8822:	2425                	jal	8a4a <__smakebuf_r>
    8824:	245e                	lhu	a5,12(s0)
    8826:	0017f713          	andi	a4,a5,1
    882a:	c31d                	beqz	a4,8850 <__swsetup_r+0xf2>
    882c:	485c                	lw	a5,20(s0)
    882e:	00042423          	sw	zero,8(s0)
    8832:	40f007b3          	neg	a5,a5
    8836:	cc1c                	sw	a5,24(s0)
    8838:	481c                	lw	a5,16(s0)
    883a:	4501                	li	a0,0
    883c:	fbb5                	bnez	a5,87b0 <__swsetup_r+0x52>
    883e:	00c41783          	lh	a5,12(s0)
    8842:	0807f713          	andi	a4,a5,128
    8846:	d72d                	beqz	a4,87b0 <__swsetup_r+0x52>
    8848:	0407e793          	ori	a5,a5,64
    884c:	a45e                	sh	a5,12(s0)
    884e:	b785                	j	87ae <__swsetup_r+0x50>
    8850:	8b89                	andi	a5,a5,2
    8852:	4701                	li	a4,0
    8854:	e391                	bnez	a5,8858 <__swsetup_r+0xfa>
    8856:	4858                	lw	a4,20(s0)
    8858:	c418                	sw	a4,8(s0)
    885a:	bff9                	j	8838 <__swsetup_r+0xda>

0000885c <__sflush_r>:
    885c:	25de                	lhu	a5,12(a1)
    885e:	1101                	addi	sp,sp,-32
    8860:	cc22                	sw	s0,24(sp)
    8862:	ca26                	sw	s1,20(sp)
    8864:	ce06                	sw	ra,28(sp)
    8866:	c84a                	sw	s2,16(sp)
    8868:	c64e                	sw	s3,12(sp)
    886a:	0087f713          	andi	a4,a5,8
    886e:	84aa                	mv	s1,a0
    8870:	842e                	mv	s0,a1
    8872:	eb79                	bnez	a4,8948 <__sflush_r+0xec>
    8874:	41d8                	lw	a4,4(a1)
    8876:	00e04d63          	bgtz	a4,8890 <__sflush_r+0x34>
    887a:	41b8                	lw	a4,64(a1)
    887c:	00e04a63          	bgtz	a4,8890 <__sflush_r+0x34>
    8880:	4501                	li	a0,0
    8882:	40f2                	lw	ra,28(sp)
    8884:	4462                	lw	s0,24(sp)
    8886:	44d2                	lw	s1,20(sp)
    8888:	4942                	lw	s2,16(sp)
    888a:	49b2                	lw	s3,12(sp)
    888c:	6105                	addi	sp,sp,32
    888e:	8082                	ret
    8890:	5458                	lw	a4,44(s0)
    8892:	d77d                	beqz	a4,8880 <__sflush_r+0x24>
    8894:	0004a903          	lw	s2,0(s1)
    8898:	01379693          	slli	a3,a5,0x13
    889c:	0004a023          	sw	zero,0(s1)
    88a0:	0606db63          	bgez	a3,8916 <__sflush_r+0xba>
    88a4:	4870                	lw	a2,84(s0)
    88a6:	245e                	lhu	a5,12(s0)
    88a8:	8b91                	andi	a5,a5,4
    88aa:	c799                	beqz	a5,88b8 <__sflush_r+0x5c>
    88ac:	405c                	lw	a5,4(s0)
    88ae:	8e1d                	sub	a2,a2,a5
    88b0:	585c                	lw	a5,52(s0)
    88b2:	c399                	beqz	a5,88b8 <__sflush_r+0x5c>
    88b4:	403c                	lw	a5,64(s0)
    88b6:	8e1d                	sub	a2,a2,a5
    88b8:	545c                	lw	a5,44(s0)
    88ba:	500c                	lw	a1,32(s0)
    88bc:	4681                	li	a3,0
    88be:	8526                	mv	a0,s1
    88c0:	9782                	jalr	a5
    88c2:	57fd                	li	a5,-1
    88c4:	245a                	lhu	a4,12(s0)
    88c6:	00f51d63          	bne	a0,a5,88e0 <__sflush_r+0x84>
    88ca:	4094                	lw	a3,0(s1)
    88cc:	47f5                	li	a5,29
    88ce:	06d7e863          	bltu	a5,a3,893e <__sflush_r+0xe2>
    88d2:	204007b7          	lui	a5,0x20400
    88d6:	0785                	addi	a5,a5,1
    88d8:	00d7d7b3          	srl	a5,a5,a3
    88dc:	8b85                	andi	a5,a5,1
    88de:	c3a5                	beqz	a5,893e <__sflush_r+0xe2>
    88e0:	481c                	lw	a5,16(s0)
    88e2:	00042223          	sw	zero,4(s0)
    88e6:	c01c                	sw	a5,0(s0)
    88e8:	01371793          	slli	a5,a4,0x13
    88ec:	0007d863          	bgez	a5,88fc <__sflush_r+0xa0>
    88f0:	57fd                	li	a5,-1
    88f2:	00f51463          	bne	a0,a5,88fa <__sflush_r+0x9e>
    88f6:	409c                	lw	a5,0(s1)
    88f8:	e391                	bnez	a5,88fc <__sflush_r+0xa0>
    88fa:	c868                	sw	a0,84(s0)
    88fc:	584c                	lw	a1,52(s0)
    88fe:	0124a023          	sw	s2,0(s1)
    8902:	ddbd                	beqz	a1,8880 <__sflush_r+0x24>
    8904:	04440793          	addi	a5,s0,68
    8908:	00f58463          	beq	a1,a5,8910 <__sflush_r+0xb4>
    890c:	8526                	mv	a0,s1
    890e:	2add                	jal	8b04 <_free_r>
    8910:	02042a23          	sw	zero,52(s0)
    8914:	b7b5                	j	8880 <__sflush_r+0x24>
    8916:	500c                	lw	a1,32(s0)
    8918:	4601                	li	a2,0
    891a:	4685                	li	a3,1
    891c:	8526                	mv	a0,s1
    891e:	9702                	jalr	a4
    8920:	57fd                	li	a5,-1
    8922:	862a                	mv	a2,a0
    8924:	f8f511e3          	bne	a0,a5,88a6 <__sflush_r+0x4a>
    8928:	409c                	lw	a5,0(s1)
    892a:	dfb5                	beqz	a5,88a6 <__sflush_r+0x4a>
    892c:	4775                	li	a4,29
    892e:	00e78563          	beq	a5,a4,8938 <__sflush_r+0xdc>
    8932:	4759                	li	a4,22
    8934:	04e79363          	bne	a5,a4,897a <__sflush_r+0x11e>
    8938:	0124a023          	sw	s2,0(s1)
    893c:	b791                	j	8880 <__sflush_r+0x24>
    893e:	04076713          	ori	a4,a4,64
    8942:	a45a                	sh	a4,12(s0)
    8944:	557d                	li	a0,-1
    8946:	bf35                	j	8882 <__sflush_r+0x26>
    8948:	0105a983          	lw	s3,16(a1)
    894c:	f2098ae3          	beqz	s3,8880 <__sflush_r+0x24>
    8950:	0005a903          	lw	s2,0(a1)
    8954:	8b8d                	andi	a5,a5,3
    8956:	0135a023          	sw	s3,0(a1)
    895a:	41390933          	sub	s2,s2,s3
    895e:	4701                	li	a4,0
    8960:	e391                	bnez	a5,8964 <__sflush_r+0x108>
    8962:	49d8                	lw	a4,20(a1)
    8964:	c418                	sw	a4,8(s0)
    8966:	f1205de3          	blez	s2,8880 <__sflush_r+0x24>
    896a:	541c                	lw	a5,40(s0)
    896c:	500c                	lw	a1,32(s0)
    896e:	86ca                	mv	a3,s2
    8970:	864e                	mv	a2,s3
    8972:	8526                	mv	a0,s1
    8974:	9782                	jalr	a5
    8976:	00a04763          	bgtz	a0,8984 <__sflush_r+0x128>
    897a:	245e                	lhu	a5,12(s0)
    897c:	0407e793          	ori	a5,a5,64
    8980:	a45e                	sh	a5,12(s0)
    8982:	b7c9                	j	8944 <__sflush_r+0xe8>
    8984:	99aa                	add	s3,s3,a0
    8986:	40a90933          	sub	s2,s2,a0
    898a:	bff1                	j	8966 <__sflush_r+0x10a>

0000898c <_fflush_r>:
    898c:	499c                	lw	a5,16(a1)
    898e:	c3ad                	beqz	a5,89f0 <_fflush_r+0x64>
    8990:	1101                	addi	sp,sp,-32
    8992:	cc22                	sw	s0,24(sp)
    8994:	ce06                	sw	ra,28(sp)
    8996:	842a                	mv	s0,a0
    8998:	c519                	beqz	a0,89a6 <_fflush_r+0x1a>
    899a:	4d1c                	lw	a5,24(a0)
    899c:	e789                	bnez	a5,89a6 <_fflush_r+0x1a>
    899e:	c62e                	sw	a1,12(sp)
    89a0:	807fd0ef          	jal	ra,61a6 <__sinit>
    89a4:	45b2                	lw	a1,12(sp)
    89a6:	00004797          	auipc	a5,0x4
    89aa:	a2a78793          	addi	a5,a5,-1494 # c3d0 <__sf_fake_stdin>
    89ae:	00f59c63          	bne	a1,a5,89c6 <_fflush_r+0x3a>
    89b2:	404c                	lw	a1,4(s0)
    89b4:	00c59783          	lh	a5,12(a1)
    89b8:	c79d                	beqz	a5,89e6 <_fflush_r+0x5a>
    89ba:	8522                	mv	a0,s0
    89bc:	4462                	lw	s0,24(sp)
    89be:	40f2                	lw	ra,28(sp)
    89c0:	6105                	addi	sp,sp,32
    89c2:	e9bff06f          	j	885c <__sflush_r>
    89c6:	00004797          	auipc	a5,0x4
    89ca:	a2a78793          	addi	a5,a5,-1494 # c3f0 <__sf_fake_stdout>
    89ce:	00f59463          	bne	a1,a5,89d6 <_fflush_r+0x4a>
    89d2:	440c                	lw	a1,8(s0)
    89d4:	b7c5                	j	89b4 <_fflush_r+0x28>
    89d6:	00004797          	auipc	a5,0x4
    89da:	9da78793          	addi	a5,a5,-1574 # c3b0 <__sf_fake_stderr>
    89de:	fcf59be3          	bne	a1,a5,89b4 <_fflush_r+0x28>
    89e2:	444c                	lw	a1,12(s0)
    89e4:	bfc1                	j	89b4 <_fflush_r+0x28>
    89e6:	40f2                	lw	ra,28(sp)
    89e8:	4462                	lw	s0,24(sp)
    89ea:	4501                	li	a0,0
    89ec:	6105                	addi	sp,sp,32
    89ee:	8082                	ret
    89f0:	4501                	li	a0,0
    89f2:	8082                	ret

000089f4 <__swhatbuf_r>:
    89f4:	7119                	addi	sp,sp,-128
    89f6:	daa6                	sw	s1,116(sp)
    89f8:	84ae                	mv	s1,a1
    89fa:	00e59583          	lh	a1,14(a1)
    89fe:	dca2                	sw	s0,120(sp)
    8a00:	de86                	sw	ra,124(sp)
    8a02:	8432                	mv	s0,a2
    8a04:	0005db63          	bgez	a1,8a1a <__swhatbuf_r+0x26>
    8a08:	24de                	lhu	a5,12(s1)
    8a0a:	0006a023          	sw	zero,0(a3)
    8a0e:	0807f793          	andi	a5,a5,128
    8a12:	e39d                	bnez	a5,8a38 <__swhatbuf_r+0x44>
    8a14:	40000793          	li	a5,1024
    8a18:	a015                	j	8a3c <__swhatbuf_r+0x48>
    8a1a:	0830                	addi	a2,sp,24
    8a1c:	c636                	sw	a3,12(sp)
    8a1e:	22dd                	jal	8c04 <_fstat_r>
    8a20:	46b2                	lw	a3,12(sp)
    8a22:	fe0543e3          	bltz	a0,8a08 <__swhatbuf_r+0x14>
    8a26:	4772                	lw	a4,28(sp)
    8a28:	67bd                	lui	a5,0xf
    8a2a:	8ff9                	and	a5,a5,a4
    8a2c:	7779                	lui	a4,0xffffe
    8a2e:	97ba                	add	a5,a5,a4
    8a30:	0017b793          	seqz	a5,a5
    8a34:	c29c                	sw	a5,0(a3)
    8a36:	bff9                	j	8a14 <__swhatbuf_r+0x20>
    8a38:	04000793          	li	a5,64
    8a3c:	c01c                	sw	a5,0(s0)
    8a3e:	50f6                	lw	ra,124(sp)
    8a40:	5466                	lw	s0,120(sp)
    8a42:	54d6                	lw	s1,116(sp)
    8a44:	4501                	li	a0,0
    8a46:	6109                	addi	sp,sp,128
    8a48:	8082                	ret

00008a4a <__smakebuf_r>:
    8a4a:	25de                	lhu	a5,12(a1)
    8a4c:	1101                	addi	sp,sp,-32
    8a4e:	cc22                	sw	s0,24(sp)
    8a50:	ce06                	sw	ra,28(sp)
    8a52:	ca26                	sw	s1,20(sp)
    8a54:	c84a                	sw	s2,16(sp)
    8a56:	8b89                	andi	a5,a5,2
    8a58:	842e                	mv	s0,a1
    8a5a:	cf89                	beqz	a5,8a74 <__smakebuf_r+0x2a>
    8a5c:	04740793          	addi	a5,s0,71
    8a60:	c01c                	sw	a5,0(s0)
    8a62:	c81c                	sw	a5,16(s0)
    8a64:	4785                	li	a5,1
    8a66:	c85c                	sw	a5,20(s0)
    8a68:	40f2                	lw	ra,28(sp)
    8a6a:	4462                	lw	s0,24(sp)
    8a6c:	44d2                	lw	s1,20(sp)
    8a6e:	4942                	lw	s2,16(sp)
    8a70:	6105                	addi	sp,sp,32
    8a72:	8082                	ret
    8a74:	0074                	addi	a3,sp,12
    8a76:	0030                	addi	a2,sp,8
    8a78:	84aa                	mv	s1,a0
    8a7a:	f7bff0ef          	jal	ra,89f4 <__swhatbuf_r>
    8a7e:	45a2                	lw	a1,8(sp)
    8a80:	892a                	mv	s2,a0
    8a82:	8526                	mv	a0,s1
    8a84:	a0dfe0ef          	jal	ra,7490 <_malloc_r>
    8a88:	e919                	bnez	a0,8a9e <__smakebuf_r+0x54>
    8a8a:	00c41783          	lh	a5,12(s0)
    8a8e:	2007f713          	andi	a4,a5,512
    8a92:	fb79                	bnez	a4,8a68 <__smakebuf_r+0x1e>
    8a94:	9bf1                	andi	a5,a5,-4
    8a96:	0027e793          	ori	a5,a5,2
    8a9a:	a45e                	sh	a5,12(s0)
    8a9c:	b7c1                	j	8a5c <__smakebuf_r+0x12>
    8a9e:	ffffd797          	auipc	a5,0xffffd
    8aa2:	6b678793          	addi	a5,a5,1718 # 6154 <_cleanup_r>
    8aa6:	d49c                	sw	a5,40(s1)
    8aa8:	245e                	lhu	a5,12(s0)
    8aaa:	c008                	sw	a0,0(s0)
    8aac:	c808                	sw	a0,16(s0)
    8aae:	0807e793          	ori	a5,a5,128
    8ab2:	a45e                	sh	a5,12(s0)
    8ab4:	47a2                	lw	a5,8(sp)
    8ab6:	c85c                	sw	a5,20(s0)
    8ab8:	47b2                	lw	a5,12(sp)
    8aba:	cb99                	beqz	a5,8ad0 <__smakebuf_r+0x86>
    8abc:	00e41583          	lh	a1,14(s0)
    8ac0:	8526                	mv	a0,s1
    8ac2:	2a9d                	jal	8c38 <_isatty_r>
    8ac4:	c511                	beqz	a0,8ad0 <__smakebuf_r+0x86>
    8ac6:	245e                	lhu	a5,12(s0)
    8ac8:	9bf1                	andi	a5,a5,-4
    8aca:	0017e793          	ori	a5,a5,1
    8ace:	a45e                	sh	a5,12(s0)
    8ad0:	245e                	lhu	a5,12(s0)
    8ad2:	00f96933          	or	s2,s2,a5
    8ad6:	01241623          	sh	s2,12(s0)
    8ada:	b779                	j	8a68 <__smakebuf_r+0x1e>

00008adc <malloc>:
    8adc:	81418793          	addi	a5,gp,-2028 # 20000344 <_impure_ptr>
    8ae0:	85aa                	mv	a1,a0
    8ae2:	4388                	lw	a0,0(a5)
    8ae4:	9adfe06f          	j	7490 <_malloc_r>

00008ae8 <memchr>:
    8ae8:	0ff5f593          	andi	a1,a1,255
    8aec:	962a                	add	a2,a2,a0
    8aee:	00c51463          	bne	a0,a2,8af6 <memchr+0xe>
    8af2:	4501                	li	a0,0
    8af4:	8082                	ret
    8af6:	211c                	lbu	a5,0(a0)
    8af8:	feb78ee3          	beq	a5,a1,8af4 <memchr+0xc>
    8afc:	0505                	addi	a0,a0,1
    8afe:	bfc5                	j	8aee <memchr+0x6>

00008b00 <__malloc_lock>:
    8b00:	8082                	ret

00008b02 <__malloc_unlock>:
    8b02:	8082                	ret

00008b04 <_free_r>:
    8b04:	c1dd                	beqz	a1,8baa <_free_r+0xa6>
    8b06:	ffc5a783          	lw	a5,-4(a1)
    8b0a:	1141                	addi	sp,sp,-16
    8b0c:	c422                	sw	s0,8(sp)
    8b0e:	c606                	sw	ra,12(sp)
    8b10:	c226                	sw	s1,4(sp)
    8b12:	ffc58413          	addi	s0,a1,-4
    8b16:	0007d363          	bgez	a5,8b1c <_free_r+0x18>
    8b1a:	943e                	add	s0,s0,a5
    8b1c:	84aa                	mv	s1,a0
    8b1e:	fe3ff0ef          	jal	ra,8b00 <__malloc_lock>
    8b22:	8d818793          	addi	a5,gp,-1832 # 20000408 <__malloc_free_list>
    8b26:	439c                	lw	a5,0(a5)
    8b28:	ef81                	bnez	a5,8b40 <_free_r+0x3c>
    8b2a:	00042223          	sw	zero,4(s0)
    8b2e:	8c81ac23          	sw	s0,-1832(gp) # 20000408 <__malloc_free_list>
    8b32:	4422                	lw	s0,8(sp)
    8b34:	40b2                	lw	ra,12(sp)
    8b36:	8526                	mv	a0,s1
    8b38:	4492                	lw	s1,4(sp)
    8b3a:	0141                	addi	sp,sp,16
    8b3c:	fc7ff06f          	j	8b02 <__malloc_unlock>
    8b40:	00f47e63          	bgeu	s0,a5,8b5c <_free_r+0x58>
    8b44:	4014                	lw	a3,0(s0)
    8b46:	00d40733          	add	a4,s0,a3
    8b4a:	00e79663          	bne	a5,a4,8b56 <_free_r+0x52>
    8b4e:	4398                	lw	a4,0(a5)
    8b50:	43dc                	lw	a5,4(a5)
    8b52:	9736                	add	a4,a4,a3
    8b54:	c018                	sw	a4,0(s0)
    8b56:	c05c                	sw	a5,4(s0)
    8b58:	bfd9                	j	8b2e <_free_r+0x2a>
    8b5a:	87ba                	mv	a5,a4
    8b5c:	43d8                	lw	a4,4(a5)
    8b5e:	c319                	beqz	a4,8b64 <_free_r+0x60>
    8b60:	fee47de3          	bgeu	s0,a4,8b5a <_free_r+0x56>
    8b64:	4394                	lw	a3,0(a5)
    8b66:	00d78633          	add	a2,a5,a3
    8b6a:	00861f63          	bne	a2,s0,8b88 <_free_r+0x84>
    8b6e:	4010                	lw	a2,0(s0)
    8b70:	96b2                	add	a3,a3,a2
    8b72:	c394                	sw	a3,0(a5)
    8b74:	00d78633          	add	a2,a5,a3
    8b78:	fac71de3          	bne	a4,a2,8b32 <_free_r+0x2e>
    8b7c:	4310                	lw	a2,0(a4)
    8b7e:	4358                	lw	a4,4(a4)
    8b80:	96b2                	add	a3,a3,a2
    8b82:	c394                	sw	a3,0(a5)
    8b84:	c3d8                	sw	a4,4(a5)
    8b86:	b775                	j	8b32 <_free_r+0x2e>
    8b88:	00c47563          	bgeu	s0,a2,8b92 <_free_r+0x8e>
    8b8c:	47b1                	li	a5,12
    8b8e:	c09c                	sw	a5,0(s1)
    8b90:	b74d                	j	8b32 <_free_r+0x2e>
    8b92:	4010                	lw	a2,0(s0)
    8b94:	00c406b3          	add	a3,s0,a2
    8b98:	00d71663          	bne	a4,a3,8ba4 <_free_r+0xa0>
    8b9c:	4314                	lw	a3,0(a4)
    8b9e:	4358                	lw	a4,4(a4)
    8ba0:	96b2                	add	a3,a3,a2
    8ba2:	c014                	sw	a3,0(s0)
    8ba4:	c058                	sw	a4,4(s0)
    8ba6:	c3c0                	sw	s0,4(a5)
    8ba8:	b769                	j	8b32 <_free_r+0x2e>
    8baa:	8082                	ret

00008bac <_realloc_r>:
    8bac:	e581                	bnez	a1,8bb4 <_realloc_r+0x8>
    8bae:	85b2                	mv	a1,a2
    8bb0:	8e1fe06f          	j	7490 <_malloc_r>
    8bb4:	1101                	addi	sp,sp,-32
    8bb6:	cc22                	sw	s0,24(sp)
    8bb8:	ce06                	sw	ra,28(sp)
    8bba:	ca26                	sw	s1,20(sp)
    8bbc:	c84a                	sw	s2,16(sp)
    8bbe:	c64e                	sw	s3,12(sp)
    8bc0:	8432                	mv	s0,a2
    8bc2:	ee01                	bnez	a2,8bda <_realloc_r+0x2e>
    8bc4:	f41ff0ef          	jal	ra,8b04 <_free_r>
    8bc8:	4901                	li	s2,0
    8bca:	40f2                	lw	ra,28(sp)
    8bcc:	4462                	lw	s0,24(sp)
    8bce:	854a                	mv	a0,s2
    8bd0:	44d2                	lw	s1,20(sp)
    8bd2:	4942                	lw	s2,16(sp)
    8bd4:	49b2                	lw	s3,12(sp)
    8bd6:	6105                	addi	sp,sp,32
    8bd8:	8082                	ret
    8bda:	84ae                	mv	s1,a1
    8bdc:	89aa                	mv	s3,a0
    8bde:	2071                	jal	8c6a <_malloc_usable_size_r>
    8be0:	8926                	mv	s2,s1
    8be2:	fe8574e3          	bgeu	a0,s0,8bca <_realloc_r+0x1e>
    8be6:	85a2                	mv	a1,s0
    8be8:	854e                	mv	a0,s3
    8bea:	8a7fe0ef          	jal	ra,7490 <_malloc_r>
    8bee:	892a                	mv	s2,a0
    8bf0:	dd69                	beqz	a0,8bca <_realloc_r+0x1e>
    8bf2:	85a6                	mv	a1,s1
    8bf4:	8622                	mv	a2,s0
    8bf6:	b9afc0ef          	jal	ra,4f90 <memcpy>
    8bfa:	85a6                	mv	a1,s1
    8bfc:	854e                	mv	a0,s3
    8bfe:	f07ff0ef          	jal	ra,8b04 <_free_r>
    8c02:	b7e1                	j	8bca <_realloc_r+0x1e>

00008c04 <_fstat_r>:
    8c04:	1141                	addi	sp,sp,-16
    8c06:	c422                	sw	s0,8(sp)
    8c08:	842a                	mv	s0,a0
    8c0a:	852e                	mv	a0,a1
    8c0c:	85b2                	mv	a1,a2
    8c0e:	1fffc797          	auipc	a5,0x1fffc
    8c12:	e007a523          	sw	zero,-502(a5) # 20004a18 <errno>
    8c16:	c606                	sw	ra,12(sp)
    8c18:	4bd010ef          	jal	ra,a8d4 <_fstat>
    8c1c:	57fd                	li	a5,-1
    8c1e:	00f51963          	bne	a0,a5,8c30 <_fstat_r+0x2c>
    8c22:	1fffc797          	auipc	a5,0x1fffc
    8c26:	df678793          	addi	a5,a5,-522 # 20004a18 <errno>
    8c2a:	439c                	lw	a5,0(a5)
    8c2c:	c391                	beqz	a5,8c30 <_fstat_r+0x2c>
    8c2e:	c01c                	sw	a5,0(s0)
    8c30:	40b2                	lw	ra,12(sp)
    8c32:	4422                	lw	s0,8(sp)
    8c34:	0141                	addi	sp,sp,16
    8c36:	8082                	ret

00008c38 <_isatty_r>:
    8c38:	1141                	addi	sp,sp,-16
    8c3a:	c422                	sw	s0,8(sp)
    8c3c:	842a                	mv	s0,a0
    8c3e:	852e                	mv	a0,a1
    8c40:	1fffc797          	auipc	a5,0x1fffc
    8c44:	dc07ac23          	sw	zero,-552(a5) # 20004a18 <errno>
    8c48:	c606                	sw	ra,12(sp)
    8c4a:	49b010ef          	jal	ra,a8e4 <_isatty>
    8c4e:	57fd                	li	a5,-1
    8c50:	00f51963          	bne	a0,a5,8c62 <_isatty_r+0x2a>
    8c54:	1fffc797          	auipc	a5,0x1fffc
    8c58:	dc478793          	addi	a5,a5,-572 # 20004a18 <errno>
    8c5c:	439c                	lw	a5,0(a5)
    8c5e:	c391                	beqz	a5,8c62 <_isatty_r+0x2a>
    8c60:	c01c                	sw	a5,0(s0)
    8c62:	40b2                	lw	ra,12(sp)
    8c64:	4422                	lw	s0,8(sp)
    8c66:	0141                	addi	sp,sp,16
    8c68:	8082                	ret

00008c6a <_malloc_usable_size_r>:
    8c6a:	ffc5a783          	lw	a5,-4(a1)
    8c6e:	ffc78513          	addi	a0,a5,-4
    8c72:	0007d563          	bgez	a5,8c7c <_malloc_usable_size_r+0x12>
    8c76:	95aa                	add	a1,a1,a0
    8c78:	419c                	lw	a5,0(a1)
    8c7a:	953e                	add	a0,a0,a5
    8c7c:	8082                	ret

00008c7e <__adddf3>:
    8c7e:	00100837          	lui	a6,0x100
    8c82:	1101                	addi	sp,sp,-32
    8c84:	187d                	addi	a6,a6,-1
    8c86:	00b87733          	and	a4,a6,a1
    8c8a:	ca26                	sw	s1,20(sp)
    8c8c:	00d87833          	and	a6,a6,a3
    8c90:	0145d493          	srli	s1,a1,0x14
    8c94:	0146d313          	srli	t1,a3,0x14
    8c98:	00371e13          	slli	t3,a4,0x3
    8c9c:	c64e                	sw	s3,12(sp)
    8c9e:	01d55713          	srli	a4,a0,0x1d
    8ca2:	080e                	slli	a6,a6,0x3
    8ca4:	01d65793          	srli	a5,a2,0x1d
    8ca8:	7ff4f493          	andi	s1,s1,2047
    8cac:	7ff37313          	andi	t1,t1,2047
    8cb0:	ce06                	sw	ra,28(sp)
    8cb2:	cc22                	sw	s0,24(sp)
    8cb4:	c84a                	sw	s2,16(sp)
    8cb6:	01f5d993          	srli	s3,a1,0x1f
    8cba:	01f6de93          	srli	t4,a3,0x1f
    8cbe:	01c76733          	or	a4,a4,t3
    8cc2:	00351f13          	slli	t5,a0,0x3
    8cc6:	0107e833          	or	a6,a5,a6
    8cca:	00361f93          	slli	t6,a2,0x3
    8cce:	40648e33          	sub	t3,s1,t1
    8cd2:	19d98063          	beq	s3,t4,8e52 <__adddf3+0x1d4>
    8cd6:	13c05663          	blez	t3,8e02 <__adddf3+0x184>
    8cda:	1c030463          	beqz	t1,8ea2 <__adddf3+0x224>
    8cde:	008006b7          	lui	a3,0x800
    8ce2:	7ff00793          	li	a5,2047
    8ce6:	00d86833          	or	a6,a6,a3
    8cea:	36f48f63          	beq	s1,a5,9068 <__adddf3+0x3ea>
    8cee:	03800793          	li	a5,56
    8cf2:	35c7c063          	blt	a5,t3,9032 <__adddf3+0x3b4>
    8cf6:	47fd                	li	a5,31
    8cf8:	47c7cd63          	blt	a5,t3,9172 <__adddf3+0x4f4>
    8cfc:	02000513          	li	a0,32
    8d00:	41c50533          	sub	a0,a0,t3
    8d04:	01cfd7b3          	srl	a5,t6,t3
    8d08:	00a816b3          	sll	a3,a6,a0
    8d0c:	00af9933          	sll	s2,t6,a0
    8d10:	8edd                	or	a3,a3,a5
    8d12:	01203933          	snez	s2,s2
    8d16:	01c857b3          	srl	a5,a6,t3
    8d1a:	0126e933          	or	s2,a3,s2
    8d1e:	8f1d                	sub	a4,a4,a5
    8d20:	412f0933          	sub	s2,t5,s2
    8d24:	012f37b3          	sltu	a5,t5,s2
    8d28:	40f70633          	sub	a2,a4,a5
    8d2c:	00861793          	slli	a5,a2,0x8
    8d30:	2407d463          	bgez	a5,8f78 <__adddf3+0x2fa>
    8d34:	00800737          	lui	a4,0x800
    8d38:	177d                	addi	a4,a4,-1
    8d3a:	00e67433          	and	s0,a2,a4
    8d3e:	2c040c63          	beqz	s0,9016 <__adddf3+0x398>
    8d42:	8522                	mv	a0,s0
    8d44:	9acfc0ef          	jal	ra,4ef0 <__clzsi2>
    8d48:	ff850713          	addi	a4,a0,-8
    8d4c:	02000793          	li	a5,32
    8d50:	8f99                	sub	a5,a5,a4
    8d52:	00f957b3          	srl	a5,s2,a5
    8d56:	00e41633          	sll	a2,s0,a4
    8d5a:	8fd1                	or	a5,a5,a2
    8d5c:	00e91933          	sll	s2,s2,a4
    8d60:	2a974163          	blt	a4,s1,9002 <__adddf3+0x384>
    8d64:	40970533          	sub	a0,a4,s1
    8d68:	00150613          	addi	a2,a0,1
    8d6c:	477d                	li	a4,31
    8d6e:	38c74d63          	blt	a4,a2,9108 <__adddf3+0x48a>
    8d72:	02000713          	li	a4,32
    8d76:	8f11                	sub	a4,a4,a2
    8d78:	00c956b3          	srl	a3,s2,a2
    8d7c:	00e91933          	sll	s2,s2,a4
    8d80:	00e79733          	sll	a4,a5,a4
    8d84:	8f55                	or	a4,a4,a3
    8d86:	01203933          	snez	s2,s2
    8d8a:	01276933          	or	s2,a4,s2
    8d8e:	00c7d633          	srl	a2,a5,a2
    8d92:	4481                	li	s1,0
    8d94:	00797793          	andi	a5,s2,7
    8d98:	cf81                	beqz	a5,8db0 <__adddf3+0x132>
    8d9a:	00f97713          	andi	a4,s2,15
    8d9e:	4791                	li	a5,4
    8da0:	00f70863          	beq	a4,a5,8db0 <__adddf3+0x132>
    8da4:	00490713          	addi	a4,s2,4
    8da8:	01273933          	sltu	s2,a4,s2
    8dac:	964a                	add	a2,a2,s2
    8dae:	893a                	mv	s2,a4
    8db0:	00861793          	slli	a5,a2,0x8
    8db4:	1c07d663          	bgez	a5,8f80 <__adddf3+0x302>
    8db8:	00148513          	addi	a0,s1,1
    8dbc:	7ff00793          	li	a5,2047
    8dc0:	85ce                	mv	a1,s3
    8dc2:	20f50463          	beq	a0,a5,8fca <__adddf3+0x34c>
    8dc6:	ff8007b7          	lui	a5,0xff800
    8dca:	17fd                	addi	a5,a5,-1
    8dcc:	8ff1                	and	a5,a5,a2
    8dce:	01d79893          	slli	a7,a5,0x1d
    8dd2:	00395913          	srli	s2,s2,0x3
    8dd6:	07a6                	slli	a5,a5,0x9
    8dd8:	0128e8b3          	or	a7,a7,s2
    8ddc:	83b1                	srli	a5,a5,0xc
    8dde:	7ff57513          	andi	a0,a0,2047
    8de2:	00c79693          	slli	a3,a5,0xc
    8de6:	0552                	slli	a0,a0,0x14
    8de8:	40f2                	lw	ra,28(sp)
    8dea:	4462                	lw	s0,24(sp)
    8dec:	82b1                	srli	a3,a3,0xc
    8dee:	05fe                	slli	a1,a1,0x1f
    8df0:	8ec9                	or	a3,a3,a0
    8df2:	8ecd                	or	a3,a3,a1
    8df4:	44d2                	lw	s1,20(sp)
    8df6:	4942                	lw	s2,16(sp)
    8df8:	49b2                	lw	s3,12(sp)
    8dfa:	8546                	mv	a0,a7
    8dfc:	85b6                	mv	a1,a3
    8dfe:	6105                	addi	sp,sp,32
    8e00:	8082                	ret
    8e02:	0a0e1e63          	bnez	t3,8ebe <__adddf3+0x240>
    8e06:	00148313          	addi	t1,s1,1
    8e0a:	7fe37313          	andi	t1,t1,2046
    8e0e:	22031763          	bnez	t1,903c <__adddf3+0x3be>
    8e12:	01e767b3          	or	a5,a4,t5
    8e16:	01f868b3          	or	a7,a6,t6
    8e1a:	1a049d63          	bnez	s1,8fd4 <__adddf3+0x356>
    8e1e:	40078763          	beqz	a5,922c <__adddf3+0x5ae>
    8e22:	44088663          	beqz	a7,926e <__adddf3+0x5f0>
    8e26:	41ff0933          	sub	s2,t5,t6
    8e2a:	410707b3          	sub	a5,a4,a6
    8e2e:	012f3633          	sltu	a2,t5,s2
    8e32:	40c78633          	sub	a2,a5,a2
    8e36:	00861793          	slli	a5,a2,0x8
    8e3a:	4c07d663          	bgez	a5,9306 <__adddf3+0x688>
    8e3e:	41ef8933          	sub	s2,t6,t5
    8e42:	40e807b3          	sub	a5,a6,a4
    8e46:	012fb633          	sltu	a2,t6,s2
    8e4a:	40c78633          	sub	a2,a5,a2
    8e4e:	89f6                	mv	s3,t4
    8e50:	b791                	j	8d94 <__adddf3+0x116>
    8e52:	0fc05063          	blez	t3,8f32 <__adddf3+0x2b4>
    8e56:	0c030063          	beqz	t1,8f16 <__adddf3+0x298>
    8e5a:	008006b7          	lui	a3,0x800
    8e5e:	7ff00793          	li	a5,2047
    8e62:	00d86833          	or	a6,a6,a3
    8e66:	3af48a63          	beq	s1,a5,921a <__adddf3+0x59c>
    8e6a:	03800793          	li	a5,56
    8e6e:	13c7cb63          	blt	a5,t3,8fa4 <__adddf3+0x326>
    8e72:	47fd                	li	a5,31
    8e74:	35c7df63          	bge	a5,t3,91d2 <__adddf3+0x554>
    8e78:	fe0e0913          	addi	s2,t3,-32
    8e7c:	02000793          	li	a5,32
    8e80:	012856b3          	srl	a3,a6,s2
    8e84:	00fe0a63          	beq	t3,a5,8e98 <__adddf3+0x21a>
    8e88:	04000913          	li	s2,64
    8e8c:	41c90933          	sub	s2,s2,t3
    8e90:	01281933          	sll	s2,a6,s2
    8e94:	012fefb3          	or	t6,t6,s2
    8e98:	01f03933          	snez	s2,t6
    8e9c:	00d96933          	or	s2,s2,a3
    8ea0:	a231                	j	8fac <__adddf3+0x32e>
    8ea2:	01f867b3          	or	a5,a6,t6
    8ea6:	1c078a63          	beqz	a5,907a <__adddf3+0x3fc>
    8eaa:	fffe0793          	addi	a5,t3,-1
    8eae:	38078c63          	beqz	a5,9246 <__adddf3+0x5c8>
    8eb2:	7ff00693          	li	a3,2047
    8eb6:	1ade0963          	beq	t3,a3,9068 <__adddf3+0x3ea>
    8eba:	8e3e                	mv	t3,a5
    8ebc:	bd0d                	j	8cee <__adddf3+0x70>
    8ebe:	409305b3          	sub	a1,t1,s1
    8ec2:	22049163          	bnez	s1,90e4 <__adddf3+0x466>
    8ec6:	01e767b3          	or	a5,a4,t5
    8eca:	32078763          	beqz	a5,91f8 <__adddf3+0x57a>
    8ece:	fff58793          	addi	a5,a1,-1
    8ed2:	44078163          	beqz	a5,9314 <__adddf3+0x696>
    8ed6:	7ff00693          	li	a3,2047
    8eda:	20d58c63          	beq	a1,a3,90f2 <__adddf3+0x474>
    8ede:	85be                	mv	a1,a5
    8ee0:	03800793          	li	a5,56
    8ee4:	2ab7cc63          	blt	a5,a1,919c <__adddf3+0x51e>
    8ee8:	47fd                	li	a5,31
    8eea:	3cb7cf63          	blt	a5,a1,92c8 <__adddf3+0x64a>
    8eee:	02000793          	li	a5,32
    8ef2:	8f8d                	sub	a5,a5,a1
    8ef4:	00f71933          	sll	s2,a4,a5
    8ef8:	00bf56b3          	srl	a3,t5,a1
    8efc:	00ff17b3          	sll	a5,t5,a5
    8f00:	00d96933          	or	s2,s2,a3
    8f04:	00f037b3          	snez	a5,a5
    8f08:	00b75733          	srl	a4,a4,a1
    8f0c:	00f96933          	or	s2,s2,a5
    8f10:	40e80833          	sub	a6,a6,a4
    8f14:	ac41                	j	91a4 <__adddf3+0x526>
    8f16:	01f867b3          	or	a5,a6,t6
    8f1a:	34078063          	beqz	a5,925a <__adddf3+0x5dc>
    8f1e:	fffe0793          	addi	a5,t3,-1
    8f22:	20078a63          	beqz	a5,9136 <__adddf3+0x4b8>
    8f26:	7ff00693          	li	a3,2047
    8f2a:	2ede0863          	beq	t3,a3,921a <__adddf3+0x59c>
    8f2e:	8e3e                	mv	t3,a5
    8f30:	bf2d                	j	8e6a <__adddf3+0x1ec>
    8f32:	140e1e63          	bnez	t3,908e <__adddf3+0x410>
    8f36:	00148693          	addi	a3,s1,1
    8f3a:	7fe6f793          	andi	a5,a3,2046
    8f3e:	34079163          	bnez	a5,9280 <__adddf3+0x602>
    8f42:	01e767b3          	or	a5,a4,t5
    8f46:	2c049563          	bnez	s1,9210 <__adddf3+0x592>
    8f4a:	3e078063          	beqz	a5,932a <__adddf3+0x6ac>
    8f4e:	01f867b3          	or	a5,a6,t6
    8f52:	30078e63          	beqz	a5,926e <__adddf3+0x5f0>
    8f56:	01ff0933          	add	s2,t5,t6
    8f5a:	010707b3          	add	a5,a4,a6
    8f5e:	01e93f33          	sltu	t5,s2,t5
    8f62:	01e78633          	add	a2,a5,t5
    8f66:	00861793          	slli	a5,a2,0x8
    8f6a:	0007d763          	bgez	a5,8f78 <__adddf3+0x2fa>
    8f6e:	ff8007b7          	lui	a5,0xff800
    8f72:	17fd                	addi	a5,a5,-1
    8f74:	8e7d                	and	a2,a2,a5
    8f76:	4485                	li	s1,1
    8f78:	00797793          	andi	a5,s2,7
    8f7c:	e0079fe3          	bnez	a5,8d9a <__adddf3+0x11c>
    8f80:	01d61793          	slli	a5,a2,0x1d
    8f84:	00395893          	srli	a7,s2,0x3
    8f88:	00f8e8b3          	or	a7,a7,a5
    8f8c:	00365793          	srli	a5,a2,0x3
    8f90:	7ff00713          	li	a4,2047
    8f94:	04e48d63          	beq	s1,a4,8fee <__adddf3+0x370>
    8f98:	07b2                	slli	a5,a5,0xc
    8f9a:	83b1                	srli	a5,a5,0xc
    8f9c:	7ff4f513          	andi	a0,s1,2047
    8fa0:	85ce                	mv	a1,s3
    8fa2:	b581                	j	8de2 <__adddf3+0x164>
    8fa4:	01f86933          	or	s2,a6,t6
    8fa8:	01203933          	snez	s2,s2
    8fac:	997a                	add	s2,s2,t5
    8fae:	01e937b3          	sltu	a5,s2,t5
    8fb2:	00e78633          	add	a2,a5,a4
    8fb6:	00861793          	slli	a5,a2,0x8
    8fba:	fa07dfe3          	bgez	a5,8f78 <__adddf3+0x2fa>
    8fbe:	0485                	addi	s1,s1,1
    8fc0:	7ff00793          	li	a5,2047
    8fc4:	18f49663          	bne	s1,a5,9150 <__adddf3+0x4d2>
    8fc8:	85ce                	mv	a1,s3
    8fca:	7ff00513          	li	a0,2047
    8fce:	4781                	li	a5,0
    8fd0:	4881                	li	a7,0
    8fd2:	bd01                	j	8de2 <__adddf3+0x164>
    8fd4:	ebc1                	bnez	a5,9064 <__adddf3+0x3e6>
    8fd6:	3a088463          	beqz	a7,937e <__adddf3+0x700>
    8fda:	00361693          	slli	a3,a2,0x3
    8fde:	01d81793          	slli	a5,a6,0x1d
    8fe2:	828d                	srli	a3,a3,0x3
    8fe4:	00d7e8b3          	or	a7,a5,a3
    8fe8:	89f6                	mv	s3,t4
    8fea:	00385793          	srli	a5,a6,0x3
    8fee:	00f8e7b3          	or	a5,a7,a5
    8ff2:	dbf9                	beqz	a5,8fc8 <__adddf3+0x34a>
    8ff4:	4581                	li	a1,0
    8ff6:	7ff00513          	li	a0,2047
    8ffa:	000807b7          	lui	a5,0x80
    8ffe:	4881                	li	a7,0
    9000:	b3cd                	j	8de2 <__adddf3+0x164>
    9002:	ff800637          	lui	a2,0xff800
    9006:	167d                	addi	a2,a2,-1
    9008:	8e7d                	and	a2,a2,a5
    900a:	00797793          	andi	a5,s2,7
    900e:	8c99                	sub	s1,s1,a4
    9010:	d80795e3          	bnez	a5,8d9a <__adddf3+0x11c>
    9014:	b7b5                	j	8f80 <__adddf3+0x302>
    9016:	854a                	mv	a0,s2
    9018:	ed9fb0ef          	jal	ra,4ef0 <__clzsi2>
    901c:	01850713          	addi	a4,a0,24
    9020:	47fd                	li	a5,31
    9022:	d2e7d5e3          	bge	a5,a4,8d4c <__adddf3+0xce>
    9026:	ff850613          	addi	a2,a0,-8
    902a:	00c917b3          	sll	a5,s2,a2
    902e:	4901                	li	s2,0
    9030:	bb05                	j	8d60 <__adddf3+0xe2>
    9032:	01f86933          	or	s2,a6,t6
    9036:	01203933          	snez	s2,s2
    903a:	b1dd                	j	8d20 <__adddf3+0xa2>
    903c:	41ff0933          	sub	s2,t5,t6
    9040:	41070633          	sub	a2,a4,a6
    9044:	012f3433          	sltu	s0,t5,s2
    9048:	40860433          	sub	s0,a2,s0
    904c:	00841793          	slli	a5,s0,0x8
    9050:	2407cd63          	bltz	a5,92aa <__adddf3+0x62c>
    9054:	008968b3          	or	a7,s2,s0
    9058:	ce0893e3          	bnez	a7,8d3e <__adddf3+0xc0>
    905c:	4781                	li	a5,0
    905e:	4981                	li	s3,0
    9060:	4481                	li	s1,0
    9062:	bf1d                	j	8f98 <__adddf3+0x31a>
    9064:	f80898e3          	bnez	a7,8ff4 <__adddf3+0x376>
    9068:	050e                	slli	a0,a0,0x3
    906a:	01d71793          	slli	a5,a4,0x1d
    906e:	810d                	srli	a0,a0,0x3
    9070:	00a7e8b3          	or	a7,a5,a0
    9074:	00375793          	srli	a5,a4,0x3
    9078:	bf9d                	j	8fee <__adddf3+0x370>
    907a:	050e                	slli	a0,a0,0x3
    907c:	01d71793          	slli	a5,a4,0x1d
    9080:	810d                	srli	a0,a0,0x3
    9082:	00a7e8b3          	or	a7,a5,a0
    9086:	84f2                	mv	s1,t3
    9088:	00375793          	srli	a5,a4,0x3
    908c:	b711                	j	8f90 <__adddf3+0x312>
    908e:	40930533          	sub	a0,t1,s1
    9092:	12048263          	beqz	s1,91b6 <__adddf3+0x538>
    9096:	008006b7          	lui	a3,0x800
    909a:	7ff00793          	li	a5,2047
    909e:	8f55                	or	a4,a4,a3
    90a0:	2ef30d63          	beq	t1,a5,939a <__adddf3+0x71c>
    90a4:	03800793          	li	a5,56
    90a8:	20a7cb63          	blt	a5,a0,92be <__adddf3+0x640>
    90ac:	47fd                	li	a5,31
    90ae:	2aa7c363          	blt	a5,a0,9354 <__adddf3+0x6d6>
    90b2:	02000793          	li	a5,32
    90b6:	8f89                	sub	a5,a5,a0
    90b8:	00f71933          	sll	s2,a4,a5
    90bc:	00af56b3          	srl	a3,t5,a0
    90c0:	00ff17b3          	sll	a5,t5,a5
    90c4:	00d96933          	or	s2,s2,a3
    90c8:	00f037b3          	snez	a5,a5
    90cc:	00a75733          	srl	a4,a4,a0
    90d0:	00f96933          	or	s2,s2,a5
    90d4:	983a                	add	a6,a6,a4
    90d6:	997e                	add	s2,s2,t6
    90d8:	01f937b3          	sltu	a5,s2,t6
    90dc:	01078633          	add	a2,a5,a6
    90e0:	849a                	mv	s1,t1
    90e2:	bdd1                	j	8fb6 <__adddf3+0x338>
    90e4:	008006b7          	lui	a3,0x800
    90e8:	7ff00793          	li	a5,2047
    90ec:	8f55                	or	a4,a4,a3
    90ee:	def319e3          	bne	t1,a5,8ee0 <__adddf3+0x262>
    90f2:	00361793          	slli	a5,a2,0x3
    90f6:	838d                	srli	a5,a5,0x3
    90f8:	01d81893          	slli	a7,a6,0x1d
    90fc:	0117e8b3          	or	a7,a5,a7
    9100:	89f6                	mv	s3,t4
    9102:	00385793          	srli	a5,a6,0x3
    9106:	b5e5                	j	8fee <__adddf3+0x370>
    9108:	fe150713          	addi	a4,a0,-31
    910c:	02000693          	li	a3,32
    9110:	00e7d733          	srl	a4,a5,a4
    9114:	00d60a63          	beq	a2,a3,9128 <__adddf3+0x4aa>
    9118:	04000693          	li	a3,64
    911c:	40c68633          	sub	a2,a3,a2
    9120:	00c79633          	sll	a2,a5,a2
    9124:	00c96933          	or	s2,s2,a2
    9128:	01203933          	snez	s2,s2
    912c:	00e96933          	or	s2,s2,a4
    9130:	4601                	li	a2,0
    9132:	4481                	li	s1,0
    9134:	b591                	j	8f78 <__adddf3+0x2fa>
    9136:	01ff0933          	add	s2,t5,t6
    913a:	010707b3          	add	a5,a4,a6
    913e:	01e93633          	sltu	a2,s2,t5
    9142:	963e                	add	a2,a2,a5
    9144:	00861793          	slli	a5,a2,0x8
    9148:	4485                	li	s1,1
    914a:	e207d7e3          	bgez	a5,8f78 <__adddf3+0x2fa>
    914e:	4489                	li	s1,2
    9150:	ff8007b7          	lui	a5,0xff800
    9154:	17fd                	addi	a5,a5,-1
    9156:	8ff1                	and	a5,a5,a2
    9158:	00195713          	srli	a4,s2,0x1
    915c:	00197913          	andi	s2,s2,1
    9160:	01276933          	or	s2,a4,s2
    9164:	01f79893          	slli	a7,a5,0x1f
    9168:	0128e933          	or	s2,a7,s2
    916c:	0017d613          	srli	a2,a5,0x1
    9170:	b115                	j	8d94 <__adddf3+0x116>
    9172:	fe0e0913          	addi	s2,t3,-32
    9176:	02000793          	li	a5,32
    917a:	012856b3          	srl	a3,a6,s2
    917e:	00fe0a63          	beq	t3,a5,9192 <__adddf3+0x514>
    9182:	04000913          	li	s2,64
    9186:	41c90933          	sub	s2,s2,t3
    918a:	01281933          	sll	s2,a6,s2
    918e:	012fefb3          	or	t6,t6,s2
    9192:	01f03933          	snez	s2,t6
    9196:	00d96933          	or	s2,s2,a3
    919a:	b659                	j	8d20 <__adddf3+0xa2>
    919c:	01e76933          	or	s2,a4,t5
    91a0:	01203933          	snez	s2,s2
    91a4:	412f8933          	sub	s2,t6,s2
    91a8:	012fb7b3          	sltu	a5,t6,s2
    91ac:	40f80633          	sub	a2,a6,a5
    91b0:	849a                	mv	s1,t1
    91b2:	89f6                	mv	s3,t4
    91b4:	bea5                	j	8d2c <__adddf3+0xae>
    91b6:	01e767b3          	or	a5,a4,t5
    91ba:	18078263          	beqz	a5,933e <__adddf3+0x6c0>
    91be:	fff50793          	addi	a5,a0,-1
    91c2:	1c078463          	beqz	a5,938a <__adddf3+0x70c>
    91c6:	7ff00693          	li	a3,2047
    91ca:	12d50463          	beq	a0,a3,92f2 <__adddf3+0x674>
    91ce:	853e                	mv	a0,a5
    91d0:	bdd1                	j	90a4 <__adddf3+0x426>
    91d2:	02000793          	li	a5,32
    91d6:	41c787b3          	sub	a5,a5,t3
    91da:	00f816b3          	sll	a3,a6,a5
    91de:	00ff9933          	sll	s2,t6,a5
    91e2:	01cfd633          	srl	a2,t6,t3
    91e6:	8ed1                	or	a3,a3,a2
    91e8:	01203933          	snez	s2,s2
    91ec:	01c857b3          	srl	a5,a6,t3
    91f0:	0126e933          	or	s2,a3,s2
    91f4:	973e                	add	a4,a4,a5
    91f6:	bb5d                	j	8fac <__adddf3+0x32e>
    91f8:	00361793          	slli	a5,a2,0x3
    91fc:	838d                	srli	a5,a5,0x3
    91fe:	01d81893          	slli	a7,a6,0x1d
    9202:	0117e8b3          	or	a7,a5,a7
    9206:	84ae                	mv	s1,a1
    9208:	00385793          	srli	a5,a6,0x3
    920c:	89f6                	mv	s3,t4
    920e:	b349                	j	8f90 <__adddf3+0x312>
    9210:	c3ed                	beqz	a5,92f2 <__adddf3+0x674>
    9212:	01f86933          	or	s2,a6,t6
    9216:	dc091fe3          	bnez	s2,8ff4 <__adddf3+0x376>
    921a:	050e                	slli	a0,a0,0x3
    921c:	01d71793          	slli	a5,a4,0x1d
    9220:	810d                	srli	a0,a0,0x3
    9222:	00f568b3          	or	a7,a0,a5
    9226:	00375793          	srli	a5,a4,0x3
    922a:	b3d1                	j	8fee <__adddf3+0x370>
    922c:	0e088163          	beqz	a7,930e <__adddf3+0x690>
    9230:	00361693          	slli	a3,a2,0x3
    9234:	01d81793          	slli	a5,a6,0x1d
    9238:	828d                	srli	a3,a3,0x3
    923a:	00d7e8b3          	or	a7,a5,a3
    923e:	89f6                	mv	s3,t4
    9240:	00385793          	srli	a5,a6,0x3
    9244:	bb91                	j	8f98 <__adddf3+0x31a>
    9246:	41ff0933          	sub	s2,t5,t6
    924a:	410707b3          	sub	a5,a4,a6
    924e:	012f3f33          	sltu	t5,t5,s2
    9252:	41e78633          	sub	a2,a5,t5
    9256:	4485                	li	s1,1
    9258:	bcd1                	j	8d2c <__adddf3+0xae>
    925a:	050e                	slli	a0,a0,0x3
    925c:	01d71793          	slli	a5,a4,0x1d
    9260:	810d                	srli	a0,a0,0x3
    9262:	00f568b3          	or	a7,a0,a5
    9266:	84f2                	mv	s1,t3
    9268:	00375793          	srli	a5,a4,0x3
    926c:	b315                	j	8f90 <__adddf3+0x312>
    926e:	050e                	slli	a0,a0,0x3
    9270:	01d71793          	slli	a5,a4,0x1d
    9274:	810d                	srli	a0,a0,0x3
    9276:	00a7e8b3          	or	a7,a5,a0
    927a:	00375793          	srli	a5,a4,0x3
    927e:	bb29                	j	8f98 <__adddf3+0x31a>
    9280:	7ff00793          	li	a5,2047
    9284:	d4f682e3          	beq	a3,a5,8fc8 <__adddf3+0x34a>
    9288:	01ff0933          	add	s2,t5,t6
    928c:	01e93633          	sltu	a2,s2,t5
    9290:	010707b3          	add	a5,a4,a6
    9294:	97b2                	add	a5,a5,a2
    9296:	01f79893          	slli	a7,a5,0x1f
    929a:	00195913          	srli	s2,s2,0x1
    929e:	0128e933          	or	s2,a7,s2
    92a2:	0017d613          	srli	a2,a5,0x1
    92a6:	84b6                	mv	s1,a3
    92a8:	b9c1                	j	8f78 <__adddf3+0x2fa>
    92aa:	41ef8933          	sub	s2,t6,t5
    92ae:	40e80733          	sub	a4,a6,a4
    92b2:	012fb633          	sltu	a2,t6,s2
    92b6:	40c70433          	sub	s0,a4,a2
    92ba:	89f6                	mv	s3,t4
    92bc:	b449                	j	8d3e <__adddf3+0xc0>
    92be:	01e76933          	or	s2,a4,t5
    92c2:	01203933          	snez	s2,s2
    92c6:	bd01                	j	90d6 <__adddf3+0x458>
    92c8:	fe058793          	addi	a5,a1,-32
    92cc:	02000693          	li	a3,32
    92d0:	00f757b3          	srl	a5,a4,a5
    92d4:	00d58a63          	beq	a1,a3,92e8 <__adddf3+0x66a>
    92d8:	04000693          	li	a3,64
    92dc:	40b685b3          	sub	a1,a3,a1
    92e0:	00b71733          	sll	a4,a4,a1
    92e4:	00ef6f33          	or	t5,t5,a4
    92e8:	01e03933          	snez	s2,t5
    92ec:	00f96933          	or	s2,s2,a5
    92f0:	bd55                	j	91a4 <__adddf3+0x526>
    92f2:	00361793          	slli	a5,a2,0x3
    92f6:	838d                	srli	a5,a5,0x3
    92f8:	01d81893          	slli	a7,a6,0x1d
    92fc:	0117e8b3          	or	a7,a5,a7
    9300:	00385793          	srli	a5,a6,0x3
    9304:	b1ed                	j	8fee <__adddf3+0x370>
    9306:	00c968b3          	or	a7,s2,a2
    930a:	c60897e3          	bnez	a7,8f78 <__adddf3+0x2fa>
    930e:	4781                	li	a5,0
    9310:	4981                	li	s3,0
    9312:	b159                	j	8f98 <__adddf3+0x31a>
    9314:	41ef8933          	sub	s2,t6,t5
    9318:	40e807b3          	sub	a5,a6,a4
    931c:	012fb633          	sltu	a2,t6,s2
    9320:	40c78633          	sub	a2,a5,a2
    9324:	89f6                	mv	s3,t4
    9326:	4485                	li	s1,1
    9328:	b411                	j	8d2c <__adddf3+0xae>
    932a:	00361693          	slli	a3,a2,0x3
    932e:	01d81793          	slli	a5,a6,0x1d
    9332:	828d                	srli	a3,a3,0x3
    9334:	00d7e8b3          	or	a7,a5,a3
    9338:	00385793          	srli	a5,a6,0x3
    933c:	b9b1                	j	8f98 <__adddf3+0x31a>
    933e:	00361693          	slli	a3,a2,0x3
    9342:	01d81793          	slli	a5,a6,0x1d
    9346:	828d                	srli	a3,a3,0x3
    9348:	00d7e8b3          	or	a7,a5,a3
    934c:	84aa                	mv	s1,a0
    934e:	00385793          	srli	a5,a6,0x3
    9352:	b93d                	j	8f90 <__adddf3+0x312>
    9354:	fe050793          	addi	a5,a0,-32
    9358:	02000693          	li	a3,32
    935c:	00f757b3          	srl	a5,a4,a5
    9360:	00d50a63          	beq	a0,a3,9374 <__adddf3+0x6f6>
    9364:	04000693          	li	a3,64
    9368:	40a68533          	sub	a0,a3,a0
    936c:	00a71733          	sll	a4,a4,a0
    9370:	00ef6f33          	or	t5,t5,a4
    9374:	01e03933          	snez	s2,t5
    9378:	00f96933          	or	s2,s2,a5
    937c:	bba9                	j	90d6 <__adddf3+0x458>
    937e:	4581                	li	a1,0
    9380:	7ff00513          	li	a0,2047
    9384:	000807b7          	lui	a5,0x80
    9388:	bca9                	j	8de2 <__adddf3+0x164>
    938a:	01ff0933          	add	s2,t5,t6
    938e:	010707b3          	add	a5,a4,a6
    9392:	01f93633          	sltu	a2,s2,t6
    9396:	963e                	add	a2,a2,a5
    9398:	b375                	j	9144 <__adddf3+0x4c6>
    939a:	00361693          	slli	a3,a2,0x3
    939e:	01d81793          	slli	a5,a6,0x1d
    93a2:	828d                	srli	a3,a3,0x3
    93a4:	00d7e8b3          	or	a7,a5,a3
    93a8:	00385793          	srli	a5,a6,0x3
    93ac:	b189                	j	8fee <__adddf3+0x370>

000093ae <__divdf3>:
    93ae:	7139                	addi	sp,sp,-64
    93b0:	0145d793          	srli	a5,a1,0x14
    93b4:	dc22                	sw	s0,56(sp)
    93b6:	d84a                	sw	s2,48(sp)
    93b8:	d256                	sw	s5,36(sp)
    93ba:	892a                	mv	s2,a0
    93bc:	00c59413          	slli	s0,a1,0xc
    93c0:	de06                	sw	ra,60(sp)
    93c2:	da26                	sw	s1,52(sp)
    93c4:	d64e                	sw	s3,44(sp)
    93c6:	d452                	sw	s4,40(sp)
    93c8:	d05a                	sw	s6,32(sp)
    93ca:	ce5e                	sw	s7,28(sp)
    93cc:	7ff7f513          	andi	a0,a5,2047
    93d0:	8031                	srli	s0,s0,0xc
    93d2:	01f5da93          	srli	s5,a1,0x1f
    93d6:	10050b63          	beqz	a0,94ec <__divdf3+0x13e>
    93da:	7ff00793          	li	a5,2047
    93de:	14f50b63          	beq	a0,a5,9534 <__divdf3+0x186>
    93e2:	01d95a13          	srli	s4,s2,0x1d
    93e6:	040e                	slli	s0,s0,0x3
    93e8:	008a6433          	or	s0,s4,s0
    93ec:	00800a37          	lui	s4,0x800
    93f0:	01446a33          	or	s4,s0,s4
    93f4:	00391b13          	slli	s6,s2,0x3
    93f8:	c0150493          	addi	s1,a0,-1023
    93fc:	4401                	li	s0,0
    93fe:	4b81                	li	s7,0
    9400:	0146d813          	srli	a6,a3,0x14
    9404:	00c69913          	slli	s2,a3,0xc
    9408:	7ff87813          	andi	a6,a6,2047
    940c:	88b2                	mv	a7,a2
    940e:	00c95913          	srli	s2,s2,0xc
    9412:	01f6d993          	srli	s3,a3,0x1f
    9416:	08080e63          	beqz	a6,94b2 <__divdf3+0x104>
    941a:	7ff00793          	li	a5,2047
    941e:	04f80063          	beq	a6,a5,945e <__divdf3+0xb0>
    9422:	01d65713          	srli	a4,a2,0x1d
    9426:	090e                	slli	s2,s2,0x3
    9428:	01276933          	or	s2,a4,s2
    942c:	c0180813          	addi	a6,a6,-1023 # ffc01 <__rt_init_end+0xf3351>
    9430:	008007b7          	lui	a5,0x800
    9434:	00f96733          	or	a4,s2,a5
    9438:	00361893          	slli	a7,a2,0x3
    943c:	410484b3          	sub	s1,s1,a6
    9440:	4581                	li	a1,0
    9442:	47bd                	li	a5,15
    9444:	013ac833          	xor	a6,s5,s3
    9448:	1a87e463          	bltu	a5,s0,95f0 <__divdf3+0x242>
    944c:	00003797          	auipc	a5,0x3
    9450:	23078793          	addi	a5,a5,560 # c67c <_ctype_+0x104>
    9454:	040a                	slli	s0,s0,0x2
    9456:	943e                	add	s0,s0,a5
    9458:	4010                	lw	a2,0(s0)
    945a:	963e                	add	a2,a2,a5
    945c:	8602                	jr	a2
    945e:	00c96733          	or	a4,s2,a2
    9462:	80148493          	addi	s1,s1,-2047
    9466:	10071263          	bnez	a4,956a <__divdf3+0x1bc>
    946a:	00246413          	ori	s0,s0,2
    946e:	4881                	li	a7,0
    9470:	4589                	li	a1,2
    9472:	bfc1                	j	9442 <__divdf3+0x94>
    9474:	7ff00613          	li	a2,2047
    9478:	4781                	li	a5,0
    947a:	4701                	li	a4,0
    947c:	07b2                	slli	a5,a5,0xc
    947e:	50f2                	lw	ra,60(sp)
    9480:	5462                	lw	s0,56(sp)
    9482:	0652                	slli	a2,a2,0x14
    9484:	83b1                	srli	a5,a5,0xc
    9486:	087e                	slli	a6,a6,0x1f
    9488:	8fd1                	or	a5,a5,a2
    948a:	0107e7b3          	or	a5,a5,a6
    948e:	54d2                	lw	s1,52(sp)
    9490:	5942                	lw	s2,48(sp)
    9492:	59b2                	lw	s3,44(sp)
    9494:	5a22                	lw	s4,40(sp)
    9496:	5a92                	lw	s5,36(sp)
    9498:	5b02                	lw	s6,32(sp)
    949a:	4bf2                	lw	s7,28(sp)
    949c:	853a                	mv	a0,a4
    949e:	85be                	mv	a1,a5
    94a0:	6121                	addi	sp,sp,64
    94a2:	8082                	ret
    94a4:	4801                	li	a6,0
    94a6:	7ff00613          	li	a2,2047
    94aa:	000807b7          	lui	a5,0x80
    94ae:	4701                	li	a4,0
    94b0:	b7f1                	j	947c <__divdf3+0xce>
    94b2:	00c96733          	or	a4,s2,a2
    94b6:	c74d                	beqz	a4,9560 <__divdf3+0x1b2>
    94b8:	30090863          	beqz	s2,97c8 <__divdf3+0x41a>
    94bc:	854a                	mv	a0,s2
    94be:	c432                	sw	a2,8(sp)
    94c0:	a31fb0ef          	jal	ra,4ef0 <__clzsi2>
    94c4:	4622                	lw	a2,8(sp)
    94c6:	ff550713          	addi	a4,a0,-11
    94ca:	47f5                	li	a5,29
    94cc:	ff850693          	addi	a3,a0,-8
    94d0:	8f99                	sub	a5,a5,a4
    94d2:	00d91933          	sll	s2,s2,a3
    94d6:	00f657b3          	srl	a5,a2,a5
    94da:	0127e733          	or	a4,a5,s2
    94de:	00d618b3          	sll	a7,a2,a3
    94e2:	9526                	add	a0,a0,s1
    94e4:	3f350493          	addi	s1,a0,1011
    94e8:	4581                	li	a1,0
    94ea:	bfa1                	j	9442 <__divdf3+0x94>
    94ec:	01246a33          	or	s4,s0,s2
    94f0:	060a0363          	beqz	s4,9556 <__divdf3+0x1a8>
    94f4:	c636                	sw	a3,12(sp)
    94f6:	c432                	sw	a2,8(sp)
    94f8:	2a040663          	beqz	s0,97a4 <__divdf3+0x3f6>
    94fc:	8522                	mv	a0,s0
    94fe:	9f3fb0ef          	jal	ra,4ef0 <__clzsi2>
    9502:	4622                	lw	a2,8(sp)
    9504:	46b2                	lw	a3,12(sp)
    9506:	84aa                	mv	s1,a0
    9508:	ff550713          	addi	a4,a0,-11
    950c:	4a75                	li	s4,29
    950e:	ff848b13          	addi	s6,s1,-8
    9512:	40ea0a33          	sub	s4,s4,a4
    9516:	01641433          	sll	s0,s0,s6
    951a:	01495a33          	srl	s4,s2,s4
    951e:	008a6a33          	or	s4,s4,s0
    9522:	01691b33          	sll	s6,s2,s6
    9526:	c0d00513          	li	a0,-1011
    952a:	409504b3          	sub	s1,a0,s1
    952e:	4401                	li	s0,0
    9530:	4b81                	li	s7,0
    9532:	b5f9                	j	9400 <__divdf3+0x52>
    9534:	01246a33          	or	s4,s0,s2
    9538:	000a1863          	bnez	s4,9548 <__divdf3+0x19a>
    953c:	4421                	li	s0,8
    953e:	4b01                	li	s6,0
    9540:	7ff00493          	li	s1,2047
    9544:	4b89                	li	s7,2
    9546:	bd6d                	j	9400 <__divdf3+0x52>
    9548:	8a22                	mv	s4,s0
    954a:	8b4a                	mv	s6,s2
    954c:	4431                	li	s0,12
    954e:	7ff00493          	li	s1,2047
    9552:	4b8d                	li	s7,3
    9554:	b575                	j	9400 <__divdf3+0x52>
    9556:	4411                	li	s0,4
    9558:	4b01                	li	s6,0
    955a:	4481                	li	s1,0
    955c:	4b85                	li	s7,1
    955e:	b54d                	j	9400 <__divdf3+0x52>
    9560:	00146413          	ori	s0,s0,1
    9564:	4881                	li	a7,0
    9566:	4585                	li	a1,1
    9568:	bde9                	j	9442 <__divdf3+0x94>
    956a:	00346413          	ori	s0,s0,3
    956e:	874a                	mv	a4,s2
    9570:	458d                	li	a1,3
    9572:	bdc1                	j	9442 <__divdf3+0x94>
    9574:	2e050a63          	beqz	a0,9868 <__divdf3+0x4ba>
    9578:	4785                	li	a5,1
    957a:	8f89                	sub	a5,a5,a0
    957c:	03800693          	li	a3,56
    9580:	32f6dd63          	bge	a3,a5,98ba <__divdf3+0x50c>
    9584:	4601                	li	a2,0
    9586:	4781                	li	a5,0
    9588:	4701                	li	a4,0
    958a:	bdcd                	j	947c <__divdf3+0xce>
    958c:	86ce                	mv	a3,s3
    958e:	4789                	li	a5,2
    9590:	3af58d63          	beq	a1,a5,994a <__divdf3+0x59c>
    9594:	478d                	li	a5,3
    9596:	f0f587e3          	beq	a1,a5,94a4 <__divdf3+0xf6>
    959a:	4785                	li	a5,1
    959c:	8836                	mv	a6,a3
    959e:	fef583e3          	beq	a1,a5,9584 <__divdf3+0x1d6>
    95a2:	3ff48513          	addi	a0,s1,1023
    95a6:	fca057e3          	blez	a0,9574 <__divdf3+0x1c6>
    95aa:	0078f793          	andi	a5,a7,7
    95ae:	28079663          	bnez	a5,983a <__divdf3+0x48c>
    95b2:	0038d693          	srli	a3,a7,0x3
    95b6:	00771793          	slli	a5,a4,0x7
    95ba:	0007d863          	bgez	a5,95ca <__divdf3+0x21c>
    95be:	ff0007b7          	lui	a5,0xff000
    95c2:	17fd                	addi	a5,a5,-1
    95c4:	8f7d                	and	a4,a4,a5
    95c6:	40048513          	addi	a0,s1,1024
    95ca:	7fe00793          	li	a5,2046
    95ce:	eaa7c3e3          	blt	a5,a0,9474 <__divdf3+0xc6>
    95d2:	01d71613          	slli	a2,a4,0x1d
    95d6:	00971793          	slli	a5,a4,0x9
    95da:	83b1                	srli	a5,a5,0xc
    95dc:	00d66733          	or	a4,a2,a3
    95e0:	7ff57613          	andi	a2,a0,2047
    95e4:	bd61                	j	947c <__divdf3+0xce>
    95e6:	86d6                	mv	a3,s5
    95e8:	8752                	mv	a4,s4
    95ea:	88da                	mv	a7,s6
    95ec:	85de                	mv	a1,s7
    95ee:	b745                	j	958e <__divdf3+0x1e0>
    95f0:	23476163          	bltu	a4,s4,9812 <__divdf3+0x464>
    95f4:	20ea0d63          	beq	s4,a4,980e <__divdf3+0x460>
    95f8:	86da                	mv	a3,s6
    95fa:	14fd                	addi	s1,s1,-1
    95fc:	8452                	mv	s0,s4
    95fe:	4b01                	li	s6,0
    9600:	00871793          	slli	a5,a4,0x8
    9604:	0188d313          	srli	t1,a7,0x18
    9608:	00f36333          	or	t1,t1,a5
    960c:	01035e93          	srli	t4,t1,0x10
    9610:	03d457b3          	divu	a5,s0,t4
    9614:	01031f13          	slli	t5,t1,0x10
    9618:	010f5f13          	srli	t5,t5,0x10
    961c:	0106d593          	srli	a1,a3,0x10
    9620:	00889e13          	slli	t3,a7,0x8
    9624:	03d47433          	remu	s0,s0,t4
    9628:	02ff0733          	mul	a4,t5,a5
    962c:	0442                	slli	s0,s0,0x10
    962e:	8dc1                	or	a1,a1,s0
    9630:	00e5fb63          	bgeu	a1,a4,9646 <__divdf3+0x298>
    9634:	959a                	add	a1,a1,t1
    9636:	fff78613          	addi	a2,a5,-1 # feffffff <_eusrstack+0xdefeffff>
    963a:	2665ee63          	bltu	a1,t1,98b6 <__divdf3+0x508>
    963e:	26e5fc63          	bgeu	a1,a4,98b6 <__divdf3+0x508>
    9642:	17f9                	addi	a5,a5,-2
    9644:	959a                	add	a1,a1,t1
    9646:	8d99                	sub	a1,a1,a4
    9648:	03d5d733          	divu	a4,a1,t4
    964c:	06c2                	slli	a3,a3,0x10
    964e:	82c1                	srli	a3,a3,0x10
    9650:	03d5f5b3          	remu	a1,a1,t4
    9654:	02ef0633          	mul	a2,t5,a4
    9658:	05c2                	slli	a1,a1,0x10
    965a:	8dd5                	or	a1,a1,a3
    965c:	00c5fb63          	bgeu	a1,a2,9672 <__divdf3+0x2c4>
    9660:	959a                	add	a1,a1,t1
    9662:	fff70693          	addi	a3,a4,-1 # 7fffff <__rt_init_end+0x7f374f>
    9666:	2465e663          	bltu	a1,t1,98b2 <__divdf3+0x504>
    966a:	24c5f463          	bgeu	a1,a2,98b2 <__divdf3+0x504>
    966e:	1779                	addi	a4,a4,-2
    9670:	959a                	add	a1,a1,t1
    9672:	07c2                	slli	a5,a5,0x10
    9674:	6441                	lui	s0,0x10
    9676:	8f5d                	or	a4,a4,a5
    9678:	fff40793          	addi	a5,s0,-1 # ffff <__rt_init_end+0x374f>
    967c:	00f77533          	and	a0,a4,a5
    9680:	01075893          	srli	a7,a4,0x10
    9684:	010e5f93          	srli	t6,t3,0x10
    9688:	00fe77b3          	and	a5,t3,a5
    968c:	02f502b3          	mul	t0,a0,a5
    9690:	40c586b3          	sub	a3,a1,a2
    9694:	02f883b3          	mul	t2,a7,a5
    9698:	0102d593          	srli	a1,t0,0x10
    969c:	02af8633          	mul	a2,t6,a0
    96a0:	961e                	add	a2,a2,t2
    96a2:	962e                	add	a2,a2,a1
    96a4:	03f88533          	mul	a0,a7,t6
    96a8:	00767363          	bgeu	a2,t2,96ae <__divdf3+0x300>
    96ac:	9522                	add	a0,a0,s0
    96ae:	68c1                	lui	a7,0x10
    96b0:	18fd                	addi	a7,a7,-1
    96b2:	01065593          	srli	a1,a2,0x10
    96b6:	01167633          	and	a2,a2,a7
    96ba:	0642                	slli	a2,a2,0x10
    96bc:	0112f8b3          	and	a7,t0,a7
    96c0:	95aa                	add	a1,a1,a0
    96c2:	9646                	add	a2,a2,a7
    96c4:	12b6e663          	bltu	a3,a1,97f0 <__divdf3+0x442>
    96c8:	12b68263          	beq	a3,a1,97ec <__divdf3+0x43e>
    96cc:	40cb0633          	sub	a2,s6,a2
    96d0:	8e8d                	sub	a3,a3,a1
    96d2:	00cb3b33          	sltu	s6,s6,a2
    96d6:	41668b33          	sub	s6,a3,s6
    96da:	3ff48513          	addi	a0,s1,1023
    96de:	17630c63          	beq	t1,s6,9856 <__divdf3+0x4a8>
    96e2:	03db58b3          	divu	a7,s6,t4
    96e6:	01065593          	srli	a1,a2,0x10
    96ea:	03db7b33          	remu	s6,s6,t4
    96ee:	031f06b3          	mul	a3,t5,a7
    96f2:	0b42                	slli	s6,s6,0x10
    96f4:	0165eb33          	or	s6,a1,s6
    96f8:	00db7b63          	bgeu	s6,a3,970e <__divdf3+0x360>
    96fc:	9b1a                	add	s6,s6,t1
    96fe:	fff88593          	addi	a1,a7,-1 # ffff <__rt_init_end+0x374f>
    9702:	206b6d63          	bltu	s6,t1,991c <__divdf3+0x56e>
    9706:	20db7b63          	bgeu	s6,a3,991c <__divdf3+0x56e>
    970a:	18f9                	addi	a7,a7,-2
    970c:	9b1a                	add	s6,s6,t1
    970e:	40db0b33          	sub	s6,s6,a3
    9712:	03db56b3          	divu	a3,s6,t4
    9716:	0642                	slli	a2,a2,0x10
    9718:	8241                	srli	a2,a2,0x10
    971a:	03db7b33          	remu	s6,s6,t4
    971e:	02df0f33          	mul	t5,t5,a3
    9722:	0b42                	slli	s6,s6,0x10
    9724:	01666633          	or	a2,a2,s6
    9728:	01e67b63          	bgeu	a2,t5,973e <__divdf3+0x390>
    972c:	961a                	add	a2,a2,t1
    972e:	fff68593          	addi	a1,a3,-1 # 7fffff <__rt_init_end+0x7f374f>
    9732:	1e666763          	bltu	a2,t1,9920 <__divdf3+0x572>
    9736:	1fe67563          	bgeu	a2,t5,9920 <__divdf3+0x572>
    973a:	16f9                	addi	a3,a3,-2
    973c:	961a                	add	a2,a2,t1
    973e:	08c2                	slli	a7,a7,0x10
    9740:	00d8e8b3          	or	a7,a7,a3
    9744:	01089593          	slli	a1,a7,0x10
    9748:	0108d293          	srli	t0,a7,0x10
    974c:	81c1                	srli	a1,a1,0x10
    974e:	02f58eb3          	mul	t4,a1,a5
    9752:	41e60633          	sub	a2,a2,t5
    9756:	02bf85b3          	mul	a1,t6,a1
    975a:	010ed693          	srli	a3,t4,0x10
    975e:	02f287b3          	mul	a5,t0,a5
    9762:	95be                	add	a1,a1,a5
    9764:	96ae                	add	a3,a3,a1
    9766:	025f8fb3          	mul	t6,t6,t0
    976a:	00f6f463          	bgeu	a3,a5,9772 <__divdf3+0x3c4>
    976e:	67c1                	lui	a5,0x10
    9770:	9fbe                	add	t6,t6,a5
    9772:	65c1                	lui	a1,0x10
    9774:	15fd                	addi	a1,a1,-1
    9776:	0106d793          	srli	a5,a3,0x10
    977a:	8eed                	and	a3,a3,a1
    977c:	06c2                	slli	a3,a3,0x10
    977e:	00befeb3          	and	t4,t4,a1
    9782:	9fbe                	add	t6,t6,a5
    9784:	96f6                	add	a3,a3,t4
    9786:	09f67f63          	bgeu	a2,t6,9824 <__divdf3+0x476>
    978a:	961a                	add	a2,a2,t1
    978c:	fff88793          	addi	a5,a7,-1
    9790:	1a666963          	bltu	a2,t1,9942 <__divdf3+0x594>
    9794:	19f66863          	bltu	a2,t6,9924 <__divdf3+0x576>
    9798:	1bf60f63          	beq	a2,t6,9956 <__divdf3+0x5a8>
    979c:	88be                	mv	a7,a5
    979e:	0018e893          	ori	a7,a7,1
    97a2:	b511                	j	95a6 <__divdf3+0x1f8>
    97a4:	854a                	mv	a0,s2
    97a6:	f4afb0ef          	jal	ra,4ef0 <__clzsi2>
    97aa:	01550713          	addi	a4,a0,21
    97ae:	45f1                	li	a1,28
    97b0:	02050493          	addi	s1,a0,32
    97b4:	4622                	lw	a2,8(sp)
    97b6:	46b2                	lw	a3,12(sp)
    97b8:	d4e5dae3          	bge	a1,a4,950c <__divdf3+0x15e>
    97bc:	ff850413          	addi	s0,a0,-8
    97c0:	00891a33          	sll	s4,s2,s0
    97c4:	4b01                	li	s6,0
    97c6:	b385                	j	9526 <__divdf3+0x178>
    97c8:	8532                	mv	a0,a2
    97ca:	c432                	sw	a2,8(sp)
    97cc:	f24fb0ef          	jal	ra,4ef0 <__clzsi2>
    97d0:	01550713          	addi	a4,a0,21
    97d4:	46f1                	li	a3,28
    97d6:	87aa                	mv	a5,a0
    97d8:	4622                	lw	a2,8(sp)
    97da:	02050513          	addi	a0,a0,32
    97de:	cee6d6e3          	bge	a3,a4,94ca <__divdf3+0x11c>
    97e2:	17e1                	addi	a5,a5,-8
    97e4:	00f61733          	sll	a4,a2,a5
    97e8:	4881                	li	a7,0
    97ea:	b9e5                	j	94e2 <__divdf3+0x134>
    97ec:	eecb70e3          	bgeu	s6,a2,96cc <__divdf3+0x31e>
    97f0:	9b72                	add	s6,s6,t3
    97f2:	01cb3533          	sltu	a0,s6,t3
    97f6:	951a                	add	a0,a0,t1
    97f8:	96aa                	add	a3,a3,a0
    97fa:	fff70513          	addi	a0,a4,-1
    97fe:	02d37863          	bgeu	t1,a3,982e <__divdf3+0x480>
    9802:	10b6e663          	bltu	a3,a1,990e <__divdf3+0x560>
    9806:	10d58263          	beq	a1,a3,990a <__divdf3+0x55c>
    980a:	872a                	mv	a4,a0
    980c:	b5c1                	j	96cc <__divdf3+0x31e>
    980e:	df1b65e3          	bltu	s6,a7,95f8 <__divdf3+0x24a>
    9812:	001b5593          	srli	a1,s6,0x1
    9816:	01fa1693          	slli	a3,s4,0x1f
    981a:	001a5413          	srli	s0,s4,0x1
    981e:	8ecd                	or	a3,a3,a1
    9820:	0b7e                	slli	s6,s6,0x1f
    9822:	bbf9                	j	9600 <__divdf3+0x252>
    9824:	f7f61de3          	bne	a2,t6,979e <__divdf3+0x3f0>
    9828:	d6068fe3          	beqz	a3,95a6 <__divdf3+0x1f8>
    982c:	bfb9                	j	978a <__divdf3+0x3dc>
    982e:	fcd31ee3          	bne	t1,a3,980a <__divdf3+0x45c>
    9832:	fdcb78e3          	bgeu	s6,t3,9802 <__divdf3+0x454>
    9836:	872a                	mv	a4,a0
    9838:	bd51                	j	96cc <__divdf3+0x31e>
    983a:	00f8f793          	andi	a5,a7,15
    983e:	4691                	li	a3,4
    9840:	d6d789e3          	beq	a5,a3,95b2 <__divdf3+0x204>
    9844:	ffc8b793          	sltiu	a5,a7,-4
    9848:	00488693          	addi	a3,a7,4
    984c:	0017c793          	xori	a5,a5,1
    9850:	828d                	srli	a3,a3,0x3
    9852:	973e                	add	a4,a4,a5
    9854:	b38d                	j	95b6 <__divdf3+0x208>
    9856:	4681                	li	a3,0
    9858:	4785                	li	a5,1
    985a:	fea04ce3          	bgtz	a0,9852 <__divdf3+0x4a4>
    985e:	58fd                	li	a7,-1
    9860:	d0051ce3          	bnez	a0,9578 <__divdf3+0x1ca>
    9864:	c0100493          	li	s1,-1023
    9868:	4785                	li	a5,1
    986a:	41e48513          	addi	a0,s1,1054
    986e:	00a716b3          	sll	a3,a4,a0
    9872:	00f8d633          	srl	a2,a7,a5
    9876:	00a89533          	sll	a0,a7,a0
    987a:	8ed1                	or	a3,a3,a2
    987c:	00a03533          	snez	a0,a0
    9880:	8ec9                	or	a3,a3,a0
    9882:	0076f613          	andi	a2,a3,7
    9886:	00f75733          	srl	a4,a4,a5
    988a:	ce01                	beqz	a2,98a2 <__divdf3+0x4f4>
    988c:	00f6f793          	andi	a5,a3,15
    9890:	4611                	li	a2,4
    9892:	00c78863          	beq	a5,a2,98a2 <__divdf3+0x4f4>
    9896:	00468793          	addi	a5,a3,4
    989a:	00d7b6b3          	sltu	a3,a5,a3
    989e:	9736                	add	a4,a4,a3
    98a0:	86be                	mv	a3,a5
    98a2:	00871793          	slli	a5,a4,0x8
    98a6:	0407d863          	bgez	a5,98f6 <__divdf3+0x548>
    98aa:	4605                	li	a2,1
    98ac:	4781                	li	a5,0
    98ae:	4701                	li	a4,0
    98b0:	b6f1                	j	947c <__divdf3+0xce>
    98b2:	8736                	mv	a4,a3
    98b4:	bb7d                	j	9672 <__divdf3+0x2c4>
    98b6:	87b2                	mv	a5,a2
    98b8:	b379                	j	9646 <__divdf3+0x298>
    98ba:	46fd                	li	a3,31
    98bc:	faf6d7e3          	bge	a3,a5,986a <__divdf3+0x4bc>
    98c0:	5605                	li	a2,-31
    98c2:	8e09                	sub	a2,a2,a0
    98c4:	02000693          	li	a3,32
    98c8:	00c75633          	srl	a2,a4,a2
    98cc:	00d78863          	beq	a5,a3,98dc <__divdf3+0x52e>
    98d0:	43e48793          	addi	a5,s1,1086
    98d4:	00f717b3          	sll	a5,a4,a5
    98d8:	00f8e8b3          	or	a7,a7,a5
    98dc:	011036b3          	snez	a3,a7
    98e0:	8ed1                	or	a3,a3,a2
    98e2:	0076f613          	andi	a2,a3,7
    98e6:	4781                	li	a5,0
    98e8:	ce01                	beqz	a2,9900 <__divdf3+0x552>
    98ea:	00f6f793          	andi	a5,a3,15
    98ee:	4611                	li	a2,4
    98f0:	4701                	li	a4,0
    98f2:	fac792e3          	bne	a5,a2,9896 <__divdf3+0x4e8>
    98f6:	00971793          	slli	a5,a4,0x9
    98fa:	01d71613          	slli	a2,a4,0x1d
    98fe:	83b1                	srli	a5,a5,0xc
    9900:	0036d713          	srli	a4,a3,0x3
    9904:	8f51                	or	a4,a4,a2
    9906:	4601                	li	a2,0
    9908:	be95                	j	947c <__divdf3+0xce>
    990a:	f0cb70e3          	bgeu	s6,a2,980a <__divdf3+0x45c>
    990e:	9b72                	add	s6,s6,t3
    9910:	01cb3533          	sltu	a0,s6,t3
    9914:	951a                	add	a0,a0,t1
    9916:	1779                	addi	a4,a4,-2
    9918:	96aa                	add	a3,a3,a0
    991a:	bb4d                	j	96cc <__divdf3+0x31e>
    991c:	88ae                	mv	a7,a1
    991e:	bbc5                	j	970e <__divdf3+0x360>
    9920:	86ae                	mv	a3,a1
    9922:	bd31                	j	973e <__divdf3+0x390>
    9924:	001e1793          	slli	a5,t3,0x1
    9928:	01c7be33          	sltu	t3,a5,t3
    992c:	9372                	add	t1,t1,t3
    992e:	961a                	add	a2,a2,t1
    9930:	18f9                	addi	a7,a7,-2
    9932:	8e3e                	mv	t3,a5
    9934:	e7f615e3          	bne	a2,t6,979e <__divdf3+0x3f0>
    9938:	c6de07e3          	beq	t3,a3,95a6 <__divdf3+0x1f8>
    993c:	0018e893          	ori	a7,a7,1
    9940:	b19d                	j	95a6 <__divdf3+0x1f8>
    9942:	88be                	mv	a7,a5
    9944:	fff60ae3          	beq	a2,t6,9938 <__divdf3+0x58a>
    9948:	bd99                	j	979e <__divdf3+0x3f0>
    994a:	8836                	mv	a6,a3
    994c:	7ff00613          	li	a2,2047
    9950:	4781                	li	a5,0
    9952:	4701                	li	a4,0
    9954:	b625                	j	947c <__divdf3+0xce>
    9956:	fcde67e3          	bltu	t3,a3,9924 <__divdf3+0x576>
    995a:	88be                	mv	a7,a5
    995c:	fede10e3          	bne	t3,a3,993c <__divdf3+0x58e>
    9960:	b199                	j	95a6 <__divdf3+0x1f8>

00009962 <__eqdf2>:
    9962:	0145d713          	srli	a4,a1,0x14
    9966:	001007b7          	lui	a5,0x100
    996a:	17fd                	addi	a5,a5,-1
    996c:	0146d813          	srli	a6,a3,0x14
    9970:	7ff77713          	andi	a4,a4,2047
    9974:	7ff00893          	li	a7,2047
    9978:	00b7fe33          	and	t3,a5,a1
    997c:	8eaa                	mv	t4,a0
    997e:	8ff5                	and	a5,a5,a3
    9980:	81fd                	srli	a1,a1,0x1f
    9982:	8f32                	mv	t5,a2
    9984:	7ff87813          	andi	a6,a6,2047
    9988:	82fd                	srli	a3,a3,0x1f
    998a:	01170b63          	beq	a4,a7,99a0 <__eqdf2+0x3e>
    998e:	4305                	li	t1,1
    9990:	01180663          	beq	a6,a7,999c <__eqdf2+0x3a>
    9994:	01071463          	bne	a4,a6,999c <__eqdf2+0x3a>
    9998:	00fe0d63          	beq	t3,a5,99b2 <__eqdf2+0x50>
    999c:	851a                	mv	a0,t1
    999e:	8082                	ret
    99a0:	00ae68b3          	or	a7,t3,a0
    99a4:	4305                	li	t1,1
    99a6:	fe089be3          	bnez	a7,999c <__eqdf2+0x3a>
    99aa:	fee819e3          	bne	a6,a4,999c <__eqdf2+0x3a>
    99ae:	8fd1                	or	a5,a5,a2
    99b0:	f7f5                	bnez	a5,999c <__eqdf2+0x3a>
    99b2:	4305                	li	t1,1
    99b4:	ffee94e3          	bne	t4,t5,999c <__eqdf2+0x3a>
    99b8:	4301                	li	t1,0
    99ba:	fed581e3          	beq	a1,a3,999c <__eqdf2+0x3a>
    99be:	4305                	li	t1,1
    99c0:	ff71                	bnez	a4,999c <__eqdf2+0x3a>
    99c2:	00ae6533          	or	a0,t3,a0
    99c6:	00a03333          	snez	t1,a0
    99ca:	bfc9                	j	999c <__eqdf2+0x3a>

000099cc <__gedf2>:
    99cc:	0145d713          	srli	a4,a1,0x14
    99d0:	001007b7          	lui	a5,0x100
    99d4:	17fd                	addi	a5,a5,-1
    99d6:	0146d813          	srli	a6,a3,0x14
    99da:	7ff77713          	andi	a4,a4,2047
    99de:	7ff00893          	li	a7,2047
    99e2:	00b7f333          	and	t1,a5,a1
    99e6:	8e2a                	mv	t3,a0
    99e8:	8ff5                	and	a5,a5,a3
    99ea:	81fd                	srli	a1,a1,0x1f
    99ec:	8eb2                	mv	t4,a2
    99ee:	7ff87813          	andi	a6,a6,2047
    99f2:	82fd                	srli	a3,a3,0x1f
    99f4:	03170863          	beq	a4,a7,9a24 <__gedf2+0x58>
    99f8:	03180063          	beq	a6,a7,9a18 <__gedf2+0x4c>
    99fc:	eb0d                	bnez	a4,9a2e <__gedf2+0x62>
    99fe:	00a368b3          	or	a7,t1,a0
    9a02:	00081463          	bnez	a6,9a0a <__gedf2+0x3e>
    9a06:	8e5d                	or	a2,a2,a5
    9a08:	ca29                	beqz	a2,9a5a <__gedf2+0x8e>
    9a0a:	04088563          	beqz	a7,9a54 <__gedf2+0x88>
    9a0e:	02d58863          	beq	a1,a3,9a3e <__gedf2+0x72>
    9a12:	4505                	li	a0,1
    9a14:	ed95                	bnez	a1,9a50 <__gedf2+0x84>
    9a16:	8082                	ret
    9a18:	00c7e8b3          	or	a7,a5,a2
    9a1c:	fe0880e3          	beqz	a7,99fc <__gedf2+0x30>
    9a20:	5579                	li	a0,-2
    9a22:	8082                	ret
    9a24:	00a36533          	or	a0,t1,a0
    9a28:	fd65                	bnez	a0,9a20 <__gedf2+0x54>
    9a2a:	02e80c63          	beq	a6,a4,9a62 <__gedf2+0x96>
    9a2e:	00081463          	bnez	a6,9a36 <__gedf2+0x6a>
    9a32:	8e5d                	or	a2,a2,a5
    9a34:	de79                	beqz	a2,9a12 <__gedf2+0x46>
    9a36:	fcd59ee3          	bne	a1,a3,9a12 <__gedf2+0x46>
    9a3a:	fce84ce3          	blt	a6,a4,9a12 <__gedf2+0x46>
    9a3e:	01074863          	blt	a4,a6,9a4e <__gedf2+0x82>
    9a42:	fc67e8e3          	bltu	a5,t1,9a12 <__gedf2+0x46>
    9a46:	02f30363          	beq	t1,a5,9a6c <__gedf2+0xa0>
    9a4a:	00f37f63          	bgeu	t1,a5,9a68 <__gedf2+0x9c>
    9a4e:	e581                	bnez	a1,9a56 <__gedf2+0x8a>
    9a50:	557d                	li	a0,-1
    9a52:	8082                	ret
    9a54:	def5                	beqz	a3,9a50 <__gedf2+0x84>
    9a56:	4505                	li	a0,1
    9a58:	8082                	ret
    9a5a:	4501                	li	a0,0
    9a5c:	fa089be3          	bnez	a7,9a12 <__gedf2+0x46>
    9a60:	8082                	ret
    9a62:	8e5d                	or	a2,a2,a5
    9a64:	da69                	beqz	a2,9a36 <__gedf2+0x6a>
    9a66:	bf6d                	j	9a20 <__gedf2+0x54>
    9a68:	4501                	li	a0,0
    9a6a:	8082                	ret
    9a6c:	fbcee3e3          	bltu	t4,t3,9a12 <__gedf2+0x46>
    9a70:	4501                	li	a0,0
    9a72:	fbde72e3          	bgeu	t3,t4,9a16 <__gedf2+0x4a>
    9a76:	f1e5                	bnez	a1,9a56 <__gedf2+0x8a>
    9a78:	bfe1                	j	9a50 <__gedf2+0x84>

00009a7a <__ledf2>:
    9a7a:	0145d713          	srli	a4,a1,0x14
    9a7e:	001007b7          	lui	a5,0x100
    9a82:	17fd                	addi	a5,a5,-1
    9a84:	0146d813          	srli	a6,a3,0x14
    9a88:	7ff77713          	andi	a4,a4,2047
    9a8c:	7ff00893          	li	a7,2047
    9a90:	00b7fe33          	and	t3,a5,a1
    9a94:	8eaa                	mv	t4,a0
    9a96:	8ff5                	and	a5,a5,a3
    9a98:	81fd                	srli	a1,a1,0x1f
    9a9a:	8f32                	mv	t5,a2
    9a9c:	7ff87813          	andi	a6,a6,2047
    9aa0:	82fd                	srli	a3,a3,0x1f
    9aa2:	03170e63          	beq	a4,a7,9ade <__ledf2+0x64>
    9aa6:	01180d63          	beq	a6,a7,9ac0 <__ledf2+0x46>
    9aaa:	e329                	bnez	a4,9aec <__ledf2+0x72>
    9aac:	00ae68b3          	or	a7,t3,a0
    9ab0:	00081f63          	bnez	a6,9ace <__ledf2+0x54>
    9ab4:	8e5d                	or	a2,a2,a5
    9ab6:	ee01                	bnez	a2,9ace <__ledf2+0x54>
    9ab8:	4301                	li	t1,0
    9aba:	04088c63          	beqz	a7,9b12 <__ledf2+0x98>
    9abe:	a821                	j	9ad6 <__ledf2+0x5c>
    9ac0:	00c7e8b3          	or	a7,a5,a2
    9ac4:	4309                	li	t1,2
    9ac6:	04089663          	bnez	a7,9b12 <__ledf2+0x98>
    9aca:	d36d                	beqz	a4,9aac <__ledf2+0x32>
    9acc:	a005                	j	9aec <__ledf2+0x72>
    9ace:	04088463          	beqz	a7,9b16 <__ledf2+0x9c>
    9ad2:	02d58563          	beq	a1,a3,9afc <__ledf2+0x82>
    9ad6:	4305                	li	t1,1
    9ad8:	cd8d                	beqz	a1,9b12 <__ledf2+0x98>
    9ada:	537d                	li	t1,-1
    9adc:	a81d                	j	9b12 <__ledf2+0x98>
    9ade:	00ae68b3          	or	a7,t3,a0
    9ae2:	4309                	li	t1,2
    9ae4:	02089763          	bnez	a7,9b12 <__ledf2+0x98>
    9ae8:	02e80a63          	beq	a6,a4,9b1c <__ledf2+0xa2>
    9aec:	00081463          	bnez	a6,9af4 <__ledf2+0x7a>
    9af0:	8e5d                	or	a2,a2,a5
    9af2:	d275                	beqz	a2,9ad6 <__ledf2+0x5c>
    9af4:	fed591e3          	bne	a1,a3,9ad6 <__ledf2+0x5c>
    9af8:	fce84fe3          	blt	a6,a4,9ad6 <__ledf2+0x5c>
    9afc:	01074963          	blt	a4,a6,9b0e <__ledf2+0x94>
    9b00:	fdc7ebe3          	bltu	a5,t3,9ad6 <__ledf2+0x5c>
    9b04:	00fe0f63          	beq	t3,a5,9b22 <__ledf2+0xa8>
    9b08:	4301                	li	t1,0
    9b0a:	00fe7463          	bgeu	t3,a5,9b12 <__ledf2+0x98>
    9b0e:	d5f1                	beqz	a1,9ada <__ledf2+0x60>
    9b10:	4305                	li	t1,1
    9b12:	851a                	mv	a0,t1
    9b14:	8082                	ret
    9b16:	feed                	bnez	a3,9b10 <__ledf2+0x96>
    9b18:	537d                	li	t1,-1
    9b1a:	bfe5                	j	9b12 <__ledf2+0x98>
    9b1c:	8e5d                	or	a2,a2,a5
    9b1e:	da79                	beqz	a2,9af4 <__ledf2+0x7a>
    9b20:	bfcd                	j	9b12 <__ledf2+0x98>
    9b22:	fbdf6ae3          	bltu	t5,t4,9ad6 <__ledf2+0x5c>
    9b26:	4301                	li	t1,0
    9b28:	ffeef5e3          	bgeu	t4,t5,9b12 <__ledf2+0x98>
    9b2c:	f1f5                	bnez	a1,9b10 <__ledf2+0x96>
    9b2e:	b775                	j	9ada <__ledf2+0x60>

00009b30 <__muldf3>:
    9b30:	7139                	addi	sp,sp,-64
    9b32:	d84a                	sw	s2,48(sp)
    9b34:	0145d913          	srli	s2,a1,0x14
    9b38:	d64e                	sw	s3,44(sp)
    9b3a:	d452                	sw	s4,40(sp)
    9b3c:	d256                	sw	s5,36(sp)
    9b3e:	00c59993          	slli	s3,a1,0xc
    9b42:	de06                	sw	ra,60(sp)
    9b44:	dc22                	sw	s0,56(sp)
    9b46:	da26                	sw	s1,52(sp)
    9b48:	d05a                	sw	s6,32(sp)
    9b4a:	ce5e                	sw	s7,28(sp)
    9b4c:	7ff97913          	andi	s2,s2,2047
    9b50:	8a2a                	mv	s4,a0
    9b52:	00c9d993          	srli	s3,s3,0xc
    9b56:	01f5da93          	srli	s5,a1,0x1f
    9b5a:	0e090d63          	beqz	s2,9c54 <__muldf3+0x124>
    9b5e:	7ff00793          	li	a5,2047
    9b62:	18f90663          	beq	s2,a5,9cee <__muldf3+0x1be>
    9b66:	01d55413          	srli	s0,a0,0x1d
    9b6a:	098e                	slli	s3,s3,0x3
    9b6c:	013469b3          	or	s3,s0,s3
    9b70:	00800437          	lui	s0,0x800
    9b74:	0089e433          	or	s0,s3,s0
    9b78:	00351493          	slli	s1,a0,0x3
    9b7c:	c0190913          	addi	s2,s2,-1023
    9b80:	4981                	li	s3,0
    9b82:	4b81                	li	s7,0
    9b84:	0146d713          	srli	a4,a3,0x14
    9b88:	00c69a13          	slli	s4,a3,0xc
    9b8c:	7ff77713          	andi	a4,a4,2047
    9b90:	85b2                	mv	a1,a2
    9b92:	00ca5a13          	srli	s4,s4,0xc
    9b96:	01f6db13          	srli	s6,a3,0x1f
    9b9a:	10070b63          	beqz	a4,9cb0 <__muldf3+0x180>
    9b9e:	7ff00793          	li	a5,2047
    9ba2:	04f70363          	beq	a4,a5,9be8 <__muldf3+0xb8>
    9ba6:	01d65793          	srli	a5,a2,0x1d
    9baa:	0a0e                	slli	s4,s4,0x3
    9bac:	0147ea33          	or	s4,a5,s4
    9bb0:	c0170713          	addi	a4,a4,-1023
    9bb4:	008007b7          	lui	a5,0x800
    9bb8:	00fa67b3          	or	a5,s4,a5
    9bbc:	00361593          	slli	a1,a2,0x3
    9bc0:	993a                	add	s2,s2,a4
    9bc2:	4881                	li	a7,0
    9bc4:	016ac733          	xor	a4,s5,s6
    9bc8:	46bd                	li	a3,15
    9bca:	853a                	mv	a0,a4
    9bcc:	00190813          	addi	a6,s2,1
    9bd0:	1736e863          	bltu	a3,s3,9d40 <__muldf3+0x210>
    9bd4:	00003617          	auipc	a2,0x3
    9bd8:	ae860613          	addi	a2,a2,-1304 # c6bc <_ctype_+0x144>
    9bdc:	098a                	slli	s3,s3,0x2
    9bde:	99b2                	add	s3,s3,a2
    9be0:	0009a683          	lw	a3,0(s3)
    9be4:	96b2                	add	a3,a3,a2
    9be6:	8682                	jr	a3
    9be8:	00ca67b3          	or	a5,s4,a2
    9bec:	7ff90913          	addi	s2,s2,2047
    9bf0:	12079963          	bnez	a5,9d22 <__muldf3+0x1f2>
    9bf4:	0029e993          	ori	s3,s3,2
    9bf8:	4581                	li	a1,0
    9bfa:	4889                	li	a7,2
    9bfc:	b7e1                	j	9bc4 <__muldf3+0x94>
    9bfe:	4701                	li	a4,0
    9c00:	7ff00793          	li	a5,2047
    9c04:	00080437          	lui	s0,0x80
    9c08:	4481                	li	s1,0
    9c0a:	0432                	slli	s0,s0,0xc
    9c0c:	07d2                	slli	a5,a5,0x14
    9c0e:	8031                	srli	s0,s0,0xc
    9c10:	077e                	slli	a4,a4,0x1f
    9c12:	8c5d                	or	s0,s0,a5
    9c14:	8c59                	or	s0,s0,a4
    9c16:	85a2                	mv	a1,s0
    9c18:	50f2                	lw	ra,60(sp)
    9c1a:	5462                	lw	s0,56(sp)
    9c1c:	8526                	mv	a0,s1
    9c1e:	5942                	lw	s2,48(sp)
    9c20:	54d2                	lw	s1,52(sp)
    9c22:	59b2                	lw	s3,44(sp)
    9c24:	5a22                	lw	s4,40(sp)
    9c26:	5a92                	lw	s5,36(sp)
    9c28:	5b02                	lw	s6,32(sp)
    9c2a:	4bf2                	lw	s7,28(sp)
    9c2c:	6121                	addi	sp,sp,64
    9c2e:	8082                	ret
    9c30:	855a                	mv	a0,s6
    9c32:	843e                	mv	s0,a5
    9c34:	84ae                	mv	s1,a1
    9c36:	8bc6                	mv	s7,a7
    9c38:	4789                	li	a5,2
    9c3a:	0efb8d63          	beq	s7,a5,9d34 <__muldf3+0x204>
    9c3e:	478d                	li	a5,3
    9c40:	fafb8fe3          	beq	s7,a5,9bfe <__muldf3+0xce>
    9c44:	4785                	li	a5,1
    9c46:	872a                	mv	a4,a0
    9c48:	38fb9e63          	bne	s7,a5,9fe4 <__muldf3+0x4b4>
    9c4c:	4781                	li	a5,0
    9c4e:	4401                	li	s0,0
    9c50:	4481                	li	s1,0
    9c52:	bf65                	j	9c0a <__muldf3+0xda>
    9c54:	00a9e433          	or	s0,s3,a0
    9c58:	c061                	beqz	s0,9d18 <__muldf3+0x1e8>
    9c5a:	c636                	sw	a3,12(sp)
    9c5c:	c432                	sw	a2,8(sp)
    9c5e:	2a098c63          	beqz	s3,9f16 <__muldf3+0x3e6>
    9c62:	854e                	mv	a0,s3
    9c64:	a8cfb0ef          	jal	ra,4ef0 <__clzsi2>
    9c68:	4622                	lw	a2,8(sp)
    9c6a:	46b2                	lw	a3,12(sp)
    9c6c:	87aa                	mv	a5,a0
    9c6e:	ff550713          	addi	a4,a0,-11
    9c72:	4475                	li	s0,29
    9c74:	ff878493          	addi	s1,a5,-8 # 7ffff8 <__rt_init_end+0x7f3748>
    9c78:	8c19                	sub	s0,s0,a4
    9c7a:	009999b3          	sll	s3,s3,s1
    9c7e:	008a5433          	srl	s0,s4,s0
    9c82:	01346433          	or	s0,s0,s3
    9c86:	009a14b3          	sll	s1,s4,s1
    9c8a:	0146d713          	srli	a4,a3,0x14
    9c8e:	c0d00913          	li	s2,-1011
    9c92:	00c69a13          	slli	s4,a3,0xc
    9c96:	7ff77713          	andi	a4,a4,2047
    9c9a:	40f90933          	sub	s2,s2,a5
    9c9e:	4981                	li	s3,0
    9ca0:	4b81                	li	s7,0
    9ca2:	85b2                	mv	a1,a2
    9ca4:	00ca5a13          	srli	s4,s4,0xc
    9ca8:	01f6db13          	srli	s6,a3,0x1f
    9cac:	ee0719e3          	bnez	a4,9b9e <__muldf3+0x6e>
    9cb0:	00ca67b3          	or	a5,s4,a2
    9cb4:	c7b1                	beqz	a5,9d00 <__muldf3+0x1d0>
    9cb6:	220a0f63          	beqz	s4,9ef4 <__muldf3+0x3c4>
    9cba:	8552                	mv	a0,s4
    9cbc:	c432                	sw	a2,8(sp)
    9cbe:	a32fb0ef          	jal	ra,4ef0 <__clzsi2>
    9cc2:	4622                	lw	a2,8(sp)
    9cc4:	872a                	mv	a4,a0
    9cc6:	ff550693          	addi	a3,a0,-11
    9cca:	47f5                	li	a5,29
    9ccc:	ff870593          	addi	a1,a4,-8
    9cd0:	8f95                	sub	a5,a5,a3
    9cd2:	00ba1a33          	sll	s4,s4,a1
    9cd6:	00f657b3          	srl	a5,a2,a5
    9cda:	0147e7b3          	or	a5,a5,s4
    9cde:	00b615b3          	sll	a1,a2,a1
    9ce2:	40e90933          	sub	s2,s2,a4
    9ce6:	c0d90913          	addi	s2,s2,-1011
    9cea:	4881                	li	a7,0
    9cec:	bde1                	j	9bc4 <__muldf3+0x94>
    9cee:	00a9e433          	or	s0,s3,a0
    9cf2:	ec01                	bnez	s0,9d0a <__muldf3+0x1da>
    9cf4:	49a1                	li	s3,8
    9cf6:	4481                	li	s1,0
    9cf8:	7ff00913          	li	s2,2047
    9cfc:	4b89                	li	s7,2
    9cfe:	b559                	j	9b84 <__muldf3+0x54>
    9d00:	0019e993          	ori	s3,s3,1
    9d04:	4581                	li	a1,0
    9d06:	4885                	li	a7,1
    9d08:	bd75                	j	9bc4 <__muldf3+0x94>
    9d0a:	844e                	mv	s0,s3
    9d0c:	84aa                	mv	s1,a0
    9d0e:	49b1                	li	s3,12
    9d10:	7ff00913          	li	s2,2047
    9d14:	4b8d                	li	s7,3
    9d16:	b5bd                	j	9b84 <__muldf3+0x54>
    9d18:	4991                	li	s3,4
    9d1a:	4481                	li	s1,0
    9d1c:	4901                	li	s2,0
    9d1e:	4b85                	li	s7,1
    9d20:	b595                	j	9b84 <__muldf3+0x54>
    9d22:	0039e993          	ori	s3,s3,3
    9d26:	87d2                	mv	a5,s4
    9d28:	488d                	li	a7,3
    9d2a:	bd69                	j	9bc4 <__muldf3+0x94>
    9d2c:	4789                	li	a5,2
    9d2e:	8556                	mv	a0,s5
    9d30:	f0fb97e3          	bne	s7,a5,9c3e <__muldf3+0x10e>
    9d34:	872a                	mv	a4,a0
    9d36:	7ff00793          	li	a5,2047
    9d3a:	4401                	li	s0,0
    9d3c:	4481                	li	s1,0
    9d3e:	b5f1                	j	9c0a <__muldf3+0xda>
    9d40:	6ec1                	lui	t4,0x10
    9d42:	fffe8613          	addi	a2,t4,-1 # ffff <__rt_init_end+0x374f>
    9d46:	0104d693          	srli	a3,s1,0x10
    9d4a:	0105de13          	srli	t3,a1,0x10
    9d4e:	8cf1                	and	s1,s1,a2
    9d50:	8df1                	and	a1,a1,a2
    9d52:	02958633          	mul	a2,a1,s1
    9d56:	02b68333          	mul	t1,a3,a1
    9d5a:	01065893          	srli	a7,a2,0x10
    9d5e:	029e0533          	mul	a0,t3,s1
    9d62:	951a                	add	a0,a0,t1
    9d64:	98aa                	add	a7,a7,a0
    9d66:	03c682b3          	mul	t0,a3,t3
    9d6a:	0068f363          	bgeu	a7,t1,9d70 <__muldf3+0x240>
    9d6e:	92f6                	add	t0,t0,t4
    9d70:	6fc1                	lui	t6,0x10
    9d72:	ffff8313          	addi	t1,t6,-1 # ffff <__rt_init_end+0x374f>
    9d76:	0067f533          	and	a0,a5,t1
    9d7a:	0107d393          	srli	t2,a5,0x10
    9d7e:	0068f7b3          	and	a5,a7,t1
    9d82:	07c2                	slli	a5,a5,0x10
    9d84:	00667333          	and	t1,a2,t1
    9d88:	933e                	add	t1,t1,a5
    9d8a:	02950633          	mul	a2,a0,s1
    9d8e:	0108d893          	srli	a7,a7,0x10
    9d92:	02a687b3          	mul	a5,a3,a0
    9d96:	01065f13          	srli	t5,a2,0x10
    9d9a:	029384b3          	mul	s1,t2,s1
    9d9e:	94be                	add	s1,s1,a5
    9da0:	94fa                	add	s1,s1,t5
    9da2:	02768eb3          	mul	t4,a3,t2
    9da6:	00f4f363          	bgeu	s1,a5,9dac <__muldf3+0x27c>
    9daa:	9efe                	add	t4,t4,t6
    9dac:	6a41                	lui	s4,0x10
    9dae:	fffa0793          	addi	a5,s4,-1 # ffff <__rt_init_end+0x374f>
    9db2:	01045f93          	srli	t6,s0,0x10
    9db6:	00f476b3          	and	a3,s0,a5
    9dba:	00f4f9b3          	and	s3,s1,a5
    9dbe:	8e7d                	and	a2,a2,a5
    9dc0:	80c1                	srli	s1,s1,0x10
    9dc2:	02d58433          	mul	s0,a1,a3
    9dc6:	09c2                	slli	s3,s3,0x10
    9dc8:	01d48f33          	add	t5,s1,t4
    9dcc:	99b2                	add	s3,s3,a2
    9dce:	98ce                	add	a7,a7,s3
    9dd0:	02de07b3          	mul	a5,t3,a3
    9dd4:	01045e93          	srli	t4,s0,0x10
    9dd8:	02bf85b3          	mul	a1,t6,a1
    9ddc:	97ae                	add	a5,a5,a1
    9dde:	9ebe                	add	t4,t4,a5
    9de0:	03fe0e33          	mul	t3,t3,t6
    9de4:	00bef363          	bgeu	t4,a1,9dea <__muldf3+0x2ba>
    9de8:	9e52                	add	t3,t3,s4
    9dea:	67c1                	lui	a5,0x10
    9dec:	fff78593          	addi	a1,a5,-1 # ffff <__rt_init_end+0x374f>
    9df0:	00bef633          	and	a2,t4,a1
    9df4:	8c6d                	and	s0,s0,a1
    9df6:	0642                	slli	a2,a2,0x10
    9df8:	9622                	add	a2,a2,s0
    9dfa:	010ede93          	srli	t4,t4,0x10
    9dfe:	02d505b3          	mul	a1,a0,a3
    9e02:	9e76                	add	t3,t3,t4
    9e04:	02af8533          	mul	a0,t6,a0
    9e08:	0105d413          	srli	s0,a1,0x10
    9e0c:	02d386b3          	mul	a3,t2,a3
    9e10:	96aa                	add	a3,a3,a0
    9e12:	96a2                	add	a3,a3,s0
    9e14:	03f38fb3          	mul	t6,t2,t6
    9e18:	00a6f363          	bgeu	a3,a0,9e1e <__muldf3+0x2ee>
    9e1c:	9fbe                	add	t6,t6,a5
    9e1e:	6541                	lui	a0,0x10
    9e20:	157d                	addi	a0,a0,-1
    9e22:	00a6f7b3          	and	a5,a3,a0
    9e26:	07c2                	slli	a5,a5,0x10
    9e28:	8d6d                	and	a0,a0,a1
    9e2a:	97aa                	add	a5,a5,a0
    9e2c:	005885b3          	add	a1,a7,t0
    9e30:	0135b9b3          	sltu	s3,a1,s3
    9e34:	97fa                	add	a5,a5,t5
    9e36:	95b2                	add	a1,a1,a2
    9e38:	01378433          	add	s0,a5,s3
    9e3c:	00c5b633          	sltu	a2,a1,a2
    9e40:	01c40eb3          	add	t4,s0,t3
    9e44:	00ce8533          	add	a0,t4,a2
    9e48:	01343433          	sltu	s0,s0,s3
    9e4c:	01e7b7b3          	sltu	a5,a5,t5
    9e50:	8fc1                	or	a5,a5,s0
    9e52:	01cebe33          	sltu	t3,t4,t3
    9e56:	0106d413          	srli	s0,a3,0x10
    9e5a:	00c53633          	sltu	a2,a0,a2
    9e5e:	943e                	add	s0,s0,a5
    9e60:	00ce6633          	or	a2,t3,a2
    9e64:	00959493          	slli	s1,a1,0x9
    9e68:	9432                	add	s0,s0,a2
    9e6a:	947e                	add	s0,s0,t6
    9e6c:	0064e4b3          	or	s1,s1,t1
    9e70:	0426                	slli	s0,s0,0x9
    9e72:	01755693          	srli	a3,a0,0x17
    9e76:	009034b3          	snez	s1,s1
    9e7a:	81dd                	srli	a1,a1,0x17
    9e7c:	00951793          	slli	a5,a0,0x9
    9e80:	8ccd                	or	s1,s1,a1
    9e82:	8c55                	or	s0,s0,a3
    9e84:	8cdd                	or	s1,s1,a5
    9e86:	00741793          	slli	a5,s0,0x7
    9e8a:	0007db63          	bgez	a5,9ea0 <__muldf3+0x370>
    9e8e:	0014d793          	srli	a5,s1,0x1
    9e92:	8885                	andi	s1,s1,1
    9e94:	01f41693          	slli	a3,s0,0x1f
    9e98:	8cdd                	or	s1,s1,a5
    9e9a:	8cd5                	or	s1,s1,a3
    9e9c:	8005                	srli	s0,s0,0x1
    9e9e:	8942                	mv	s2,a6
    9ea0:	3ff90793          	addi	a5,s2,1023
    9ea4:	08f05963          	blez	a5,9f36 <__muldf3+0x406>
    9ea8:	0074f693          	andi	a3,s1,7
    9eac:	ce81                	beqz	a3,9ec4 <__muldf3+0x394>
    9eae:	00f4f693          	andi	a3,s1,15
    9eb2:	4611                	li	a2,4
    9eb4:	00c68863          	beq	a3,a2,9ec4 <__muldf3+0x394>
    9eb8:	00448693          	addi	a3,s1,4
    9ebc:	0096b4b3          	sltu	s1,a3,s1
    9ec0:	9426                	add	s0,s0,s1
    9ec2:	84b6                	mv	s1,a3
    9ec4:	00741693          	slli	a3,s0,0x7
    9ec8:	0006d863          	bgez	a3,9ed8 <__muldf3+0x3a8>
    9ecc:	ff0007b7          	lui	a5,0xff000
    9ed0:	17fd                	addi	a5,a5,-1
    9ed2:	8c7d                	and	s0,s0,a5
    9ed4:	40090793          	addi	a5,s2,1024
    9ed8:	7fe00693          	li	a3,2046
    9edc:	0ef6cf63          	blt	a3,a5,9fda <__muldf3+0x4aa>
    9ee0:	0034d693          	srli	a3,s1,0x3
    9ee4:	01d41493          	slli	s1,s0,0x1d
    9ee8:	0426                	slli	s0,s0,0x9
    9eea:	8cd5                	or	s1,s1,a3
    9eec:	8031                	srli	s0,s0,0xc
    9eee:	7ff7f793          	andi	a5,a5,2047
    9ef2:	bb21                	j	9c0a <__muldf3+0xda>
    9ef4:	8532                	mv	a0,a2
    9ef6:	c432                	sw	a2,8(sp)
    9ef8:	ff9fa0ef          	jal	ra,4ef0 <__clzsi2>
    9efc:	01550693          	addi	a3,a0,21 # 10015 <__rt_init_end+0x3765>
    9f00:	47f1                	li	a5,28
    9f02:	02050713          	addi	a4,a0,32
    9f06:	4622                	lw	a2,8(sp)
    9f08:	dcd7d1e3          	bge	a5,a3,9cca <__muldf3+0x19a>
    9f0c:	1561                	addi	a0,a0,-8
    9f0e:	00a617b3          	sll	a5,a2,a0
    9f12:	4581                	li	a1,0
    9f14:	b3f9                	j	9ce2 <__muldf3+0x1b2>
    9f16:	fdbfa0ef          	jal	ra,4ef0 <__clzsi2>
    9f1a:	01550713          	addi	a4,a0,21
    9f1e:	45f1                	li	a1,28
    9f20:	02050793          	addi	a5,a0,32
    9f24:	4622                	lw	a2,8(sp)
    9f26:	46b2                	lw	a3,12(sp)
    9f28:	d4e5d5e3          	bge	a1,a4,9c72 <__muldf3+0x142>
    9f2c:	1561                	addi	a0,a0,-8
    9f2e:	00aa1433          	sll	s0,s4,a0
    9f32:	4481                	li	s1,0
    9f34:	bb99                	j	9c8a <__muldf3+0x15a>
    9f36:	4685                	li	a3,1
    9f38:	8e9d                	sub	a3,a3,a5
    9f3a:	e7b1                	bnez	a5,9f86 <__muldf3+0x456>
    9f3c:	41e90913          	addi	s2,s2,1054
    9f40:	012497b3          	sll	a5,s1,s2
    9f44:	00d4d4b3          	srl	s1,s1,a3
    9f48:	01241933          	sll	s2,s0,s2
    9f4c:	00f037b3          	snez	a5,a5
    9f50:	009964b3          	or	s1,s2,s1
    9f54:	8cdd                	or	s1,s1,a5
    9f56:	0074f793          	andi	a5,s1,7
    9f5a:	00d456b3          	srl	a3,s0,a3
    9f5e:	cf81                	beqz	a5,9f76 <__muldf3+0x446>
    9f60:	00f4f793          	andi	a5,s1,15
    9f64:	4611                	li	a2,4
    9f66:	00c78863          	beq	a5,a2,9f76 <__muldf3+0x446>
    9f6a:	00448793          	addi	a5,s1,4
    9f6e:	0097b4b3          	sltu	s1,a5,s1
    9f72:	96a6                	add	a3,a3,s1
    9f74:	84be                	mv	s1,a5
    9f76:	00869793          	slli	a5,a3,0x8
    9f7a:	0407d863          	bgez	a5,9fca <__muldf3+0x49a>
    9f7e:	4785                	li	a5,1
    9f80:	4401                	li	s0,0
    9f82:	4481                	li	s1,0
    9f84:	b159                	j	9c0a <__muldf3+0xda>
    9f86:	03800613          	li	a2,56
    9f8a:	ccd641e3          	blt	a2,a3,9c4c <__muldf3+0x11c>
    9f8e:	467d                	li	a2,31
    9f90:	fad656e3          	bge	a2,a3,9f3c <__muldf3+0x40c>
    9f94:	5605                	li	a2,-31
    9f96:	40f607b3          	sub	a5,a2,a5
    9f9a:	02000593          	li	a1,32
    9f9e:	00f45633          	srl	a2,s0,a5
    9fa2:	00b68763          	beq	a3,a1,9fb0 <__muldf3+0x480>
    9fa6:	43e90913          	addi	s2,s2,1086
    9faa:	012417b3          	sll	a5,s0,s2
    9fae:	8cdd                	or	s1,s1,a5
    9fb0:	009034b3          	snez	s1,s1
    9fb4:	8cd1                	or	s1,s1,a2
    9fb6:	0074f693          	andi	a3,s1,7
    9fba:	4401                	li	s0,0
    9fbc:	ca99                	beqz	a3,9fd2 <__muldf3+0x4a2>
    9fbe:	00f4f793          	andi	a5,s1,15
    9fc2:	4611                	li	a2,4
    9fc4:	4681                	li	a3,0
    9fc6:	fac792e3          	bne	a5,a2,9f6a <__muldf3+0x43a>
    9fca:	00969413          	slli	s0,a3,0x9
    9fce:	8031                	srli	s0,s0,0xc
    9fd0:	06f6                	slli	a3,a3,0x1d
    9fd2:	808d                	srli	s1,s1,0x3
    9fd4:	8cd5                	or	s1,s1,a3
    9fd6:	4781                	li	a5,0
    9fd8:	b90d                	j	9c0a <__muldf3+0xda>
    9fda:	7ff00793          	li	a5,2047
    9fde:	4401                	li	s0,0
    9fe0:	4481                	li	s1,0
    9fe2:	b125                	j	9c0a <__muldf3+0xda>
    9fe4:	8942                	mv	s2,a6
    9fe6:	bd6d                	j	9ea0 <__muldf3+0x370>

00009fe8 <__subdf3>:
    9fe8:	00100737          	lui	a4,0x100
    9fec:	177d                	addi	a4,a4,-1
    9fee:	1101                	addi	sp,sp,-32
    9ff0:	00b77333          	and	t1,a4,a1
    9ff4:	0146d893          	srli	a7,a3,0x14
    9ff8:	8f75                	and	a4,a4,a3
    9ffa:	01d65e93          	srli	t4,a2,0x1d
    9ffe:	cc22                	sw	s0,24(sp)
    a000:	ca26                	sw	s1,20(sp)
    a002:	030e                	slli	t1,t1,0x3
    a004:	0145d493          	srli	s1,a1,0x14
    a008:	01d55793          	srli	a5,a0,0x1d
    a00c:	070e                	slli	a4,a4,0x3
    a00e:	ce06                	sw	ra,28(sp)
    a010:	c84a                	sw	s2,16(sp)
    a012:	c64e                	sw	s3,12(sp)
    a014:	7ff8f893          	andi	a7,a7,2047
    a018:	7ff00e13          	li	t3,2047
    a01c:	00eee733          	or	a4,t4,a4
    a020:	7ff4f493          	andi	s1,s1,2047
    a024:	01f5d413          	srli	s0,a1,0x1f
    a028:	0067e333          	or	t1,a5,t1
    a02c:	00351f13          	slli	t5,a0,0x3
    a030:	82fd                	srli	a3,a3,0x1f
    a032:	00361e93          	slli	t4,a2,0x3
    a036:	19c88063          	beq	a7,t3,a1b6 <__subdf3+0x1ce>
    a03a:	0016c693          	xori	a3,a3,1
    a03e:	411485b3          	sub	a1,s1,a7
    a042:	12d40563          	beq	s0,a3,a16c <__subdf3+0x184>
    a046:	18b05163          	blez	a1,a1c8 <__subdf3+0x1e0>
    a04a:	1a088b63          	beqz	a7,a200 <__subdf3+0x218>
    a04e:	008007b7          	lui	a5,0x800
    a052:	8f5d                	or	a4,a4,a5
    a054:	59c48163          	beq	s1,t3,a5d6 <__subdf3+0x5ee>
    a058:	03800793          	li	a5,56
    a05c:	34b7c463          	blt	a5,a1,a3a4 <__subdf3+0x3bc>
    a060:	47fd                	li	a5,31
    a062:	48b7c563          	blt	a5,a1,a4ec <__subdf3+0x504>
    a066:	02000793          	li	a5,32
    a06a:	8f8d                	sub	a5,a5,a1
    a06c:	00bed9b3          	srl	s3,t4,a1
    a070:	00f71833          	sll	a6,a4,a5
    a074:	00fe9eb3          	sll	t4,t4,a5
    a078:	01386833          	or	a6,a6,s3
    a07c:	00b75733          	srl	a4,a4,a1
    a080:	01d039b3          	snez	s3,t4
    a084:	01386833          	or	a6,a6,s3
    a088:	40e30333          	sub	t1,t1,a4
    a08c:	410f09b3          	sub	s3,t5,a6
    a090:	013f37b3          	sltu	a5,t5,s3
    a094:	40f30633          	sub	a2,t1,a5
    a098:	00861793          	slli	a5,a2,0x8
    a09c:	2407d363          	bgez	a5,a2e2 <__subdf3+0x2fa>
    a0a0:	00800937          	lui	s2,0x800
    a0a4:	197d                	addi	s2,s2,-1
    a0a6:	01267933          	and	s2,a2,s2
    a0aa:	2c090f63          	beqz	s2,a388 <__subdf3+0x3a0>
    a0ae:	854a                	mv	a0,s2
    a0b0:	e41fa0ef          	jal	ra,4ef0 <__clzsi2>
    a0b4:	ff850713          	addi	a4,a0,-8
    a0b8:	02000793          	li	a5,32
    a0bc:	8f99                	sub	a5,a5,a4
    a0be:	00f9d7b3          	srl	a5,s3,a5
    a0c2:	00e91633          	sll	a2,s2,a4
    a0c6:	8fd1                	or	a5,a5,a2
    a0c8:	00e999b3          	sll	s3,s3,a4
    a0cc:	2a974463          	blt	a4,s1,a374 <__subdf3+0x38c>
    a0d0:	8f05                	sub	a4,a4,s1
    a0d2:	00170613          	addi	a2,a4,1 # 100001 <__rt_init_end+0xf3751>
    a0d6:	46fd                	li	a3,31
    a0d8:	3ac6c563          	blt	a3,a2,a482 <__subdf3+0x49a>
    a0dc:	02000713          	li	a4,32
    a0e0:	8f11                	sub	a4,a4,a2
    a0e2:	00c9d6b3          	srl	a3,s3,a2
    a0e6:	00e99833          	sll	a6,s3,a4
    a0ea:	00e79733          	sll	a4,a5,a4
    a0ee:	8f55                	or	a4,a4,a3
    a0f0:	01003833          	snez	a6,a6
    a0f4:	010769b3          	or	s3,a4,a6
    a0f8:	00c7d633          	srl	a2,a5,a2
    a0fc:	4481                	li	s1,0
    a0fe:	0079f793          	andi	a5,s3,7
    a102:	cf81                	beqz	a5,a11a <__subdf3+0x132>
    a104:	00f9f693          	andi	a3,s3,15
    a108:	4791                	li	a5,4
    a10a:	00f68863          	beq	a3,a5,a11a <__subdf3+0x132>
    a10e:	00498693          	addi	a3,s3,4
    a112:	0136b833          	sltu	a6,a3,s3
    a116:	9642                	add	a2,a2,a6
    a118:	89b6                	mv	s3,a3
    a11a:	00861793          	slli	a5,a2,0x8
    a11e:	1c07d663          	bgez	a5,a2ea <__subdf3+0x302>
    a122:	00148713          	addi	a4,s1,1
    a126:	7ff00793          	li	a5,2047
    a12a:	8805                	andi	s0,s0,1
    a12c:	20f70663          	beq	a4,a5,a338 <__subdf3+0x350>
    a130:	ff8007b7          	lui	a5,0xff800
    a134:	17fd                	addi	a5,a5,-1
    a136:	8ff1                	and	a5,a5,a2
    a138:	01d79813          	slli	a6,a5,0x1d
    a13c:	0039d993          	srli	s3,s3,0x3
    a140:	07a6                	slli	a5,a5,0x9
    a142:	01386833          	or	a6,a6,s3
    a146:	83b1                	srli	a5,a5,0xc
    a148:	7ff77713          	andi	a4,a4,2047
    a14c:	00c79693          	slli	a3,a5,0xc
    a150:	0752                	slli	a4,a4,0x14
    a152:	82b1                	srli	a3,a3,0xc
    a154:	047e                	slli	s0,s0,0x1f
    a156:	8ed9                	or	a3,a3,a4
    a158:	8ec1                	or	a3,a3,s0
    a15a:	40f2                	lw	ra,28(sp)
    a15c:	4462                	lw	s0,24(sp)
    a15e:	44d2                	lw	s1,20(sp)
    a160:	4942                	lw	s2,16(sp)
    a162:	49b2                	lw	s3,12(sp)
    a164:	8542                	mv	a0,a6
    a166:	85b6                	mv	a1,a3
    a168:	6105                	addi	sp,sp,32
    a16a:	8082                	ret
    a16c:	0ab05663          	blez	a1,a218 <__subdf3+0x230>
    a170:	12088a63          	beqz	a7,a2a4 <__subdf3+0x2bc>
    a174:	008007b7          	lui	a5,0x800
    a178:	8f5d                	or	a4,a4,a5
    a17a:	2dc48763          	beq	s1,t3,a448 <__subdf3+0x460>
    a17e:	03800793          	li	a5,56
    a182:	18b7c763          	blt	a5,a1,a310 <__subdf3+0x328>
    a186:	47fd                	li	a5,31
    a188:	3cb7d263          	bge	a5,a1,a54c <__subdf3+0x564>
    a18c:	fe058813          	addi	a6,a1,-32 # ffe0 <__rt_init_end+0x3730>
    a190:	02000793          	li	a5,32
    a194:	010759b3          	srl	s3,a4,a6
    a198:	00f58a63          	beq	a1,a5,a1ac <__subdf3+0x1c4>
    a19c:	04000793          	li	a5,64
    a1a0:	40b785b3          	sub	a1,a5,a1
    a1a4:	00b71733          	sll	a4,a4,a1
    a1a8:	00eeeeb3          	or	t4,t4,a4
    a1ac:	01d03833          	snez	a6,t4
    a1b0:	01386833          	or	a6,a6,s3
    a1b4:	a295                	j	a318 <__subdf3+0x330>
    a1b6:	01d767b3          	or	a5,a4,t4
    a1ba:	80148593          	addi	a1,s1,-2047
    a1be:	e399                	bnez	a5,a1c4 <__subdf3+0x1dc>
    a1c0:	0016c693          	xori	a3,a3,1
    a1c4:	04d40a63          	beq	s0,a3,a218 <__subdf3+0x230>
    a1c8:	e1d1                	bnez	a1,a24c <__subdf3+0x264>
    a1ca:	00148793          	addi	a5,s1,1
    a1ce:	7fe7f793          	andi	a5,a5,2046
    a1d2:	1e079963          	bnez	a5,a3c4 <__subdf3+0x3dc>
    a1d6:	01e367b3          	or	a5,t1,t5
    a1da:	01d76833          	or	a6,a4,t4
    a1de:	16049263          	bnez	s1,a342 <__subdf3+0x35a>
    a1e2:	3c078263          	beqz	a5,a5a6 <__subdf3+0x5be>
    a1e6:	42081663          	bnez	a6,a612 <__subdf3+0x62a>
    a1ea:	00351813          	slli	a6,a0,0x3
    a1ee:	01d31693          	slli	a3,t1,0x1d
    a1f2:	00385813          	srli	a6,a6,0x3
    a1f6:	0106e833          	or	a6,a3,a6
    a1fa:	00335793          	srli	a5,t1,0x3
    a1fe:	a219                	j	a304 <__subdf3+0x31c>
    a200:	01d767b3          	or	a5,a4,t4
    a204:	1a078563          	beqz	a5,a3ae <__subdf3+0x3c6>
    a208:	fff58793          	addi	a5,a1,-1
    a20c:	3a078b63          	beqz	a5,a5c2 <__subdf3+0x5da>
    a210:	23c58c63          	beq	a1,t3,a448 <__subdf3+0x460>
    a214:	85be                	mv	a1,a5
    a216:	b589                	j	a058 <__subdf3+0x70>
    a218:	1c059963          	bnez	a1,a3ea <__subdf3+0x402>
    a21c:	00148693          	addi	a3,s1,1
    a220:	7fe6f793          	andi	a5,a3,2046
    a224:	efc1                	bnez	a5,a2bc <__subdf3+0x2d4>
    a226:	01e367b3          	or	a5,t1,t5
    a22a:	36049063          	bnez	s1,a58a <__subdf3+0x5a2>
    a22e:	44078d63          	beqz	a5,a688 <__subdf3+0x6a0>
    a232:	01d767b3          	or	a5,a4,t4
    a236:	46079463          	bnez	a5,a69e <__subdf3+0x6b6>
    a23a:	050e                	slli	a0,a0,0x3
    a23c:	01d31813          	slli	a6,t1,0x1d
    a240:	810d                	srli	a0,a0,0x3
    a242:	00a86833          	or	a6,a6,a0
    a246:	00335793          	srli	a5,t1,0x3
    a24a:	a86d                	j	a304 <__subdf3+0x31c>
    a24c:	409885b3          	sub	a1,a7,s1
    a250:	20049763          	bnez	s1,a45e <__subdf3+0x476>
    a254:	01e367b3          	or	a5,t1,t5
    a258:	30078d63          	beqz	a5,a572 <__subdf3+0x58a>
    a25c:	fff58793          	addi	a5,a1,-1
    a260:	40078963          	beqz	a5,a672 <__subdf3+0x68a>
    a264:	7ff00513          	li	a0,2047
    a268:	20a58363          	beq	a1,a0,a46e <__subdf3+0x486>
    a26c:	85be                	mv	a1,a5
    a26e:	03800793          	li	a5,56
    a272:	2ab7c263          	blt	a5,a1,a516 <__subdf3+0x52e>
    a276:	47fd                	li	a5,31
    a278:	3cb7c863          	blt	a5,a1,a648 <__subdf3+0x660>
    a27c:	02000793          	li	a5,32
    a280:	8f8d                	sub	a5,a5,a1
    a282:	00f31833          	sll	a6,t1,a5
    a286:	00bf5633          	srl	a2,t5,a1
    a28a:	00ff17b3          	sll	a5,t5,a5
    a28e:	00c86833          	or	a6,a6,a2
    a292:	00f039b3          	snez	s3,a5
    a296:	00b35333          	srl	t1,t1,a1
    a29a:	01386833          	or	a6,a6,s3
    a29e:	40670733          	sub	a4,a4,t1
    a2a2:	acb5                	j	a51e <__subdf3+0x536>
    a2a4:	01d767b3          	or	a5,a4,t4
    a2a8:	10078363          	beqz	a5,a3ae <__subdf3+0x3c6>
    a2ac:	fff58793          	addi	a5,a1,-1
    a2b0:	1e078f63          	beqz	a5,a4ae <__subdf3+0x4c6>
    a2b4:	2fc58063          	beq	a1,t3,a594 <__subdf3+0x5ac>
    a2b8:	85be                	mv	a1,a5
    a2ba:	b5d1                	j	a17e <__subdf3+0x196>
    a2bc:	7ff00793          	li	a5,2047
    a2c0:	06f68b63          	beq	a3,a5,a336 <__subdf3+0x34e>
    a2c4:	9efa                	add	t4,t4,t5
    a2c6:	01eeb633          	sltu	a2,t4,t5
    a2ca:	00e307b3          	add	a5,t1,a4
    a2ce:	97b2                	add	a5,a5,a2
    a2d0:	01f79813          	slli	a6,a5,0x1f
    a2d4:	001ede93          	srli	t4,t4,0x1
    a2d8:	01d869b3          	or	s3,a6,t4
    a2dc:	0017d613          	srli	a2,a5,0x1
    a2e0:	84b6                	mv	s1,a3
    a2e2:	0079f793          	andi	a5,s3,7
    a2e6:	e0079fe3          	bnez	a5,a104 <__subdf3+0x11c>
    a2ea:	01d61793          	slli	a5,a2,0x1d
    a2ee:	0039d813          	srli	a6,s3,0x3
    a2f2:	00f86833          	or	a6,a6,a5
    a2f6:	85a6                	mv	a1,s1
    a2f8:	00365793          	srli	a5,a2,0x3
    a2fc:	7ff00713          	li	a4,2047
    a300:	06e58063          	beq	a1,a4,a360 <__subdf3+0x378>
    a304:	07b2                	slli	a5,a5,0xc
    a306:	83b1                	srli	a5,a5,0xc
    a308:	7ff5f713          	andi	a4,a1,2047
    a30c:	8805                	andi	s0,s0,1
    a30e:	bd3d                	j	a14c <__subdf3+0x164>
    a310:	01d76733          	or	a4,a4,t4
    a314:	00e03833          	snez	a6,a4
    a318:	01e809b3          	add	s3,a6,t5
    a31c:	01e9b7b3          	sltu	a5,s3,t5
    a320:	00678633          	add	a2,a5,t1
    a324:	00861793          	slli	a5,a2,0x8
    a328:	fa07dde3          	bgez	a5,a2e2 <__subdf3+0x2fa>
    a32c:	0485                	addi	s1,s1,1
    a32e:	7ff00793          	li	a5,2047
    a332:	18f49c63          	bne	s1,a5,a4ca <__subdf3+0x4e2>
    a336:	8805                	andi	s0,s0,1
    a338:	7ff00713          	li	a4,2047
    a33c:	4781                	li	a5,0
    a33e:	4801                	li	a6,0
    a340:	b531                	j	a14c <__subdf3+0x164>
    a342:	10079163          	bnez	a5,a444 <__subdf3+0x45c>
    a346:	3c080163          	beqz	a6,a708 <__subdf3+0x720>
    a34a:	00361813          	slli	a6,a2,0x3
    a34e:	01d71793          	slli	a5,a4,0x1d
    a352:	00385813          	srli	a6,a6,0x3
    a356:	00f86833          	or	a6,a6,a5
    a35a:	8436                	mv	s0,a3
    a35c:	00375793          	srli	a5,a4,0x3
    a360:	00f867b3          	or	a5,a6,a5
    a364:	dbe9                	beqz	a5,a336 <__subdf3+0x34e>
    a366:	4401                	li	s0,0
    a368:	7ff00713          	li	a4,2047
    a36c:	000807b7          	lui	a5,0x80
    a370:	4801                	li	a6,0
    a372:	bbe9                	j	a14c <__subdf3+0x164>
    a374:	ff800637          	lui	a2,0xff800
    a378:	167d                	addi	a2,a2,-1
    a37a:	8e7d                	and	a2,a2,a5
    a37c:	0079f793          	andi	a5,s3,7
    a380:	8c99                	sub	s1,s1,a4
    a382:	d80791e3          	bnez	a5,a104 <__subdf3+0x11c>
    a386:	b795                	j	a2ea <__subdf3+0x302>
    a388:	854e                	mv	a0,s3
    a38a:	b67fa0ef          	jal	ra,4ef0 <__clzsi2>
    a38e:	01850713          	addi	a4,a0,24
    a392:	47fd                	li	a5,31
    a394:	d2e7d2e3          	bge	a5,a4,a0b8 <__subdf3+0xd0>
    a398:	ff850613          	addi	a2,a0,-8
    a39c:	00c997b3          	sll	a5,s3,a2
    a3a0:	4981                	li	s3,0
    a3a2:	b32d                	j	a0cc <__subdf3+0xe4>
    a3a4:	01d76833          	or	a6,a4,t4
    a3a8:	01003833          	snez	a6,a6
    a3ac:	b1c5                	j	a08c <__subdf3+0xa4>
    a3ae:	00351813          	slli	a6,a0,0x3
    a3b2:	01d31793          	slli	a5,t1,0x1d
    a3b6:	00385813          	srli	a6,a6,0x3
    a3ba:	00f86833          	or	a6,a6,a5
    a3be:	00335793          	srli	a5,t1,0x3
    a3c2:	bf2d                	j	a2fc <__subdf3+0x314>
    a3c4:	41df09b3          	sub	s3,t5,t4
    a3c8:	40e30933          	sub	s2,t1,a4
    a3cc:	013f3633          	sltu	a2,t5,s3
    a3d0:	40c90933          	sub	s2,s2,a2
    a3d4:	00891793          	slli	a5,s2,0x8
    a3d8:	2007ca63          	bltz	a5,a5ec <__subdf3+0x604>
    a3dc:	0129e833          	or	a6,s3,s2
    a3e0:	cc0815e3          	bnez	a6,a0aa <__subdf3+0xc2>
    a3e4:	4781                	li	a5,0
    a3e6:	4401                	li	s0,0
    a3e8:	bf31                	j	a304 <__subdf3+0x31c>
    a3ea:	409885b3          	sub	a1,a7,s1
    a3ee:	14048163          	beqz	s1,a530 <__subdf3+0x548>
    a3f2:	008006b7          	lui	a3,0x800
    a3f6:	7ff00793          	li	a5,2047
    a3fa:	00d36333          	or	t1,t1,a3
    a3fe:	20f88163          	beq	a7,a5,a600 <__subdf3+0x618>
    a402:	03800793          	li	a5,56
    a406:	22b7cc63          	blt	a5,a1,a63e <__subdf3+0x656>
    a40a:	47fd                	li	a5,31
    a40c:	2cb7c963          	blt	a5,a1,a6de <__subdf3+0x6f6>
    a410:	02000793          	li	a5,32
    a414:	8f8d                	sub	a5,a5,a1
    a416:	00f31833          	sll	a6,t1,a5
    a41a:	00bf56b3          	srl	a3,t5,a1
    a41e:	00ff17b3          	sll	a5,t5,a5
    a422:	00d86833          	or	a6,a6,a3
    a426:	00f039b3          	snez	s3,a5
    a42a:	00b35333          	srl	t1,t1,a1
    a42e:	01386833          	or	a6,a6,s3
    a432:	971a                	add	a4,a4,t1
    a434:	01d809b3          	add	s3,a6,t4
    a438:	01d9b7b3          	sltu	a5,s3,t4
    a43c:	00e78633          	add	a2,a5,a4
    a440:	84c6                	mv	s1,a7
    a442:	b5cd                	j	a324 <__subdf3+0x33c>
    a444:	f20811e3          	bnez	a6,a366 <__subdf3+0x37e>
    a448:	00351813          	slli	a6,a0,0x3
    a44c:	01d31793          	slli	a5,t1,0x1d
    a450:	00385813          	srli	a6,a6,0x3
    a454:	00f86833          	or	a6,a6,a5
    a458:	00335793          	srli	a5,t1,0x3
    a45c:	b711                	j	a360 <__subdf3+0x378>
    a45e:	00800537          	lui	a0,0x800
    a462:	7ff00793          	li	a5,2047
    a466:	00a36333          	or	t1,t1,a0
    a46a:	e0f892e3          	bne	a7,a5,a26e <__subdf3+0x286>
    a46e:	060e                	slli	a2,a2,0x3
    a470:	01d71813          	slli	a6,a4,0x1d
    a474:	820d                	srli	a2,a2,0x3
    a476:	00c86833          	or	a6,a6,a2
    a47a:	00375793          	srli	a5,a4,0x3
    a47e:	8436                	mv	s0,a3
    a480:	b5c5                	j	a360 <__subdf3+0x378>
    a482:	1705                	addi	a4,a4,-31
    a484:	02000693          	li	a3,32
    a488:	00e7d733          	srl	a4,a5,a4
    a48c:	00d60a63          	beq	a2,a3,a4a0 <__subdf3+0x4b8>
    a490:	04000693          	li	a3,64
    a494:	40c68633          	sub	a2,a3,a2
    a498:	00c79633          	sll	a2,a5,a2
    a49c:	00c9e9b3          	or	s3,s3,a2
    a4a0:	01303833          	snez	a6,s3
    a4a4:	00e869b3          	or	s3,a6,a4
    a4a8:	4601                	li	a2,0
    a4aa:	4481                	li	s1,0
    a4ac:	bd1d                	j	a2e2 <__subdf3+0x2fa>
    a4ae:	01df09b3          	add	s3,t5,t4
    a4b2:	00e307b3          	add	a5,t1,a4
    a4b6:	01e9bf33          	sltu	t5,s3,t5
    a4ba:	01e78633          	add	a2,a5,t5
    a4be:	00861793          	slli	a5,a2,0x8
    a4c2:	4485                	li	s1,1
    a4c4:	e007dfe3          	bgez	a5,a2e2 <__subdf3+0x2fa>
    a4c8:	4489                	li	s1,2
    a4ca:	ff8007b7          	lui	a5,0xff800
    a4ce:	17fd                	addi	a5,a5,-1
    a4d0:	8ff1                	and	a5,a5,a2
    a4d2:	0019d713          	srli	a4,s3,0x1
    a4d6:	0019f813          	andi	a6,s3,1
    a4da:	01076833          	or	a6,a4,a6
    a4de:	01f79993          	slli	s3,a5,0x1f
    a4e2:	0109e9b3          	or	s3,s3,a6
    a4e6:	0017d613          	srli	a2,a5,0x1
    a4ea:	b911                	j	a0fe <__subdf3+0x116>
    a4ec:	fe058813          	addi	a6,a1,-32
    a4f0:	02000793          	li	a5,32
    a4f4:	010759b3          	srl	s3,a4,a6
    a4f8:	00f58a63          	beq	a1,a5,a50c <__subdf3+0x524>
    a4fc:	04000793          	li	a5,64
    a500:	40b785b3          	sub	a1,a5,a1
    a504:	00b71733          	sll	a4,a4,a1
    a508:	00eeeeb3          	or	t4,t4,a4
    a50c:	01d03833          	snez	a6,t4
    a510:	01386833          	or	a6,a6,s3
    a514:	bea5                	j	a08c <__subdf3+0xa4>
    a516:	01e36333          	or	t1,t1,t5
    a51a:	00603833          	snez	a6,t1
    a51e:	410e89b3          	sub	s3,t4,a6
    a522:	013eb7b3          	sltu	a5,t4,s3
    a526:	40f70633          	sub	a2,a4,a5
    a52a:	84c6                	mv	s1,a7
    a52c:	8436                	mv	s0,a3
    a52e:	b6ad                	j	a098 <__subdf3+0xb0>
    a530:	01e367b3          	or	a5,t1,t5
    a534:	18078763          	beqz	a5,a6c2 <__subdf3+0x6da>
    a538:	fff58793          	addi	a5,a1,-1
    a53c:	1c078c63          	beqz	a5,a714 <__subdf3+0x72c>
    a540:	7ff00693          	li	a3,2047
    a544:	0ad58e63          	beq	a1,a3,a600 <__subdf3+0x618>
    a548:	85be                	mv	a1,a5
    a54a:	bd65                	j	a402 <__subdf3+0x41a>
    a54c:	02000793          	li	a5,32
    a550:	8f8d                	sub	a5,a5,a1
    a552:	00bed9b3          	srl	s3,t4,a1
    a556:	00f71833          	sll	a6,a4,a5
    a55a:	00fe9eb3          	sll	t4,t4,a5
    a55e:	01386833          	or	a6,a6,s3
    a562:	00b75733          	srl	a4,a4,a1
    a566:	01d039b3          	snez	s3,t4
    a56a:	01386833          	or	a6,a6,s3
    a56e:	933a                	add	t1,t1,a4
    a570:	b365                	j	a318 <__subdf3+0x330>
    a572:	00361813          	slli	a6,a2,0x3
    a576:	01d71793          	slli	a5,a4,0x1d
    a57a:	00385813          	srli	a6,a6,0x3
    a57e:	0107e833          	or	a6,a5,a6
    a582:	8436                	mv	s0,a3
    a584:	00375793          	srli	a5,a4,0x3
    a588:	bb95                	j	a2fc <__subdf3+0x314>
    a58a:	cbbd                	beqz	a5,a600 <__subdf3+0x618>
    a58c:	01d76733          	or	a4,a4,t4
    a590:	dc071be3          	bnez	a4,a366 <__subdf3+0x37e>
    a594:	050e                	slli	a0,a0,0x3
    a596:	01d31813          	slli	a6,t1,0x1d
    a59a:	810d                	srli	a0,a0,0x3
    a59c:	00a86833          	or	a6,a6,a0
    a5a0:	00335793          	srli	a5,t1,0x3
    a5a4:	bb75                	j	a360 <__subdf3+0x378>
    a5a6:	e2080fe3          	beqz	a6,a3e4 <__subdf3+0x3fc>
    a5aa:	00361813          	slli	a6,a2,0x3
    a5ae:	01d71793          	slli	a5,a4,0x1d
    a5b2:	00385813          	srli	a6,a6,0x3
    a5b6:	00f86833          	or	a6,a6,a5
    a5ba:	8436                	mv	s0,a3
    a5bc:	00375793          	srli	a5,a4,0x3
    a5c0:	b391                	j	a304 <__subdf3+0x31c>
    a5c2:	41df09b3          	sub	s3,t5,t4
    a5c6:	40e307b3          	sub	a5,t1,a4
    a5ca:	013f3f33          	sltu	t5,t5,s3
    a5ce:	41e78633          	sub	a2,a5,t5
    a5d2:	4485                	li	s1,1
    a5d4:	b4d1                	j	a098 <__subdf3+0xb0>
    a5d6:	00351813          	slli	a6,a0,0x3
    a5da:	01d31693          	slli	a3,t1,0x1d
    a5de:	00385813          	srli	a6,a6,0x3
    a5e2:	0106e833          	or	a6,a3,a6
    a5e6:	00335793          	srli	a5,t1,0x3
    a5ea:	bb9d                	j	a360 <__subdf3+0x378>
    a5ec:	41ee89b3          	sub	s3,t4,t5
    a5f0:	40670633          	sub	a2,a4,t1
    a5f4:	013eb933          	sltu	s2,t4,s3
    a5f8:	41260933          	sub	s2,a2,s2
    a5fc:	8436                	mv	s0,a3
    a5fe:	b475                	j	a0aa <__subdf3+0xc2>
    a600:	060e                	slli	a2,a2,0x3
    a602:	01d71813          	slli	a6,a4,0x1d
    a606:	820d                	srli	a2,a2,0x3
    a608:	00c86833          	or	a6,a6,a2
    a60c:	00375793          	srli	a5,a4,0x3
    a610:	bb81                	j	a360 <__subdf3+0x378>
    a612:	41df09b3          	sub	s3,t5,t4
    a616:	40e307b3          	sub	a5,t1,a4
    a61a:	013f3633          	sltu	a2,t5,s3
    a61e:	40c78633          	sub	a2,a5,a2
    a622:	00861793          	slli	a5,a2,0x8
    a626:	0a07d763          	bgez	a5,a6d4 <__subdf3+0x6ec>
    a62a:	41ee89b3          	sub	s3,t4,t5
    a62e:	406707b3          	sub	a5,a4,t1
    a632:	013ebeb3          	sltu	t4,t4,s3
    a636:	41d78633          	sub	a2,a5,t4
    a63a:	8436                	mv	s0,a3
    a63c:	b4c9                	j	a0fe <__subdf3+0x116>
    a63e:	01e36333          	or	t1,t1,t5
    a642:	00603833          	snez	a6,t1
    a646:	b3fd                	j	a434 <__subdf3+0x44c>
    a648:	fe058813          	addi	a6,a1,-32
    a64c:	02000793          	li	a5,32
    a650:	010359b3          	srl	s3,t1,a6
    a654:	00f58a63          	beq	a1,a5,a668 <__subdf3+0x680>
    a658:	04000793          	li	a5,64
    a65c:	40b785b3          	sub	a1,a5,a1
    a660:	00b31333          	sll	t1,t1,a1
    a664:	006f6f33          	or	t5,t5,t1
    a668:	01e03833          	snez	a6,t5
    a66c:	01386833          	or	a6,a6,s3
    a670:	b57d                	j	a51e <__subdf3+0x536>
    a672:	41ee89b3          	sub	s3,t4,t5
    a676:	406707b3          	sub	a5,a4,t1
    a67a:	013ebeb3          	sltu	t4,t4,s3
    a67e:	41d78633          	sub	a2,a5,t4
    a682:	8436                	mv	s0,a3
    a684:	4485                	li	s1,1
    a686:	bc09                	j	a098 <__subdf3+0xb0>
    a688:	00361813          	slli	a6,a2,0x3
    a68c:	01d71793          	slli	a5,a4,0x1d
    a690:	00385813          	srli	a6,a6,0x3
    a694:	00f86833          	or	a6,a6,a5
    a698:	00375793          	srli	a5,a4,0x3
    a69c:	b1a5                	j	a304 <__subdf3+0x31c>
    a69e:	01df09b3          	add	s3,t5,t4
    a6a2:	00e307b3          	add	a5,t1,a4
    a6a6:	01e9bf33          	sltu	t5,s3,t5
    a6aa:	01e78633          	add	a2,a5,t5
    a6ae:	00861793          	slli	a5,a2,0x8
    a6b2:	c207d8e3          	bgez	a5,a2e2 <__subdf3+0x2fa>
    a6b6:	ff8007b7          	lui	a5,0xff800
    a6ba:	17fd                	addi	a5,a5,-1
    a6bc:	8e7d                	and	a2,a2,a5
    a6be:	4485                	li	s1,1
    a6c0:	b10d                	j	a2e2 <__subdf3+0x2fa>
    a6c2:	060e                	slli	a2,a2,0x3
    a6c4:	01d71813          	slli	a6,a4,0x1d
    a6c8:	820d                	srli	a2,a2,0x3
    a6ca:	00c86833          	or	a6,a6,a2
    a6ce:	00375793          	srli	a5,a4,0x3
    a6d2:	b12d                	j	a2fc <__subdf3+0x314>
    a6d4:	00c9e833          	or	a6,s3,a2
    a6d8:	d00806e3          	beqz	a6,a3e4 <__subdf3+0x3fc>
    a6dc:	b119                	j	a2e2 <__subdf3+0x2fa>
    a6de:	fe058813          	addi	a6,a1,-32
    a6e2:	02000793          	li	a5,32
    a6e6:	010359b3          	srl	s3,t1,a6
    a6ea:	00f58a63          	beq	a1,a5,a6fe <__subdf3+0x716>
    a6ee:	04000793          	li	a5,64
    a6f2:	40b785b3          	sub	a1,a5,a1
    a6f6:	00b31333          	sll	t1,t1,a1
    a6fa:	006f6f33          	or	t5,t5,t1
    a6fe:	01e03833          	snez	a6,t5
    a702:	01386833          	or	a6,a6,s3
    a706:	b33d                	j	a434 <__subdf3+0x44c>
    a708:	4401                	li	s0,0
    a70a:	7ff00713          	li	a4,2047
    a70e:	000807b7          	lui	a5,0x80
    a712:	bc2d                	j	a14c <__subdf3+0x164>
    a714:	01df09b3          	add	s3,t5,t4
    a718:	00e307b3          	add	a5,t1,a4
    a71c:	01d9beb3          	sltu	t4,s3,t4
    a720:	01d78633          	add	a2,a5,t4
    a724:	bb69                	j	a4be <__subdf3+0x4d6>

0000a726 <__fixdfsi>:
    a726:	0145d793          	srli	a5,a1,0x14
    a72a:	001006b7          	lui	a3,0x100
    a72e:	fff68713          	addi	a4,a3,-1 # fffff <__rt_init_end+0xf374f>
    a732:	7ff7f793          	andi	a5,a5,2047
    a736:	3fe00613          	li	a2,1022
    a73a:	8f6d                	and	a4,a4,a1
    a73c:	81fd                	srli	a1,a1,0x1f
    a73e:	00f65c63          	bge	a2,a5,a756 <__fixdfsi+0x30>
    a742:	41d00613          	li	a2,1053
    a746:	00f65a63          	bge	a2,a5,a75a <__fixdfsi+0x34>
    a74a:	80000537          	lui	a0,0x80000
    a74e:	fff54513          	not	a0,a0
    a752:	952e                	add	a0,a0,a1
    a754:	8082                	ret
    a756:	4501                	li	a0,0
    a758:	8082                	ret
    a75a:	43300613          	li	a2,1075
    a75e:	8e1d                	sub	a2,a2,a5
    a760:	487d                	li	a6,31
    a762:	8f55                	or	a4,a4,a3
    a764:	00c85d63          	bge	a6,a2,a77e <__fixdfsi+0x58>
    a768:	41300693          	li	a3,1043
    a76c:	40f687b3          	sub	a5,a3,a5
    a770:	00f757b3          	srl	a5,a4,a5
    a774:	40f00533          	neg	a0,a5
    a778:	f1e5                	bnez	a1,a758 <__fixdfsi+0x32>
    a77a:	853e                	mv	a0,a5
    a77c:	8082                	ret
    a77e:	bed78793          	addi	a5,a5,-1043 # 7fbed <__rt_init_end+0x7333d>
    a782:	00f717b3          	sll	a5,a4,a5
    a786:	00c55533          	srl	a0,a0,a2
    a78a:	8fc9                	or	a5,a5,a0
    a78c:	b7e5                	j	a774 <__fixdfsi+0x4e>

0000a78e <__fixunsdfsi>:
    a78e:	0145d793          	srli	a5,a1,0x14
    a792:	001006b7          	lui	a3,0x100
    a796:	fff68713          	addi	a4,a3,-1 # fffff <__rt_init_end+0xf374f>
    a79a:	7ff7f793          	andi	a5,a5,2047
    a79e:	3fe00613          	li	a2,1022
    a7a2:	882a                	mv	a6,a0
    a7a4:	8f6d                	and	a4,a4,a1
    a7a6:	4501                	li	a0,0
    a7a8:	81fd                	srli	a1,a1,0x1f
    a7aa:	00f65463          	bge	a2,a5,a7b2 <__fixunsdfsi+0x24>
    a7ae:	c199                	beqz	a1,a7b4 <__fixunsdfsi+0x26>
    a7b0:	8082                	ret
    a7b2:	8082                	ret
    a7b4:	41e00613          	li	a2,1054
    a7b8:	557d                	li	a0,-1
    a7ba:	fef64be3          	blt	a2,a5,a7b0 <__fixunsdfsi+0x22>
    a7be:	43300513          	li	a0,1075
    a7c2:	8d1d                	sub	a0,a0,a5
    a7c4:	467d                	li	a2,31
    a7c6:	8f55                	or	a4,a4,a3
    a7c8:	00a64a63          	blt	a2,a0,a7dc <__fixunsdfsi+0x4e>
    a7cc:	bed78793          	addi	a5,a5,-1043
    a7d0:	00f71733          	sll	a4,a4,a5
    a7d4:	00a85533          	srl	a0,a6,a0
    a7d8:	8d59                	or	a0,a0,a4
    a7da:	8082                	ret
    a7dc:	41300513          	li	a0,1043
    a7e0:	40f507b3          	sub	a5,a0,a5
    a7e4:	00f75533          	srl	a0,a4,a5
    a7e8:	8082                	ret

0000a7ea <__floatsidf>:
    a7ea:	1141                	addi	sp,sp,-16
    a7ec:	c606                	sw	ra,12(sp)
    a7ee:	c422                	sw	s0,8(sp)
    a7f0:	c226                	sw	s1,4(sp)
    a7f2:	cd0d                	beqz	a0,a82c <__floatsidf+0x42>
    a7f4:	41f55793          	srai	a5,a0,0x1f
    a7f8:	00a7c4b3          	xor	s1,a5,a0
    a7fc:	8c9d                	sub	s1,s1,a5
    a7fe:	842a                	mv	s0,a0
    a800:	8526                	mv	a0,s1
    a802:	eeefa0ef          	jal	ra,4ef0 <__clzsi2>
    a806:	41e00693          	li	a3,1054
    a80a:	8e89                	sub	a3,a3,a0
    a80c:	47a9                	li	a5,10
    a80e:	807d                	srli	s0,s0,0x1f
    a810:	7ff6f693          	andi	a3,a3,2047
    a814:	02a7cd63          	blt	a5,a0,a84e <__floatsidf+0x64>
    a818:	472d                	li	a4,11
    a81a:	8f09                	sub	a4,a4,a0
    a81c:	00e4d7b3          	srl	a5,s1,a4
    a820:	0555                	addi	a0,a0,21
    a822:	07b2                	slli	a5,a5,0xc
    a824:	00a494b3          	sll	s1,s1,a0
    a828:	83b1                	srli	a5,a5,0xc
    a82a:	a029                	j	a834 <__floatsidf+0x4a>
    a82c:	4401                	li	s0,0
    a82e:	4681                	li	a3,0
    a830:	4781                	li	a5,0
    a832:	4481                	li	s1,0
    a834:	07b2                	slli	a5,a5,0xc
    a836:	06d2                	slli	a3,a3,0x14
    a838:	83b1                	srli	a5,a5,0xc
    a83a:	047e                	slli	s0,s0,0x1f
    a83c:	8fd5                	or	a5,a5,a3
    a83e:	8fc1                	or	a5,a5,s0
    a840:	40b2                	lw	ra,12(sp)
    a842:	4422                	lw	s0,8(sp)
    a844:	8526                	mv	a0,s1
    a846:	85be                	mv	a1,a5
    a848:	4492                	lw	s1,4(sp)
    a84a:	0141                	addi	sp,sp,16
    a84c:	8082                	ret
    a84e:	1555                	addi	a0,a0,-11
    a850:	00a497b3          	sll	a5,s1,a0
    a854:	07b2                	slli	a5,a5,0xc
    a856:	83b1                	srli	a5,a5,0xc
    a858:	4481                	li	s1,0
    a85a:	bfe9                	j	a834 <__floatsidf+0x4a>

0000a85c <__floatunsidf>:
    a85c:	cd1d                	beqz	a0,a89a <__floatunsidf+0x3e>
    a85e:	1141                	addi	sp,sp,-16
    a860:	c422                	sw	s0,8(sp)
    a862:	c606                	sw	ra,12(sp)
    a864:	842a                	mv	s0,a0
    a866:	e8afa0ef          	jal	ra,4ef0 <__clzsi2>
    a86a:	41e00693          	li	a3,1054
    a86e:	8e89                	sub	a3,a3,a0
    a870:	47a9                	li	a5,10
    a872:	7ff6f693          	andi	a3,a3,2047
    a876:	02a7dc63          	bge	a5,a0,a8ae <__floatunsidf+0x52>
    a87a:	1555                	addi	a0,a0,-11
    a87c:	00a417b3          	sll	a5,s0,a0
    a880:	07b2                	slli	a5,a5,0xc
    a882:	83b1                	srli	a5,a5,0xc
    a884:	4701                	li	a4,0
    a886:	40b2                	lw	ra,12(sp)
    a888:	4422                	lw	s0,8(sp)
    a88a:	07b2                	slli	a5,a5,0xc
    a88c:	06d2                	slli	a3,a3,0x14
    a88e:	83b1                	srli	a5,a5,0xc
    a890:	8fd5                	or	a5,a5,a3
    a892:	853a                	mv	a0,a4
    a894:	85be                	mv	a1,a5
    a896:	0141                	addi	sp,sp,16
    a898:	8082                	ret
    a89a:	4781                	li	a5,0
    a89c:	4681                	li	a3,0
    a89e:	07b2                	slli	a5,a5,0xc
    a8a0:	06d2                	slli	a3,a3,0x14
    a8a2:	83b1                	srli	a5,a5,0xc
    a8a4:	4701                	li	a4,0
    a8a6:	8fd5                	or	a5,a5,a3
    a8a8:	853a                	mv	a0,a4
    a8aa:	85be                	mv	a1,a5
    a8ac:	8082                	ret
    a8ae:	472d                	li	a4,11
    a8b0:	8f09                	sub	a4,a4,a0
    a8b2:	00e457b3          	srl	a5,s0,a4
    a8b6:	07b2                	slli	a5,a5,0xc
    a8b8:	01550713          	addi	a4,a0,21 # 80000015 <_eusrstack+0x5fff0015>
    a8bc:	00e41733          	sll	a4,s0,a4
    a8c0:	83b1                	srli	a5,a5,0xc
    a8c2:	b7d1                	j	a886 <__floatunsidf+0x2a>

0000a8c4 <_close>:
    a8c4:	05800793          	li	a5,88
    a8c8:	1fffa717          	auipc	a4,0x1fffa
    a8cc:	14f72823          	sw	a5,336(a4) # 20004a18 <errno>
    a8d0:	557d                	li	a0,-1
    a8d2:	8082                	ret

0000a8d4 <_fstat>:
    a8d4:	05800793          	li	a5,88
    a8d8:	1fffa717          	auipc	a4,0x1fffa
    a8dc:	14f72023          	sw	a5,320(a4) # 20004a18 <errno>
    a8e0:	557d                	li	a0,-1
    a8e2:	8082                	ret

0000a8e4 <_isatty>:
    a8e4:	05800793          	li	a5,88
    a8e8:	1fffa717          	auipc	a4,0x1fffa
    a8ec:	12f72823          	sw	a5,304(a4) # 20004a18 <errno>
    a8f0:	4501                	li	a0,0
    a8f2:	8082                	ret

0000a8f4 <_lseek>:
    a8f4:	05800793          	li	a5,88
    a8f8:	1fffa717          	auipc	a4,0x1fffa
    a8fc:	12f72023          	sw	a5,288(a4) # 20004a18 <errno>
    a900:	557d                	li	a0,-1
    a902:	8082                	ret

0000a904 <_read>:
    a904:	05800793          	li	a5,88
    a908:	1fffa717          	auipc	a4,0x1fffa
    a90c:	10f72823          	sw	a5,272(a4) # 20004a18 <errno>
    a910:	557d                	li	a0,-1
    a912:	8082                	ret
    a914:	b3dc                	sb	a5,5(a5)
    a916:	0000                	unimp
    a918:	b3f0                	sb	a2,7(a5)
    a91a:	0000                	unimp
    a91c:	b400                	sb	s0,9(s0)
    a91e:	0000                	unimp
    a920:	b414                	sb	a3,9(s0)
    a922:	0000                	unimp
    a924:	b420                	sb	s0,11(s0)
    a926:	0000                	unimp
    a928:	b42c                	sb	a1,11(s0)
    a92a:	0000                	unimp
    a92c:	b430                	sb	a2,11(s0)
    a92e:	0000                	unimp
    a930:	b440                	sb	s0,13(s0)
    a932:	0000                	unimp
    a934:	b450                	sb	a2,13(s0)
    a936:	0000                	unimp
    a938:	b458                	sb	a4,13(s0)
    a93a:	0000                	unimp
    a93c:	b46c                	sb	a1,15(s0)
    a93e:	0000                	unimp
    a940:	b47c                	sb	a5,15(s0)
    a942:	0000                	unimp
    a944:	b484                	sb	s1,9(s1)
    a946:	0000                	unimp
    a948:	b490                	sb	a2,9(s1)
    a94a:	0000                	unimp
    a94c:	b49c                	sb	a5,9(s1)
    a94e:	0000                	unimp
    a950:	b4b0                	sb	a2,11(s1)
    a952:	0000                	unimp
    a954:	b4b8                	sb	a4,11(s1)
    a956:	0000                	unimp
    a958:	b4c8                	sb	a0,13(s1)
    a95a:	0000                	unimp
    a95c:	b4d8                	sb	a4,13(s1)
    a95e:	0000                	unimp
    a960:	b4f0                	sb	a2,15(s1)
    a962:	0000                	unimp
    a964:	616d                	addi	sp,sp,240
    a966:	6e69                	lui	t3,0x1a
    a968:	0000                	unimp
    a96a:	0000                	unimp
    a96c:	6f54                	flw	fa3,28(a4)
    a96e:	6920                	flw	fs0,80(a0)
    a970:	696e                	flw	fs2,216(sp)
    a972:	6974                	flw	fa3,84(a0)
    a974:	6c61                	lui	s8,0x18
    a976:	7a69                	lui	s4,0xffffa
    a978:	2065                	jal	aa20 <__lowest_bit_bitmap+0x74>
    a97a:	6564                	flw	fs1,76(a0)
    a97c:	6976                	flw	fs2,92(sp)
    a97e:	253a6563          	bltu	s4,s3,abc8 <__fsym_list_mem_desc+0x1c>
    a982:	61662073          	csrs	0x616,a2
    a986:	6c69                	lui	s8,0x1a
    a988:	6465                	lui	s0,0x19
    a98a:	202e                	lhu	a1,2(s0)
    a98c:	6854                	flw	fa3,20(s0)
    a98e:	2065                	jal	aa36 <__lowest_bit_bitmap+0x8a>
    a990:	7265                	lui	tp,0xffff9
    a992:	6f72                	flw	ft10,28(sp)
    a994:	2072                	lhu	a2,6(s0)
    a996:	65646f63          	bltu	s0,s6,aff4 <__fsym_list_mem_name+0x428>
    a99a:	6920                	flw	fs0,80(a0)
    a99c:	64252073          	csrs	0x642,a0
    a9a0:	000a                	c.slli	zero,0x2
    a9a2:	0000                	unimp
    a9a4:	6974                	flw	fa3,84(a0)
    a9a6:	6c64                	flw	fs1,92(s0)
    a9a8:	0065                	c.nop	25
	...

0000a9ac <__lowest_bit_bitmap>:
    a9ac:	0000 0001 0002 0001 0003 0001 0002 0001     ................
    a9bc:	0004 0001 0002 0001 0003 0001 0002 0001     ................
    a9cc:	0005 0001 0002 0001 0003 0001 0002 0001     ................
    a9dc:	0004 0001 0002 0001 0003 0001 0002 0001     ................
    a9ec:	0006 0001 0002 0001 0003 0001 0002 0001     ................
    a9fc:	0004 0001 0002 0001 0003 0001 0002 0001     ................
    aa0c:	0005 0001 0002 0001 0003 0001 0002 0001     ................
    aa1c:	0004 0001 0002 0001 0003 0001 0002 0001     ................
    aa2c:	0007 0001 0002 0001 0003 0001 0002 0001     ................
    aa3c:	0004 0001 0002 0001 0003 0001 0002 0001     ................
    aa4c:	0005 0001 0002 0001 0003 0001 0002 0001     ................
    aa5c:	0004 0001 0002 0001 0003 0001 0002 0001     ................
    aa6c:	0006 0001 0002 0001 0003 0001 0002 0001     ................
    aa7c:	0004 0001 0002 0001 0003 0001 0002 0001     ................
    aa8c:	0005 0001 0002 0001 0003 0001 0002 0001     ................
    aa9c:	0004 0001 0002 0001 0003 0001 0002 0001     ................

0000aaac <large_digits.2583>:
    aaac:	3130 3332 3534 3736 3938 4241 4443 4645     0123456789ABCDEF
    aabc:	0000 0000 200a 205c 207c 0a2f 0000 0000     ..... \ | /.....
    aacc:	202d 5452 2d20 2020 2020 5420 7268 6165     - RT -     Threa
    aadc:	2064 704f 7265 7461 6e69 2067 7953 7473     d Operating Syst
    aaec:	6d65 000a 754a 206e 3920 3220 3230 0035     em..Jun  9 2025.
    aafc:	2f20 7c20 5c20 2020 2020 2520 2e64 6425      / | \     %d.%d
    ab0c:	252e 2064 7562 6c69 2064 7325 000a 0000     .%d build %s....
    ab1c:	3220 3030 2036 202d 3032 3931 4320 706f      2006 - 2019 Cop
    ab2c:	7279 6769 7468 6220 2079 7472 742d 7268     yright by rt-thr
    ab3c:	6165 2064 6574 6d61 000a 0000 4e28 4c55     ead team....(NUL
    ab4c:	294c 0000                                   L)..

0000ab50 <small_digits.2582>:
    ab50:	3130 3332 3534 3736 3938 6261 6463 6665     0123456789abcdef
    ab60:	0000 0000 6f74 6174 206c 656d 6f6d 7972     ....total memory
    ab70:	203a 6425 000a 0000 7375 6465 6d20 6d65     : %d....used mem
    ab80:	726f 2079 203a 6425 000a 0000 616d 6978     ory : %d....maxi
    ab90:	756d 206d 6c61 6f6c 6163 6574 2064 656d     mum allocated me
    aba0:	6f6d 7972 203a 6425 000a 0000               mory: %d....

0000abac <__fsym_list_mem_desc>:
    abac:	696c 7473 6d20 6d65 726f 2079 7375 6761     list memory usag
    abbc:	2065 6e69 6f66 6d72 7461 6f69 006e 0000     e information...

0000abcc <__fsym_list_mem_name>:
    abcc:	696c 7473 6d5f 6d65 0000 0000 6f74 6620     list_mem....to f
    abdc:	6572 2065 2061 6162 2064 6164 6174 6220     ree a bad data b
    abec:	6f6c 6b63 0a3a 0000 656d 3a6d 3020 2578     lock:...mem: 0x%
    abfc:	3830 2c78 7520 6573 2064 6c66 6761 203a     08x, used flag: 
    ac0c:	6425 202c 616d 6967 2063 6f63 6564 203a     %d, magic code: 
    ac1c:	7830 3025 7834 000a 6568 7061 0000 0000     0x%04x..heap....
    ac2c:	656d 206d 6e69 7469 202c 7265 6f72 2072     mem init, error 
    ac3c:	6562 6967 206e 6461 7264 7365 2073 7830     begin address 0x
    ac4c:	7825 202c 6e61 2064 6e65 2064 6461 7264     %x, and end addr
    ac5c:	7365 2073 7830 7825 000a 0000 5b1b 4a32     ess 0x%x.....[2J
    ac6c:	5b1b 0048 2d2d 7546 636e 6974 6e6f 4c20     .[H.--Function L
    ac7c:	7369 3a74 000a 0000 5f5f 0000 2d25 3631     ist:....__..%-16
    ac8c:	2073 2d2d 2520 0a73 0000 0000 6564 6976     s -- %s.....devi
    ac9c:	6563 0000 2d25 2e2a 2073 2020 2020 2020     ce..%-*.s       
    acac:	2020 7974 6570 2020 2020 2020 2020 7220       type         r
    acbc:	6665 6320 756f 746e 000a 0000 2d20 2d2d     ef count.... ---
    accc:	2d2d 2d2d 2d2d 2d2d 2d2d 2d2d 2d2d 2d2d     ----------------
    acdc:	202d 2d2d 2d2d 2d2d 2d2d 2d2d 000a 0000     - ----------....
    acec:	2d25 2e2a 732a 2520 322d 7330 2520 382d     %-*.*s %-20s %-8
    acfc:	0a64 0000 7665 6e65 0074 0000 2d25 2e2a     d...event...%-*.
    ad0c:	2073 2020 2020 7320 7465 2020 2020 7573     s      set    su
    ad1c:	7073 6e65 2064 6874 6572 6461 000a 0000     spend thread....
    ad2c:	2020 2d2d 2d2d 2d2d 2d2d 2d2d 2d20 2d2d       ---------- ---
    ad3c:	2d2d 2d2d 2d2d 2d2d 2d2d 0a2d 0000 0000     -----------.....
    ad4c:	2d25 2e2a 732a 2020 7830 3025 7838 2520     %-*.*s  0x%08x %
    ad5c:	3330 3a64 0000 0000 2d25 2e2a 732a 2020     03d:....%-*.*s  
    ad6c:	7830 3025 7838 3020 000a 0000 616d 6c69     0x%08x 0....mail
    ad7c:	6f62 0078 2d25 2e2a 2073 6e65 7274 2079     box.%-*.s entry 
    ad8c:	6973 657a 7320 7375 6570 646e 7420 7268     size suspend thr
    ad9c:	6165 0a64 0000 0000 2d20 2d2d 202d 2d20     ead..... ----  -
    adac:	2d2d 202d 2d2d 2d2d 2d2d 2d2d 2d2d 2d2d     --- ------------
    adbc:	2d2d 000a 2d25 2e2a 732a 2520 3430 2064     --..%-*.*s %04d 
    adcc:	2520 3430 2064 6425 003a 0000 2d25 2e2a      %04d %d:...%-*.
    addc:	732a 2520 3430 2064 2520 3430 2064 6425     *s %04d  %04d %d
    adec:	000a 0000 736d 7167 6575 6575 0000 0000     ....msgqueue....
    adfc:	2d25 2e2a 2073 6e65 7274 2079 7573 7073     %-*.s entry susp
    ae0c:	6e65 2064 6874 6572 6461 000a 2d20 2d2d     end thread.. ---
    ae1c:	202d 2d20 2d2d 2d2d 2d2d 2d2d 2d2d 2d2d     -  -------------
    ae2c:	0a2d 0000 2d25 2e2a 732a 2520 3430 2064     -...%-*.*s %04d 
    ae3c:	2520 3a64 0000 0000 2d25 2e2a 732a 2520      %d:....%-*.*s %
    ae4c:	3430 2064 2520 0a64 0000 0000 756d 6574     04d  %d.....mute
    ae5c:	0078 0000 2d25 2e2a 2073 2020 776f 656e     x...%-*.s   owne
    ae6c:	2072 6820 6c6f 2064 7573 7073 6e65 2064     r  hold suspend 
    ae7c:	6874 6572 6461 000a 2d20 2d2d 2d2d 2d2d     thread.. -------
    ae8c:	202d 2d2d 2d2d 2d20 2d2d 2d2d 2d2d 2d2d     - ---- ---------
    ae9c:	2d2d 2d2d 0a2d 0000 2d25 2e2a 732a 2520     -----...%-*.*s %
    aeac:	382d 2a2e 2073 3025 6434 2520 0a64 0000     -8.*s %04d %d...
    aebc:	6573 616d 6870 726f 0065 0000 2d25 2e2a     semaphore...%-*.
    aecc:	2073 2076 2020 7573 7073 6e65 2064 6874     s v   suspend th
    aedc:	6572 6461 000a 0000 2d20 2d2d 2d20 2d2d     read.... --- ---
    aeec:	2d2d 2d2d 2d2d 2d2d 2d2d 0a2d 0000 0000     -----------.....
    aefc:	2d25 2e2a 732a 2520 3330 2064 6425 003a     %-*.*s %03d %d:.
    af0c:	2d25 2e2a 732a 2520 3330 2064 6425 000a     %-*.*s %03d %d..
    af1c:	6874 6572 6461 0000 2d25 2e2a 2073 7270     thread..%-*.s pr
    af2c:	2069 7320 6174 7574 2073 2020 2020 7320     i  status      s
    af3c:	2070 2020 2020 7473 6361 206b 6973 657a     p     stack size
    af4c:	6d20 7861 7520 6573 2064 656c 7466 7420      max used left t
    af5c:	6369 206b 6520 7272 726f 000a 2d20 2d2d     ick  error.. ---
    af6c:	2020 2d2d 2d2d 2d2d 202d 2d2d 2d2d 2d2d       ------- ------
    af7c:	2d2d 2d2d 2d20 2d2d 2d2d 2d2d 2d2d 202d     ---- ---------- 
    af8c:	2d20 2d2d 2d2d 202d 2d20 2d2d 2d2d 2d2d      ------  -------
    af9c:	2d2d 202d 2d2d 0a2d 0000 0000 2d25 2e2a     --- ---.....%-*.
    afac:	732a 2520 6433 0020 7220 6165 7964 2020     *s %3d . ready  
    afbc:	0000 0000 7320 7375 6570 646e 0000 0000     .... suspend....
    afcc:	6920 696e 2074 2020 0000 0000 6320 6f6c      init   .... clo
    afdc:	6573 2020 0000 0000 3020 2578 3830 2078     se  .... 0x%08x 
    afec:	7830 3025 7838 2020 2020 3025 6432 2525     0x%08x    %02d%%
    affc:	2020 3020 2578 3830 2078 3025 6433 000a        0x%08x %03d..
    b00c:	6974 656d 0072 0000 2d25 2e2a 2073 7020     timer...%-*.s  p
    b01c:	7265 6f69 6964 2063 2020 6974 656d 756f     eriodic   timeou
    b02c:	2074 2020 2020 2020 6c66 6761 000a 0000     t       flag....
    b03c:	2d20 2d2d 2d2d 2d2d 2d2d 202d 2d2d 2d2d      ---------- ----
    b04c:	2d2d 2d2d 2d2d 2d20 2d2d 2d2d 2d2d 2d2d     ------ ---------
    b05c:	2d2d 000a 2d25 2e2a 732a 3020 2578 3830     --..%-*.*s 0x%08
    b06c:	2078 7830 3025 7838 0020 0000 6361 6974     x 0x%08x ...acti
    b07c:	6176 6574 0a64 0000 6564 6361 6974 6176     vated...deactiva
    b08c:	6574 0a64 0000 0000 7563 7272 6e65 2074     ted.....current 
    b09c:	6974 6b63 303a 2578 3830 0a78 0000 0000     tick:0x%08x.....

0000b0ac <__fsym_list_desc>:
    b0ac:	696c 7473 6120 6c6c 7320 6d79 6f62 206c     list all symbol 
    b0bc:	6e69 7320 7379 6574 006d 0000               in system...

0000b0c8 <__fsym_list_name>:
    b0c8:	696c 7473 0000 0000                         list....

0000b0d0 <__fsym___cmd_list_device_desc>:
    b0d0:	696c 7473 6420 7665 6369 2065 6e69 7320     list device in s
    b0e0:	7379 6574 006d 0000                         ystem...

0000b0e8 <__fsym___cmd_list_device_name>:
    b0e8:	5f5f 6d63 5f64 696c 7473 645f 7665 6369     __cmd_list_devic
    b0f8:	0065 0000                                   e...

0000b0fc <__fsym_list_device_desc>:
    b0fc:	696c 7473 6420 7665 6369 2065 6e69 7320     list device in s
    b10c:	7379 6574 006d 0000                         ystem...

0000b114 <__fsym_list_device_name>:
    b114:	696c 7473 645f 7665 6369 0065               list_device.

0000b120 <__fsym___cmd_list_timer_desc>:
    b120:	696c 7473 7420 6d69 7265 6920 206e 7973     list timer in sy
    b130:	7473 6d65 0000 0000                         stem....

0000b138 <__fsym___cmd_list_timer_name>:
    b138:	5f5f 6d63 5f64 696c 7473 745f 6d69 7265     __cmd_list_timer
    b148:	0000 0000                                   ....

0000b14c <__fsym_list_timer_desc>:
    b14c:	696c 7473 7420 6d69 7265 6920 206e 7973     list timer in sy
    b15c:	7473 6d65 0000 0000                         stem....

0000b164 <__fsym_list_timer_name>:
    b164:	696c 7473 745f 6d69 7265 0000               list_timer..

0000b170 <__fsym___cmd_list_msgqueue_desc>:
    b170:	696c 7473 6d20 7365 6173 6567 7120 6575     list message que
    b180:	6575 6920 206e 7973 7473 6d65 0000 0000     ue in system....

0000b190 <__fsym___cmd_list_msgqueue_name>:
    b190:	5f5f 6d63 5f64 696c 7473 6d5f 6773 7571     __cmd_list_msgqu
    b1a0:	7565 0065                                   eue.

0000b1a4 <__fsym_list_msgqueue_desc>:
    b1a4:	696c 7473 6d20 7365 6173 6567 7120 6575     list message que
    b1b4:	6575 6920 206e 7973 7473 6d65 0000 0000     ue in system....

0000b1c4 <__fsym_list_msgqueue_name>:
    b1c4:	696c 7473 6d5f 6773 7571 7565 0065 0000     list_msgqueue...

0000b1d4 <__fsym___cmd_list_mailbox_desc>:
    b1d4:	696c 7473 6d20 6961 206c 6f62 2078 6e69     list mail box in
    b1e4:	7320 7379 6574 006d                          system.

0000b1ec <__fsym___cmd_list_mailbox_name>:
    b1ec:	5f5f 6d63 5f64 696c 7473 6d5f 6961 626c     __cmd_list_mailb
    b1fc:	786f 0000                                   ox..

0000b200 <__fsym_list_mailbox_desc>:
    b200:	696c 7473 6d20 6961 206c 6f62 2078 6e69     list mail box in
    b210:	7320 7379 6574 006d                          system.

0000b218 <__fsym_list_mailbox_name>:
    b218:	696c 7473 6d5f 6961 626c 786f 0000 0000     list_mailbox....

0000b228 <__fsym___cmd_list_mutex_desc>:
    b228:	696c 7473 6d20 7475 7865 6920 206e 7973     list mutex in sy
    b238:	7473 6d65 0000 0000                         stem....

0000b240 <__fsym___cmd_list_mutex_name>:
    b240:	5f5f 6d63 5f64 696c 7473 6d5f 7475 7865     __cmd_list_mutex
    b250:	0000 0000                                   ....

0000b254 <__fsym_list_mutex_desc>:
    b254:	696c 7473 6d20 7475 7865 6920 206e 7973     list mutex in sy
    b264:	7473 6d65 0000 0000                         stem....

0000b26c <__fsym_list_mutex_name>:
    b26c:	696c 7473 6d5f 7475 7865 0000               list_mutex..

0000b278 <__fsym___cmd_list_event_desc>:
    b278:	696c 7473 6520 6576 746e 6920 206e 7973     list event in sy
    b288:	7473 6d65 0000 0000                         stem....

0000b290 <__fsym___cmd_list_event_name>:
    b290:	5f5f 6d63 5f64 696c 7473 655f 6576 746e     __cmd_list_event
    b2a0:	0000 0000                                   ....

0000b2a4 <__fsym_list_event_desc>:
    b2a4:	696c 7473 6520 6576 746e 6920 206e 7973     list event in sy
    b2b4:	7473 6d65 0000 0000                         stem....

0000b2bc <__fsym_list_event_name>:
    b2bc:	696c 7473 655f 6576 746e 0000               list_event..

0000b2c8 <__fsym___cmd_list_sem_desc>:
    b2c8:	696c 7473 7320 6d65 7061 6f68 6572 6920     list semaphore i
    b2d8:	206e 7973 7473 6d65 0000 0000               n system....

0000b2e4 <__fsym___cmd_list_sem_name>:
    b2e4:	5f5f 6d63 5f64 696c 7473 735f 6d65 0000     __cmd_list_sem..

0000b2f4 <__fsym_list_sem_desc>:
    b2f4:	696c 7473 7320 6d65 7061 6f68 656e 6920     list semaphone i
    b304:	206e 7973 7473 6d65 0000 0000               n system....

0000b310 <__fsym_list_sem_name>:
    b310:	696c 7473 735f 6d65 0000 0000               list_sem....

0000b31c <__fsym___cmd_list_thread_desc>:
    b31c:	696c 7473 7420 7268 6165 0064               list thread.

0000b328 <__fsym___cmd_list_thread_name>:
    b328:	5f5f 6d63 5f64 696c 7473 745f 7268 6165     __cmd_list_threa
    b338:	0064 0000                                   d...

0000b33c <__fsym_list_thread_desc>:
    b33c:	696c 7473 7420 7268 6165 0064               list thread.

0000b348 <__fsym_list_thread_name>:
    b348:	696c 7473 745f 7268 6165 0064               list_thread.

0000b354 <__fsym___cmd_clear_desc>:
    b354:	6874 2065 6574 6d72 6e69 6c61 7320 7263     the terminal scr
    b364:	6565 006e                                   een.

0000b368 <__fsym___cmd_clear_name>:
    b368:	5f5f 6d63 5f64 6c63 6165 0072               __cmd_clear.

0000b374 <__fsym_clear_desc>:
    b374:	6874 2065 6574 6d72 6e69 6c61 7320 7263     the terminal scr
    b384:	6565 006e                                   een.

0000b388 <__fsym_clear_name>:
    b388:	6c63 6165 0072 0000                         clear...

0000b390 <__fsym___cmd_reboot_desc>:
    b390:	6572 6f62 746f 7420 6568 6220 616f 6472     reboot the board
    b3a0:	0000 0000                                   ....

0000b3a4 <__fsym___cmd_reboot_name>:
    b3a4:	5f5f 6d63 5f64 6572 6f62 746f 0000 0000     __cmd_reboot....

0000b3b4 <__fsym_reboot_desc>:
    b3b4:	6572 6f62 746f 7420 6568 6220 616f 6472     reboot the board
    b3c4:	0000 0000                                   ....

0000b3c8 <__fsym_reboot_name>:
    b3c8:	6572 6f62 746f 0000 002d 0000 7325 0000     reboot..-...%s..
    b3d8:	002f 0000 6843 7261 6361 6574 2072 6544     /...Character De
    b3e8:	6976 6563 0000 0000 6c42 636f 206b 6544     vice....Block De
    b3f8:	6976 6563 0000 0000 654e 7774 726f 206b     vice....Network 
    b408:	6e49 6574 6672 6361 0065 0000 544d 2044     Interface...MTD 
    b418:	6544 6976 6563 0000 4143 204e 6544 6976     Device..CAN Devi
    b428:	6563 0000 5452 0043 6f53 6e75 2064 6544     ce..RTC.Sound De
    b438:	6976 6563 0000 0000 7247 7061 6968 2063     vice....Graphic 
    b448:	6544 6976 6563 0000 3249 2043 7542 0073     Device..I2C Bus.
    b458:	5355 2042 6c53 7661 2065 6544 6976 6563     USB Slave Device
    b468:	0000 0000 5355 2042 6f48 7473 4220 7375     ....USB Host Bus
    b478:	0000 0000 5053 2049 7542 0073 5053 2049     ....SPI Bus.SPI 
    b488:	6544 6976 6563 0000 4453 4f49 4220 7375     Device..SDIO Bus
    b498:	0000 0000 4d50 5020 6573 6475 206f 6544     ....PM Pseudo De
    b4a8:	6976 6563 0000 0000 6950 6570 0000 0000     vice....Pipe....
    b4b8:	6f50 7472 6c61 4420 7665 6369 0065 0000     Portal Device...
    b4c8:	6954 656d 2072 6544 6976 6563 0000 0000     Timer Device....
    b4d8:	694d 6373 6c65 616c 656e 756f 2073 6544     Miscellaneous De
    b4e8:	6976 6563 0000 0000 6e55 6e6b 776f 006e     vice....Unknown.
    b4f8:	6f54 206f 616d 796e 6120 6772 2073 2021     Too many args ! 
    b508:	6557 6f20 6c6e 2079 7355 3a65 000a 0000     We only Use:....
    b518:	7325 0020 7325 203a 6f63 6d6d 6e61 2064     %s .%s: command 
    b528:	6f6e 2074 6f66 6e75 2e64 000a 5452 542d     not found...RT-T
    b538:	7268 6165 2064 6873 6c65 206c 6f63 6d6d     hread shell comm
    b548:	6e61 7364 0a3a 0000 5f5f 6d63 5f64 0000     ands:...__cmd_..
    b558:	2d25 3631 2073 202d 7325 000a               %-16s - %s..

0000b564 <__fsym___cmd_help_desc>:
    b564:	5452 542d 7268 6165 2064 6873 6c65 206c     RT-Thread shell 
    b574:	6568 706c 0000 0000                         help....

0000b57c <__fsym___cmd_help_name>:
    b57c:	5f5f 6d63 5f64 6568 706c 0000               __cmd_help..

0000b588 <__fsym___cmd_free_desc>:
    b588:	6853 776f 7420 6568 6d20 6d65 726f 2079     Show the memory 
    b598:	7375 6761 2065 6e69 7420 6568 7320 7379     usage in the sys
    b5a8:	6574 006d                                   tem.

0000b5ac <__fsym___cmd_free_name>:
    b5ac:	5f5f 6d63 5f64 7266 6565 0000               __cmd_free..

0000b5b8 <__fsym___cmd_ps_desc>:
    b5b8:	694c 7473 7420 7268 6165 7364 6920 206e     List threads in 
    b5c8:	6874 2065 7973 7473 6d65 0000               the system..

0000b5d4 <__fsym___cmd_ps_name>:
    b5d4:	5f5f 6d63 5f64 7370 0000 0000 736d 2068     __cmd_ps....msh 
    b5e4:	0000 0000 6966 736e 2068 0000 003e 0000     ....finsh ..>...
    b5f4:	6966 736e 3a68 6320 6e61 6e20 746f 6620     finsh: can not f
    b604:	6e69 2064 6564 6976 6563 203a 7325 000a     ind device: %s..
    b614:	6f6e 6d20 6d65 726f 2079 6f66 2072 6873     no memory for sh
    b624:	6c65 0a6c 0000 0000 7374 6568 6c6c 0000     ell.....tshell..
    b634:	6873 7872 0000 0000 0008 0000 6325 0000     shrx........%c..
    b644:	2508 2073 0820 0000 2008 0008 5b1b 4b32     .%s  .... ...[2K
    b654:	000d 0000 7325 7325 0000 0000               ....%s%s....

0000b660 <__fsym_pinRead_desc>:
    b660:	6572 6461 7320 6174 7574 2073 7266 6d6f     read status from
    b670:	6820 7261 7764 7261 2065 6970 006e 0000      hardware pin...

0000b680 <__fsym_pinRead_name>:
    b680:	6970 526e 6165 0064                         pinRead.

0000b688 <__fsym_pinWrite_desc>:
    b688:	7277 7469 2065 6176 756c 2065 6f74 6820     write value to h
    b698:	7261 7764 7261 2065 6970 006e               ardware pin.

0000b6a4 <__fsym_pinWrite_name>:
    b6a4:	6970 576e 6972 6574 0000 0000               pinWrite....

0000b6b0 <__fsym_pinMode_desc>:
    b6b0:	6573 2074 6168 6472 6177 6572 7020 6e69     set hardware pin
    b6c0:	6d20 646f 0065 0000                          mode...

0000b6c8 <__fsym_pinMode_name>:
    b6c8:	6970 4d6e 646f 0065 6175 7472 0031 0000     pinMode.uart1...

0000b6d8 <_ch32_pin_ops>:
    b6d8:	31c6 0000 3186 0000 31a8 0000 3244 0000     .1...1...1..D2..
    b6e8:	32d6 0000 3330 0000                         .2..03..

0000b6f0 <pin_irq_map>:
    b6f0:	0001 0000 0016 0000 0002 0000 0017 0000     ................
    b700:	0004 0000 0018 0000 0008 0000 0019 0000     ................
    b710:	0010 0000 001a 0000 0020 0000 0027 0000     ........ ...'...
    b720:	0040 0000 0027 0000 0080 0000 0027 0000     @...'.......'...
    b730:	0100 0000 0027 0000 0200 0000 0027 0000     ....'.......'...
    b740:	0400 0000 0038 0000 0800 0000 0038 0000     ....8.......8...
    b750:	1000 0000 0038 0000 2000 0000 0038 0000     ....8.... ..8...
    b760:	4000 0000 0038 0000 8000 0000 0038 0000     .@..8.......8...

0000b770 <pins>:
    b770:	ffff ffff 0000 0000 0000 0000 0000 0000     ................
    b780:	0001 0000 3138 0000 1800 4001 0004 0000     ....81.....@....
    b790:	0002 0000 3138 0000 1800 4001 0008 0000     ....81.....@....
    b7a0:	0003 0000 3138 0000 1800 4001 0010 0000     ....81.....@....
    b7b0:	0004 0000 3138 0000 1800 4001 0020 0000     ....81.....@ ...
    b7c0:	0005 0000 3138 0000 1800 4001 0040 0000     ....81.....@@...
    b7d0:	ffff ffff 0000 0000 0000 0000 0000 0000     ................
    b7e0:	0007 0000 3128 0000 1000 4001 2000 0000     ....(1.....@. ..
    b7f0:	0008 0000 3128 0000 1000 4001 4000 0000     ....(1.....@.@..
    b800:	0009 0000 3128 0000 1000 4001 8000 0000     ....(1.....@....
    b810:	ffff ffff 0000 0000 0000 0000 0000 0000     ................
    b820:	ffff ffff 0000 0000 0000 0000 0000 0000     ................
    b830:	ffff ffff 0000 0000 0000 0000 0000 0000     ................
    b840:	ffff ffff 0000 0000 0000 0000 0000 0000     ................
    b850:	ffff ffff 0000 0000 0000 0000 0000 0000     ................
    b860:	000f 0000 3128 0000 1000 4001 0001 0000     ....(1.....@....
    b870:	0010 0000 3128 0000 1000 4001 0002 0000     ....(1.....@....
    b880:	0011 0000 3128 0000 1000 4001 0004 0000     ....(1.....@....
    b890:	0012 0000 3128 0000 1000 4001 0008 0000     ....(1.....@....
    b8a0:	ffff ffff 0000 0000 0000 0000 0000 0000     ................
    b8b0:	ffff ffff 0000 0000 0000 0000 0000 0000     ................
    b8c0:	ffff ffff 0000 0000 0000 0000 0000 0000     ................
    b8d0:	ffff ffff 0000 0000 0000 0000 0000 0000     ................
    b8e0:	0017 0000 3118 0000 0800 4001 0001 0000     .....1.....@....
    b8f0:	0018 0000 3118 0000 0800 4001 0002 0000     .....1.....@....
    b900:	0019 0000 3118 0000 0800 4001 0004 0000     .....1.....@....
    b910:	001a 0000 3118 0000 0800 4001 0008 0000     .....1.....@....
    b920:	ffff ffff 0000 0000 0000 0000 0000 0000     ................
    b930:	ffff ffff 0000 0000 0000 0000 0000 0000     ................
    b940:	001d 0000 3118 0000 0800 4001 0010 0000     .....1.....@....
    b950:	001e 0000 3118 0000 0800 4001 0020 0000     .....1.....@ ...
    b960:	001f 0000 3118 0000 0800 4001 0040 0000     .....1.....@@...
    b970:	0020 0000 3118 0000 0800 4001 0080 0000      ....1.....@....
    b980:	0021 0000 3128 0000 1000 4001 0010 0000     !...(1.....@....
    b990:	0022 0000 3128 0000 1000 4001 0020 0000     "...(1.....@ ...
    b9a0:	0023 0000 3108 0000 0c00 4001 0001 0000     #....1.....@....
    b9b0:	0024 0000 3108 0000 0c00 4001 0002 0000     $....1.....@....
    b9c0:	0025 0000 3108 0000 0c00 4001 0004 0000     %....1.....@....
    b9d0:	0026 0000 3138 0000 1800 4001 0080 0000     &...81.....@....
    b9e0:	0027 0000 3138 0000 1800 4001 0100 0000     '...81.....@....
    b9f0:	0028 0000 3138 0000 1800 4001 0200 0000     (...81.....@....
    ba00:	0029 0000 3138 0000 1800 4001 0400 0000     )...81.....@....
    ba10:	002a 0000 3138 0000 1800 4001 0800 0000     *...81.....@....
    ba20:	002b 0000 3138 0000 1800 4001 1000 0000     +...81.....@....
    ba30:	002c 0000 3138 0000 1800 4001 2000 0000     ,...81.....@. ..
    ba40:	002d 0000 3138 0000 1800 4001 4000 0000     -...81.....@.@..
    ba50:	002e 0000 3138 0000 1800 4001 8000 0000     ....81.....@....
    ba60:	002f 0000 3108 0000 0c00 4001 0400 0000     /....1.....@....
    ba70:	0030 0000 3108 0000 0c00 4001 0800 0000     0....1.....@....
    ba80:	ffff ffff 0000 0000 0000 0000 0000 0000     ................
    ba90:	ffff ffff 0000 0000 0000 0000 0000 0000     ................
    baa0:	0033 0000 3108 0000 0c00 4001 1000 0000     3....1.....@....
    bab0:	0034 0000 3108 0000 0c00 4001 2000 0000     4....1.....@. ..
    bac0:	0035 0000 3108 0000 0c00 4001 4000 0000     5....1.....@.@..
    bad0:	0036 0000 3108 0000 0c00 4001 8000 0000     6....1.....@....
    bae0:	0037 0000 30f6 0000 1400 4001 0100 0000     7....0.....@....
    baf0:	0038 0000 30f6 0000 1400 4001 0200 0000     8....0.....@....
    bb00:	0039 0000 30f6 0000 1400 4001 0400 0000     9....0.....@....
    bb10:	003a 0000 30f6 0000 1400 4001 0800 0000     :....0.....@....
    bb20:	003b 0000 30f6 0000 1400 4001 1000 0000     ;....0.....@....
    bb30:	003c 0000 30f6 0000 1400 4001 2000 0000     <....0.....@. ..
    bb40:	003d 0000 30f6 0000 1400 4001 4000 0000     =....0.....@.@..
    bb50:	003e 0000 30f6 0000 1400 4001 8000 0000     >....0.....@....
    bb60:	003f 0000 3128 0000 1000 4001 0040 0000     ?...(1.....@@...
    bb70:	0040 0000 3128 0000 1000 4001 0080 0000     @...(1.....@....
    bb80:	0041 0000 3128 0000 1000 4001 0100 0000     A...(1.....@....
    bb90:	0042 0000 3128 0000 1000 4001 0200 0000     B...(1.....@....
    bba0:	0043 0000 3118 0000 0800 4001 0100 0000     C....1.....@....
    bbb0:	0044 0000 3118 0000 0800 4001 0200 0000     D....1.....@....
    bbc0:	0045 0000 3118 0000 0800 4001 0400 0000     E....1.....@....
    bbd0:	0046 0000 3118 0000 0800 4001 0800 0000     F....1.....@....
    bbe0:	0047 0000 3118 0000 0800 4001 1000 0000     G....1.....@....
    bbf0:	0048 0000 3118 0000 0800 4001 2000 0000     H....1.....@. ..
    bc00:	ffff ffff 0000 0000 0000 0000 0000 0000     ................
    bc10:	ffff ffff 0000 0000 0000 0000 0000 0000     ................
    bc20:	ffff ffff 0000 0000 0000 0000 0000 0000     ................
    bc30:	004c 0000 3118 0000 0800 4001 4000 0000     L....1.....@.@..
    bc40:	004d 0000 3118 0000 0800 4001 8000 0000     M....1.....@....
    bc50:	004e 0000 3128 0000 1000 4001 0400 0000     N...(1.....@....
    bc60:	004f 0000 3128 0000 1000 4001 0800 0000     O...(1.....@....
    bc70:	0050 0000 3128 0000 1000 4001 1000 0000     P...(1.....@....
    bc80:	0051 0000 30f6 0000 1400 4001 0001 0000     Q....0.....@....
    bc90:	0052 0000 30f6 0000 1400 4001 0002 0000     R....0.....@....
    bca0:	0053 0000 30f6 0000 1400 4001 0004 0000     S....0.....@....
    bcb0:	0054 0000 30f6 0000 1400 4001 0008 0000     T....0.....@....
    bcc0:	0055 0000 30f6 0000 1400 4001 0010 0000     U....0.....@....
    bcd0:	0056 0000 30f6 0000 1400 4001 0020 0000     V....0.....@ ...
    bce0:	0057 0000 30f6 0000 1400 4001 0040 0000     W....0.....@@...
    bcf0:	0058 0000 30f6 0000 1400 4001 0080 0000     X....0.....@....
    bd00:	0059 0000 3108 0000 0c00 4001 0008 0000     Y....1.....@....
    bd10:	005a 0000 3108 0000 0c00 4001 0010 0000     Z....1.....@....
    bd20:	005b 0000 3108 0000 0c00 4001 0020 0000     [....1.....@ ...
    bd30:	005c 0000 3108 0000 0c00 4001 0040 0000     \....1.....@@...
    bd40:	005d 0000 3108 0000 0c00 4001 0080 0000     ]....1.....@....
    bd50:	ffff ffff 0000 0000 0000 0000 0000 0000     ................
    bd60:	005f 0000 3108 0000 0c00 4001 0100 0000     _....1.....@....
    bd70:	0060 0000 3108 0000 0c00 4001 0200 0000     `....1.....@....
    bd80:	0061 0000 3138 0000 1800 4001 0001 0000     a...81.....@....
    bd90:	0062 0000 3138 0000 1800 4001 0002 0000     b...81.....@....
    bda0:	ffff ffff 0000 0000 0000 0000 0000 0000     ................
    bdb0:	ffff ffff 0000 0000 0000 0000 0000 0000     ................
    bdc0:	6970 006e                                   pin.

0000bdc4 <ch32_uart_ops>:
    bdc4:	38a8 0000 3a18 0000 39f6 0000 39d4 0000     .8...:...9...9..
    bdd4:	370c 0000 6175 7472 0032 0000 6553 646e     .7..uart2...Send
    bde4:	203a 7325 0000 0000                         : %s....

0000bdec <__fsym___cmd_set_round_cmd_desc>:
    bdec:	e8c9 c3d6 e6b6 fabb fdd0 aad7 a6c8 fdca     ................
    bdfc:	0000 0000                                   ....

0000be00 <__fsym___cmd_set_round_cmd_name>:
    be00:	5f5f 6d63 5f64 6573 5f74 6f72 6e75 5f64     __cmd_set_round_
    be10:	6d63 0064                                   cmd.

0000be14 <__fsym___cmd_servo_speed_cmd_desc>:
    be14:	e8c9 c3d6 e6b6 fabb d9cb c8b6 2d20 3031     ............ -10
    be24:	7e30 3031 0030 0000                         0~100...

0000be2c <__fsym___cmd_servo_speed_cmd_name>:
    be2c:	5f5f 6d63 5f64 6573 7672 5f6f 7073 6565     __cmd_servo_spee
    be3c:	5f64 6d63 0064 0000 c3d3 a8b7 203a 6573     d_cmd.......: se
    be4c:	7672 5f6f 7073 6565 2064 d9cb c8b6 2d28     rvo_speed ....(-
    be5c:	3031 7e30 3031 2930 000a 0000 d9cb c8b6     100~100)........
    be6c:	b6b7 a7ce 312d 3030 317e 3030 000a 0000     ....-100~100....
    be7c:	e8c9 c3d6 e6b6 fabb d9cb c8b6 203a 6425     ............: %d
    be8c:	000a 0000 e8c9 c3d6 e6b6 fabb fdd0 aad7     ................
    be9c:	a6c8 fdca 203a 6425 000a 0000               ....: %d....

0000bea8 <__fsym___cmd_wifi_power_cmd_desc>:
    bea8:	d8bf c6d6 6957 6946 a3c4 e9bf e7b5 b4d4     ....WiFi........
    beb8:	aabf d8b9 0000 0000                         ........

0000bec0 <__fsym___cmd_wifi_power_cmd_name>:
    bec0:	5f5f 6d63 5f64 6977 6966 705f 776f 7265     __cmd_wifi_power
    bed0:	635f 646d 0000 0000 6957 6946 5520 5241     _cmd....WiFi UAR
    bee0:	2054 4f4e 2054 4f46 4e55 2144 000a 0000     T NOT FOUND!....
    bef0:	6977 6966 6573 006d 6977 6966 6572 7663     wifisem.wifirecv
    bf00:	0000 0000 c3d3 a8b7 203a 6977 6966 705f     ........: wifi_p
    bf10:	776f 7265 6f20 2f6e 666f 0a66 0000 0000     ower on/off.....
    bf20:	6e6f 0000 666f 0066 ceb2 fdca edb4 f3ce     on..off.........
    bf30:	203a ebc7 e4ca ebc8 6f20 206e f2bb 6f20     : ...... on .. o
    bf40:	6666 000a 4e4f 0000 464f 0046 6957 6946     ff..ON..OFF.WiFi
    bf50:	a3c4 e9bf e7b5 b4d4 203a 7325 000a 0000     ........: %s....
    bf60:	0000 42c8 d5ca bdb5 add4 bcca fdca ddbe     ...B............
    bf70:	203a 7325 000a 0000 6922 746e 7265 6176     : %s...."interva
    bf80:	226c 003a 3325 5b31 2c5e 5d7d 0000 0000     l":.%31[^,}]....
    bf90:	6122 6f6d 6e75 2274 003a 0000 6222 696c     "amount":..."bli
    bfa0:	6b6e 3a22 0000 0000 7422 6d69 2265 003a     nk":...."time":.
    bfb0:	3325 5b31 225e 005d d5ca bdb5 e8c9 c3d6     %31[^"].........
    bfc0:	f7b5 fbd5 203a 6e69 6574 7672 6c61 253d     ....: interval=%
    bfd0:	2e64 6425 202c 6d61 756f 746e 253d 2e64     d.%d, amount=%d.
    bfe0:	6425 202c 6c62 6e69 3d6b 6425 000a 0000     %d, blink=%d....
    bff0:	d5ca bdb5 b1ca e4bc a3d0 bcd7 203a 6974     ............: ti
    c000:	656d 253d 0a73 0000 d5ca bdb5 b4ce aad6     me=%s...........
    c010:	534a 4e4f 203a 7325 000a 0000 6820 7261     JSON: %s.... har
    c020:	6664 6c75 0d74 000a 4e20 494d 4820 6e61     dfult... NMI Han
    c030:	6c64 7265 0a0d 0000 4844 3154 2031 b4ce     dler....DHT11 ..
    c040:	eccf a6d3 a8a3 fdd2 c5bd bcca d5d6 aace     ................
    c050:	dfb8 a9a3 000a 0000 4844 3154 2031 adc0     ........DHT11 ..
    c060:	dfb8 eccf a6d3 4f20 0a4b 0000 4844 3154     ...... OK...DHT1
    c070:	2031 bcd7 b8b1 a2b7 cdcb fdca ddbe 000a     1 ..............
    c080:	656c 5f64 5053 253a 3830 0d78 000a 0000     led_SP:%08x.....
    c090:	656c 2064 6e6f 202c 6f63 6e75 2074 203a     led on, count : 
    c0a0:	6425 0a0d 0000 0000 656c 2064 666f 0d66     %d......led off.
    c0b0:	000a 0000 0a0d 4d20 5543 203a 4843 3233     ...... MCU: CH32
    c0c0:	3356 3730 0a0d 0000 5320 7379 6c43 3a6b     V307.... SysClk:
    c0d0:	2520 4864 0d7a 000a 4320 6968 4970 3a44      %dHz... ChipID:
    c0e0:	2520 3830 0d78 000a 7720 7777 772e 6863      %08x... www.wch
    c0f0:	632e 0d6e 000a 0000 f7d6 add1 b7bb cbd4     .cn.............
    c100:	d0d0 d0d6 2e2e 0a2e 0000 0000               ............

0000c10c <__fsym___cmd_send_at_cmd_desc>:
    c10c:	a2b7 cdcb 4120 2054 b8d6 eec1 bdb5 5720     .... AT ...... W
    c11c:	4669 2069 a3c4 e9bf 0000 0000               iFi ........

0000c128 <__fsym___cmd_send_at_cmd_name>:
    c128:	5f5f 6d63 5f64 6573 646e 615f 5f74 6d63     __cmd_send_at_cm
    c138:	0064 0000                                   d...

0000c13c <__fsym___cmd_read_dht11_sample_desc>:
    c13c:	6572 6461 4420 5448 3131 7320 6e65 6f73     read DHT11 senso
    c14c:	0072 0000                                   r...

0000c150 <__fsym___cmd_read_dht11_sample_name>:
    c150:	5f5f 6d63 5f64 6572 6461 645f 7468 3131     __cmd_read_dht11
    c160:	735f 6d61 6c70 0065                         _sample.

0000c168 <__fsym___cmd_led_desc>:
    c168:	656c 2064 6173 706d 656c 6220 2079 7375     led sample by us
    c178:	6e69 2067 2f49 204f 7264 7669 7265 0073     ing I/O drivers.

0000c188 <__fsym___cmd_led_name>:
    c188:	5f5f 6d63 5f64 656c 0064 0000 6554 706d     __cmd_led...Temp
    c198:	203a 6425 a120 43e3 202c 7548 696d 203a     : %d ..C, Humi: 
    c1a8:	6425 2520 0a25 0000 4844 3154 2031 6572     %d %%...DHT11 re
    c1b8:	6461 6620 6961 656c 0a64 0000 8a50 ffff     ad failed...P...
    c1c8:	89a2 ffff 89a2 ffff 89a0 ffff 89a6 ffff     ................
    c1d8:	89a6 ffff 8976 ffff 89a0 ffff 89a6 ffff     ....v...........
    c1e8:	8976 ffff 89a6 ffff 89a0 ffff 8a3e ffff     v...........>...
    c1f8:	8a3e ffff 8a3e ffff 8976 ffff               >...>...v...

0000c204 <__clz_tab>:
    c204:	0100 0202 0303 0303 0404 0404 0404 0404     ................
    c214:	0505 0505 0505 0505 0505 0505 0505 0505     ................
    c224:	0606 0606 0606 0606 0606 0606 0606 0606     ................
    c234:	0606 0606 0606 0606 0606 0606 0606 0606     ................
    c244:	0707 0707 0707 0707 0707 0707 0707 0707     ................
    c254:	0707 0707 0707 0707 0707 0707 0707 0707     ................
    c264:	0707 0707 0707 0707 0707 0707 0707 0707     ................
    c274:	0707 0707 0707 0707 0707 0707 0707 0707     ................
    c284:	0808 0808 0808 0808 0808 0808 0808 0808     ................
    c294:	0808 0808 0808 0808 0808 0808 0808 0808     ................
    c2a4:	0808 0808 0808 0808 0808 0808 0808 0808     ................
    c2b4:	0808 0808 0808 0808 0808 0808 0808 0808     ................
    c2c4:	0808 0808 0808 0808 0808 0808 0808 0808     ................
    c2d4:	0808 0808 0808 0808 0808 0808 0808 0808     ................
    c2e4:	0808 0808 0808 0808 0808 0808 0808 0808     ................
    c2f4:	0808 0808 0808 0808 0808 0808 0808 0808     ................
    c304:	90ea ffff 90d6 ffff 9108 ffff 910e ffff     ................
    c314:	90ea ffff 0000 0000 0000 3fe0 0000 0000     ...........?....
    c324:	0000 3ff0 0000 0000 0000 4000 0000 ffc0     ...?.......@....
    c334:	ffff 41df 3595 94a0 ffff 3fdf e535 35af     ...A.5.....?5..5
    c344:	0000 3fe0 3595 94a0 ffff 3fcf 666e 0000     ...?.5.....?nf..
    c354:	6e69 7469 0079 0000 6e61 0000               inity...an..

0000c360 <fpi.3395>:
    c360:	0035 0000 fbce ffff 03cb 0000 0001 0000     5...............
    c370:	0000 0000                                   ....

0000c374 <fpinan.3431>:
    c374:	0034 0000 fbce ffff 03cb 0000 0001 0000     4...............
    c384:	0000 0000                                   ....

0000c388 <tinytens>:
    c388:	89bc 97d8 d2b2 3c9c a733 d5a8 f623 3949     .......<3...#.I9
    c398:	a73d 44f4 0ffd 32a5 979d cf8c ba08 255b     =..D...2......[%
    c3a8:	6f43 64ac 0628 1168                         Co.d(.h.

0000c3b0 <__sf_fake_stderr>:
	...

0000c3d0 <__sf_fake_stdin>:
	...

0000c3f0 <__sf_fake_stdout>:
	...
    c410:	0043 0000 4f50 4953 0058 0000 002e 0000     C...POSIX.......

0000c420 <__mprec_bigtens>:
    c420:	8000 37e0 c379 4341 6e17 b505 b8b5 4693     ...7y.AC.n.....F
    c430:	f9f5 e93f 4f03 4d38 1d32 f930 7748 5a82     ..?..O8M2.0.Hw.Z
    c440:	bf3c 7f73 4fdd 7515                         <.s..O.u

0000c448 <__mprec_tens>:
    c448:	0000 0000 0000 3ff0 0000 0000 0000 4024     .......?......$@
    c458:	0000 0000 0000 4059 0000 0000 4000 408f     ......Y@.....@.@
    c468:	0000 0000 8800 40c3 0000 0000 6a00 40f8     .......@.....j.@
    c478:	0000 0000 8480 412e 0000 0000 12d0 4163     .......A......cA
    c488:	0000 0000 d784 4197 0000 0000 cd65 41cd     .......A....e..A
    c498:	0000 2000 a05f 4202 0000 e800 4876 4237     ... _..B....vH7B
    c4a8:	0000 a200 1a94 426d 0000 e540 309c 42a2     ......mB..@..0.B
    c4b8:	0000 1e90 bcc4 42d6 0000 2634 6bf5 430c     .......B..4&.k.C
    c4c8:	8000 37e0 c379 4341 a000 85d8 3457 4376     ...7y.AC....W4vC
    c4d8:	c800 674e c16d 43ab 3d00 6091 58e4 43e1     ..Ngm..C.=.`.X.C
    c4e8:	8c40 78b5 af1d 4415 ef50 d6e2 1ae4 444b     @..x...DP.....KD
    c4f8:	d592 064d f0cf 4480 4af6 c7e1 2d02 44b5     ..M....D.J...-.D
    c508:	9db4 79d9 7843 44ea                         ...yCx.D

0000c510 <p05.3319>:
    c510:	0005 0000 0019 0000 007d 0000 6c68 004c     ........}...hlL.
    c520:	2d23 2b30 0020 0000 6665 4567 4746 0000     #-0+ ...efgEFG..
    c530:	3130 3332 3534 3736 3938 4241 4443 4645     0123456789ABCDEF
    c540:	0000 0000 3130 3332 3534 3736 3938 6261     ....0123456789ab
    c550:	6463 6665 0000 0000 2d41 6146 662d 3938     cdef....A-Fa-f89
    c560:	3130 3332 3534 3736 005d 0000 2d2b 0000     01234567]...+-..
    c570:	3030 0000 5878 0000                         00..xX..

0000c578 <_ctype_>:
    c578:	2000 2020 2020 2020 2020 2828 2828 2028     .         ((((( 
    c588:	2020 2020 2020 2020 2020 2020 2020 2020                     
    c598:	8820 1010 1010 1010 1010 1010 1010 1010      ...............
    c5a8:	0410 0404 0404 0404 0404 1004 1010 1010     ................
    c5b8:	1010 4141 4141 4141 0101 0101 0101 0101     ..AAAAAA........
    c5c8:	0101 0101 0101 0101 0101 0101 1010 1010     ................
    c5d8:	1010 4242 4242 4242 0202 0202 0202 0202     ..BBBBBB........
    c5e8:	0202 0202 0202 0202 0202 0202 1010 1010     ................
    c5f8:	0020 0000 0000 0000 0000 0000 0000 0000      ...............
	...
    c67c:	cf74 ffff cdf8 ffff cf08 ffff cf10 ffff     t...............
    c68c:	cf08 ffff ce28 ffff cf08 ffff cf10 ffff     ....(...........
    c69c:	cdf8 ffff cdf8 ffff ce28 ffff cf10 ffff     ........(.......
    c6ac:	cf6a ffff cf6a ffff cf6a ffff ce28 ffff     j...j...j...(...
    c6bc:	d684 ffff d576 ffff d576 ffff d574 ffff     ....v...v...t...
    c6cc:	d57c ffff d57c ffff d542 ffff d574 ffff     |...|...B...t...
    c6dc:	d57c ffff d542 ffff d57c ffff d574 ffff     |...B...|...t...
    c6ec:	d670 ffff d670 ffff d670 ffff d542 ffff     p...p...p...B...

0000c6fc <__fsym_list_mem>:
    c6fc:	abcc 0000 abac 0000 122a 0000               ........*...

0000c708 <__fsym_list>:
    c708:	b0c8 0000 b0ac 0000 231c 0000               .........#..

0000c714 <__fsym___cmd_list_device>:
    c714:	b0e8 0000 b0d0 0000 21ee 0000               .........!..

0000c720 <__fsym_list_device>:
    c720:	b114 0000 b0fc 0000 21ee 0000               .........!..

0000c72c <__fsym___cmd_list_timer>:
    c72c:	b138 0000 b120 0000 2282 0000               8... ...."..

0000c738 <__fsym_list_timer>:
    c738:	b164 0000 b14c 0000 2282 0000               d...L...."..

0000c744 <__fsym___cmd_list_msgqueue>:
    c744:	b190 0000 b170 0000 2138 0000               ....p...8!..

0000c750 <__fsym_list_msgqueue>:
    c750:	b1c4 0000 b1a4 0000 2138 0000               ........8!..

0000c75c <__fsym___cmd_list_mailbox>:
    c75c:	b1ec 0000 b1d4 0000 207a 0000               ........z ..

0000c768 <__fsym_list_mailbox>:
    c768:	b218 0000 b200 0000 207a 0000               ........z ..

0000c774 <__fsym___cmd_list_mutex>:
    c774:	b240 0000 b228 0000 1ff8 0000               @...(.......

0000c780 <__fsym_list_mutex>:
    c780:	b26c 0000 b254 0000 1ff8 0000               l...T.......

0000c78c <__fsym___cmd_list_event>:
    c78c:	b290 0000 b278 0000 1f4c 0000               ....x...L...

0000c798 <__fsym_list_event>:
    c798:	b2bc 0000 b2a4 0000 1f4c 0000               ........L...

0000c7a4 <__fsym___cmd_list_sem>:
    c7a4:	b2e4 0000 b2c8 0000 1e96 0000               ............

0000c7b0 <__fsym_list_sem>:
    c7b0:	b310 0000 b2f4 0000 1e96 0000               ............

0000c7bc <__fsym___cmd_list_thread>:
    c7bc:	b328 0000 b31c 0000 1db4 0000               (...........

0000c7c8 <__fsym_list_thread>:
    c7c8:	b348 0000 b33c 0000 1db4 0000               H...<.......

0000c7d4 <__fsym___cmd_clear>:
    c7d4:	b368 0000 b354 0000 1d0a 0000               h...T.......

0000c7e0 <__fsym_clear>:
    c7e0:	b388 0000 b374 0000 1d0a 0000               ....t.......

0000c7ec <__fsym___cmd_reboot>:
    c7ec:	b3a4 0000 b390 0000 1cf8 0000               ............

0000c7f8 <__fsym_reboot>:
    c7f8:	b3c8 0000 b3b4 0000 1cf8 0000               ............

0000c804 <__fsym___cmd_help>:
    c804:	b57c 0000 b564 0000 2366 0000               |...d...f#..

0000c810 <__fsym___cmd_free>:
    c810:	b5ac 0000 b588 0000 261c 0000               .........&..

0000c81c <__fsym___cmd_ps>:
    c81c:	b5d4 0000 b5b8 0000 260e 0000               .........&..

0000c828 <__fsym_pinRead>:
    c828:	b680 0000 b660 0000 2f6e 0000               ....`...n/..

0000c834 <__fsym_pinWrite>:
    c834:	b6a4 0000 b688 0000 2f54 0000               ........T/..

0000c840 <__fsym_pinMode>:
    c840:	b6c8 0000 b6b0 0000 2f3a 0000               ........:/..

0000c84c <__fsym___cmd_set_round_cmd>:
    c84c:	be00 0000 bdec 0000 3aec 0000               .........:..

0000c858 <__fsym___cmd_servo_speed_cmd>:
    c858:	be2c 0000 be14 0000 3b18 0000               ,........;..

0000c864 <__fsym___cmd_wifi_power_cmd>:
    c864:	bec0 0000 bea8 0000 3e60 0000               ........`>..

0000c870 <__fsym___cmd_send_at_cmd>:
    c870:	c128 0000 c10c 0000 3ab8 0000               (........:..

0000c87c <__fsym___cmd_read_dht11_sample>:
    c87c:	c150 0000 c13c 0000 402c 0000               P...<...,@..

0000c888 <__fsym___cmd_led>:
    c888:	c188 0000 c168 0000 4064 0000               ....h...d@..

0000c894 <__rt_init_rti_start>:
    c894:	05ea 0000                                   ....

0000c898 <__rt_init_rti_board_start>:
    c898:	05f2 0000                                   ....

0000c89c <__rt_init_rt_hw_pin_init>:
    c89c:	314a 0000                                   J1..

0000c8a0 <__rt_init_rt_hw_usart_init>:
    c8a0:	373a 0000                                   :7..

0000c8a4 <__rt_init_rti_board_end>:
    c8a4:	05f6 0000                                   ....

0000c8a8 <__rt_init_finsh_system_init>:
    c8a8:	263c 0000                                   <&..

0000c8ac <__rt_init_rti_end>:
    c8ac:	05ee 0000                                   ....
